_ZN23MapObjectProfileUnkTMDE10GetProfileEv kind:function(arm,size=0xc) addr:0x021419e0
_ZN23MapObjectProfileUnkTMDE6CreateEv kind:function(arm,size=0x24) addr:0x021419ec
_ZN23MapObjectProfileUnkTMDEC1Ev kind:function(arm,size=0x38) addr:0x02141a10
_ZN16MapObjectUnkTMDEC1Ev kind:function(arm,size=0xc4) addr:0x02141a48
_ZN16MapObjectUnkTMDE19func_ov029_02141b0cEv kind:function(arm,size=0x14) addr:0x02141b0c
_ZN16MapObjectUnkTMDE19func_ov029_02141b20Ev kind:function(arm,size=0x1ec) addr:0x02141b20
_ZN16MapObjectUnkTMDE19func_ov029_02141d0cEv kind:function(arm,size=0xe8) addr:0x02141d0c
_ZN16MapObjectUnkTMDE19func_ov029_02141df4Ev kind:function(arm,size=0x8) addr:0x02141df4
_ZN16MapObjectUnkTMDE19func_ov029_02141dfcEv kind:function(arm,size=0x8) addr:0x02141dfc
_ZN16MapObjectUnkTMDE19func_ov029_02141e04Ev kind:function(arm,size=0x4) addr:0x02141e04
_ZN16MapObjectUnkTMDE19func_ov029_02141e08Ev kind:function(arm,size=0x4) addr:0x02141e08
_ZN16MapObjectUnkTMDE19func_ov029_02141e0cEv kind:function(arm,size=0x74) addr:0x02141e0c
_ZN16MapObjectUnkTMDE19func_ov029_02141e80Ev kind:function(arm,size=0x20) addr:0x02141e80
_ZN16MapObjectUnkTMDE19func_ov029_02141ea0Ev kind:function(arm,size=0x20) addr:0x02141ea0
_ZN16MapObjectUnkTMDE19func_ov029_02141ec0Ev kind:function(arm,size=0x20) addr:0x02141ec0
_ZN16MapObjectUnkTMDED0Ev kind:function(arm,size=0x1c) addr:0x02141ee0
_ZN16MapObjectUnkTMDED1Ev kind:function(arm,size=0x28) addr:0x02141efc
_ZN16MapObjectUnkTMDE19func_ov029_02141f24Ev kind:function(arm,size=0x30) addr:0x02141f24
_ZN16MapObjectUnkTMDE19func_ov029_02141f54Ev kind:function(arm,size=0x28) addr:0x02141f54
_ZN16MapObjectUnkTMDED2Ev kind:function(arm,size=0x20) addr:0x02141f7c
_ZN23MapObjectProfileUnkTMDED1Ev kind:function(arm,size=0x14) addr:0x02141f9c
_ZN23MapObjectProfileUnkTMWT10GetProfileEv kind:function(arm,size=0xc) addr:0x02141fb0
_ZN23MapObjectProfileUnkTMWT6CreateEv kind:function(arm,size=0x24) addr:0x02141fbc
_ZN23MapObjectProfileUnkTMWTC1Ev kind:function(arm,size=0x40) addr:0x02141fe0
_ZN16MapObjectUnkTMWTC1Ev kind:function(arm,size=0xa0) addr:0x02142020
_ZN16MapObjectUnkTMWT19func_ov029_021420c0Ev kind:function(arm,size=0xe8) addr:0x021420c0
_ZN16MapObjectUnkTMWT19func_ov029_021421a8Ev kind:function(arm,size=0x20) addr:0x021421a8
_ZN16MapObjectUnkTMWT19func_ov029_021421c8Ev kind:function(arm,size=0x20) addr:0x021421c8
_ZN16MapObjectUnkTMWT19func_ov029_021421e8Ev kind:function(arm,size=0x20) addr:0x021421e8
_ZN16MapObjectUnkTMWTD1Ev kind:function(arm,size=0x20) addr:0x02142208
_ZN16MapObjectUnkTMWTD0Ev kind:function(arm,size=0x28) addr:0x02142228
_ZN23MapObjectProfileUnkTMWTD1Ev kind:function(arm,size=0x14) addr:0x02142250
_ZN23MapObjectProfileUnkTRWA10GetProfileEv kind:function(arm,size=0xc) addr:0x02142264
_ZN23MapObjectProfileUnkTRWA6CreateEv kind:function(arm,size=0x24) addr:0x02142270
_ZN23MapObjectProfileUnkTRWAC1Ev kind:function(arm,size=0x5c) addr:0x02142294
_ZN16MapObjectUnkTRWAC1Ev kind:function(arm,size=0xa0) addr:0x021422f0
_ZN16MapObjectUnkTRWA19func_ov029_02142390Ev kind:function(arm,size=0xec) addr:0x02142390
_ZN16MapObjectUnkTRWA19func_ov029_0214247cEv kind:function(arm,size=0x20) addr:0x0214247c
_ZN16MapObjectUnkTRWA19func_ov029_0214249cEv kind:function(arm,size=0x20) addr:0x0214249c
_ZN16MapObjectUnkTRWA19func_ov029_021424bcEv kind:function(arm,size=0x20) addr:0x021424bc
_ZN16MapObjectUnkTRWA19func_ov029_021424dcEv kind:function(arm,size=0x8) addr:0x021424dc
_ZN16MapObjectUnkTRWAD1Ev kind:function(arm,size=0x20) addr:0x021424e4
_ZN16MapObjectUnkTRWAD0Ev kind:function(arm,size=0x28) addr:0x02142504
_ZN23MapObjectProfileUnkTRWAD1Ev kind:function(arm,size=0x14) addr:0x0214252c
_ZN23MapObjectProfileUnkTRRW10GetProfileEv kind:function(arm,size=0xc) addr:0x02142540
_ZN23MapObjectProfileUnkTRRW6CreateEv kind:function(arm,size=0x24) addr:0x0214254c
_ZN23MapObjectProfileUnkTRRWC1Ev kind:function(arm,size=0x38) addr:0x02142570
_ZN16MapObjectUnkTRRWC1Ev kind:function(arm,size=0xa0) addr:0x021425a8
_ZN16MapObjectUnkTRRW19func_ov029_02142648Ev kind:function(arm,size=0xec) addr:0x02142648
_ZN16MapObjectUnkTRRW19func_ov029_02142734Ev kind:function(arm,size=0x20) addr:0x02142734
_ZN16MapObjectUnkTRRW19func_ov029_02142754Ev kind:function(arm,size=0x20) addr:0x02142754
_ZN16MapObjectUnkTRRW19func_ov029_02142774Ev kind:function(arm,size=0x20) addr:0x02142774
_ZN16MapObjectUnkTRRW19func_ov029_02142794Ev kind:function(arm,size=0x8) addr:0x02142794
_ZN16MapObjectUnkTRRWD1Ev kind:function(arm,size=0x20) addr:0x0214279c
_ZN16MapObjectUnkTRRWD0Ev kind:function(arm,size=0x28) addr:0x021427bc
_ZN23MapObjectProfileUnkTRRWD1Ev kind:function(arm,size=0x14) addr:0x021427e4
_ZN23MapObjectProfileUnkTRSA10GetProfileEv kind:function(arm,size=0xc) addr:0x021427f8
_ZN23MapObjectProfileUnkTRSA6CreateEv kind:function(arm,size=0x24) addr:0x02142804
_ZN23MapObjectProfileUnkTRSAC1Ev kind:function(arm,size=0x5c) addr:0x02142828
_ZN16MapObjectUnkTRSAC1Ev kind:function(arm,size=0x90) addr:0x02142884
_ZN16MapObjectUnkTRSA19func_ov029_02142914Ev kind:function(arm,size=0x23c) addr:0x02142914
_ZN16MapObjectUnkTRSA19func_ov029_02142b50Ev kind:function(arm,size=0xe8) addr:0x02142b50
_ZN16MapObjectUnkTRSA19func_ov029_02142c38Ev kind:function(arm,size=0x8) addr:0x02142c38
_ZN16MapObjectUnkTRSA19func_ov029_02142c40Ev kind:function(arm,size=0x8) addr:0x02142c40
_ZN16MapObjectUnkTRSA19func_ov029_02142c48Ev kind:function(arm,size=0x4) addr:0x02142c48
_ZN16MapObjectUnkTRSA19func_ov029_02142c4cEv kind:function(arm,size=0x174) addr:0x02142c4c
_ZN16MapObjectUnkTRSA19func_ov029_02142dc0Ev kind:function(arm,size=0x198) addr:0x02142dc0
_ZN16MapObjectUnkTRSA19func_ov029_02142f58Ev kind:function(arm,size=0x4c) addr:0x02142f58
_ZN16MapObjectUnkTRSA19func_ov029_02142fa4Ev kind:function(arm,size=0x8c) addr:0x02142fa4
_ZN16MapObjectUnkTRSA19func_ov029_02143030Ev kind:function(arm,size=0x58) addr:0x02143030
_ZN16MapObjectUnkTRSA19func_ov029_02143088Ev kind:function(arm,size=0x48) addr:0x02143088
_ZN16MapObjectUnkTRSA19func_ov029_021430d0Ev kind:function(arm,size=0x20) addr:0x021430d0
_ZN16MapObjectUnkTRSA19func_ov029_021430f0Ev kind:function(arm,size=0x20) addr:0x021430f0
_ZN16MapObjectUnkTRSA19func_ov029_02143110Ev kind:function(arm,size=0x20) addr:0x02143110
_ZN16MapObjectUnkTRSA19func_ov029_02143130Ev kind:function(arm,size=0x8) addr:0x02143130
_ZN16MapObjectUnkTRSAD1Ev kind:function(arm,size=0x40) addr:0x02143138
_ZN16MapObjectUnkTRSAD0Ev kind:function(arm,size=0x48) addr:0x02143178
_ZN16MapObjectUnkTRSA19func_ov029_021431c0Ev kind:function(arm,size=0x40) addr:0x021431c0
_ZN16MapObjectUnkTRSAD2Ev kind:function(arm,size=0x38) addr:0x02143200
_ZN23MapObjectProfileUnkTRSAD1Ev kind:function(arm,size=0x14) addr:0x02143238
_ZN23MapObjectProfileUnkTRRD10GetProfileEv kind:function(arm,size=0xc) addr:0x0214324c
_ZN23MapObjectProfileUnkTRRD6CreateEv kind:function(arm,size=0x24) addr:0x02143258
_ZN23MapObjectProfileUnkTRRDC1Ev kind:function(arm,size=0x38) addr:0x0214327c
_ZN16MapObjectUnkTRRDC1Ev kind:function(arm,size=0xa0) addr:0x021432b4
_ZN16MapObjectUnkTRRD19func_ov029_02143354Ev kind:function(arm,size=0xec) addr:0x02143354
_ZN16MapObjectUnkTRRD19func_ov029_02143440Ev kind:function(arm,size=0x20) addr:0x02143440
_ZN16MapObjectUnkTRRD19func_ov029_02143460Ev kind:function(arm,size=0x20) addr:0x02143460
_ZN16MapObjectUnkTRRD19func_ov029_02143480Ev kind:function(arm,size=0x20) addr:0x02143480
_ZN16MapObjectUnkTRRD19func_ov029_021434a0Ev kind:function(arm,size=0x8) addr:0x021434a0
_ZN16MapObjectUnkTRRDD1Ev kind:function(arm,size=0x20) addr:0x021434a8
_ZN16MapObjectUnkTRRDD0Ev kind:function(arm,size=0x28) addr:0x021434c8
_ZN23MapObjectProfileUnkTRRDD1Ev kind:function(arm,size=0x14) addr:0x021434f0
_ZN23MapObjectProfileUnkTRPI10GetProfileEv kind:function(arm,size=0xc) addr:0x02143504
_ZN23MapObjectProfileUnkTRPI6CreateEv kind:function(arm,size=0x24) addr:0x02143510
_ZN23MapObjectProfileUnkTRPIC1Ev kind:function(arm,size=0x40) addr:0x02143534
_ZN16MapObjectUnkTRPIC1Ev kind:function(arm,size=0xa0) addr:0x02143574
_ZN16MapObjectUnkTRPI19func_ov029_02143614Ev kind:function(arm,size=0xec) addr:0x02143614
_ZN16MapObjectUnkTRPI19func_ov029_02143700Ev kind:function(arm,size=0x20) addr:0x02143700
_ZN16MapObjectUnkTRPI19func_ov029_02143720Ev kind:function(arm,size=0x20) addr:0x02143720
_ZN16MapObjectUnkTRPI19func_ov029_02143740Ev kind:function(arm,size=0x20) addr:0x02143740
_ZN16MapObjectUnkTRPI19func_ov029_02143760Ev kind:function(arm,size=0x8) addr:0x02143760
_ZN16MapObjectUnkTRPID1Ev kind:function(arm,size=0x20) addr:0x02143768
_ZN16MapObjectUnkTRPID0Ev kind:function(arm,size=0x28) addr:0x02143788
_ZN23MapObjectProfileUnkTRPID1Ev kind:function(arm,size=0x14) addr:0x021437b0
_ZN23MapObjectProfileUnkSBDE10GetProfileEv kind:function(arm,size=0xc) addr:0x021437c4
_ZN23MapObjectProfileUnkSBDE6CreateEv kind:function(arm,size=0x24) addr:0x021437d0
_ZN23MapObjectProfileUnkSBDEC1Ev kind:function(arm,size=0x2c) addr:0x021437f4
_ZN16MapObjectUnkSBDEC1Ev kind:function(arm,size=0xac) addr:0x02143820
_ZN16MapObjectUnkSBDE19func_ov029_021438ccEv kind:function(arm,size=0xc4) addr:0x021438cc
_ZN16MapObjectUnkSBDE19func_ov029_02143990Ev kind:function(arm,size=0x464) addr:0x02143990
_ZN16MapObjectUnkSBDE19func_ov029_02143df4Ev kind:function(arm,size=0x14) addr:0x02143df4
_ZN16MapObjectUnkSBDE19func_ov029_02143e08Ev kind:function(arm,size=0x13c) addr:0x02143e08
_ZN16MapObjectUnkSBDE19func_ov029_02143f44Ev kind:function(arm,size=0x98) addr:0x02143f44
_ZN16MapObjectUnkSBDE19func_ov029_02143fdcEv kind:function(arm,size=0x8) addr:0x02143fdc
_ZN16MapObjectUnkSBDED1Ev kind:function(arm,size=0x38) addr:0x02143fe4
_ZN16MapObjectUnkSBDED0Ev kind:function(arm,size=0x40) addr:0x0214401c
_ZN23MapObjectProfileUnkSBDED1Ev kind:function(arm,size=0x14) addr:0x0214405c
_ZN23MapObjectProfileUnkSTDE10GetProfileEv kind:function(arm,size=0xc) addr:0x02144070
_ZN23MapObjectProfileUnkSTDE6CreateEv kind:function(arm,size=0x24) addr:0x0214407c
_ZN23MapObjectProfileUnkSTDEC1Ev kind:function(arm,size=0x48) addr:0x021440a0
_ZN16MapObjectUnkSTDEC1Ev kind:function(arm,size=0xac) addr:0x021440e8
_ZN16MapObjectUnkSTDE19func_ov029_02144194Ev kind:function(arm,size=0x6c) addr:0x02144194
_ZN16MapObjectUnkSTDE19func_ov029_02144200Ev kind:function(arm,size=0x28) addr:0x02144200
_ZN16MapObjectUnkSTDE19func_ov029_02144228Ev kind:function(arm,size=0x1c) addr:0x02144228
_ZN16MapObjectUnkSTDE19func_ov029_02144244Ev kind:function(arm,size=0x44) addr:0x02144244
_ZN16MapObjectUnkSTDE19func_ov029_02144288Ev kind:function(arm,size=0x30) addr:0x02144288
_ZN16MapObjectUnkSTDED1Ev kind:function(arm,size=0x28) addr:0x021442b8
_ZN16MapObjectUnkSTDED0Ev kind:function(arm,size=0x30) addr:0x021442e0
_ZN23MapObjectProfileUnkSTDED1Ev kind:function(arm,size=0x14) addr:0x02144310
_ZN23MapObjectProfileUnkTCBT10GetProfileEv kind:function(arm,size=0xc) addr:0x02144324
_ZN23MapObjectProfileUnkTCBT6CreateEv kind:function(arm,size=0x24) addr:0x02144330
_ZN23MapObjectProfileUnkTCBTC1Ev kind:function(arm,size=0xb8) addr:0x02144354
_ZN16MapObjectUnkTCBT19func_ov029_0214440cEv kind:function(arm,size=0x3c) addr:0x0214440c
_ZN16MapObjectUnkTCBT19func_ov029_02144448Ev kind:function(arm,size=0x38) addr:0x02144448
_ZN16MapObjectUnkTCBT19func_ov029_02144480Ev kind:function(arm,size=0x3c) addr:0x02144480
_ZN16MapObjectUnkTCBT19func_ov029_021444bcEv kind:function(arm,size=0x78) addr:0x021444bc
_ZN16MapObjectUnkTCBTC1Ev kind:function(arm,size=0x108) addr:0x02144534
_ZN16MapObjectUnkTCBT19func_ov029_0214463cEv kind:function(arm,size=0x14) addr:0x0214463c
_ZN16MapObjectUnkTCBT19func_ov029_02144650Ev kind:function(arm,size=0x140) addr:0x02144650
_ZN16MapObjectUnkTCBT19func_ov029_02144790Ev kind:function(arm,size=0x70) addr:0x02144790
_ZN16MapObjectUnkTCBT19func_ov029_02144800Ev kind:function(arm,size=0x4) addr:0x02144800
_ZN16MapObjectUnkTCBT19func_ov029_02144804Ev kind:function(arm,size=0x174) addr:0x02144804
_ZN16MapObjectUnkTCBT19func_ov029_02144978Ev kind:function(arm,size=0x9c) addr:0x02144978
_ZN16MapObjectUnkTCBT19func_ov029_02144a14Ev kind:function(arm,size=0x9c) addr:0x02144a14
_ZN16MapObjectUnkTCBT19func_ov029_02144ab0Ev kind:function(arm,size=0x70) addr:0x02144ab0
_ZN16MapObjectUnkTCBT19func_ov029_02144b20Ev kind:function(arm,size=0x474) addr:0x02144b20
_ZN16MapObjectUnkTCBT19func_ov029_02144f94Ev kind:function(arm,size=0x64) addr:0x02144f94
_ZN16MapObjectUnkTCBT19func_ov029_02144ff8Ev kind:function(arm,size=0xfc) addr:0x02144ff8
_ZN16MapObjectUnkTCBT19func_ov029_021450f4Ev kind:function(arm,size=0x80) addr:0x021450f4
_ZN16MapObjectUnkTCBT19func_ov029_02145174Ev kind:function(arm,size=0x84) addr:0x02145174
_ZN16MapObjectUnkTCBT19func_ov029_021451f8Ev kind:function(arm,size=0xe8) addr:0x021451f8
_ZN16MapObjectUnkTCBTD0Ev kind:function(arm,size=0x1c) addr:0x021452e0
_ZN16MapObjectUnkTCBTD1Ev kind:function(arm,size=0x28) addr:0x021452fc
_ZN16MapObjectUnkTCBT19func_ov029_02145324Ev kind:function(arm,size=0x30) addr:0x02145324
_ZN23MapObjectProfileUnkTCBTD1Ev kind:function(arm,size=0x14) addr:0x02145354
_ZN23MapObjectProfileUnkWHSW10GetProfileEv kind:function(arm,size=0xc) addr:0x02145368
_ZN23MapObjectProfileUnkWHSW6CreateEv kind:function(arm,size=0x24) addr:0x02145374
_ZN23MapObjectProfileUnkWHSWC1Ev kind:function(arm,size=0xa8) addr:0x02145398
_ZN16MapObjectUnkWHSWC1Ev kind:function(arm,size=0xc0) addr:0x02145440
_ZN16MapObjectUnkWHSW19func_ov029_02145500Ev kind:function(arm,size=0xb4) addr:0x02145500
_ZN16MapObjectUnkWHSW19func_ov029_021455b4Ev kind:function(arm,size=0x348) addr:0x021455b4
_ZN16MapObjectUnkWHSW19func_ov029_021458fcEv kind:function(arm,size=0x14) addr:0x021458fc
_ZN16MapObjectUnkWHSW19func_ov029_02145910Ev kind:function(arm,size=0xfc) addr:0x02145910
_ZN16MapObjectUnkWHSW19func_ov029_02145a0cEv kind:function(arm,size=0x70) addr:0x02145a0c
_ZN16MapObjectUnkWHSW19func_ov029_02145a7cEv kind:function(arm,size=0x188) addr:0x02145a7c
_ZN16MapObjectUnkWHSWD1Ev kind:function(arm,size=0x28) addr:0x02145c04
_ZN16MapObjectUnkWHSWD0Ev kind:function(arm,size=0x30) addr:0x02145c2c
_ZN23MapObjectProfileUnkWHSWD1Ev kind:function(arm,size=0x14) addr:0x02145c5c
_ZN23MapObjectProfileUnkTRH110GetProfileEv kind:function(arm,size=0xc) addr:0x02145c70
_ZN23MapObjectProfileUnkTRH16CreateEv kind:function(arm,size=0x24) addr:0x02145c7c
_ZN23MapObjectProfileUnkTRH1C1Ev kind:function(arm,size=0x40) addr:0x02145ca0
_ZN16MapObjectUnkTRH1C1Ev kind:function(arm,size=0x3c) addr:0x02145ce0
_ZN16MapObjectUnkTRH119func_ov029_02145d1cEv kind:function(arm,size=0x150) addr:0x02145d1c
_ZN16MapObjectUnkTRH119func_ov029_02145e6cEv kind:function(arm,size=0xc) addr:0x02145e6c
_ZN16MapObjectUnkTRH119func_ov029_02145e78Ev kind:function(arm,size=0xc) addr:0x02145e78
_ZN16MapObjectUnkTRH119func_ov029_02145e84Ev kind:function(arm,size=0x40) addr:0x02145e84
_ZN16MapObjectUnkTRH119func_ov029_02145ec4Ev kind:function(arm,size=0x20) addr:0x02145ec4
_ZN16MapObjectUnkTRH119func_ov029_02145ee4Ev kind:function(arm,size=0x20) addr:0x02145ee4
_ZN16MapObjectUnkTRH119func_ov029_02145f04Ev kind:function(arm,size=0x8) addr:0x02145f04
_ZN16MapObjectUnkTRH1D1Ev kind:function(arm,size=0x20) addr:0x02145f0c
_ZN16MapObjectUnkTRH1D0Ev kind:function(arm,size=0x28) addr:0x02145f2c
_ZN23MapObjectProfileUnkTRH1D1Ev kind:function(arm,size=0x14) addr:0x02145f54
_ZN23MapObjectProfileUnkTBSS10GetProfileEv kind:function(arm,size=0xc) addr:0x02145f68
_ZN23MapObjectProfileUnkTBSS6CreateEv kind:function(arm,size=0x24) addr:0x02145f74
_ZN23MapObjectProfileUnkTBSSC1Ev kind:function(arm,size=0xac) addr:0x02145f98
_ZN16MapObjectUnkTBSSC1Ev kind:function(arm,size=0x2c) addr:0x02146044
_ZN16MapObjectUnkTBSS19func_ov029_02146070Ev kind:function(arm,size=0x58) addr:0x02146070
_ZN16MapObjectUnkTBSS19func_ov029_021460c8Ev kind:function(arm,size=0xc) addr:0x021460c8
_ZN16MapObjectUnkTBSS19func_ov029_021460d4Ev kind:function(arm,size=0x50) addr:0x021460d4
_ZN16MapObjectUnkTBSS19func_ov029_02146124Ev kind:function(arm,size=0xc) addr:0x02146124
_ZN16MapObjectUnkTBSS19func_ov029_02146130Ev kind:function(arm,size=0x70) addr:0x02146130
_ZN16MapObjectUnkTBSSD1Ev kind:function(arm,size=0x20) addr:0x021461a0
_ZN16MapObjectUnkTBSSD0Ev kind:function(arm,size=0x28) addr:0x021461c0
_ZN23MapObjectProfileUnkTBSSD1Ev kind:function(arm,size=0x14) addr:0x021461e8
_ZN23MapObjectProfileUnkTRBL10GetProfileEv kind:function(arm,size=0xc) addr:0x021461fc
_ZN23MapObjectProfileUnkTRBL6CreateEv kind:function(arm,size=0x24) addr:0x02146208
_ZN23MapObjectProfileUnkTRBLC1Ev kind:function(arm,size=0xb0) addr:0x0214622c
_ZN16MapObjectUnkTRBL19func_ov029_021462dcEv kind:function(arm,size=0xb0) addr:0x021462dc
_ZN16MapObjectUnkTRBLC1Ev kind:function(arm,size=0xb0) addr:0x0214638c
_ZN16MapObjectUnkTRBL19func_ov029_0214643cEv kind:function(arm,size=0x108) addr:0x0214643c
_ZN16MapObjectUnkTRBL19func_ov029_02146544Ev kind:function(arm,size=0x16c) addr:0x02146544
_ZN16MapObjectUnkTRBL19func_ov029_021466b0Ev kind:function(arm,size=0x38) addr:0x021466b0
_ZN16MapObjectUnkTRBL19func_ov029_021466e8Ev kind:function(arm,size=0x70) addr:0x021466e8
_ZN16MapObjectUnkTRBL19func_ov029_02146758Ev kind:function(arm,size=0xc0) addr:0x02146758
_ZN16MapObjectUnkTRBL19func_ov029_02146818Ev kind:function(arm,size=0x80) addr:0x02146818
_ZN16MapObjectUnkTRBLD1Ev kind:function(arm,size=0x20) addr:0x02146898
_ZN16MapObjectUnkTRBLD0Ev kind:function(arm,size=0x28) addr:0x021468b8
_ZN23MapObjectProfileUnkTRBLD1Ev kind:function(arm,size=0x14) addr:0x021468e0
_ZN23MapObjectProfileUnkRBBL10GetProfileEv kind:function(arm,size=0xc) addr:0x021468f4
_ZN23MapObjectProfileUnkRBBL6CreateEv kind:function(arm,size=0x24) addr:0x02146900
_ZN23MapObjectProfileUnkRBBLC1Ev kind:function(arm,size=0xa8) addr:0x02146924
_ZN16MapObjectUnkRBBLC1Ev kind:function(arm,size=0x20) addr:0x021469cc
_ZN16MapObjectUnkRBBL19func_ov029_021469ecEv kind:function(arm,size=0x14) addr:0x021469ec
_ZN16MapObjectUnkRBBL19func_ov029_02146a00Ev kind:function(arm,size=0xa8) addr:0x02146a00
_ZN16MapObjectUnkRBBLD1Ev kind:function(arm,size=0x20) addr:0x02146aa8
_ZN16MapObjectUnkRBBLD0Ev kind:function(arm,size=0x28) addr:0x02146ac8
_ZN23MapObjectProfileUnkRBBLD1Ev kind:function(arm,size=0x14) addr:0x02146af0
_ZN19ActorProfileUnkDLPN10GetProfileEv kind:function(arm,size=0xc) addr:0x02146b04
_ZN19ActorProfileUnkDLPN6CreateEv kind:function(arm,size=0x24) addr:0x02146b10
_ZN19ActorProfileUnkDLPNC1Ev kind:function(arm,size=0x68) addr:0x02146b34
_ZN12ActorUnkDLPNC1Ev kind:function(arm,size=0x228) addr:0x02146b9c
_ZN12ActorUnkDLPN19func_ov029_02146dc4Ev kind:function(arm,size=0x14) addr:0x02146dc4
_ZN12ActorUnkDLPN19func_ov029_02146dd8Ev kind:function(arm,size=0x14) addr:0x02146dd8
_ZN12ActorUnkDLPN19func_ov029_02146decEv kind:function(arm,size=0x184) addr:0x02146dec
_ZN12ActorUnkDLPN19func_ov029_02146f70Ev kind:function(arm,size=0x14) addr:0x02146f70
_ZN12ActorUnkDLPN19func_ov029_02146f84Ev kind:function(arm,size=0xf4) addr:0x02146f84
_ZN12ActorUnkDLPN19func_ov029_02147078Ev kind:function(arm,size=0xbc) addr:0x02147078
_ZN12ActorUnkDLPND0Ev kind:function(arm,size=0xc4) addr:0x02147134
_ZN12ActorUnkDLPN19func_ov029_021471f8Ev kind:function(arm,size=0x74) addr:0x021471f8
_ZN12ActorUnkDLPN19func_ov029_0214726cEv kind:function(arm,size=0x120) addr:0x0214726c
_ZN12ActorUnkDLPN19func_ov029_0214738cEv kind:function(arm,size=0x58) addr:0x0214738c
_ZN12ActorUnkDLPN19func_ov029_021473e4Ev kind:function(arm,size=0x64) addr:0x021473e4
_ZN12ActorUnkDLPN19func_ov029_02147448Ev kind:function(arm,size=0xc) addr:0x02147448
_ZN12ActorUnkDLPN19func_ov029_02147454Ev kind:function(arm,size=0x1c) addr:0x02147454
_ZN12ActorUnkDLPN19func_ov029_02147470Ev kind:function(arm,size=0xe4) addr:0x02147470
_ZN12ActorUnkDLPN19func_ov029_02147554Ev kind:function(arm,size=0x114) addr:0x02147554
_ZN12ActorUnkDLPN19func_ov029_02147668Ev kind:function(arm,size=0xb4) addr:0x02147668
_ZN12ActorUnkDLPN19func_ov029_0214771cEv kind:function(arm,size=0x940) addr:0x0214771c
_ZN12ActorUnkDLPN19func_ov029_0214805cEv kind:function(arm,size=0x144) addr:0x0214805c
_ZN12ActorUnkDLPN19func_ov029_021481a0Ev kind:function(arm,size=0x4fc) addr:0x021481a0
_ZN12ActorUnkDLPN19func_ov029_0214869cEv kind:function(arm,size=0xe4) addr:0x0214869c
_ZN12ActorUnkDLPN19func_ov029_02148780Ev kind:function(arm,size=0x650) addr:0x02148780
_ZN12ActorUnkDLPN19func_ov029_02148dd0Ev kind:function(arm,size=0x100) addr:0x02148dd0
_ZN12ActorUnkDLPN19func_ov029_02148ed0Ev kind:function(arm,size=0x294) addr:0x02148ed0
_ZN12ActorUnkDLPN19func_ov029_02149164Ev kind:function(arm,size=0xd0) addr:0x02149164
_ZN12ActorUnkDLPN19func_ov029_02149234Ev kind:function(arm,size=0x418) addr:0x02149234
_ZN12ActorUnkDLPN19func_ov029_0214964cEv kind:function(arm,size=0x44) addr:0x0214964c
_ZN12ActorUnkDLPN19func_ov029_02149690Ev kind:function(arm,size=0xec) addr:0x02149690
_ZN12ActorUnkDLPN19func_ov029_0214977cEv kind:function(arm,size=0x14) addr:0x0214977c
_ZN12ActorUnkDLPN19func_ov029_02149790Ev kind:function(arm,size=0x170) addr:0x02149790
_ZN12ActorUnkDLPN19func_ov029_02149900Ev kind:function(arm,size=0x108) addr:0x02149900
_ZN12ActorUnkDLPN19func_ov029_02149a08Ev kind:function(arm,size=0x64) addr:0x02149a08
_ZN12ActorUnkDLPN19func_ov029_02149a6cEv kind:function(arm,size=0x130) addr:0x02149a6c
_ZN12ActorUnkDLPN19func_ov029_02149b9cEv kind:function(arm,size=0x60) addr:0x02149b9c
_ZN12ActorUnkDLPN19func_ov029_02149bfcEv kind:function(arm,size=0x38) addr:0x02149bfc
_ZN12ActorUnkDLPN19func_ov029_02149c34Ev kind:function(arm,size=0x18) addr:0x02149c34
_ZN12ActorUnkDLPN19func_ov029_02149c4cEv kind:function(arm,size=0x24) addr:0x02149c4c
_ZN12ActorUnkDLPN19func_ov029_02149c70Ev kind:function(arm,size=0x2c) addr:0x02149c70
_ZN12ActorUnkDLPN19func_ov029_02149c9cEv kind:function(arm,size=0x1c) addr:0x02149c9c
_ZN19ActorProfileUnkDLPND1Ev kind:function(arm,size=0x14) addr:0x02149cb8
_ZN19ActorProfileUnkBLJF10GetProfileEv kind:function(arm,size=0xc) addr:0x02149ccc
_ZN19ActorProfileUnkBLJF6CreateEv kind:function(arm,size=0x24) addr:0x02149cd8
_ZN19ActorProfileUnkBLJFC1Ev kind:function(arm,size=0x70) addr:0x02149cfc
_ZN12ActorUnkBLJF19func_ov029_02149d6cEv kind:function(arm,size=0x64) addr:0x02149d6c
_ZN12ActorUnkBLJF19func_ov029_02149dd0Ev kind:function(arm,size=0x12c) addr:0x02149dd0
_ZN12ActorUnkBLJF19func_ov029_02149efcEv kind:function(arm,size=0x60) addr:0x02149efc
_ZN12ActorUnkBLJF19func_ov029_02149f5cEv kind:function(arm,size=0x38) addr:0x02149f5c
_ZN12ActorUnkBLJF19func_ov029_02149f94Ev kind:function(arm,size=0x18) addr:0x02149f94
_ZN12ActorUnkBLJFC1Ev kind:function(arm,size=0x180) addr:0x02149fac
_ZN12ActorUnkBLJF19func_ov029_0214a12cEv kind:function(arm,size=0x12c) addr:0x0214a12c
_ZN12ActorUnkBLJF19func_ov029_0214a258Ev kind:function(arm,size=0xf0) addr:0x0214a258
_ZN12ActorUnkBLJF19func_ov029_0214a348Ev kind:function(arm,size=0x10) addr:0x0214a348
_ZN12ActorUnkBLJF19func_ov029_0214a358Ev kind:function(arm,size=0x24) addr:0x0214a358
_ZN12ActorUnkBLJF19func_ov029_0214a37cEv kind:function(arm,size=0xb8) addr:0x0214a37c
_ZN12ActorUnkBLJF19func_ov029_0214a434Ev kind:function(arm,size=0x154) addr:0x0214a434
_ZN12ActorUnkBLJF19func_ov029_0214a588Ev kind:function(arm,size=0x14) addr:0x0214a588
_ZN12ActorUnkBLJF19func_ov029_0214a59cEv kind:function(arm,size=0xa8) addr:0x0214a59c
_ZN12ActorUnkBLJF19func_ov029_0214a644Ev kind:function(arm,size=0x174) addr:0x0214a644
_ZN12ActorUnkBLJF19func_ov029_0214a7b8Ev kind:function(arm,size=0x28) addr:0x0214a7b8
_ZN12ActorUnkBLJF19func_ov029_0214a7e0Ev kind:function(arm,size=0x1c0) addr:0x0214a7e0
_ZN12ActorUnkBLJF19func_ov029_0214a9a0Ev kind:function(arm,size=0x14) addr:0x0214a9a0
_ZN12ActorUnkBLJF19func_ov029_0214a9b4Ev kind:function(arm,size=0x54) addr:0x0214a9b4
_ZN12ActorUnkBLJF19func_ov029_0214aa08Ev kind:function(arm,size=0x30) addr:0x0214aa08
_ZN12ActorUnkBLJF19func_ov029_0214aa38Ev kind:function(arm,size=0x44) addr:0x0214aa38
_ZN12ActorUnkBLJF19func_ov029_0214aa7cEv kind:function(arm,size=0x1fc) addr:0x0214aa7c
_ZN12ActorUnkBLJF19func_ov029_0214ac78Ev kind:function(arm,size=0xcc) addr:0x0214ac78
_ZN12ActorUnkBLJF19func_ov029_0214ad44Ev kind:function(arm,size=0x38) addr:0x0214ad44
_ZN12ActorUnkBLJF19func_ov029_0214ad7cEv kind:function(arm,size=0x28) addr:0x0214ad7c
_ZN12ActorUnkBLJF19func_ov029_0214ada4Ev kind:function(arm,size=0x11c) addr:0x0214ada4
_ZN12ActorUnkBLJF19func_ov029_0214aec0Ev kind:function(arm,size=0x4) addr:0x0214aec0
_ZN12ActorUnkBLJFD0Ev kind:function(arm,size=0x1c) addr:0x0214aec4
_ZN12ActorUnkBLJFD1Ev kind:function(arm,size=0x40) addr:0x0214aee0
_ZN12ActorUnkBLJF19func_ov029_0214af20Ev kind:function(arm,size=0x48) addr:0x0214af20
_ZN19ActorProfileUnkBLJFD1Ev kind:function(arm,size=0x14) addr:0x0214af68
_ZN19ActorProfileUnkMDYG10GetProfileEv kind:function(arm,size=0xc) addr:0x0214af7c
_ZN19ActorProfileUnkMDYG6CreateEv kind:function(arm,size=0x28) addr:0x0214af88
_ZN19ActorProfileUnkMDYGC1Ev kind:function(arm,size=0x68) addr:0x0214afb0
_ZN12ActorUnkMDYGC1Ev kind:function(arm,size=0x248) addr:0x0214b018
_ZN12ActorUnkMDYG19func_ov029_0214b260Ev kind:function(arm,size=0x14) addr:0x0214b260
_ZN12ActorUnkMDYGD1Ev kind:function(arm,size=0x68) addr:0x0214b274
_ZN12ActorUnkMDYGD0Ev kind:function(arm,size=0x70) addr:0x0214b2dc
_ZN12ActorUnkMDYG19func_ov029_0214b34cEv kind:function(arm,size=0x11c) addr:0x0214b34c
_ZN12ActorUnkMDYG19func_ov029_0214b468Ev kind:function(arm,size=0x74) addr:0x0214b468
_ZN12ActorUnkMDYG19func_ov029_0214b4dcEv kind:function(arm,size=0x38) addr:0x0214b4dc
_ZN12ActorUnkMDYG19func_ov029_0214b514Ev kind:function(arm,size=0x1c) addr:0x0214b514
_ZN12ActorUnkMDYG19func_ov029_0214b530Ev kind:function(arm,size=0x24) addr:0x0214b530
_ZN12ActorUnkMDYG19func_ov029_0214b554Ev kind:function(arm,size=0x64) addr:0x0214b554
_ZN12ActorUnkMDYG19func_ov029_0214b5b8Ev kind:function(arm,size=0x184) addr:0x0214b5b8
_ZN12ActorUnkMDYG19func_ov029_0214b73cEv kind:function(arm,size=0x9c) addr:0x0214b73c
_ZN12ActorUnkMDYG19func_ov029_0214b7d8Ev kind:function(arm,size=0xe0) addr:0x0214b7d8
_ZN12ActorUnkMDYG19func_ov029_0214b8b8Ev kind:function(arm,size=0xc) addr:0x0214b8b8
_ZN12ActorUnkMDYG19func_ov029_0214b8c4Ev kind:function(arm,size=0x140) addr:0x0214b8c4
_ZN12ActorUnkMDYG19func_ov029_0214ba04Ev kind:function(arm,size=0x28) addr:0x0214ba04
_ZN12ActorUnkMDYG19func_ov029_0214ba2cEv kind:function(arm,size=0x9c) addr:0x0214ba2c
_ZN12ActorUnkMDYG19func_ov029_0214bac8Ev kind:function(arm,size=0x180) addr:0x0214bac8
_ZN12ActorUnkMDYG19func_ov029_0214bc48Ev kind:function(arm,size=0x20) addr:0x0214bc48
_ZN12ActorUnkMDYG19func_ov029_0214bc68Ev kind:function(arm,size=0x78) addr:0x0214bc68
_ZN12ActorUnkMDYG19func_ov029_0214bce0Ev kind:function(arm,size=0x8c) addr:0x0214bce0
_ZN12ActorUnkMDYG19func_ov029_0214bd6cEv kind:function(arm,size=0x29c) addr:0x0214bd6c
_ZN12ActorUnkMDYG19func_ov029_0214c008Ev kind:function(arm,size=0x10) addr:0x0214c008
_ZN12ActorUnkMDYG19func_ov029_0214c018Ev kind:function(arm,size=0x178) addr:0x0214c018
_ZN12ActorUnkMDYG19func_ov029_0214c190Ev kind:function(arm,size=0xc0) addr:0x0214c190
_ZN12ActorUnkMDYG19func_ov029_0214c250Ev kind:function(arm,size=0xbc) addr:0x0214c250
_ZN12ActorUnkMDYG19func_ov029_0214c30cEv kind:function(arm,size=0x74) addr:0x0214c30c
_ZN12ActorUnkMDYG19func_ov029_0214c380Ev kind:function(arm,size=0x70) addr:0x0214c380
_ZN12ActorUnkMDYG19func_ov029_0214c3f0Ev kind:function(arm,size=0x104) addr:0x0214c3f0
_ZN12ActorUnkMDYG19func_ov029_0214c4f4Ev kind:function(arm,size=0xe8) addr:0x0214c4f4
_ZN12ActorUnkMDYG19func_ov029_0214c5dcEv kind:function(arm,size=0x88) addr:0x0214c5dc
_ZN12ActorUnkMDYG19func_ov029_0214c664Ev kind:function(arm,size=0x1dc) addr:0x0214c664
_ZN12ActorUnkMDYG19func_ov029_0214c840Ev kind:function(arm,size=0x14c) addr:0x0214c840
_ZN12ActorUnkMDYG19func_ov029_0214c98cEv kind:function(arm,size=0x60) addr:0x0214c98c
_ZN12ActorUnkMDYG19func_ov029_0214c9ecEv kind:function(arm,size=0x344) addr:0x0214c9ec
_ZN12ActorUnkMDYG19func_ov029_0214cd30Ev kind:function(arm,size=0x58) addr:0x0214cd30
_ZN12ActorUnkMDYG19func_ov029_0214cd88Ev kind:function(arm,size=0x54) addr:0x0214cd88
_ZN12ActorUnkMDYG19func_ov029_0214cddcEv kind:function(arm,size=0x28) addr:0x0214cddc
_ZN12ActorUnkMDYG19func_ov029_0214ce04Ev kind:function(arm,size=0x14c) addr:0x0214ce04
_ZN12ActorUnkMDYG19func_ov029_0214cf50Ev kind:function(arm,size=0x160) addr:0x0214cf50
_ZN12ActorUnkMDYG19func_ov029_0214d0b0Ev kind:function(arm,size=0x30) addr:0x0214d0b0
_ZN12ActorUnkMDYG19func_ov029_0214d0e0Ev kind:function(arm,size=0x6c) addr:0x0214d0e0
_ZN12ActorUnkMDYG19func_ov029_0214d14cEv kind:function(arm,size=0x1a8) addr:0x0214d14c
_ZN12ActorUnkMDYG19func_ov029_0214d2f4Ev kind:function(arm,size=0xc8) addr:0x0214d2f4
_ZN12ActorUnkMDYG19func_ov029_0214d3bcEv kind:function(arm,size=0xd4) addr:0x0214d3bc
_ZN12ActorUnkMDYG19func_ov029_0214d490Ev kind:function(arm,size=0x58) addr:0x0214d490
_ZN12ActorUnkMDYG19func_ov029_0214d4e8Ev kind:function(arm,size=0xa4) addr:0x0214d4e8
_ZN12ActorUnkMDYG19func_ov029_0214d58cEv kind:function(arm,size=0x54) addr:0x0214d58c
_ZN12ActorUnkMDYG19func_ov029_0214d5e0Ev kind:function(arm,size=0xf0) addr:0x0214d5e0
_ZN12ActorUnkMDYG19func_ov029_0214d6d0Ev kind:function(arm,size=0x50) addr:0x0214d6d0
_ZN12ActorUnkMDYG19func_ov029_0214d720Ev kind:function(arm,size=0x30) addr:0x0214d720
_ZN12ActorUnkMDYG19func_ov029_0214d750Ev kind:function(arm,size=0x18) addr:0x0214d750
_ZN12ActorUnkMDYG19func_ov029_0214d768Ev kind:function(arm,size=0x38) addr:0x0214d768
_ZN12ActorUnkMDYG19func_ov029_0214d7a0Ev kind:function(arm,size=0xf4) addr:0x0214d7a0
_ZN19ActorProfileUnkMDYGD1Ev kind:function(arm,size=0x14) addr:0x0214d894
_ZN19ActorProfileUnkPRSP10GetProfileEv kind:function(arm,size=0xc) addr:0x0214d8a8
_ZN19ActorProfileUnkPRSP6CreateEv kind:function(arm,size=0x24) addr:0x0214d8b4
_ZN19ActorProfileUnkPRSPC1Ev kind:function(arm,size=0x7c) addr:0x0214d8d8
_ZN12ActorUnkPRSPC1Ev kind:function(arm,size=0x258) addr:0x0214d954
_ZN12ActorUnkPRSP19func_ov029_0214dbacEv kind:function(arm,size=0x14) addr:0x0214dbac
_ZN12ActorUnkPRSP19func_ov029_0214dbc0Ev kind:function(arm,size=0x14) addr:0x0214dbc0
_ZN12ActorUnkPRSP19func_ov029_0214dbd4Ev kind:function(arm,size=0x134) addr:0x0214dbd4
_ZN12ActorUnkPRSP19func_ov029_0214dd08Ev kind:function(arm,size=0xc0) addr:0x0214dd08
_ZN12ActorUnkPRSP19func_ov029_0214ddc8Ev kind:function(arm,size=0x70) addr:0x0214ddc8
_ZN12ActorUnkPRSP19func_ov029_0214de38Ev kind:function(arm,size=0xb0) addr:0x0214de38
_ZN12ActorUnkPRSP19func_ov029_0214dee8Ev kind:function(arm,size=0x2ec) addr:0x0214dee8
_ZN12ActorUnkPRSP19func_ov029_0214e1d4Ev kind:function(arm,size=0x6c) addr:0x0214e1d4
_ZN12ActorUnkPRSP19func_ov029_0214e240Ev kind:function(arm,size=0x1ec) addr:0x0214e240
_ZN12ActorUnkPRSP19func_ov029_0214e42cEv kind:function(arm,size=0x28) addr:0x0214e42c
_ZN12ActorUnkPRSP19func_ov029_0214e454Ev kind:function(arm,size=0x20) addr:0x0214e454
_ZN12ActorUnkPRSP19func_ov029_0214e474Ev kind:function(arm,size=0xd8) addr:0x0214e474
_ZN12ActorUnkPRSP19func_ov029_0214e54cEv kind:function(arm,size=0x2c) addr:0x0214e54c
_ZN12ActorUnkPRSP19func_ov029_0214e578Ev kind:function(arm,size=0x40) addr:0x0214e578
_ZN12ActorUnkPRSP19func_ov029_0214e5b8Ev kind:function(arm,size=0x1c) addr:0x0214e5b8
_ZN12ActorUnkPRSP19func_ov029_0214e5d4Ev kind:function(arm,size=0x550) addr:0x0214e5d4
_ZN12ActorUnkPRSP19func_ov029_0214eb24Ev kind:function(arm,size=0x80) addr:0x0214eb24
_ZN12ActorUnkPRSP19func_ov029_0214eba4Ev kind:function(arm,size=0x314) addr:0x0214eba4
_ZN12ActorUnkPRSP19func_ov029_0214eeb8Ev kind:function(arm,size=0x4) addr:0x0214eeb8
_ZN12ActorUnkPRSP19func_ov029_0214eebcEv kind:function(arm,size=0xd8) addr:0x0214eebc
_ZN12ActorUnkPRSP19func_ov029_0214ef94Ev kind:function(arm,size=0x98) addr:0x0214ef94
_ZN12ActorUnkPRSP19func_ov029_0214f02cEv kind:function(arm,size=0x3b4) addr:0x0214f02c
_ZN12ActorUnkPRSP19func_ov029_0214f3e0Ev kind:function(arm,size=0x2c) addr:0x0214f3e0
_ZN12ActorUnkPRSP19func_ov029_0214f40cEv kind:function(arm,size=0x1ac) addr:0x0214f40c
_ZN12ActorUnkPRSP19func_ov029_0214f5b8Ev kind:function(arm,size=0xc) addr:0x0214f5b8
_ZN12ActorUnkPRSP19func_ov029_0214f5c4Ev kind:function(arm,size=0x40) addr:0x0214f5c4
_ZN12ActorUnkPRSP19func_ov029_0214f604Ev kind:function(arm,size=0x4) addr:0x0214f604
_ZN12ActorUnkPRSP19func_ov029_0214f608Ev kind:function(arm,size=0x18) addr:0x0214f608
_ZN12ActorUnkPRSP19func_ov029_0214f620Ev kind:function(arm,size=0xa8) addr:0x0214f620
_ZN12ActorUnkPRSP19func_ov029_0214f6c8Ev kind:function(arm,size=0x224) addr:0x0214f6c8
_ZN12ActorUnkPRSP19func_ov029_0214f8ecEv kind:function(arm,size=0x70) addr:0x0214f8ec
_ZN12ActorUnkPRSP19func_ov029_0214f95cEv kind:function(arm,size=0x58c) addr:0x0214f95c
_ZN12ActorUnkPRSP19func_ov029_0214fee8Ev kind:function(arm,size=0x34) addr:0x0214fee8
_ZN12ActorUnkPRSP19func_ov029_0214ff1cEv kind:function(arm,size=0xa8) addr:0x0214ff1c
_ZN12ActorUnkPRSP19func_ov029_0214ffc4Ev kind:function(arm,size=0x14) addr:0x0214ffc4
_ZN12ActorUnkPRSP19func_ov029_0214ffd8Ev kind:function(arm,size=0xec) addr:0x0214ffd8
_ZN12ActorUnkPRSP19func_ov029_021500c4Ev kind:function(arm,size=0x158) addr:0x021500c4
_ZN12ActorUnkPRSP19func_ov029_0215021cEv kind:function(arm,size=0x4c) addr:0x0215021c
_ZN12ActorUnkPRSP19func_ov029_02150268Ev kind:function(arm,size=0xa0) addr:0x02150268
_ZN12ActorUnkPRSP19func_ov029_02150308Ev kind:function(arm,size=0x15c) addr:0x02150308
_ZN12ActorUnkPRSP19func_ov029_02150464Ev kind:function(arm,size=0x9c) addr:0x02150464
_ZN12ActorUnkPRSP19func_ov029_02150500Ev kind:function(arm,size=0xa0) addr:0x02150500
_ZN12ActorUnkPRSP19func_ov029_021505a0Ev kind:function(arm,size=0x88) addr:0x021505a0
_ZN12ActorUnkPRSP19func_ov029_02150628Ev kind:function(arm,size=0x6c) addr:0x02150628
_ZN12ActorUnkPRSP19func_ov029_02150694Ev kind:function(arm,size=0x6c) addr:0x02150694
_ZN12ActorUnkPRSP19func_ov029_02150700Ev kind:function(arm,size=0x64) addr:0x02150700
_ZN12ActorUnkPRSP19func_ov029_02150764Ev kind:function(arm,size=0x30) addr:0x02150764
_ZN12ActorUnkPRSP19func_ov029_02150794Ev kind:function(arm,size=0xe0) addr:0x02150794
_ZN12ActorUnkPRSP19func_ov029_02150874Ev kind:function(arm,size=0x18) addr:0x02150874
_ZN12ActorUnkPRSP19func_ov029_0215088cEv kind:function(arm,size=0xe4) addr:0x0215088c
_ZN12ActorUnkPRSP19func_ov029_02150970Ev kind:function(arm,size=0x2dc) addr:0x02150970
_ZN12ActorUnkPRSP19func_ov029_02150c4cEv kind:function(arm,size=0x64) addr:0x02150c4c
_ZN12ActorUnkPRSP19func_ov029_02150cb0Ev kind:function(arm,size=0x58) addr:0x02150cb0
_ZN12ActorUnkPRSP19func_ov029_02150d08Ev kind:function(arm,size=0x28) addr:0x02150d08
_ZN12ActorUnkPRSP19func_ov029_02150d30Ev kind:function(arm,size=0x40) addr:0x02150d30
_ZN12ActorUnkPRSP19func_ov029_02150d70Ev kind:function(arm,size=0x24) addr:0x02150d70
_ZN12ActorUnkPRSP19func_ov029_02150d94Ev kind:function(arm,size=0x10) addr:0x02150d94
_ZN12ActorUnkPRSP19func_ov029_02150da4Ev kind:function(arm,size=0x8) addr:0x02150da4
_ZN12ActorUnkPRSPD0Ev kind:function(arm,size=0x1c) addr:0x02150dac
_ZN12ActorUnkPRSP19func_ov029_02150dc8Ev kind:function(arm,size=0x1c) addr:0x02150dc8
_ZN12ActorUnkPRSPD1Ev kind:function(arm,size=0x48) addr:0x02150de4
_ZN12ActorUnkPRSP19func_ov029_02150e2cEv kind:function(arm,size=0x50) addr:0x02150e2c
_ZN19ActorProfileUnkPRSPD1Ev kind:function(arm,size=0x14) addr:0x02150e7c
data_ov029_02150e90 kind:data(any) addr:0x02150e90
data_ov029_02150ea0 kind:data(any) addr:0x02150ea0
data_ov029_02150eb0 kind:data(any) addr:0x02150eb0
data_ov029_02150eb2 kind:data(any) addr:0x02150eb2
data_ov029_02150ec4 kind:data(any) addr:0x02150ec4
data_ov029_02150ed4 kind:data(any) addr:0x02150ed4
data_ov029_02150ef4 kind:data(any) addr:0x02150ef4
data_ov029_02150f04 kind:data(any) addr:0x02150f04
data_ov029_02150f14 kind:data(any) addr:0x02150f14
data_ov029_02150f24 kind:data(any) addr:0x02150f24
data_ov029_02150f34 kind:data(any) addr:0x02150f34
data_ov029_02150f44 kind:data(any) addr:0x02150f44
data_ov029_02150f54 kind:data(any) addr:0x02150f54
data_ov029_02150f64 kind:data(any) addr:0x02150f64
data_ov029_02150f74 kind:data(any) addr:0x02150f74
__sinit_MapObjectUnkTMDE.cpp kind:function(arm,size=0x70) addr:0x02150f84
__sinit_MapObjectUnkTMWT.cpp kind:function(arm,size=0x50) addr:0x02150ff4
__sinit_MapObjectUnkTRWA.cpp kind:function(arm,size=0x50) addr:0x02151044
__sinit_MapObjectUnkTRRW.cpp kind:function(arm,size=0x50) addr:0x02151094
__sinit_MapObjectUnkTRSA.cpp kind:function(arm,size=0x50) addr:0x021510e4
__sinit_MapObjectUnkTRRD.cpp kind:function(arm,size=0x50) addr:0x02151134
__sinit_MapObjectUnkTRPI.cpp kind:function(arm,size=0x50) addr:0x02151184
__sinit_MapObjectUnkSBDE.cpp kind:function(arm,size=0x50) addr:0x021511d4
__sinit_MapObjectUnkSTDE.cpp kind:function(arm,size=0x50) addr:0x02151224
__sinit_MapObjectUnkTCBT.cpp kind:function(arm,size=0x50) addr:0x02151274
__sinit_MapObjectUnkWHSW.cpp kind:function(arm,size=0x50) addr:0x021512c4
__sinit_MapObjectUnkTRH1.cpp kind:function(arm,size=0x50) addr:0x02151314
__sinit_MapObjectUnkTBSS.cpp kind:function(arm,size=0x50) addr:0x02151364
__sinit_MapObjectUnkTRBL.cpp kind:function(arm,size=0x50) addr:0x021513b4
__sinit_MapObjectUnkRBBL.cpp kind:function(arm,size=0x50) addr:0x02151404
__sinit_ActorUnkDLPN.cpp kind:function(arm,size=0x90) addr:0x02151454
__sinit_ActorUnkBLJF.cpp kind:function(arm,size=0x5c) addr:0x021514e4
__sinit_ActorUnkMDYG.cpp kind:function(arm,size=0xd0) addr:0x02151540
__sinit_ActorUnkPRSP.cpp kind:function(arm,size=0x84) addr:0x02151610
.p__sinit_MapObjectUnkTMDE.cpp kind:data(word) addr:0x02151694
.p__sinit_MapObjectUnkTMWT.cpp kind:data(word) addr:0x02151698
.p__sinit_MapObjectUnkTRWA.cpp kind:data(word) addr:0x0215169c
.p__sinit_MapObjectUnkTRRW.cpp kind:data(word) addr:0x021516a0
.p__sinit_MapObjectUnkTRSA.cpp kind:data(word) addr:0x021516a4
.p__sinit_MapObjectUnkTRRD.cpp kind:data(word) addr:0x021516a8
.p__sinit_MapObjectUnkTRPI.cpp kind:data(word) addr:0x021516ac
.p__sinit_MapObjectUnkSBDE.cpp kind:data(word) addr:0x021516b0
.p__sinit_MapObjectUnkSTDE.cpp kind:data(word) addr:0x021516b4
.p__sinit_MapObjectUnkTCBT.cpp kind:data(word) addr:0x021516b8
.p__sinit_MapObjectUnkWHSW.cpp kind:data(word) addr:0x021516bc
.p__sinit_MapObjectUnkTRH1.cpp kind:data(word) addr:0x021516c0
.p__sinit_MapObjectUnkTBSS.cpp kind:data(word) addr:0x021516c4
.p__sinit_MapObjectUnkTRBL.cpp kind:data(word) addr:0x021516c8
.p__sinit_MapObjectUnkRBBL.cpp kind:data(word) addr:0x021516cc
.p__sinit_ActorUnkDLPN.cpp kind:data(word) addr:0x021516d0
.p__sinit_ActorUnkBLJF.cpp kind:data(word) addr:0x021516d4
.p__sinit_ActorUnkMDYG.cpp kind:data(word) addr:0x021516d8
.p__sinit_ActorUnkPRSP.cpp kind:data(word) addr:0x021516dc
data_ov029_02151700 kind:data(any) addr:0x02151700
data_ov029_02151710 kind:data(any) addr:0x02151710
data_ov029_02151724 kind:data(any) addr:0x02151724
data_ov029_02151740 kind:data(any) addr:0x02151740
data_ov029_0215176c kind:data(any) addr:0x0215176c
data_ov029_021517d8 kind:data(any) addr:0x021517d8
data_ov029_02151844 kind:data(any) addr:0x02151844
data_ov029_02151860 kind:data(any) addr:0x02151860
data_ov029_021518cc kind:data(any) addr:0x021518cc
data_ov029_021518e8 kind:data(any) addr:0x021518e8
data_ov029_02151954 kind:data(any) addr:0x02151954
data_ov029_02151970 kind:data(any) addr:0x02151970
data_ov029_021519a0 kind:data(any) addr:0x021519a0 ambiguous
data_ov029_021519d4 kind:data(any) addr:0x021519d4
data_ov029_021519dc kind:data(any) addr:0x021519dc
data_ov029_021519e8 kind:data(any) addr:0x021519e8
data_ov029_02151a00 kind:data(any) addr:0x02151a00
data_ov029_02151a1c kind:data(any) addr:0x02151a1c
data_ov029_02151a60 kind:data(any) addr:0x02151a60 ambiguous
data_ov029_02151aa0 kind:data(any) addr:0x02151aa0
data_ov029_02151b14 kind:data(any) addr:0x02151b14 ambiguous
data_ov029_02151b24 kind:data(any) addr:0x02151b24
data_ov029_02151b40 kind:data(any) addr:0x02151b40
data_ov029_02151bac kind:data(any) addr:0x02151bac
data_ov029_02151bc8 kind:data(any) addr:0x02151bc8
data_ov029_02151c34 kind:data(any) addr:0x02151c34
data_ov029_02151c50 kind:data(any) addr:0x02151c50
data_ov029_02151cc4 kind:data(any) addr:0x02151cc4
data_ov029_02151ce0 kind:data(any) addr:0x02151ce0
data_ov029_02151d08 kind:data(any) addr:0x02151d08
data_ov029_02151d58 kind:data(any) addr:0x02151d58
data_ov029_02151d74 kind:data(any) addr:0x02151d74
data_ov029_02151d90 kind:data(any) addr:0x02151d90
data_ov029_02151db8 kind:data(any) addr:0x02151db8
data_ov029_02151de4 kind:data(any) addr:0x02151de4
data_ov029_02151e34 kind:data(any) addr:0x02151e34
data_ov029_02151e50 kind:data(any) addr:0x02151e50
data_ov029_02151ea0 kind:data(any) addr:0x02151ea0
data_ov029_02151ebc kind:data(any) addr:0x02151ebc
data_ov029_02151f28 kind:data(any) addr:0x02151f28
data_ov029_02151f44 kind:data(any) addr:0x02151f44
data_ov029_02151fa4 kind:data(any) addr:0x02151fa4
data_ov029_02151fc0 kind:data(any) addr:0x02151fc0
data_ov029_02152014 kind:data(any) addr:0x02152014
data_ov029_02152018 kind:data(any) addr:0x02152018 ambiguous
data_ov029_02152030 kind:data(any) addr:0x02152030
data_ov029_0215204c kind:data(any) addr:0x0215204c
data_ov029_02152054 kind:data(any) addr:0x02152054 ambiguous
data_ov029_02152074 kind:data(any) addr:0x02152074 ambiguous
data_ov029_02152098 kind:data(any) addr:0x02152098
_ZTV19data_ov029_021520ac kind:data(any) addr:0x021520ac
data_ov029_021520d0 kind:data(any) addr:0x021520d0
data_ov029_021520e8 kind:data(any) addr:0x021520e8 ambiguous
data_ov029_02152118 kind:data(any) addr:0x02152118
data_ov029_02152130 kind:data(any) addr:0x02152130
data_ov029_02152148 kind:data(any) addr:0x02152148
data_ov029_02152168 kind:data(any) addr:0x02152168
data_ov029_021521ac kind:data(any) addr:0x021521ac
_ZTV19data_ov029_0215220c kind:data(any) addr:0x0215220c
data_ov029_02152278 kind:data(any) addr:0x02152278
_ZTV19data_ov029_0215228c kind:data(any) addr:0x0215228c
data_ov029_021522b0 kind:data(any) addr:0x021522b0
data_ov029_021522e0 kind:data(any) addr:0x021522e0
data_ov029_021522f8 kind:data(any) addr:0x021522f8
data_ov029_02152310 kind:data(any) addr:0x02152310
_ZTV19data_ov029_02152328 kind:data(any) addr:0x02152328
data_ov029_02152394 kind:data(any) addr:0x02152394
_ZTV19data_ov029_021523a8 kind:data(any) addr:0x021523a8
data_ov029_021523cc kind:data(any) addr:0x021523cc
data_ov029_021523e4 kind:data(any) addr:0x021523e4
data_ov029_021523fc kind:data(any) addr:0x021523fc
data_ov029_02152414 kind:data(any) addr:0x02152414
_ZTV19data_ov029_0215242c kind:data(any) addr:0x0215242c
data_ov029_02152490 kind:data(any) addr:0x02152490
data_ov029_021524a0 kind:data(any) addr:0x021524a0
data_ov029_02152568 kind:data(any) addr:0x02152568
data_ov029_02152574 kind:data(any) addr:0x02152574
data_ov029_0215257c kind:data(any) addr:0x0215257c
_ZTV19data_ov029_02152594 kind:data(any) addr:0x02152594
data_ov029_021525c0 kind:data(any) addr:0x021525c0
data_ov029_021525ec kind:data(any) addr:0x021525ec
_ZTV19data_ov029_0215262c kind:data(any) addr:0x0215262c
data_ov029_02152690 kind:data(any) addr:0x02152690
data_ov029_021526f8 kind:data(any) addr:0x021526f8
data_ov029_02152760 kind:bss addr:0x02152760
data_ov029_02152768 kind:bss addr:0x02152768
data_ov029_02152774 kind:bss addr:0x02152774
sMapObjectProfileUnkTMDE kind:bss addr:0x02152780
data_ov029_02152854 kind:bss addr:0x02152854
data_ov029_02152858 kind:bss addr:0x02152858
sMapObjectProfileUnkTMWT kind:bss addr:0x02152864
data_ov029_02152938 kind:bss addr:0x02152938
data_ov029_0215293c kind:bss addr:0x0215293c
sMapObjectProfileUnkTRWA kind:bss addr:0x02152948
data_ov029_021529c4 kind:bss addr:0x021529c4 ambiguous
data_ov029_02152a1c kind:bss addr:0x02152a1c
data_ov029_02152a20 kind:bss addr:0x02152a20
data_ov029_02152a25 kind:bss addr:0x02152a25 ambiguous
sMapObjectProfileUnkTRRW kind:bss addr:0x02152a2c
data_ov029_02152b00 kind:bss addr:0x02152b00
data_ov029_02152b04 kind:bss addr:0x02152b04
sMapObjectProfileUnkTRSA kind:bss addr:0x02152b10
data_ov029_02152b30 kind:bss addr:0x02152b30
data_ov029_02152b54 kind:bss addr:0x02152b54 ambiguous
data_ov029_02152be4 kind:bss addr:0x02152be4
data_ov029_02152be8 kind:bss addr:0x02152be8
sMapObjectProfileUnkTRRD kind:bss addr:0x02152bf4
data_ov029_02152ca0 kind:bss addr:0x02152ca0 ambiguous
data_ov029_02152cc8 kind:bss addr:0x02152cc8
data_ov029_02152ccc kind:bss addr:0x02152ccc
sMapObjectProfileUnkTRPI kind:bss addr:0x02152cd8
data_ov029_02152d64 kind:bss addr:0x02152d64 ambiguous
data_ov029_02152dac kind:bss addr:0x02152dac
data_ov029_02152db0 kind:bss addr:0x02152db0
sMapObjectProfileUnkSBDE kind:bss addr:0x02152dbc
data_ov029_02152e4c kind:bss addr:0x02152e4c ambiguous
data_ov029_02152e90 kind:bss addr:0x02152e90
data_ov029_02152e94 kind:bss addr:0x02152e94
sMapObjectProfileUnkSTDE kind:bss addr:0x02152ea0
data_ov029_02152f08 kind:bss addr:0x02152f08 ambiguous
data_ov029_02152f68 kind:bss addr:0x02152f68 ambiguous
data_ov029_02152f74 kind:bss addr:0x02152f74
data_ov029_02152f78 kind:bss addr:0x02152f78
data_ov029_02152f80 kind:bss addr:0x02152f80 ambiguous
sMapObjectProfileUnkTCBT kind:bss addr:0x02152f84
data_ov029_02152f8c kind:bss addr:0x02152f8c ambiguous
data_ov029_02152f98 kind:bss addr:0x02152f98 ambiguous
data_ov029_02153058 kind:bss addr:0x02153058
data_ov029_02153078 kind:bss addr:0x02153078
data_ov029_0215307c kind:bss addr:0x0215307c
sMapObjectProfileUnkWHSW kind:bss addr:0x02153088
data_ov029_021530a8 kind:bss addr:0x021530a8
data_ov029_021530b8 kind:bss addr:0x021530b8 ambiguous
data_ov029_0215315c kind:bss addr:0x0215315c
data_ov029_0215317c kind:bss addr:0x0215317c
data_ov029_02153180 kind:bss addr:0x02153180
sMapObjectProfileUnkTRH1 kind:bss addr:0x0215318c
data_ov029_021531b4 kind:bss addr:0x021531b4 ambiguous
data_ov029_02153260 kind:bss addr:0x02153260
data_ov029_02153264 kind:bss addr:0x02153264
sMapObjectProfileUnkTBSS kind:bss addr:0x02153270
data_ov029_02153344 kind:bss addr:0x02153344
data_ov029_02153364 kind:bss addr:0x02153364
data_ov029_02153368 kind:bss addr:0x02153368
sMapObjectProfileUnkTRBL kind:bss addr:0x02153374
data_ov029_02153448 kind:bss addr:0x02153448
data_ov029_02153468 kind:bss addr:0x02153468
data_ov029_0215346c kind:bss addr:0x0215346c
sMapObjectProfileUnkRBBL kind:bss addr:0x02153478
data_ov029_021534bc kind:bss addr:0x021534bc
data_ov029_021534c4 kind:bss addr:0x021534c4
data_ov029_021534d0 kind:bss addr:0x021534d0
data_ov029_021534dc kind:bss addr:0x021534dc
data_ov029_021534e8 kind:bss addr:0x021534e8
data_ov029_021534f4 kind:bss addr:0x021534f4
data_ov029_02153500 kind:bss addr:0x02153500
data_ov029_02153510 kind:bss addr:0x02153510
data_ov029_0215351c kind:bss addr:0x0215351c
data_ov029_02153534 kind:bss addr:0x02153534
sActorProfileUnkDLPN kind:bss addr:0x02153544
data_ov029_0215361c kind:bss addr:0x0215361c
data_ov029_02153620 kind:bss addr:0x02153620
sActorProfileUnkBLJF kind:bss addr:0x02153638
data_ov029_02153710 kind:bss addr:0x02153710
data_ov029_02153714 kind:bss addr:0x02153714
data_ov029_02153720 kind:bss addr:0x02153720
data_ov029_0215372c kind:bss addr:0x0215372c
sActorProfileUnkMDYG kind:bss addr:0x02153750
data_ov029_02153828 kind:bss addr:0x02153828
data_ov029_0215382c kind:bss addr:0x0215382c
data_ov029_02153838 kind:bss addr:0x02153838
sActorProfileUnkPRSP kind:bss addr:0x02153844
