_ZN19ActorProfileUnkRMT010GetProfileEv kind:function(arm,size=0xc) addr:0x02157ea0
_ZN19ActorProfileUnkRMT06CreateEv kind:function(arm,size=0x24) addr:0x02157eac
_ZN19ActorProfileUnkRMT0C1Ev kind:function(arm,size=0x28) addr:0x02157ed0
_ZN12ActorUnkRMT0C1Ev kind:function(arm,size=0x20) addr:0x02157ef8
_ZN12ActorUnkRMT019func_ov061_02157f18Ev kind:function(arm,size=0x50) addr:0x02157f18
_ZN12ActorUnkRMT0D1Ev kind:function(arm,size=0x20) addr:0x02157f68
_ZN12ActorUnkRMT0D0Ev kind:function(arm,size=0x28) addr:0x02157f88
_ZN19ActorProfileUnkRMT0D1Ev kind:function(arm,size=0x14) addr:0x02157fb0
_ZN19ActorProfileUnkRMT110GetProfileEv kind:function(arm,size=0xc) addr:0x02157fc4
_ZN19ActorProfileUnkRMT16CreateEv kind:function(arm,size=0x24) addr:0x02157fd0
_ZN19ActorProfileUnkRMT1C1Ev kind:function(arm,size=0x28) addr:0x02157ff4
_ZN12ActorUnkRMT1C1Ev kind:function(arm,size=0x74) addr:0x0215801c
_ZN12ActorUnkRMT119func_ov061_02158090Ev kind:function(arm,size=0x14) addr:0x02158090
_ZN12ActorUnkRMT119func_ov061_021580a4Ev kind:function(arm,size=0x54) addr:0x021580a4
_ZN12ActorUnkRMT119func_ov061_021580f8Ev kind:function(arm,size=0x14) addr:0x021580f8
_ZN12ActorUnkRMT119func_ov061_0215810cEv kind:function(arm,size=0x14) addr:0x0215810c
_ZN12ActorUnkRMT119func_ov061_02158120Ev kind:function(arm,size=0x50) addr:0x02158120
_ZN12ActorUnkRMT119func_ov061_02158170Ev kind:function(arm,size=0x24) addr:0x02158170
_ZN12ActorUnkRMT119func_ov061_02158194Ev kind:function(arm,size=0x10) addr:0x02158194
_ZN12ActorUnkRMT119func_ov061_021581a4Ev kind:function(arm,size=0x8) addr:0x021581a4
_ZN12ActorUnkRMT1D0Ev kind:function(arm,size=0x1c) addr:0x021581ac
_ZN12ActorUnkRMT1D1Ev kind:function(arm,size=0x28) addr:0x021581c8
_ZN12ActorUnkRMT119func_ov061_021581f0Ev kind:function(arm,size=0x30) addr:0x021581f0
_ZN19ActorProfileUnkRMT1D1Ev kind:function(arm,size=0x14) addr:0x02158220
_ZN19ActorProfileUnkRMT210GetProfileEv kind:function(arm,size=0xc) addr:0x02158234
_ZN19ActorProfileUnkRMT26CreateEv kind:function(arm,size=0x24) addr:0x02158240
_ZN19ActorProfileUnkRMT2C1Ev kind:function(arm,size=0x28) addr:0x02158264
_ZN12ActorUnkRMT2C1Ev kind:function(arm,size=0x20) addr:0x0215828c
_ZN12ActorUnkRMT219func_ov061_021582acEv kind:function(arm,size=0x50) addr:0x021582ac
_ZN12ActorUnkRMT2D1Ev kind:function(arm,size=0x20) addr:0x021582fc
_ZN12ActorUnkRMT2D0Ev kind:function(arm,size=0x28) addr:0x0215831c
_ZN19ActorProfileUnkRMT2D1Ev kind:function(arm,size=0x14) addr:0x02158344
_ZN19ActorProfileUnkRMT310GetProfileEv kind:function(arm,size=0xc) addr:0x02158358
_ZN19ActorProfileUnkRMT36CreateEv kind:function(arm,size=0x24) addr:0x02158364
_ZN19ActorProfileUnkRMT3C1Ev kind:function(arm,size=0x28) addr:0x02158388
_ZN12ActorUnkRMT3C1Ev kind:function(arm,size=0x20) addr:0x021583b0
_ZN12ActorUnkRMT319func_ov061_021583d0Ev kind:function(arm,size=0x50) addr:0x021583d0
_ZN12ActorUnkRMT3D1Ev kind:function(arm,size=0x20) addr:0x02158420
_ZN12ActorUnkRMT3D0Ev kind:function(arm,size=0x28) addr:0x02158440
_ZN19ActorProfileUnkRMT3D1Ev kind:function(arm,size=0x14) addr:0x02158468
_ZN19ActorProfileUnkRMT410GetProfileEv kind:function(arm,size=0xc) addr:0x0215847c
_ZN19ActorProfileUnkRMT46CreateEv kind:function(arm,size=0x24) addr:0x02158488
_ZN19ActorProfileUnkRMT4C1Ev kind:function(arm,size=0x28) addr:0x021584ac
_ZN12ActorUnkRMT4C1Ev kind:function(arm,size=0x20) addr:0x021584d4
_ZN12ActorUnkRMT419func_ov061_021584f4Ev kind:function(arm,size=0x50) addr:0x021584f4
_ZN12ActorUnkRMT4D1Ev kind:function(arm,size=0x20) addr:0x02158544
_ZN12ActorUnkRMT4D0Ev kind:function(arm,size=0x28) addr:0x02158564
_ZN19ActorProfileUnkRMT4D1Ev kind:function(arm,size=0x14) addr:0x0215858c
_ZN19ActorProfileUnkCAMS10GetProfileEv kind:function(arm,size=0xc) addr:0x021585a0
_ZN19ActorProfileUnkCAMS6CreateEv kind:function(arm,size=0x8) addr:0x021585ac
_ZN19ActorProfileUnkCAMSC1Ev kind:function(arm,size=0x2c) addr:0x021585b4
_ZN19ActorProfileUnkCAMA10GetProfileEv kind:function(arm,size=0xc) addr:0x021585e0
_ZN19ActorProfileUnkCAMA6CreateEv kind:function(arm,size=0x24) addr:0x021585ec
_ZN19ActorProfileUnkCAMAC1Ev kind:function(arm,size=0x68) addr:0x02158610
_ZN19ActorProfileUnkCAMB10GetProfileEv kind:function(arm,size=0xc) addr:0x02158678
_ZN19ActorProfileUnkCAMB6CreateEv kind:function(arm,size=0x24) addr:0x02158684
_ZN19ActorProfileUnkCAMBC1Ev kind:function(arm,size=0x68) addr:0x021586a8
func_ov061_02158710 kind:function(arm,size=0x20) addr:0x02158710
func_ov061_02158730 kind:function(arm,size=0x4c) addr:0x02158730
func_ov061_0215877c kind:function(arm,size=0x168) addr:0x0215877c
func_ov061_021588e4 kind:function(arm,size=0x14) addr:0x021588e4
func_ov061_021588f8 kind:function(arm,size=0xac) addr:0x021588f8
func_ov061_021589a4 kind:function(arm,size=0xc) addr:0x021589a4
_ZN19func_ov061_021589b0D1Ev kind:function(arm,size=0x28) addr:0x021589b0
_ZN19func_ov061_021589d8D0Ev kind:function(arm,size=0x30) addr:0x021589d8
func_ov061_02158a08 kind:function(arm,size=0x24) addr:0x02158a08
func_ov061_02158a2c kind:function(arm,size=0x2c) addr:0x02158a2c
_ZN19func_ov061_02158a58D0Ev kind:function(arm,size=0x1c) addr:0x02158a58
_ZN19func_ov061_02158a74D0Ev kind:function(arm,size=0x28) addr:0x02158a74
_ZN19func_ov061_02158a9cD2Ev kind:function(arm,size=0x20) addr:0x02158a9c
_ZN19ActorProfileUnkCAMSD1Ev kind:function(arm,size=0x14) addr:0x02158abc
_ZN19ActorProfileUnkCAMAD1Ev kind:function(arm,size=0x14) addr:0x02158ad0
_ZN19ActorProfileUnkCAMBD1Ev kind:function(arm,size=0x14) addr:0x02158ae4
_ZN19ActorProfileUnkCAWA10GetProfileEv kind:function(arm,size=0xc) addr:0x02158af8
_ZN19ActorProfileUnkCAWA6CreateEv kind:function(arm,size=0x24) addr:0x02158b04
_ZN19ActorProfileUnkCAWAC1Ev kind:function(arm,size=0x60) addr:0x02158b28
_ZN12ActorUnkCAWA19func_ov061_02158b88Ev kind:function(arm,size=0x20) addr:0x02158b88
_ZN12ActorUnkCAWA19func_ov061_02158ba8Ev kind:function(arm,size=0x20) addr:0x02158ba8
_ZN12ActorUnkCAWAC1Ev kind:function(arm,size=0x104) addr:0x02158bc8
_ZN12ActorUnkCAWA19func_ov061_02158cccEv kind:function(arm,size=0x2c) addr:0x02158ccc
_ZN12ActorUnkCAWA19func_ov061_02158cf8Ev kind:function(arm,size=0x54) addr:0x02158cf8
_ZN12ActorUnkCAWA19func_ov061_02158d4cEv kind:function(arm,size=0xf4) addr:0x02158d4c
_ZN12ActorUnkCAWAD1Ev kind:function(arm,size=0x28) addr:0x02158e40
_ZN12ActorUnkCAWAD0Ev kind:function(arm,size=0x30) addr:0x02158e68
_ZN19ActorProfileUnkCAWAD1Ev kind:function(arm,size=0x14) addr:0x02158e98
_ZN19ActorProfileUnkJOLN10GetProfileEv kind:function(arm,size=0xc) addr:0x02158eac
_ZN19ActorProfileUnkJOLN6CreateEv kind:function(arm,size=0x24) addr:0x02158eb8
_ZN19ActorProfileUnkJOLNC1Ev kind:function(arm,size=0x54) addr:0x02158edc
_ZN12ActorUnkJOLNC1Ev kind:function(arm,size=0x118) addr:0x02158f30
_ZN12ActorUnkJOLN19func_ov061_02159048Ev kind:function(arm,size=0x24) addr:0x02159048
_ZN12ActorUnkJOLN19func_ov061_0215906cEv kind:function(arm,size=0xc) addr:0x0215906c
_ZN12ActorUnkJOLN19func_ov061_02159078Ev kind:function(arm,size=0x8) addr:0x02159078
_ZN12ActorUnkJOLN19func_ov061_02159080Ev kind:function(arm,size=0xb4) addr:0x02159080
_ZN12ActorUnkJOLND1Ev kind:function(arm,size=0x28) addr:0x02159134
_ZN12ActorUnkJOLND0Ev kind:function(arm,size=0x30) addr:0x0215915c
_ZN19ActorProfileUnkJOLND1Ev kind:function(arm,size=0x14) addr:0x0215918c
_ZN19ActorProfileUnkFLCT10GetProfileEv kind:function(arm,size=0xc) addr:0x021591a0
_ZN19ActorProfileUnkFLCT6CreateEv kind:function(arm,size=0x24) addr:0x021591ac
_ZN19ActorProfileUnkFLCTC1Ev kind:function(arm,size=0x28) addr:0x021591d0
_ZN12ActorUnkFLCTC1Ev kind:function(arm,size=0x74) addr:0x021591f8
_ZN12ActorUnkFLCT19func_ov061_0215926cEv kind:function(arm,size=0x14) addr:0x0215926c
_ZN12ActorUnkFLCT19func_ov061_02159280Ev kind:function(arm,size=0x68) addr:0x02159280
_ZN12ActorUnkFLCT19func_ov061_021592e8Ev kind:function(arm,size=0x4) addr:0x021592e8
_ZN12ActorUnkFLCT19func_ov061_021592ecEv kind:function(arm,size=0x74) addr:0x021592ec
_ZN12ActorUnkFLCT19func_ov061_02159360Ev kind:function(arm,size=0x14) addr:0x02159360
_ZN12ActorUnkFLCT19func_ov061_02159374Ev kind:function(arm,size=0x50) addr:0x02159374
_ZN12ActorUnkFLCTD0Ev kind:function(arm,size=0x1c) addr:0x021593c4
_ZN12ActorUnkFLCTD1Ev kind:function(arm,size=0x28) addr:0x021593e0
_ZN12ActorUnkFLCT19func_ov061_02159408Ev kind:function(arm,size=0x30) addr:0x02159408
_ZN19ActorProfileUnkFLCTD1Ev kind:function(arm,size=0x14) addr:0x02159438
_ZN23MapObjectProfileUnkFSCT10GetProfileEv kind:function(arm,size=0xc) addr:0x0215944c
_ZN23MapObjectProfileUnkFSCT6CreateEv kind:function(arm,size=0x24) addr:0x02159458
_ZN23MapObjectProfileUnkFSCTC1Ev kind:function(arm,size=0x34) addr:0x0215947c
_ZN16MapObjectUnkFSCTC1Ev kind:function(arm,size=0x20) addr:0x021594b0
_ZN16MapObjectUnkFSCT19func_ov061_021594d0Ev kind:function(arm,size=0x50) addr:0x021594d0
_ZN16MapObjectUnkFSCT19func_ov061_02159520Ev kind:function(arm,size=0x8) addr:0x02159520
_ZN16MapObjectUnkFSCTD1Ev kind:function(arm,size=0x20) addr:0x02159528
_ZN16MapObjectUnkFSCTD0Ev kind:function(arm,size=0x28) addr:0x02159548
_ZN23MapObjectProfileUnkFSCTD1Ev kind:function(arm,size=0x14) addr:0x02159570
_ZN23MapObjectProfileUnkDRTY10GetProfileEv kind:function(arm,size=0xc) addr:0x02159584
_ZN23MapObjectProfileUnkDRTY6CreateEv kind:function(arm,size=0x24) addr:0x02159590
_ZN23MapObjectProfileUnkDRTYC1Ev kind:function(arm,size=0x48) addr:0x021595b4
_ZN16MapObjectUnkDRTYC1Ev kind:function(arm,size=0x64) addr:0x021595fc
_ZN16MapObjectUnkDRTY19func_ov061_02159660Ev kind:function(arm,size=0x12c) addr:0x02159660
_ZN16MapObjectUnkDRTY19func_ov061_0215978cEv kind:function(arm,size=0xe8) addr:0x0215978c
_ZN16MapObjectUnkDRTY19func_ov061_02159874Ev kind:function(arm,size=0x40) addr:0x02159874
_ZN16MapObjectUnkDRTY19func_ov061_021598b4Ev kind:function(arm,size=0x188) addr:0x021598b4
_ZN16MapObjectUnkDRTY19func_ov061_02159a3cEv kind:function(arm,size=0x208) addr:0x02159a3c
_ZN16MapObjectUnkDRTY19func_ov061_02159c44Ev kind:function(arm,size=0x20) addr:0x02159c44
_ZN16MapObjectUnkDRTY19func_ov061_02159c64Ev kind:function(arm,size=0x14) addr:0x02159c64
_ZN16MapObjectUnkDRTY19func_ov061_02159c78Ev kind:function(arm,size=0x4) addr:0x02159c78
_ZN16MapObjectUnkDRTY19func_ov061_02159c7cEv kind:function(arm,size=0x28) addr:0x02159c7c
_ZN16MapObjectUnkDRTY19func_ov061_02159ca4Ev kind:function(arm,size=0x44) addr:0x02159ca4
_ZN16MapObjectUnkDRTY19func_ov061_02159ce8Ev kind:function(arm,size=0x28) addr:0x02159ce8
_ZN16MapObjectUnkDRTY19func_ov061_02159d10Ev kind:function(arm,size=0x44) addr:0x02159d10
_ZN16MapObjectUnkDRTY19func_ov061_02159d54Ev kind:function(arm,size=0x2c) addr:0x02159d54
_ZN16MapObjectUnkDRTYD1Ev kind:function(arm,size=0x30) addr:0x02159d80
_ZN16MapObjectUnkDRTYD0Ev kind:function(arm,size=0x38) addr:0x02159db0
_ZN23MapObjectProfileUnkDRTYD1Ev kind:function(arm,size=0x14) addr:0x02159de8
func_ov061_02159dfc kind:function(arm,size=0x10) addr:0x02159dfc
func_ov061_02159e0c kind:function(arm,size=0x10) addr:0x02159e0c
data_ov061_02159e2c kind:data(any) addr:0x02159e2c
data_ov061_02159e3c kind:data(any) addr:0x02159e3c
data_ov061_02159e44 kind:data(any) addr:0x02159e44
data_ov061_02159e54 kind:data(any) addr:0x02159e54
data_ov061_02159e68 kind:data(any) addr:0x02159e68
data_ov061_02159e7c kind:data(any) addr:0x02159e7c ambiguous
data_ov061_02159e8c kind:data(any) addr:0x02159e8c ambiguous
__sinit_ActorUnkRMT0.cpp kind:function(arm,size=0x50) addr:0x02159e98
__sinit_ActorUnkRMT1.cpp kind:function(arm,size=0x50) addr:0x02159ee8
__sinit_ActorUnkRMT2.cpp kind:function(arm,size=0x50) addr:0x02159f38
__sinit_ActorUnkRMT3.cpp kind:function(arm,size=0x50) addr:0x02159f88
__sinit_ActorUnkRMT4.cpp kind:function(arm,size=0x50) addr:0x02159fd8
__sinit_ActorUnkCAMA_CAMB_CAMS.cpp kind:function(arm,size=0xd8) addr:0x0215a028
__sinit_ActorUnkCAWA.cpp kind:function(arm,size=0x50) addr:0x0215a100
__sinit_ActorUnkJOLN.cpp kind:function(arm,size=0x50) addr:0x0215a150
__sinit_ActorUnkFLCT.cpp kind:function(arm,size=0x74) addr:0x0215a1a0
__sinit_MapObjectUnkFSCT.cpp kind:function(arm,size=0x50) addr:0x0215a214
__sinit_MapObjectUnkDRTY.cpp kind:function(arm,size=0x74) addr:0x0215a264
.p__sinit_ActorUnkRMT0.cpp kind:data(word) addr:0x0215a2d8
.p__sinit_ActorUnkRMT1.cpp kind:data(word) addr:0x0215a2dc
.p__sinit_ActorUnkRMT2.cpp kind:data(word) addr:0x0215a2e0
.p__sinit_ActorUnkRMT3.cpp kind:data(word) addr:0x0215a2e4
.p__sinit_ActorUnkRMT4.cpp kind:data(word) addr:0x0215a2e8
.p__sinit_ActorUnkCAMA_CAMB_CAMS.cpp kind:data(word) addr:0x0215a2ec
.p__sinit_ActorUnkCAWA.cpp kind:data(word) addr:0x0215a2f0
.p__sinit_ActorUnkJOLN.cpp kind:data(word) addr:0x0215a2f4
.p__sinit_ActorUnkFLCT.cpp kind:data(word) addr:0x0215a2f8
.p__sinit_MapObjectUnkFSCT.cpp kind:data(word) addr:0x0215a2fc
.p__sinit_MapObjectUnkDRTY.cpp kind:data(word) addr:0x0215a300
_ZTV19data_ov061_0215a320 kind:data(any) addr:0x0215a320
_ZTV19data_ov061_0215a344 kind:data(any) addr:0x0215a344
data_ov061_0215a3a4 kind:data(any) addr:0x0215a3a4
data_ov061_0215a3a8 kind:data(any) addr:0x0215a3a8 ambiguous
_ZTV19data_ov061_0215a3bc kind:data(any) addr:0x0215a3bc
data_ov061_0215a3e8 kind:data(any) addr:0x0215a3e8
data_ov061_0215a3ec kind:data(any) addr:0x0215a3ec ambiguous
_ZTV19data_ov061_0215a428 kind:data(any) addr:0x0215a428
_ZTV19data_ov061_0215a488 kind:data(any) addr:0x0215a488
_ZTV19data_ov061_0215a4ac kind:data(any) addr:0x0215a4ac
_ZTV19data_ov061_0215a50c kind:data(any) addr:0x0215a50c
data_ov061_0215a510 kind:data(any) addr:0x0215a510 ambiguous
_ZTV19data_ov061_0215a530 kind:data(any) addr:0x0215a530
_ZTV19data_ov061_0215a568 kind:data(any) addr:0x0215a568 ambiguous
_ZTV19data_ov061_0215a590 kind:data(any) addr:0x0215a590
_ZTV19data_ov061_0215a5b4 kind:data(any) addr:0x0215a5b4
_ZTV19data_ov061_0215a614 kind:data(any) addr:0x0215a614
_ZTV19data_ov061_0215a638 kind:data(any) addr:0x0215a638
_ZTV19data_ov061_0215a65c kind:data(any) addr:0x0215a65c
data_ov061_0215a680 kind:data(any) addr:0x0215a680
data_ov061_0215a6d0 kind:data(any) addr:0x0215a6d0
_ZTV19data_ov061_0215a714 kind:data(any) addr:0x0215a714
_ZTV19data_ov061_0215a728 kind:data(any) addr:0x0215a728 ambiguous
_ZTV19data_ov061_0215a830 kind:data(any) addr:0x0215a830
_ZTV19data_ov061_0215a83c kind:data(any) addr:0x0215a83c ambiguous
_ZTV19data_ov061_0215a890 kind:data(any) addr:0x0215a890 ambiguous
_ZTV19data_ov061_0215a94c kind:data(any) addr:0x0215a94c
data_ov061_0215a970 kind:data(any) addr:0x0215a970
data_ov061_0215a9b8 kind:data(any) addr:0x0215a9b8
data_ov061_0215aa08 kind:data(any) addr:0x0215aa08
data_ov061_0215aa18 kind:data(any) addr:0x0215aa18 ambiguous
_ZTV19data_ov061_0215aa58 kind:data(any) addr:0x0215aa58
_ZTV19data_ov061_0215aac4 kind:data(any) addr:0x0215aac4 ambiguous
_ZTV19data_ov061_0215aaf0 kind:data(any) addr:0x0215aaf0 ambiguous
data_ov061_0215ab54 kind:data(any) addr:0x0215ab54 ambiguous
_ZTV19data_ov061_0215ab7c kind:data(any) addr:0x0215ab7c
data_ov061_0215aba0 kind:data(any) addr:0x0215aba0
_ZTV19data_ov061_0215abe8 kind:data(any) addr:0x0215abe8
_ZTV19data_ov061_0215ac14 kind:data(any) addr:0x0215ac14 ambiguous
data_ov061_0215ad04 kind:data(any) addr:0x0215ad04
data_ov061_0215ad10 kind:data(any) addr:0x0215ad10
_ZTV19data_ov061_0215ad28 kind:data(any) addr:0x0215ad28
data_ov061_0215ad54 kind:data(any) addr:0x0215ad54
_ZTV19data_ov061_0215ad94 kind:data(any) addr:0x0215ad94
data_ov061_0215adfc kind:data(any) addr:0x0215adfc
data_ov061_0215ae18 kind:data(any) addr:0x0215ae18
data_ov061_0215ae50 kind:data(any) addr:0x0215ae50 ambiguous
data_ov061_0215ae5c kind:data(any) addr:0x0215ae5c
data_ov061_0215ae70 kind:data(any) addr:0x0215ae70
data_ov061_0215ae8c kind:data(any) addr:0x0215ae8c
data_ov061_0215aeb4 kind:data(any) addr:0x0215aeb4
data_ov061_0215aee4 kind:data(any) addr:0x0215aee4 ambiguous
data_ov061_0215af4c kind:data(any) addr:0x0215af4c
_ZGVN15ProfileInstanceI19ActorProfileUnkRMT0E8sProfileE kind:bss addr:0x0215af80
@12396 kind:bss addr:0x0215af84
_ZN15ProfileInstanceI19ActorProfileUnkRMT0E8sProfileE kind:bss addr:0x0215af90
data_ov061_0215afa4 kind:bss addr:0x0215afa4 ambiguous
data_ov061_0215b004 kind:bss addr:0x0215b004 ambiguous
data_ov061_0215b008 kind:bss addr:0x0215b008 ambiguous
data_ov061_0215b064 kind:bss addr:0x0215b064 ambiguous
_ZGVN15ProfileInstanceI19ActorProfileUnkRMT1E8sProfileE kind:bss addr:0x0215b068
@12402 kind:bss addr:0x0215b06c
_ZN15ProfileInstanceI19ActorProfileUnkRMT1E8sProfileE kind:bss addr:0x0215b078
data_ov061_0215b098 kind:bss addr:0x0215b098 ambiguous
_ZGVN15ProfileInstanceI19ActorProfileUnkRMT2E8sProfileE kind:bss addr:0x0215b150
@12408 kind:bss addr:0x0215b154
_ZN15ProfileInstanceI19ActorProfileUnkRMT2E8sProfileE kind:bss addr:0x0215b160
data_ov061_0215b1b4 kind:bss addr:0x0215b1b4 ambiguous
_ZGVN15ProfileInstanceI19ActorProfileUnkRMT3E8sProfileE kind:bss addr:0x0215b238
@12414 kind:bss addr:0x0215b23c
_ZN15ProfileInstanceI19ActorProfileUnkRMT3E8sProfileE kind:bss addr:0x0215b248
_ZGVN15ProfileInstanceI19ActorProfileUnkRMT4E8sProfileE kind:bss addr:0x0215b320
@12420 kind:bss addr:0x0215b324
_ZN15ProfileInstanceI19ActorProfileUnkRMT4E8sProfileE kind:bss addr:0x0215b330
data_ov061_0215b388 kind:bss addr:0x0215b388 ambiguous
data_ov061_0215b3d4 kind:bss addr:0x0215b3d4 ambiguous
data_ov061_0215b408 kind:bss addr:0x0215b408
data_ov061_0215b414 kind:bss addr:0x0215b414
_ZGVN15ProfileInstanceI19ActorProfileUnkCAMBE8sProfileE kind:bss addr:0x0215b420
@12426 kind:bss addr:0x0215b42c
_ZN15ProfileInstanceI19ActorProfileUnkCAMBE8sProfileE kind:bss addr:0x0215b438
data_ov061_0215b50c kind:bss addr:0x0215b50c ambiguous
_ZN15ProfileInstanceI19ActorProfileUnkCAMSE8sProfileE kind:bss addr:0x0215b510
_ZN15ProfileInstanceI19ActorProfileUnkCAMAE8sProfileE kind:bss addr:0x0215b5e8
_ZGVN15ProfileInstanceI19ActorProfileUnkCAWAE8sProfileE kind:bss addr:0x0215b6c0
@12432 kind:bss addr:0x0215b6c4
_ZN15ProfileInstanceI19ActorProfileUnkCAWAE8sProfileE kind:bss addr:0x0215b6d0
data_ov061_0215b6ec kind:bss addr:0x0215b6ec ambiguous
_ZGVN15ProfileInstanceI19ActorProfileUnkJOLNE8sProfileE kind:bss addr:0x0215b7a8
@12438 kind:bss addr:0x0215b7ac
_ZN15ProfileInstanceI19ActorProfileUnkJOLNE8sProfileE kind:bss addr:0x0215b7b8
data_ov061_0215b804 kind:bss addr:0x0215b804 ambiguous
data_ov061_0215b850 kind:bss addr:0x0215b850 ambiguous
_ZGVN15ProfileInstanceI19ActorProfileUnkFLCTE8sProfileE kind:bss addr:0x0215b890
@12444 kind:bss addr:0x0215b894
_ZN15ProfileInstanceI19ActorProfileUnkFLCTE8sProfileE kind:bss addr:0x0215b8a0
_ZGVN15ProfileInstanceI23MapObjectProfileUnkFSCTE8sProfileE kind:bss addr:0x0215b978
@12047 kind:bss addr:0x0215b97c
_ZN15ProfileInstanceI23MapObjectProfileUnkFSCTE8sProfileE kind:bss addr:0x0215b988
data_ov061_0215b9a4 kind:bss addr:0x0215b9a4 ambiguous
data_ov061_0215ba58 kind:bss addr:0x0215ba58 ambiguous
_ZGVN15ProfileInstanceI23MapObjectProfileUnkDRTYE8sProfileE kind:bss addr:0x0215ba5c
@12053 kind:bss addr:0x0215ba60
_ZN15ProfileInstanceI23MapObjectProfileUnkDRTYE8sProfileE kind:bss addr:0x0215ba6c
