_ZN19ActorProfileUnkKMOS10GetProfileEv kind:function(arm,size=0xc) addr:0x02131ec0
_ZN19ActorProfileUnkKMOS6CreateEv kind:function(arm,size=0x24) addr:0x02131ecc
_ZN19ActorProfileUnkKMOSC1Ev kind:function(arm,size=0x68) addr:0x02131ef0
_ZN12ActorUnkKMOSC1Ev kind:function(arm,size=0x1ec) addr:0x02131f58
_ZN12ActorUnkKMOS19func_ov050_02132144Ev kind:function(arm,size=0x14) addr:0x02132144
_ZN12ActorUnkKMOS19func_ov050_02132158Ev kind:function(arm,size=0x14) addr:0x02132158
_ZN12ActorUnkKMOS19func_ov050_0213216cEv kind:function(arm,size=0x64) addr:0x0213216c
_ZN12ActorUnkKMOS19func_ov050_021321d0Ev kind:function(arm,size=0xcc) addr:0x021321d0
_ZN12ActorUnkKMOS19func_ov050_0213229cEv kind:function(arm,size=0x54) addr:0x0213229c
_ZN12ActorUnkKMOS19func_ov050_021322f0Ev kind:function(arm,size=0x4ac) addr:0x021322f0
_ZN12ActorUnkKMOS19func_ov050_0213279cEv kind:function(arm,size=0x40) addr:0x0213279c
_ZN12ActorUnkKMOS19func_ov050_021327dcEv kind:function(arm,size=0x1c) addr:0x021327dc
_ZN12ActorUnkKMOS19func_ov050_021327f8Ev kind:function(arm,size=0x13c) addr:0x021327f8
_ZN12ActorUnkKMOS19func_ov050_02132934Ev kind:function(arm,size=0x34) addr:0x02132934
_ZN12ActorUnkKMOS19func_ov050_02132968Ev kind:function(arm,size=0x254) addr:0x02132968
_ZN12ActorUnkKMOS19func_ov050_02132bbcEv kind:function(arm,size=0x70) addr:0x02132bbc
_ZN12ActorUnkKMOS19func_ov050_02132c2cEv kind:function(arm,size=0x2c4) addr:0x02132c2c
_ZN12ActorUnkKMOS19func_ov050_02132ef0Ev kind:function(arm,size=0x4) addr:0x02132ef0
_ZN12ActorUnkKMOS19func_ov050_02132ef4Ev kind:function(arm,size=0x1ac) addr:0x02132ef4
_ZN12ActorUnkKMOS19func_ov050_021330a0Ev kind:function(arm,size=0x48) addr:0x021330a0
_ZN12ActorUnkKMOS19func_ov050_021330e8Ev kind:function(arm,size=0x2ac) addr:0x021330e8
_ZN12ActorUnkKMOS19func_ov050_02133394Ev kind:function(arm,size=0x34) addr:0x02133394
_ZN12ActorUnkKMOS19func_ov050_021333c8Ev kind:function(arm,size=0x1e4) addr:0x021333c8
_ZN12ActorUnkKMOS19func_ov050_021335acEv kind:function(arm,size=0x4c) addr:0x021335ac
_ZN12ActorUnkKMOS19func_ov050_021335f8Ev kind:function(arm,size=0xac) addr:0x021335f8
_ZN12ActorUnkKMOS19func_ov050_021336a4Ev kind:function(arm,size=0x9c) addr:0x021336a4
_ZN12ActorUnkKMOS19func_ov050_02133740Ev kind:function(arm,size=0x180) addr:0x02133740
_ZN12ActorUnkKMOS19func_ov050_021338c0Ev kind:function(arm,size=0x7c) addr:0x021338c0
_ZN12ActorUnkKMOS19func_ov050_0213393cEv kind:function(arm,size=0x4) addr:0x0213393c
_ZN12ActorUnkKMOS19func_ov050_02133940Ev kind:function(arm,size=0xc8) addr:0x02133940
_ZN12ActorUnkKMOS19func_ov050_02133a08Ev kind:function(arm,size=0x348) addr:0x02133a08
_ZN12ActorUnkKMOS19func_ov050_02133d50Ev kind:function(arm,size=0x148) addr:0x02133d50
_ZN12ActorUnkKMOS19func_ov050_02133e98Ev kind:function(arm,size=0x64) addr:0x02133e98
_ZN12ActorUnkKMOS19func_ov050_02133efcEv kind:function(arm,size=0x164) addr:0x02133efc
_ZN12ActorUnkKMOS19func_ov050_02134060Ev kind:function(arm,size=0x1c) addr:0x02134060
_ZN12ActorUnkKMOS19func_ov050_0213407cEv kind:function(arm,size=0x40) addr:0x0213407c
_ZN12ActorUnkKMOS19func_ov050_021340bcEv kind:function(arm,size=0x24) addr:0x021340bc
_ZN12ActorUnkKMOS19func_ov050_021340e0Ev kind:function(arm,size=0x4) addr:0x021340e0
_ZN12ActorUnkKMOS19func_ov050_021340e4Ev kind:function(arm,size=0xe4) addr:0x021340e4
_ZN12ActorUnkKMOS19func_ov050_021341c8Ev kind:function(arm,size=0x3c) addr:0x021341c8
_ZN12ActorUnkKMOS19func_ov050_02134204Ev kind:function(arm,size=0x1c) addr:0x02134204
_ZN12ActorUnkKMOS19func_ov050_02134220Ev kind:function(arm,size=0x74) addr:0x02134220
_ZN12ActorUnkKMOS19func_ov050_02134294Ev kind:function(arm,size=0x54) addr:0x02134294
_ZN12ActorUnkKMOS19func_ov050_021342e8Ev kind:function(arm,size=0x74) addr:0x021342e8
_ZN12ActorUnkKMOS19func_ov050_0213435cEv kind:function(arm,size=0xa4) addr:0x0213435c
_ZN12ActorUnkKMOS19func_ov050_02134400Ev kind:function(arm,size=0x6c) addr:0x02134400
_ZN12ActorUnkKMOS19func_ov050_0213446cEv kind:function(arm,size=0x124) addr:0x0213446c
_ZN12ActorUnkKMOS19func_ov050_02134590Ev kind:function(arm,size=0x44) addr:0x02134590
_ZN12ActorUnkKMOS19func_ov050_021345d4Ev kind:function(arm,size=0x80) addr:0x021345d4
_ZN12ActorUnkKMOS19func_ov050_02134654Ev kind:function(arm,size=0x28) addr:0x02134654
_ZN12ActorUnkKMOSD1Ev kind:function(arm,size=0x1c) addr:0x0213467c
_ZN12ActorUnkKMOSD0Ev kind:function(arm,size=0x24) addr:0x02134698
_ZN12ActorUnkKMOS19func_ov050_021346bcEv kind:function(arm,size=0x50) addr:0x021346bc
_ZN12ActorUnkKMOS19func_ov050_0213470cEv kind:function(arm,size=0x7c) addr:0x0213470c
_ZN12ActorUnkKMOS19func_ov050_02134788Ev kind:function(arm,size=0x28) addr:0x02134788
_ZN12ActorUnkKMOS19func_ov050_021347b0Ev kind:function(arm,size=0x24) addr:0x021347b0
_ZN12ActorUnkKMOS19func_ov050_021347d4Ev kind:function(arm,size=0x10) addr:0x021347d4
_ZN12ActorUnkKMOS19func_ov050_021347e4Ev kind:function(arm,size=0x8) addr:0x021347e4
_ZN12ActorUnkKMOS19func_ov050_021347ecEv kind:function(arm,size=0x1c) addr:0x021347ec
_ZN12ActorUnkKMOS19func_ov050_02134808Ev kind:function(arm,size=0x1c) addr:0x02134808
_ZN12ActorUnkKMOS19func_ov050_02134824Ev kind:function(arm,size=0x50) addr:0x02134824
_ZN12ActorUnkKMOS19func_ov050_02134874Ev kind:function(arm,size=0x58) addr:0x02134874
_ZN19ActorProfileUnkKMOSD1Ev kind:function(arm,size=0x14) addr:0x021348cc
_ZN19ActorProfileUnkKMOH10GetProfileEv kind:function(arm,size=0xc) addr:0x021348e0
_ZN19ActorProfileUnkKMOH6CreateEv kind:function(arm,size=0x24) addr:0x021348ec
_ZN19ActorProfileUnkKMOHC1Ev kind:function(arm,size=0x4c) addr:0x02134910
_ZN12ActorUnkKMOHC1Ev kind:function(arm,size=0x16c) addr:0x0213495c
_ZN12ActorUnkKMOH19func_ov050_02134ac8Ev kind:function(arm,size=0x14) addr:0x02134ac8
_ZN12ActorUnkKMOH19func_ov050_02134adcEv kind:function(arm,size=0x48) addr:0x02134adc
_ZN12ActorUnkKMOH19func_ov050_02134b24Ev kind:function(arm,size=0x24) addr:0x02134b24
_ZN12ActorUnkKMOH19func_ov050_02134b48Ev kind:function(arm,size=0x54) addr:0x02134b48
_ZN12ActorUnkKMOH19func_ov050_02134b9cEv kind:function(arm,size=0x1b8) addr:0x02134b9c
_ZN12ActorUnkKMOH19func_ov050_02134d54Ev kind:function(arm,size=0x68) addr:0x02134d54
_ZN12ActorUnkKMOH19func_ov050_02134dbcEv kind:function(arm,size=0x38) addr:0x02134dbc
_ZN12ActorUnkKMOH19func_ov050_02134df4Ev kind:function(arm,size=0x88) addr:0x02134df4
_ZN12ActorUnkKMOH19func_ov050_02134e7cEv kind:function(arm,size=0x84) addr:0x02134e7c
_ZN12ActorUnkKMOH19func_ov050_02134f00Ev kind:function(arm,size=0x68) addr:0x02134f00
_ZN12ActorUnkKMOH19func_ov050_02134f68Ev kind:function(arm,size=0x13c) addr:0x02134f68
_ZN12ActorUnkKMOH19func_ov050_021350a4Ev kind:function(arm,size=0x88) addr:0x021350a4
_ZN12ActorUnkKMOH19func_ov050_0213512cEv kind:function(arm,size=0x90) addr:0x0213512c
_ZN12ActorUnkKMOH19func_ov050_021351bcEv kind:function(arm,size=0x88) addr:0x021351bc
_ZN12ActorUnkKMOH19func_ov050_02135244Ev kind:function(arm,size=0x144) addr:0x02135244
_ZN12ActorUnkKMOH19func_ov050_02135388Ev kind:function(arm,size=0x68) addr:0x02135388
_ZN12ActorUnkKMOH19func_ov050_021353f0Ev kind:function(arm,size=0x34) addr:0x021353f0
_ZN12ActorUnkKMOH19func_ov050_02135424Ev kind:function(arm,size=0xe8) addr:0x02135424
_ZN12ActorUnkKMOH19func_ov050_0213550cEv kind:function(arm,size=0x80) addr:0x0213550c
_ZN12ActorUnkKMOH19func_ov050_0213558cEv kind:function(arm,size=0x64) addr:0x0213558c
_ZN12ActorUnkKMOH19func_ov050_021355f0Ev kind:function(arm,size=0x94) addr:0x021355f0
_ZN12ActorUnkKMOH19func_ov050_02135684Ev kind:function(arm,size=0x94) addr:0x02135684
_ZN12ActorUnkKMOH19func_ov050_02135718Ev kind:function(arm,size=0x44) addr:0x02135718
_ZN12ActorUnkKMOH19func_ov050_0213575cEv kind:function(arm,size=0xa8) addr:0x0213575c
_ZN12ActorUnkKMOH19func_ov050_02135804Ev kind:function(arm,size=0x58) addr:0x02135804
_ZN12ActorUnkKMOH19func_ov050_0213585cEv kind:function(arm,size=0xac) addr:0x0213585c
_ZN12ActorUnkKMOH19func_ov050_02135908Ev kind:function(arm,size=0x68) addr:0x02135908
_ZN12ActorUnkKMOH19func_ov050_02135970Ev kind:function(arm,size=0x74) addr:0x02135970
_ZN12ActorUnkKMOH19func_ov050_021359e4Ev kind:function(arm,size=0x1cc) addr:0x021359e4
_ZN12ActorUnkKMOH19func_ov050_02135bb0Ev kind:function(arm,size=0x94) addr:0x02135bb0
_ZN12ActorUnkKMOH19func_ov050_02135c44Ev kind:function(arm,size=0x2b0) addr:0x02135c44
_ZN12ActorUnkKMOH19func_ov050_02135ef4Ev kind:function(arm,size=0x6c) addr:0x02135ef4
_ZN12ActorUnkKMOH19func_ov050_02135f60Ev kind:function(arm,size=0x6c) addr:0x02135f60
_ZN12ActorUnkKMOH19func_ov050_02135fccEv kind:function(arm,size=0x30) addr:0x02135fcc
_ZN12ActorUnkKMOH19func_ov050_02135ffcEv kind:function(arm,size=0x174) addr:0x02135ffc
_ZN12ActorUnkKMOH19func_ov050_02136170Ev kind:function(arm,size=0x78) addr:0x02136170
_ZN12ActorUnkKMOH19func_ov050_021361e8Ev kind:function(arm,size=0x84) addr:0x021361e8
_ZN12ActorUnkKMOH19func_ov050_0213626cEv kind:function(arm,size=0xf4) addr:0x0213626c
_ZN12ActorUnkKMOH19func_ov050_02136360Ev kind:function(arm,size=0x48) addr:0x02136360
_ZN12ActorUnkKMOH19func_ov050_021363a8Ev kind:function(arm,size=0x28) addr:0x021363a8
_ZN12ActorUnkKMOH19func_ov050_021363d0Ev kind:function(arm,size=0x10) addr:0x021363d0
_ZN12ActorUnkKMOH19func_ov050_021363e0Ev kind:function(arm,size=0xc4) addr:0x021363e0
_ZN12ActorUnkKMOH19func_ov050_021364a4Ev kind:function(arm,size=0x38) addr:0x021364a4
_ZN12ActorUnkKMOH19func_ov050_021364dcEv kind:function(arm,size=0x174) addr:0x021364dc
_ZN12ActorUnkKMOH19func_ov050_02136650Ev kind:function(arm,size=0x238) addr:0x02136650
_ZN12ActorUnkKMOH19func_ov050_02136888Ev kind:function(arm,size=0x64) addr:0x02136888
_ZN12ActorUnkKMOH19func_ov050_021368ecEv kind:function(arm,size=0x1a4) addr:0x021368ec
_ZN12ActorUnkKMOH19func_ov050_02136a90Ev kind:function(arm,size=0xd8) addr:0x02136a90
_ZN12ActorUnkKMOH19func_ov050_02136b68Ev kind:function(arm,size=0x4c) addr:0x02136b68
_ZN12ActorUnkKMOH19func_ov050_02136bb4Ev kind:function(arm,size=0x24) addr:0x02136bb4
_ZN12ActorUnkKMOH19func_ov050_02136bd8Ev kind:function(arm,size=0x2c) addr:0x02136bd8
_ZN12ActorUnkKMOHD0Ev kind:function(arm,size=0x1c) addr:0x02136c04
_ZN12ActorUnkKMOH19func_ov050_02136c20Ev kind:function(arm,size=0x7c) addr:0x02136c20
_ZN12ActorUnkKMOH19func_ov050_02136c9cEv kind:function(arm,size=0x84) addr:0x02136c9c
_ZN19ActorProfileUnkKMOHD1Ev kind:function(arm,size=0x14) addr:0x02136d20
_ZN19ActorProfileUnkFRTN10GetProfileEv kind:function(arm,size=0xc) addr:0x02136d34
_ZN19ActorProfileUnkFRTN6CreateEv kind:function(arm,size=0x24) addr:0x02136d40
_ZN19ActorProfileUnkFRTNC1Ev kind:function(arm,size=0x4c) addr:0x02136d64
_ZN12ActorUnkFRTNC1Ev kind:function(arm,size=0x144) addr:0x02136db0
_ZN12ActorUnkFRTN19func_ov050_02136ef4Ev kind:function(arm,size=0x14) addr:0x02136ef4
_ZN12ActorUnkFRTN19func_ov050_02136f08Ev kind:function(arm,size=0x14) addr:0x02136f08
_ZN12ActorUnkFRTN19func_ov050_02136f1cEv kind:function(arm,size=0xd0) addr:0x02136f1c
_ZN12ActorUnkFRTN19func_ov050_02136fecEv kind:function(arm,size=0x1d0) addr:0x02136fec
_ZN12ActorUnkFRTN19func_ov050_021371bcEv kind:function(arm,size=0x124) addr:0x021371bc
_ZN12ActorUnkFRTN19func_ov050_021372e0Ev kind:function(arm,size=0x78) addr:0x021372e0
_ZN12ActorUnkFRTN19func_ov050_02137358Ev kind:function(arm,size=0xb8) addr:0x02137358
_ZN12ActorUnkFRTN19func_ov050_02137410Ev kind:function(arm,size=0x1d0) addr:0x02137410
_ZN12ActorUnkFRTN19func_ov050_021375e0Ev kind:function(arm,size=0xe4) addr:0x021375e0
_ZN12ActorUnkFRTN19func_ov050_021376c4Ev kind:function(arm,size=0xb0) addr:0x021376c4
_ZN12ActorUnkFRTN19func_ov050_02137774Ev kind:function(arm,size=0x1e4) addr:0x02137774
_ZN12ActorUnkFRTN19func_ov050_02137958Ev kind:function(arm,size=0x38) addr:0x02137958
_ZN12ActorUnkFRTN19func_ov050_02137990Ev kind:function(arm,size=0x10) addr:0x02137990
_ZN12ActorUnkFRTN19func_ov050_021379a0Ev kind:function(arm,size=0x44) addr:0x021379a0
_ZN12ActorUnkFRTN19func_ov050_021379e4Ev kind:function(arm,size=0x10) addr:0x021379e4
_ZN12ActorUnkFRTN19func_ov050_021379f4Ev kind:function(arm,size=0x10) addr:0x021379f4
_ZN12ActorUnkFRTN19func_ov050_02137a04Ev kind:function(arm,size=0x34) addr:0x02137a04
_ZN12ActorUnkFRTN19func_ov050_02137a38Ev kind:function(arm,size=0x3c) addr:0x02137a38
_ZN12ActorUnkFRTN19func_ov050_02137a74Ev kind:function(arm,size=0x1c) addr:0x02137a74
_ZN12ActorUnkFRTN19func_ov050_02137a90Ev kind:function(arm,size=0x40) addr:0x02137a90
_ZN12ActorUnkFRTN19func_ov050_02137ad0Ev kind:function(arm,size=0x80) addr:0x02137ad0
_ZN12ActorUnkFRTN19func_ov050_02137b50Ev kind:function(arm,size=0x3c) addr:0x02137b50
_ZN12ActorUnkFRTN19func_ov050_02137b8cEv kind:function(arm,size=0x10) addr:0x02137b8c
_ZN12ActorUnkFRTN19func_ov050_02137b9cEv kind:function(arm,size=0xd8) addr:0x02137b9c
_ZN12ActorUnkFRTN19func_ov050_02137c74Ev kind:function(arm,size=0x14) addr:0x02137c74
_ZN12ActorUnkFRTN19func_ov050_02137c88Ev kind:function(arm,size=0x3c) addr:0x02137c88
_ZN12ActorUnkFRTN19func_ov050_02137cc4Ev kind:function(arm,size=0x3c) addr:0x02137cc4
_ZN12ActorUnkFRTN19func_ov050_02137d00Ev kind:function(arm,size=0x24) addr:0x02137d00
_ZN12ActorUnkFRTN19func_ov050_02137d24Ev kind:function(arm,size=0x80) addr:0x02137d24
_ZN12ActorUnkFRTND0Ev kind:function(arm,size=0x1c) addr:0x02137da4
_ZN12ActorUnkFRTN19func_ov050_02137dc0Ev kind:function(arm,size=0x1c) addr:0x02137dc0
_ZN12ActorUnkFRTN19func_ov050_02137ddcEv kind:function(arm,size=0x1c) addr:0x02137ddc
_ZN12ActorUnkFRTND1Ev kind:function(arm,size=0x30) addr:0x02137df8
_ZN12ActorUnkFRTN19func_ov050_02137e28Ev kind:function(arm,size=0x38) addr:0x02137e28
_ZN19ActorProfileUnkFRTND1Ev kind:function(arm,size=0x14) addr:0x02137e60
_ZN23MapObjectProfileUnkGTTN10GetProfileEv kind:function(arm,size=0xc) addr:0x02137e74
_ZN23MapObjectProfileUnkGTTN6CreateEv kind:function(arm,size=0x24) addr:0x02137e80
_ZN23MapObjectProfileUnkGTTNC1Ev kind:function(arm,size=0x48) addr:0x02137ea4
_ZN16MapObjectUnkGTTNC1Ev kind:function(arm,size=0x120) addr:0x02137eec
_ZN16MapObjectUnkGTTN19func_ov050_0213800cEv kind:function(arm,size=0x14) addr:0x0213800c
_ZN16MapObjectUnkGTTN19func_ov050_02138020Ev kind:function(arm,size=0x260) addr:0x02138020
_ZN16MapObjectUnkGTTN19func_ov050_02138280Ev kind:function(arm,size=0x20) addr:0x02138280
_ZN16MapObjectUnkGTTN19func_ov050_021382a0Ev kind:function(arm,size=0x14) addr:0x021382a0
_ZN16MapObjectUnkGTTN19func_ov050_021382b4Ev kind:function(arm,size=0x20) addr:0x021382b4
_ZN16MapObjectUnkGTTN19func_ov050_021382d4Ev kind:function(arm,size=0x30) addr:0x021382d4
_ZN16MapObjectUnkGTTN19func_ov050_02138304Ev kind:function(arm,size=0x60) addr:0x02138304
_ZN16MapObjectUnkGTTND0Ev kind:function(arm,size=0x1c) addr:0x02138364
_ZN16MapObjectUnkGTTND1Ev kind:function(arm,size=0x38) addr:0x02138380
_ZN16MapObjectUnkGTTN19func_ov050_021383b8Ev kind:function(arm,size=0x40) addr:0x021383b8
_ZN23MapObjectProfileUnkGTTND1Ev kind:function(arm,size=0x14) addr:0x021383f8
data_ov050_0213840c kind:data(any) addr:0x0213840c
data_ov050_02138424 kind:data(any) addr:0x02138424
data_ov050_02138428 kind:data(any) addr:0x02138428
__sinit_ActorUnkKMOS.cpp kind:function(arm,size=0x5c) addr:0x0213842c
__sinit_ActorUnkKMOH.cpp kind:function(arm,size=0x68) addr:0x02138488
__sinit_ActorUnkFRTN.cpp kind:function(arm,size=0x60) addr:0x021384f0
__sinit_MapObjectUnkGTTN.cpp kind:function(arm,size=0x50) addr:0x02138550
.p__sinit_ActorUnkKMOS.cpp kind:data(word) addr:0x021385a0
.p__sinit_ActorUnkKMOH.cpp kind:data(word) addr:0x021385a4
.p__sinit_ActorUnkFRTN.cpp kind:data(word) addr:0x021385a8
.p__sinit_MapObjectUnkGTTN.cpp kind:data(word) addr:0x021385ac
data_ov050_021385c0 kind:data(any) addr:0x021385c0
data_ov050_021385c8 kind:data(any) addr:0x021385c8
data_ov050_021385e0 kind:data(any) addr:0x021385e0
data_ov050_02138600 kind:data(any) addr:0x02138600
_ZTV19data_ov050_02138614 kind:data(any) addr:0x02138614
data_ov050_02138640 kind:data(any) addr:0x02138640
data_ov050_02138688 kind:data(any) addr:0x02138688
_ZTV19data_ov050_021386c8 kind:data(any) addr:0x021386c8
data_ov050_02138728 kind:data(any) addr:0x02138728
data_ov050_02138798 kind:data(any) addr:0x02138798
data_ov050_02138808 kind:data(any) addr:0x02138808
_ZTV19data_ov050_02138814 kind:data(any) addr:0x02138814
data_ov050_02138840 kind:data(any) addr:0x02138840
_ZTV19data_ov050_02138884 kind:data(any) addr:0x02138884
data_ov050_021388e4 kind:data(any) addr:0x021388e4
data_ov050_02138964 kind:data(any) addr:0x02138964
data_ov050_021389e4 kind:data(any) addr:0x021389e4
data_ov050_021389fc kind:data(any) addr:0x021389fc
data_ov050_02138a14 kind:data(any) addr:0x02138a14
data_ov050_02138a2c kind:data(any) addr:0x02138a2c
data_ov050_02138a44 kind:data(any) addr:0x02138a44
data_ov050_02138a5c kind:data(any) addr:0x02138a5c
data_ov050_02138a74 kind:data(any) addr:0x02138a74
data_ov050_02138aac kind:data(any) addr:0x02138aac
data_ov050_02138ac0 kind:data(any) addr:0x02138ac0
data_ov050_02138ad8 kind:data(any) addr:0x02138ad8
data_ov050_02138af4 kind:data(any) addr:0x02138af4
_ZTV19data_ov050_02138b08 kind:data(any) addr:0x02138b08
data_ov050_02138b34 kind:data(any) addr:0x02138b34
_ZTV19data_ov050_02138b54 kind:data(any) addr:0x02138b54
data_ov050_02138bb4 kind:data(any) addr:0x02138bb4
data_ov050_02138bbc kind:data(any) addr:0x02138bbc
data_ov050_02138bc8 kind:data(any) addr:0x02138bc8
data_ov050_02138bdc kind:data(any) addr:0x02138bdc
data_ov050_02138bf8 kind:data(any) addr:0x02138bf8
data_ov050_02138c20 kind:data(any) addr:0x02138c20
data_ov050_02138c4c kind:data(any) addr:0x02138c4c
data_ov050_02138ca0 kind:bss addr:0x02138ca0
_ZGVN15ProfileInstanceI19ActorProfileUnkKMOSE8sProfileE kind:bss addr:0x02138ca4
@31847 kind:bss addr:0x02138cb0
_ZN15ProfileInstanceI19ActorProfileUnkKMOSE8sProfileE kind:bss addr:0x02138cbc
_ZGVN15ProfileInstanceI19ActorProfileUnkKMOHE8sProfileE kind:bss addr:0x02138d94
@31853 kind:bss addr:0x02138d98
_ZN15ProfileInstanceI19ActorProfileUnkKMOHE8sProfileE kind:bss addr:0x02138da4
_ZGVN15ProfileInstanceI19ActorProfileUnkFRTNE8sProfileE kind:bss addr:0x02138e7c
@31859 kind:bss addr:0x02138e80
_ZN15ProfileInstanceI19ActorProfileUnkFRTNE8sProfileE kind:bss addr:0x02138e98
data_ov050_02138f70 kind:bss addr:0x02138f70
data_ov050_02138f74 kind:bss addr:0x02138f74
_ZN15ProfileInstanceI23MapObjectProfileUnkGTTNE8sProfileE kind:bss addr:0x02138f80
