func_ov054_02139f20 kind:function(arm,size=0x84) addr:0x02139f20
_ZN19ActorProfileUnkFBBH10GetProfileEv kind:function(arm,size=0xc) addr:0x02139fa4
_ZN19ActorProfileUnkFBBH6CreateEv kind:function(arm,size=0x24) addr:0x02139fb0
_ZN19ActorProfileUnkFBBHC1Ev kind:function(arm,size=0x44) addr:0x02139fd4
_ZN12ActorUnkFBBHC1Ev kind:function(arm,size=0x1dc) addr:0x0213a018
_ZN12ActorUnkFBBH19func_ov054_021387b4Ev kind:function(arm,size=0x14) addr:0x0213a1f4
_ZN12ActorUnkFBBH19func_ov054_021387c8Ev kind:function(arm,size=0x34) addr:0x0213a208
_ZN12ActorUnkFBBH19func_ov054_021387fcEv kind:function(arm,size=0x58) addr:0x0213a23c
_ZN12ActorUnkFBBH19func_ov054_02138854Ev kind:function(arm,size=0x24) addr:0x0213a294
_ZN12ActorUnkFBBH19func_ov054_02138878Ev kind:function(arm,size=0x4c) addr:0x0213a2b8
_ZN12ActorUnkFBBH19func_ov054_021388c4Ev kind:function(arm,size=0x1c) addr:0x0213a304
_ZN12ActorUnkFBBH19func_ov054_021388e0Ev kind:function(arm,size=0xe8) addr:0x0213a320
_ZN12ActorUnkFBBH19func_ov054_021389c8Ev kind:function(arm,size=0x114) addr:0x0213a408
_ZN12ActorUnkFBBH19func_ov054_02138adcEv kind:function(arm,size=0x38) addr:0x0213a51c
_ZN12ActorUnkFBBH19func_ov054_02138b14Ev kind:function(arm,size=0x60) addr:0x0213a554
_ZN12ActorUnkFBBH19func_ov054_02138b74Ev kind:function(arm,size=0x98) addr:0x0213a5b4
_ZN12ActorUnkFBBH19func_ov054_02138c0cEv kind:function(arm,size=0x98) addr:0x0213a64c
_ZN12ActorUnkFBBH19func_ov054_02138ca4Ev kind:function(arm,size=0x1b8) addr:0x0213a6e4
_ZN12ActorUnkFBBH19func_ov054_02138e5cEv kind:function(arm,size=0x18) addr:0x0213a89c
_ZN12ActorUnkFBBH19func_ov054_02138e74Ev kind:function(arm,size=0x14c) addr:0x0213a8b4
_ZN12ActorUnkFBBH19func_ov054_02138fc0Ev kind:function(arm,size=0x1dc) addr:0x0213aa00
_ZN12ActorUnkFBBH19func_ov054_0213919cEv kind:function(arm,size=0x100) addr:0x0213abdc
_ZN12ActorUnkFBBH19func_ov054_0213929cEv kind:function(arm,size=0x50) addr:0x0213acdc
_ZN12ActorUnkFBBH19func_ov054_021392ecEv kind:function(arm,size=0x19c) addr:0x0213ad2c
_ZN12ActorUnkFBBH19func_ov054_02139488Ev kind:function(arm,size=0x6c) addr:0x0213aec8
_ZN12ActorUnkFBBH19func_ov054_021394f4Ev kind:function(arm,size=0x134) addr:0x0213af34
_ZN12ActorUnkFBBH19func_ov054_02139628Ev kind:function(arm,size=0x30) addr:0x0213b068
_ZN12ActorUnkFBBH19func_ov054_02139658Ev kind:function(arm,size=0x84) addr:0x0213b098
_ZN12ActorUnkFBBH19func_ov054_021396dcEv kind:function(arm,size=0x30) addr:0x0213b11c
_ZN12ActorUnkFBBH19func_ov054_0213970cEv kind:function(arm,size=0x70) addr:0x0213b14c
_ZN12ActorUnkFBBH19func_ov054_0213977cEv kind:function(arm,size=0x74) addr:0x0213b1bc
_ZN12ActorUnkFBBH19func_ov054_021397f0Ev kind:function(arm,size=0x150) addr:0x0213b230
_ZN12ActorUnkFBBH19func_ov054_02139940Ev kind:function(arm,size=0x70) addr:0x0213b380
_ZN12ActorUnkFBBH19func_ov054_021399b0Ev kind:function(arm,size=0x50) addr:0x0213b3f0
_ZN12ActorUnkFBBH19func_ov054_02139a00Ev kind:function(arm,size=0x70) addr:0x0213b440
_ZN12ActorUnkFBBH19func_ov054_02139a70Ev kind:function(arm,size=0x50) addr:0x0213b4b0
_ZN12ActorUnkFBBH19func_ov054_02139ac0Ev kind:function(arm,size=0x7c) addr:0x0213b500
_ZN12ActorUnkFBBH19func_ov054_02139b3cEv kind:function(arm,size=0x2c) addr:0x0213b57c
_ZN12ActorUnkFBBH19func_ov054_02139b68Ev kind:function(arm,size=0x6c) addr:0x0213b5a8
_ZN12ActorUnkFBBH19func_ov054_02139bd4Ev kind:function(arm,size=0x38) addr:0x0213b614
_ZN12ActorUnkFBBH19func_ov054_02139c0cEv kind:function(arm,size=0x70) addr:0x0213b64c
_ZN12ActorUnkFBBH19func_ov054_02139c7cEv kind:function(arm,size=0x188) addr:0x0213b6bc
_ZN12ActorUnkFBBH19func_ov054_02139e04Ev kind:function(arm,size=0x74) addr:0x0213b844
_ZN12ActorUnkFBBH19func_ov054_02139e78Ev kind:function(arm,size=0xb0) addr:0x0213b8b8
_ZN12ActorUnkFBBH19func_ov054_02139f28Ev kind:function(arm,size=0x74) addr:0x0213b968
_ZN12ActorUnkFBBH19func_ov054_02139f9cEv kind:function(arm,size=0x1fc) addr:0x0213b9dc
_ZN12ActorUnkFBBH19func_ov054_0213a198Ev kind:function(arm,size=0x78) addr:0x0213bbd8
_ZN12ActorUnkFBBH19func_ov054_0213a210Ev kind:function(arm,size=0x50) addr:0x0213bc50
_ZN12ActorUnkFBBH19func_ov054_0213a260Ev kind:function(arm,size=0x84) addr:0x0213bca0
_ZN12ActorUnkFBBH19func_ov054_0213a2e4Ev kind:function(arm,size=0x1b8) addr:0x0213bd24
_ZN12ActorUnkFBBH19func_ov054_0213a49cEv kind:function(arm,size=0x20) addr:0x0213bedc
_ZN12ActorUnkFBBH19func_ov054_0213a4bcEv kind:function(arm,size=0xb0) addr:0x0213befc
_ZN12ActorUnkFBBH19func_ov054_0213a56cEv kind:function(arm,size=0xd4) addr:0x0213bfac
_ZN12ActorUnkFBBH19func_ov054_0213a640Ev kind:function(arm,size=0x44) addr:0x0213c080
_ZN12ActorUnkFBBH19func_ov054_0213a684Ev kind:function(arm,size=0x88) addr:0x0213c0c4
_ZN12ActorUnkFBBH19func_ov054_0213a70cEv kind:function(arm,size=0xf4) addr:0x0213c14c
_ZN12ActorUnkFBBH19func_ov054_0213a800Ev kind:function(arm,size=0x7c) addr:0x0213c240
_ZN12ActorUnkFBBH19func_ov054_0213a87cEv kind:function(arm,size=0x3ec) addr:0x0213c2bc
_ZN12ActorUnkFBBH19func_ov054_0213ac68Ev kind:function(arm,size=0x90) addr:0x0213c6a8
_ZN12ActorUnkFBBH19func_ov054_0213acf8Ev kind:function(arm,size=0x1b8) addr:0x0213c738
_ZN12ActorUnkFBBH19func_ov054_0213aeb0Ev kind:function(arm,size=0x240) addr:0x0213c8f0
_ZN12ActorUnkFBBH19func_ov054_0213b0f0Ev kind:function(arm,size=0x80) addr:0x0213cb30
_ZN12ActorUnkFBBH19func_ov054_0213b170Ev kind:function(arm,size=0x84) addr:0x0213cbb0
_ZN12ActorUnkFBBH19func_ov054_0213b1f4Ev kind:function(arm,size=0x214) addr:0x0213cc34
_ZN12ActorUnkFBBH19func_ov054_0213b408Ev kind:function(arm,size=0x20) addr:0x0213ce48
_ZN12ActorUnkFBBH19func_ov054_0213b428Ev kind:function(arm,size=0x70) addr:0x0213ce68
_ZN12ActorUnkFBBH19func_ov054_0213b498Ev kind:function(arm,size=0x3c) addr:0x0213ced8
_ZN12ActorUnkFBBH19func_ov054_0213b4d4Ev kind:function(arm,size=0x88) addr:0x0213cf14
_ZN12ActorUnkFBBH19func_ov054_0213b55cEv kind:function(arm,size=0x6d4) addr:0x0213cf9c
_ZN12ActorUnkFBBH19func_ov054_0213bc30Ev kind:function(arm,size=0x98) addr:0x0213d670
_ZN12ActorUnkFBBH19func_ov054_0213bcc8Ev kind:function(arm,size=0xdc) addr:0x0213d708
_ZN12ActorUnkFBBH19func_ov054_0213bda4Ev kind:function(arm,size=0x88) addr:0x0213d7e4
_ZN12ActorUnkFBBH19func_ov054_0213be2cEv kind:function(arm,size=0xe0) addr:0x0213d86c
_ZN12ActorUnkFBBH19func_ov054_0213bf0cEv kind:function(arm,size=0x18) addr:0x0213d94c
_ZN12ActorUnkFBBH19func_ov054_0213bf24Ev kind:function(arm,size=0x98) addr:0x0213d964
_ZN12ActorUnkFBBH19func_ov054_0213bfbcEv kind:function(arm,size=0xe0) addr:0x0213d9fc
_ZN12ActorUnkFBBH19func_ov054_0213c09cEv kind:function(arm,size=0x24) addr:0x0213dadc
_ZN12ActorUnkFBBH19func_ov054_0213c0c0Ev kind:function(arm,size=0x2c) addr:0x0213db00
_ZN12ActorUnkFBBHD0Ev kind:function(arm,size=0x1c) addr:0x0213db2c
_ZN12ActorUnkFBBH19func_ov054_0213c108Ev kind:function(arm,size=0x7c) addr:0x0213db48
_ZN12ActorUnkFBBH19func_ov054_0213c184Ev kind:function(arm,size=0x84) addr:0x0213dbc4
_ZN19ActorProfileUnkFBBHD1Ev kind:function(arm,size=0x14) addr:0x0213dc48
_ZN19ActorProfileUnkFIBB10GetProfileEv kind:function(arm,size=0xc) addr:0x0213dc5c
_ZN19ActorProfileUnkFIBB6CreateEv kind:function(arm,size=0x24) addr:0x0213dc68
_ZN19ActorProfileUnkFIBBC1Ev kind:function(arm,size=0x54) addr:0x0213dc8c
_ZN12ActorUnkFIBBC1Ev kind:function(arm,size=0x174) addr:0x0213dce0
_ZN12ActorUnkFIBB19func_ov054_0213c414Ev kind:function(arm,size=0x154) addr:0x0213de54
_ZN12ActorUnkFIBB19func_ov054_0213c568Ev kind:function(arm,size=0x50) addr:0x0213dfa8
_ZN12ActorUnkFIBB19func_ov054_0213c5b8Ev kind:function(arm,size=0x90) addr:0x0213dff8
_ZN12ActorUnkFIBB19func_ov054_0213c648Ev kind:function(arm,size=0x7c) addr:0x0213e088
_ZN12ActorUnkFIBB19func_ov054_0213c6c4Ev kind:function(arm,size=0x34) addr:0x0213e104
_ZN12ActorUnkFIBB19func_ov054_0213c6f8Ev kind:function(arm,size=0x70) addr:0x0213e138
_ZN12ActorUnkFIBB19func_ov054_0213c768Ev kind:function(arm,size=0x90) addr:0x0213e1a8
_ZN12ActorUnkFIBB19func_ov054_0213c7f8Ev kind:function(arm,size=0x70) addr:0x0213e238
_ZN12ActorUnkFIBB19func_ov054_0213c868Ev kind:function(arm,size=0xb0) addr:0x0213e2a8
_ZN12ActorUnkFIBB19func_ov054_0213c918Ev kind:function(arm,size=0xb4) addr:0x0213e358
_ZN12ActorUnkFIBB19func_ov054_0213c9ccEv kind:function(arm,size=0xe8) addr:0x0213e40c
_ZN12ActorUnkFIBB19func_ov054_0213cab4Ev kind:function(arm,size=0x70) addr:0x0213e4f4
_ZN12ActorUnkFIBB19func_ov054_0213cb24Ev kind:function(arm,size=0x70) addr:0x0213e564
_ZN12ActorUnkFIBB19func_ov054_0213cb94Ev kind:function(arm,size=0x70) addr:0x0213e5d4
_ZN12ActorUnkFIBB19func_ov054_0213cc04Ev kind:function(arm,size=0x124) addr:0x0213e644
_ZN12ActorUnkFIBB19func_ov054_0213cd28Ev kind:function(arm,size=0x14) addr:0x0213e768
_ZN12ActorUnkFIBB19func_ov054_0213cd3cEv kind:function(arm,size=0x64) addr:0x0213e77c
_ZN12ActorUnkFIBB19func_ov054_0213cda0Ev kind:function(arm,size=0x4) addr:0x0213e7e0
_ZN12ActorUnkFIBB19func_ov054_0213cda4Ev kind:function(arm,size=0x64) addr:0x0213e7e4
_ZN12ActorUnkFIBB19func_ov054_0213ce08Ev kind:function(arm,size=0x4) addr:0x0213e848
_ZN12ActorUnkFIBB19func_ov054_0213ce0cEv kind:function(arm,size=0x64) addr:0x0213e84c
_ZN12ActorUnkFIBB19func_ov054_0213ce70Ev kind:function(arm,size=0xc) addr:0x0213e8b0
_ZN12ActorUnkFIBB19func_ov054_0213ce7cEv kind:function(arm,size=0x64) addr:0x0213e8bc
_ZN12ActorUnkFIBB19func_ov054_0213cee0Ev kind:function(arm,size=0x2c) addr:0x0213e920
_ZN12ActorUnkFIBB19func_ov054_0213cf0cEv kind:function(arm,size=0x64) addr:0x0213e94c
_ZN12ActorUnkFIBB19func_ov054_0213cf70Ev kind:function(arm,size=0xc) addr:0x0213e9b0
_ZN12ActorUnkFIBB19func_ov054_0213cf7cEv kind:function(arm,size=0x64) addr:0x0213e9bc
_ZN12ActorUnkFIBB19func_ov054_0213cfe0Ev kind:function(arm,size=0xf0) addr:0x0213ea20
_ZN12ActorUnkFIBB19func_ov054_0213d0d0Ev kind:function(arm,size=0xc) addr:0x0213eb10
_ZN12ActorUnkFIBB19func_ov054_0213d0dcEv kind:function(arm,size=0x64) addr:0x0213eb1c
_ZN12ActorUnkFIBB19func_ov054_0213d140Ev kind:function(arm,size=0x44) addr:0x0213eb80
_ZN12ActorUnkFIBB19func_ov054_0213d184Ev kind:function(arm,size=0x64) addr:0x0213ebc4
_ZN12ActorUnkFIBB19func_ov054_0213d1e8Ev kind:function(arm,size=0x38) addr:0x0213ec28
_ZN12ActorUnkFIBB19func_ov054_0213d220Ev kind:function(arm,size=0x110) addr:0x0213ec60
_ZN12ActorUnkFIBB19func_ov054_0213d330Ev kind:function(arm,size=0x84) addr:0x0213ed70
_ZN12ActorUnkFIBB19func_ov054_0213d3b4Ev kind:function(arm,size=0x128) addr:0x0213edf4
_ZN12ActorUnkFIBB19func_ov054_0213d4dcEv kind:function(arm,size=0x34) addr:0x0213ef1c
_ZN12ActorUnkFIBB19func_ov054_0213d510Ev kind:function(arm,size=0x24) addr:0x0213ef50
_ZN12ActorUnkFIBB19func_ov054_0213d534Ev kind:function(arm,size=0x50) addr:0x0213ef74
_ZN12ActorUnkFIBBD1Ev kind:function(arm,size=0x30) addr:0x0213efc4
_ZN12ActorUnkFIBBD0Ev kind:function(arm,size=0x38) addr:0x0213eff4
_ZN19ActorProfileUnkFIBBD1Ev kind:function(arm,size=0x14) addr:0x0213f02c
_ZN19ActorProfileUnkFBBF10GetProfileEv kind:function(arm,size=0xc) addr:0x0213f040
_ZN19ActorProfileUnkFBBF6CreateEv kind:function(arm,size=0x24) addr:0x0213f04c
_ZN19ActorProfileUnkFBBFC1Ev kind:function(arm,size=0x44) addr:0x0213f070
_ZN12ActorUnkFBBFC1Ev kind:function(arm,size=0x3c) addr:0x0213f0b4
_ZN12ActorUnkFBBFD1Ev kind:function(arm,size=0x34) addr:0x0213f0f0
_ZN12ActorUnkFBBFD0Ev kind:function(arm,size=0x3c) addr:0x0213f124
_ZN12ActorUnkFBBF19func_ov054_0213d720Ev kind:function(arm,size=0x78) addr:0x0213f160
_ZN12ActorUnkFBBF19func_ov054_0213d798Ev kind:function(arm,size=0x148) addr:0x0213f1d8
_ZN12ActorUnkFBBF19func_ov054_0213d8e0Ev kind:function(arm,size=0x54) addr:0x0213f320
_ZN12ActorUnkFBBF19func_ov054_0213d934Ev kind:function(arm,size=0x78) addr:0x0213f374
_ZN12ActorUnkFBBF19func_ov054_0213d9acEv kind:function(arm,size=0x58) addr:0x0213f3ec
_ZN19ActorProfileUnkFBBFD1Ev kind:function(arm,size=0x14) addr:0x0213f444
__sinit_ActorUnkFBBH.cpp kind:function(arm,size=0x130) addr:0x0213f458
__sinit_ActorUnkFIBB.cpp kind:function(arm,size=0xd8) addr:0x0213f588
__sinit_ActorUnkFBBF.cpp kind:function(arm,size=0x50) addr:0x0213f660
.p__sinit_ActorUnkFBBH.cpp kind:data(word) addr:0x0213f6b0
.p__sinit_ActorUnkFIBB.cpp kind:data(word) addr:0x0213f6b4
.p__sinit_ActorUnkFBBF.cpp kind:data(word) addr:0x0213f6b8
data_ov054_0213f6c0 kind:data(any) addr:0x0213f6c0
data_ov054_0213f6e0 kind:data(any) addr:0x0213f6e0
data_ov054_0213f6f0 kind:data(any) addr:0x0213f6f0
_ZTV19data_ov054_0213f700 kind:data(any) addr:0x0213f700
data_ov054_0213f72c kind:data(any) addr:0x0213f72c
_ZTV19data_ov054_0213f770 kind:data(any) addr:0x0213f770
data_ov054_0213f7d0 kind:data(any) addr:0x0213f7d0
data_ov054_0213f7e0 kind:data(any) addr:0x0213f7e0
data_ov054_0213f9b0 kind:data(any) addr:0x0213f9b0
data_ov054_0213f9c8 kind:data(any) addr:0x0213f9c8
data_ov054_0213f9e0 kind:data(any) addr:0x0213f9e0
data_ov054_0213f9f8 kind:data(any) addr:0x0213f9f8
data_ov054_0213fa10 kind:data(any) addr:0x0213fa10
data_ov054_0213fa28 kind:data(any) addr:0x0213fa28
data_ov054_0213fa40 kind:data(any) addr:0x0213fa40
data_ov054_0213fa58 kind:data(any) addr:0x0213fa58
data_ov054_0213fa70 kind:data(any) addr:0x0213fa70
data_ov054_0213fa88 kind:data(any) addr:0x0213fa88
data_ov054_0213faa0 kind:data(any) addr:0x0213faa0
data_ov054_0213fab8 kind:data(any) addr:0x0213fab8
data_ov054_0213fae8 kind:data(any) addr:0x0213fae8
data_ov054_0213fb00 kind:data(any) addr:0x0213fb00
data_ov054_0213fb18 kind:data(any) addr:0x0213fb18
data_ov054_0213fb30 kind:data(any) addr:0x0213fb30
data_ov054_0213fb48 kind:data(any) addr:0x0213fb48
data_ov054_0213fb60 kind:data(any) addr:0x0213fb60
_ZTV19data_ov054_0213fb90 kind:data(any) addr:0x0213fb90
_ZTV19data_ov054_0213fbb4 kind:data(any) addr:0x0213fbb4
_ZTV19data_ov054_0213fbd0 kind:data(any) addr:0x0213fbd0 ambiguous
data_ov054_0213fc10 kind:data(any) addr:0x0213fc10
data_ov054_0213fc20 kind:data(any) addr:0x0213fc20
data_ov054_0213fd60 kind:data(any) addr:0x0213fd60
data_ov054_0213fd78 kind:data(any) addr:0x0213fd78
data_ov054_0213fd90 kind:data(any) addr:0x0213fd90
data_ov054_0213fda8 kind:data(any) addr:0x0213fda8
data_ov054_0213fdc0 kind:data(any) addr:0x0213fdc0
data_ov054_0213fdd8 kind:data(any) addr:0x0213fdd8
data_ov054_0213fdf0 kind:data(any) addr:0x0213fdf0
data_ov054_0213fe08 kind:data(any) addr:0x0213fe08
data_ov054_0213fe20 kind:data(any) addr:0x0213fe20
data_ov054_0213fe38 kind:data(any) addr:0x0213fe38
data_ov054_0213fe50 kind:data(any) addr:0x0213fe50
data_ov054_0213fe68 kind:data(any) addr:0x0213fe68
data_ov054_0213fe98 kind:data(any) addr:0x0213fe98
data_ov054_0213feb0 kind:data(any) addr:0x0213feb0
_ZTV19data_ov054_0213fec8 kind:data(any) addr:0x0213fec8
_ZTV19data_ov054_0213feec kind:data(any) addr:0x0213feec
data_ov054_0213ff60 kind:bss addr:0x0213ff60
data_ov054_0213ff64 kind:bss addr:0x0213ff64
sActorProfileUnkFBBH kind:bss addr:0x0213ff70
data_ov054_02140048 kind:bss addr:0x02140048
data_ov054_0214004c kind:bss addr:0x0214004c
sActorProfileUnkFIBB kind:bss addr:0x02140058
data_ov054_02140130 kind:bss addr:0x02140130
data_ov054_02140134 kind:bss addr:0x02140134
sActorProfileUnkFBBF kind:bss addr:0x02140140
