_ZN19ActorProfileUnkSNMA10GetProfileEv kind:function(arm,size=0xc) addr:0x021419e0
_ZN19ActorProfileUnkSNMA6CreateEv kind:function(arm,size=0x24) addr:0x021419ec
_ZN19ActorProfileUnkSNMAC1Ev kind:function(arm,size=0x6c) addr:0x02141a10
_ZN12ActorUnkSNMA19func_ov028_02141a7cEv kind:function(arm,size=0x34) addr:0x02141a7c
_ZN12ActorUnkSNMAC1Ev kind:function(arm,size=0x160) addr:0x02141ab0
_ZN12ActorUnkSNMA19func_ov028_02141c10Ev kind:function(arm,size=0x14) addr:0x02141c10
_ZN12ActorUnkSNMA19func_ov028_02141c24Ev kind:function(arm,size=0x14) addr:0x02141c24
_ZN12ActorUnkSNMA19func_ov028_02141c38Ev kind:function(arm,size=0x6c) addr:0x02141c38
_ZN12ActorUnkSNMA19func_ov028_02141ca4Ev kind:function(arm,size=0x4c) addr:0x02141ca4
_ZN12ActorUnkSNMA19func_ov028_02141cf0Ev kind:function(arm,size=0x1e8) addr:0x02141cf0
_ZN12ActorUnkSNMA19func_ov028_02141ed8Ev kind:function(arm,size=0x44) addr:0x02141ed8
_ZN12ActorUnkSNMA19func_ov028_02141f1cEv kind:function(arm,size=0xdc) addr:0x02141f1c
_ZN12ActorUnkSNMA19func_ov028_02141ff8Ev kind:function(arm,size=0x24) addr:0x02141ff8
_ZN12ActorUnkSNMA19func_ov028_0214201cEv kind:function(arm,size=0xb4) addr:0x0214201c
_ZN12ActorUnkSNMA19func_ov028_021420d0Ev kind:function(arm,size=0x30) addr:0x021420d0
_ZN12ActorUnkSNMA19func_ov028_02142100Ev kind:function(arm,size=0xc) addr:0x02142100
_ZN12ActorUnkSNMA19func_ov028_0214210cEv kind:function(arm,size=0xac) addr:0x0214210c
_ZN12ActorUnkSNMA19func_ov028_021421b8Ev kind:function(arm,size=0xa8) addr:0x021421b8
_ZN12ActorUnkSNMA19func_ov028_02142260Ev kind:function(arm,size=0x150) addr:0x02142260
_ZN12ActorUnkSNMA19func_ov028_021423b0Ev kind:function(arm,size=0x88) addr:0x021423b0
_ZN12ActorUnkSNMA19func_ov028_02142438Ev kind:function(arm,size=0x150) addr:0x02142438
_ZN12ActorUnkSNMA19func_ov028_02142588Ev kind:function(arm,size=0xfc) addr:0x02142588
_ZN12ActorUnkSNMA19func_ov028_02142684Ev kind:function(arm,size=0xa8) addr:0x02142684
_ZN12ActorUnkSNMA19func_ov028_0214272cEv kind:function(arm,size=0xb8) addr:0x0214272c
_ZN12ActorUnkSNMA19func_ov028_021427e4Ev kind:function(arm,size=0x1d0) addr:0x021427e4
_ZN12ActorUnkSNMA19func_ov028_021429b4Ev kind:function(arm,size=0x7c) addr:0x021429b4
_ZN12ActorUnkSNMA19func_ov028_02142a30Ev kind:function(arm,size=0x5c) addr:0x02142a30
_ZN12ActorUnkSNMA19func_ov028_02142a8cEv kind:function(arm,size=0x70) addr:0x02142a8c
_ZN12ActorUnkSNMA19func_ov028_02142afcEv kind:function(arm,size=0x34) addr:0x02142afc
_ZN12ActorUnkSNMA19func_ov028_02142b30Ev kind:function(arm,size=0xb0) addr:0x02142b30
_ZN12ActorUnkSNMA19func_ov028_02142be0Ev kind:function(arm,size=0x7c) addr:0x02142be0
_ZN12ActorUnkSNMA19func_ov028_02142c5cEv kind:function(arm,size=0x14) addr:0x02142c5c
_ZN12ActorUnkSNMA19func_ov028_02142c70Ev kind:function(arm,size=0x120) addr:0x02142c70
_ZN12ActorUnkSNMA19func_ov028_02142d90Ev kind:function(arm,size=0x90) addr:0x02142d90
_ZN12ActorUnkSNMA19func_ov028_02142e20Ev kind:function(arm,size=0x44) addr:0x02142e20
_ZN12ActorUnkSNMA19func_ov028_02142e64Ev kind:function(arm,size=0xc) addr:0x02142e64
_ZN12ActorUnkSNMA19func_ov028_02142e70Ev kind:function(arm,size=0xa0) addr:0x02142e70
_ZN12ActorUnkSNMA19func_ov028_02142f10Ev kind:function(arm,size=0x20) addr:0x02142f10
_ZN12ActorUnkSNMA19func_ov028_02142f30Ev kind:function(arm,size=0x5c) addr:0x02142f30
_ZN12ActorUnkSNMA19func_ov028_02142f8cEv kind:function(arm,size=0x3c) addr:0x02142f8c
_ZN12ActorUnkSNMA19func_ov028_02142fc8Ev kind:function(arm,size=0x2c) addr:0x02142fc8
_ZN12ActorUnkSNMA19func_ov028_02142ff4Ev kind:function(arm,size=0x64) addr:0x02142ff4
_ZN12ActorUnkSNMA19func_ov028_02143058Ev kind:function(arm,size=0x24) addr:0x02143058
_ZN12ActorUnkSNMA19func_ov028_0214307cEv kind:function(arm,size=0x2c) addr:0x0214307c
_ZN12ActorUnkSNMAD0Ev kind:function(arm,size=0x1c) addr:0x021430a8
_ZN12ActorUnkSNMA19func_ov028_021430c4Ev kind:function(arm,size=0x1c) addr:0x021430c4
_ZN12ActorUnkSNMAD1Ev kind:function(arm,size=0x28) addr:0x021430e0
_ZN12ActorUnkSNMA19func_ov028_02143108Ev kind:function(arm,size=0x30) addr:0x02143108
_ZN19ActorProfileUnkSNMAD1Ev kind:function(arm,size=0x14) addr:0x02143138
_ZN19ActorProfileUnkSNMB10GetProfileEv kind:function(arm,size=0xc) addr:0x0214314c
_ZN19ActorProfileUnkSNMB6CreateEv kind:function(arm,size=0x24) addr:0x02143158
_ZN19ActorProfileUnkSNMBC1Ev kind:function(arm,size=0x60) addr:0x0214317c
_ZN12ActorUnkSNMBC1Ev kind:function(arm,size=0xb4) addr:0x021431dc
_ZN12ActorUnkSNMB19func_ov028_02143290Ev kind:function(arm,size=0x24) addr:0x02143290
_ZN12ActorUnkSNMB19func_ov028_021432b4Ev kind:function(arm,size=0x30) addr:0x021432b4
_ZN12ActorUnkSNMB19func_ov028_021432e4Ev kind:function(arm,size=0x15c) addr:0x021432e4
_ZN12ActorUnkSNMB19func_ov028_02143440Ev kind:function(arm,size=0xb0) addr:0x02143440
_ZN12ActorUnkSNMB19func_ov028_021434f0Ev kind:function(arm,size=0x140) addr:0x021434f0
_ZN12ActorUnkSNMB19func_ov028_02143630Ev kind:function(arm,size=0x178) addr:0x02143630
_ZN12ActorUnkSNMB19func_ov028_021437a8Ev kind:function(arm,size=0x94) addr:0x021437a8
_ZN12ActorUnkSNMBD1Ev kind:function(arm,size=0x20) addr:0x0214383c
_ZN12ActorUnkSNMBD0Ev kind:function(arm,size=0x28) addr:0x0214385c
_ZN19ActorProfileUnkSNMBD1Ev kind:function(arm,size=0x14) addr:0x02143884
func_ov028_02143898 kind:function(arm,size=0xe4) addr:0x02143898
func_ov028_0214397c kind:function(arm,size=0x64) addr:0x0214397c
func_ov028_021439e0 kind:function(arm,size=0x50) addr:0x021439e0
func_ov028_02143a30 kind:function(arm,size=0x198) addr:0x02143a30
func_ov028_02143bc8 kind:function(arm,size=0x24) addr:0x02143bc8
func_ov028_02143bec kind:function(arm,size=0xd0) addr:0x02143bec
func_ov028_02143cbc kind:function(arm,size=0x4) addr:0x02143cbc
func_ov028_02143cc0 kind:function(arm,size=0x3c) addr:0x02143cc0
func_ov028_02143cfc kind:function(arm,size=0x48) addr:0x02143cfc
func_ov028_02143d44 kind:function(arm,size=0x1f8) addr:0x02143d44
func_ov028_02143f3c kind:function(arm,size=0x24) addr:0x02143f3c
func_ov028_02143f60 kind:function(arm,size=0x3c) addr:0x02143f60
func_ov028_02143f9c kind:function(arm,size=0x14) addr:0x02143f9c
func_ov028_02143fb0 kind:function(arm,size=0x7c) addr:0x02143fb0
func_ov028_0214402c kind:function(arm,size=0xb8) addr:0x0214402c
func_ov028_021440e4 kind:function(arm,size=0x1bc) addr:0x021440e4
_ZN19func_ov028_021442a0D1Ev kind:function(arm,size=0x20) addr:0x021442a0
_ZN19func_ov028_021442c0D0Ev kind:function(arm,size=0x28) addr:0x021442c0
func_ov028_021442e8 kind:function(arm,size=0x1c) addr:0x021442e8
func_ov028_02144304 kind:function(arm,size=0x104) addr:0x02144304
_ZN23MapObjectProfileUnkTRSS10GetProfileEv kind:function(arm,size=0xc) addr:0x02144408
_ZN23MapObjectProfileUnkTRSS6CreateEv kind:function(arm,size=0x24) addr:0x02144414
_ZN23MapObjectProfileUnkTRSSC1Ev kind:function(arm,size=0x54) addr:0x02144438
_ZN16MapObjectUnkTRSSC1Ev kind:function(arm,size=0x3c) addr:0x0214448c
_ZN16MapObjectUnkTRSS19func_ov028_021444c8Ev kind:function(arm,size=0xec) addr:0x021444c8
_ZN16MapObjectUnkTRSS19func_ov028_021445b4Ev kind:function(arm,size=0xe8) addr:0x021445b4
_ZN16MapObjectUnkTRSS19func_ov028_0214469cEv kind:function(arm,size=0x8) addr:0x0214469c
_ZN16MapObjectUnkTRSS19func_ov028_021446a4Ev kind:function(arm,size=0x8) addr:0x021446a4
_ZN16MapObjectUnkTRSS19func_ov028_021446acEv kind:function(arm,size=0x4) addr:0x021446ac
_ZN16MapObjectUnkTRSS19func_ov028_021446b0Ev kind:function(arm,size=0x74) addr:0x021446b0
_ZN16MapObjectUnkTRSS19func_ov028_02144724Ev kind:function(arm,size=0x18) addr:0x02144724
_ZN16MapObjectUnkTRSS19func_ov028_0214473cEv kind:function(arm,size=0x40) addr:0x0214473c
_ZN16MapObjectUnkTRSS19func_ov028_0214477cEv kind:function(arm,size=0x20) addr:0x0214477c
_ZN16MapObjectUnkTRSS19func_ov028_0214479cEv kind:function(arm,size=0x20) addr:0x0214479c
_ZN16MapObjectUnkTRSS19func_ov028_021447bcEv kind:function(arm,size=0x8) addr:0x021447bc
_ZN16MapObjectUnkTRSSD1Ev kind:function(arm,size=0x20) addr:0x021447c4
_ZN16MapObjectUnkTRSSD0Ev kind:function(arm,size=0x28) addr:0x021447e4
_ZN16MapObjectUnkTRSS19func_ov028_0214480cEv kind:function(arm,size=0x28) addr:0x0214480c
_ZN16MapObjectUnkTRSSD2Ev kind:function(arm,size=0x20) addr:0x02144834
_ZN23MapObjectProfileUnkTRSSD1Ev kind:function(arm,size=0x14) addr:0x02144854
_ZN23MapObjectProfileUnkTRRS10GetProfileEv kind:function(arm,size=0xc) addr:0x02144868
_ZN23MapObjectProfileUnkTRRS6CreateEv kind:function(arm,size=0x24) addr:0x02144874
_ZN23MapObjectProfileUnkTRRSC1Ev kind:function(arm,size=0x38) addr:0x02144898
_ZN16MapObjectUnkTRRSC1Ev kind:function(arm,size=0xa0) addr:0x021448d0
_ZN16MapObjectUnkTRRS19func_ov028_02144970Ev kind:function(arm,size=0xec) addr:0x02144970
_ZN16MapObjectUnkTRRS19func_ov028_02144a5cEv kind:function(arm,size=0x20) addr:0x02144a5c
_ZN16MapObjectUnkTRRS19func_ov028_02144a7cEv kind:function(arm,size=0x20) addr:0x02144a7c
_ZN16MapObjectUnkTRRS19func_ov028_02144a9cEv kind:function(arm,size=0x20) addr:0x02144a9c
_ZN16MapObjectUnkTRRS19func_ov028_02144abcEv kind:function(arm,size=0x8) addr:0x02144abc
_ZN16MapObjectUnkTRRSD1Ev kind:function(arm,size=0x20) addr:0x02144ac4
_ZN16MapObjectUnkTRRSD0Ev kind:function(arm,size=0x28) addr:0x02144ae4
_ZN23MapObjectProfileUnkTRRSD1Ev kind:function(arm,size=0x14) addr:0x02144b0c
_ZN23MapObjectProfileUnkTRMA10GetProfileEv kind:function(arm,size=0xc) addr:0x02144b20
_ZN23MapObjectProfileUnkTRMA6CreateEv kind:function(arm,size=0x24) addr:0x02144b2c
_ZN23MapObjectProfileUnkTRMAC1Ev kind:function(arm,size=0x38) addr:0x02144b50
_ZN16MapObjectUnkTRMAC1Ev kind:function(arm,size=0x3c) addr:0x02144b88
_ZN16MapObjectUnkTRMA19func_ov028_02144bc4Ev kind:function(arm,size=0xec) addr:0x02144bc4
_ZN16MapObjectUnkTRMA19func_ov028_02144cb0Ev kind:function(arm,size=0x74) addr:0x02144cb0
_ZN16MapObjectUnkTRMA19func_ov028_02144d24Ev kind:function(arm,size=0x18) addr:0x02144d24
_ZN16MapObjectUnkTRMA19func_ov028_02144d3cEv kind:function(arm,size=0x40) addr:0x02144d3c
_ZN16MapObjectUnkTRMA19func_ov028_02144d7cEv kind:function(arm,size=0x20) addr:0x02144d7c
_ZN16MapObjectUnkTRMA19func_ov028_02144d9cEv kind:function(arm,size=0x20) addr:0x02144d9c
_ZN16MapObjectUnkTRMA19func_ov028_02144dbcEv kind:function(arm,size=0x8) addr:0x02144dbc
_ZN16MapObjectUnkTRMAD1Ev kind:function(arm,size=0x20) addr:0x02144dc4
_ZN16MapObjectUnkTRMAD0Ev kind:function(arm,size=0x28) addr:0x02144de4
_ZN23MapObjectProfileUnkTRMAD1Ev kind:function(arm,size=0x14) addr:0x02144e0c
_ZN23MapObjectProfileUnkTRBM10GetProfileEv kind:function(arm,size=0xc) addr:0x02144e20
_ZN23MapObjectProfileUnkTRBM6CreateEv kind:function(arm,size=0x24) addr:0x02144e2c
_ZN23MapObjectProfileUnkTRBMC1Ev kind:function(arm,size=0x38) addr:0x02144e50
_ZN16MapObjectUnkTRBMC1Ev kind:function(arm,size=0x3c) addr:0x02144e88
_ZN16MapObjectUnkTRBM19func_ov028_02144ec4Ev kind:function(arm,size=0xec) addr:0x02144ec4
_ZN16MapObjectUnkTRBM19func_ov028_02144fb0Ev kind:function(arm,size=0x74) addr:0x02144fb0
_ZN16MapObjectUnkTRBM19func_ov028_02145024Ev kind:function(arm,size=0x18) addr:0x02145024
_ZN16MapObjectUnkTRBM19func_ov028_0214503cEv kind:function(arm,size=0x40) addr:0x0214503c
_ZN16MapObjectUnkTRBM19func_ov028_0214507cEv kind:function(arm,size=0x20) addr:0x0214507c
_ZN16MapObjectUnkTRBM19func_ov028_0214509cEv kind:function(arm,size=0x20) addr:0x0214509c
_ZN16MapObjectUnkTRBM19func_ov028_021450bcEv kind:function(arm,size=0x8) addr:0x021450bc
_ZN16MapObjectUnkTRBMD1Ev kind:function(arm,size=0x20) addr:0x021450c4
_ZN16MapObjectUnkTRBMD0Ev kind:function(arm,size=0x28) addr:0x021450e4
_ZN23MapObjectProfileUnkTRBMD1Ev kind:function(arm,size=0x14) addr:0x0214510c
_ZN23MapObjectProfileUnkTMSN10GetProfileEv kind:function(arm,size=0xc) addr:0x02145120
_ZN23MapObjectProfileUnkTMSN6CreateEv kind:function(arm,size=0x24) addr:0x0214512c
_ZN23MapObjectProfileUnkTMSNC1Ev kind:function(arm,size=0x38) addr:0x02145150
_ZN16MapObjectUnkTMSNC1Ev kind:function(arm,size=0x58) addr:0x02145188
_ZN16MapObjectUnkTMSN19func_ov028_021451e0Ev kind:function(arm,size=0x14) addr:0x021451e0
_ZN16MapObjectUnkTMSN19func_ov028_021451f4Ev kind:function(arm,size=0x10c) addr:0x021451f4
_ZN16MapObjectUnkTMSN19func_ov028_02145300Ev kind:function(arm,size=0x168) addr:0x02145300
_ZN16MapObjectUnkTMSN19func_ov028_02145468Ev kind:function(arm,size=0xc) addr:0x02145468
_ZN16MapObjectUnkTMSN19func_ov028_02145474Ev kind:function(arm,size=0x8c) addr:0x02145474
_ZN16MapObjectUnkTMSN19func_ov028_02145500Ev kind:function(arm,size=0x40) addr:0x02145500
_ZN16MapObjectUnkTMSN19func_ov028_02145540Ev kind:function(arm,size=0x20) addr:0x02145540
_ZN16MapObjectUnkTMSN19func_ov028_02145560Ev kind:function(arm,size=0x20) addr:0x02145560
_ZN16MapObjectUnkTMSND0Ev kind:function(arm,size=0x1c) addr:0x02145580
_ZN16MapObjectUnkTMSND1Ev kind:function(arm,size=0x28) addr:0x0214559c
_ZN16MapObjectUnkTMSN19func_ov028_021455c4Ev kind:function(arm,size=0x30) addr:0x021455c4
_ZN23MapObjectProfileUnkTMSND1Ev kind:function(arm,size=0x14) addr:0x021455f4
_ZN23MapObjectProfileUnkETNS10GetProfileEv kind:function(arm,size=0xc) addr:0x02145608
_ZN23MapObjectProfileUnkETNS6CreateEv kind:function(arm,size=0x24) addr:0x02145614
_ZN23MapObjectProfileUnkETNSC1Ev kind:function(arm,size=0x34) addr:0x02145638
_ZN16MapObjectUnkETNSC1Ev kind:function(arm,size=0x20) addr:0x0214566c
_ZN16MapObjectUnkETNS19func_ov028_0214568cEv kind:function(arm,size=0x50) addr:0x0214568c
_ZN16MapObjectUnkETNSD1Ev kind:function(arm,size=0x30) addr:0x021456dc
_ZN16MapObjectUnkETNSD0Ev kind:function(arm,size=0x38) addr:0x0214570c
_ZN23MapObjectProfileUnkETNSD1Ev kind:function(arm,size=0x14) addr:0x02145744
_ZN23MapObjectProfileUnkETSW10GetProfileEv kind:function(arm,size=0xc) addr:0x02145758
_ZN23MapObjectProfileUnkETSW6CreateEv kind:function(arm,size=0x24) addr:0x02145764
_ZN23MapObjectProfileUnkETSWC1Ev kind:function(arm,size=0x2c) addr:0x02145788
_ZN16MapObjectUnkETSWC1Ev kind:function(arm,size=0x2c) addr:0x021457b4
_ZN16MapObjectUnkETSW19func_ov028_021457e0Ev kind:function(arm,size=0x178) addr:0x021457e0
_ZN16MapObjectUnkETSW19func_ov028_02145958Ev kind:function(arm,size=0x8) addr:0x02145958
_ZN16MapObjectUnkETSW19func_ov028_02145960Ev kind:function(arm,size=0x64) addr:0x02145960
_ZN16MapObjectUnkETSW19func_ov028_021459c4Ev kind:function(arm,size=0x14) addr:0x021459c4
_ZN16MapObjectUnkETSW19func_ov028_021459d8Ev kind:function(arm,size=0x38) addr:0x021459d8
_ZN16MapObjectUnkETSWD1Ev kind:function(arm,size=0x30) addr:0x02145a10
_ZN16MapObjectUnkETSWD0Ev kind:function(arm,size=0x38) addr:0x02145a40
_ZN23MapObjectProfileUnkETSWD1Ev kind:function(arm,size=0x14) addr:0x02145a78
_ZN23MapObjectProfileUnkEFRF10GetProfileEv kind:function(arm,size=0xc) addr:0x02145a8c
_ZN23MapObjectProfileUnkEFRF6CreateEv kind:function(arm,size=0x24) addr:0x02145a98
_ZN23MapObjectProfileUnkEFRFC1Ev kind:function(arm,size=0x50) addr:0x02145abc
_ZN16MapObjectUnkEFRFC1Ev kind:function(arm,size=0x20) addr:0x02145b0c
_ZN16MapObjectUnkEFRF19func_ov028_02145b2cEv kind:function(arm,size=0x50) addr:0x02145b2c
_ZN16MapObjectUnkEFRF19func_ov028_02145b7cEv kind:function(arm,size=0x8) addr:0x02145b7c
_ZN16MapObjectUnkEFRFD1Ev kind:function(arm,size=0x30) addr:0x02145b84
_ZN16MapObjectUnkEFRFD0Ev kind:function(arm,size=0x38) addr:0x02145bb4
_ZN23MapObjectProfileUnkEFRFD1Ev kind:function(arm,size=0x14) addr:0x02145bec
_ZN23MapObjectProfileUnkRLPT10GetProfileEv kind:function(arm,size=0xc) addr:0x02145c00
_ZN23MapObjectProfileUnkRLPT6CreateEv kind:function(arm,size=0x24) addr:0x02145c0c
_ZN23MapObjectProfileUnkRLPTC1Ev kind:function(arm,size=0x4c) addr:0x02145c30
_ZN16MapObjectUnkRLPTC1Ev kind:function(arm,size=0x24) addr:0x02145c7c
_ZN16MapObjectUnkRLPT19func_ov028_02145ca0Ev kind:function(arm,size=0x5c) addr:0x02145ca0
_ZN16MapObjectUnkRLPT19func_ov028_02145cfcEv kind:function(arm,size=0x4) addr:0x02145cfc
_ZN16MapObjectUnkRLPT19func_ov028_02145d00Ev kind:function(arm,size=0x8) addr:0x02145d00
_ZN16MapObjectUnkRLPT19func_ov028_02145d08Ev kind:function(arm,size=0x14) addr:0x02145d08
_ZN16MapObjectUnkRLPT19func_ov028_02145d1cEv kind:function(arm,size=0x8) addr:0x02145d1c
_ZN16MapObjectUnkRLPT19func_ov028_02145d24Ev kind:function(arm,size=0x8) addr:0x02145d24
_ZN16MapObjectUnkRLPTD1Ev kind:function(arm,size=0x30) addr:0x02145d2c
_ZN16MapObjectUnkRLPTD0Ev kind:function(arm,size=0x38) addr:0x02145d5c
_ZN23MapObjectProfileUnkRLPTD1Ev kind:function(arm,size=0x14) addr:0x02145d94
_ZN23MapObjectProfileUnkTRH010GetProfileEv kind:function(arm,size=0xc) addr:0x02145da8
_ZN23MapObjectProfileUnkTRH06CreateEv kind:function(arm,size=0x24) addr:0x02145db4
_ZN23MapObjectProfileUnkTRH0C1Ev kind:function(arm,size=0x40) addr:0x02145dd8
_ZN16MapObjectUnkTRH0C1Ev kind:function(arm,size=0xa0) addr:0x02145e18
_ZN16MapObjectUnkTRH019func_ov028_02145eb8Ev kind:function(arm,size=0xec) addr:0x02145eb8
_ZN16MapObjectUnkTRH019func_ov028_02145fa4Ev kind:function(arm,size=0x20) addr:0x02145fa4
_ZN16MapObjectUnkTRH019func_ov028_02145fc4Ev kind:function(arm,size=0x20) addr:0x02145fc4
_ZN16MapObjectUnkTRH019func_ov028_02145fe4Ev kind:function(arm,size=0x20) addr:0x02145fe4
_ZN16MapObjectUnkTRH019func_ov028_02146004Ev kind:function(arm,size=0x8) addr:0x02146004
_ZN16MapObjectUnkTRH0D1Ev kind:function(arm,size=0x20) addr:0x0214600c
_ZN16MapObjectUnkTRH0D0Ev kind:function(arm,size=0x28) addr:0x0214602c
_ZN23MapObjectProfileUnkTRH0D1Ev kind:function(arm,size=0x14) addr:0x02146054
_ZN23MapObjectProfileUnkTRTS10GetProfileEv kind:function(arm,size=0xc) addr:0x02146068
_ZN23MapObjectProfileUnkTRTS6CreateEv kind:function(arm,size=0x24) addr:0x02146074
_ZN23MapObjectProfileUnkTRTSC1Ev kind:function(arm,size=0xac) addr:0x02146098
_ZN16MapObjectUnkTRTSC1Ev kind:function(arm,size=0x90) addr:0x02146144
_ZN16MapObjectUnkTRTS19func_ov028_021461d4Ev kind:function(arm,size=0x88) addr:0x021461d4
_ZN16MapObjectUnkTRTS19func_ov028_0214625cEv kind:function(arm,size=0x94) addr:0x0214625c
_ZN16MapObjectUnkTRTS19func_ov028_021462f0Ev kind:function(arm,size=0x10) addr:0x021462f0
_ZN16MapObjectUnkTRTSD1Ev kind:function(arm,size=0x20) addr:0x02146300
_ZN16MapObjectUnkTRTSD0Ev kind:function(arm,size=0x28) addr:0x02146320
_ZN23MapObjectProfileUnkTRTSD1Ev kind:function(arm,size=0x14) addr:0x02146348
_ZN23MapObjectProfileUnkTRSR10GetProfileEv kind:function(arm,size=0xc) addr:0x0214635c
_ZN23MapObjectProfileUnkTRSR6CreateEv kind:function(arm,size=0x24) addr:0x02146368
_ZN23MapObjectProfileUnkTRSRC1Ev kind:function(arm,size=0xb0) addr:0x0214638c
_ZN16MapObjectUnkTRSR19func_ov028_0214643cEv kind:function(arm,size=0x20) addr:0x0214643c
_ZN16MapObjectUnkTRSRC1Ev kind:function(arm,size=0x20) addr:0x0214645c
_ZN16MapObjectUnkTRSR19func_ov028_0214647cEv kind:function(arm,size=0x50) addr:0x0214647c
_ZN16MapObjectUnkTRSR19func_ov028_021464ccEv kind:function(arm,size=0xc) addr:0x021464cc
_ZN16MapObjectUnkTRSRD1Ev kind:function(arm,size=0x20) addr:0x021464d8
_ZN16MapObjectUnkTRSRD0Ev kind:function(arm,size=0x28) addr:0x021464f8
_ZN23MapObjectProfileUnkTRSRD1Ev kind:function(arm,size=0x14) addr:0x02146520
_ZN23MapObjectProfileUnkRBSR10GetProfileEv kind:function(arm,size=0xc) addr:0x02146534
_ZN23MapObjectProfileUnkRBSR6CreateEv kind:function(arm,size=0x24) addr:0x02146540
_ZN23MapObjectProfileUnkRBSRC1Ev kind:function(arm,size=0x8c) addr:0x02146564
_ZN16MapObjectUnkRBSRC1Ev kind:function(arm,size=0x20) addr:0x021465f0
_ZN16MapObjectUnkRBSR19func_ov028_02146610Ev kind:function(arm,size=0x14) addr:0x02146610
_ZN16MapObjectUnkRBSR19func_ov028_02146624Ev kind:function(arm,size=0xa8) addr:0x02146624
_ZN16MapObjectUnkRBSRD1Ev kind:function(arm,size=0x20) addr:0x021466cc
_ZN16MapObjectUnkRBSRD0Ev kind:function(arm,size=0x28) addr:0x021466ec
_ZN23MapObjectProfileUnkRBSRD1Ev kind:function(arm,size=0x14) addr:0x02146714
_ZN23MapObjectProfileUnkTRFS10GetProfileEv kind:function(arm,size=0xc) addr:0x02146728
_ZN23MapObjectProfileUnkTRFS6CreateEv kind:function(arm,size=0x24) addr:0x02146734
_ZN23MapObjectProfileUnkTRFSC1Ev kind:function(arm,size=0x84) addr:0x02146758
_ZN16MapObjectUnkTRFSC1Ev kind:function(arm,size=0x90) addr:0x021467dc
_ZN16MapObjectUnkTRFS19func_ov028_0214686cEv kind:function(arm,size=0x4c) addr:0x0214686c
_ZN16MapObjectUnkTRFS19func_ov028_021468b8Ev kind:function(arm,size=0x94) addr:0x021468b8
_ZN16MapObjectUnkTRFS19func_ov028_0214694cEv kind:function(arm,size=0x10) addr:0x0214694c
_ZN16MapObjectUnkTRFSD1Ev kind:function(arm,size=0x20) addr:0x0214695c
_ZN16MapObjectUnkTRFSD0Ev kind:function(arm,size=0x28) addr:0x0214697c
_ZN23MapObjectProfileUnkTRFSD1Ev kind:function(arm,size=0x14) addr:0x021469a4
data_ov028_021469b8 kind:data(any) addr:0x021469b8
data_ov028_021469c8 kind:data(any) addr:0x021469c8
data_ov028_021469d0 kind:data(any) addr:0x021469d0
data_ov028_021469e4 kind:data(any) addr:0x021469e4
data_ov028_02146a24 kind:data(any) addr:0x02146a24
data_ov028_02146a34 kind:data(any) addr:0x02146a34
__sinit_ActorUnkSNMA.cpp kind:function(arm,size=0x9c) addr:0x02146a44
__sinit_ActorUnkSNMB.cpp kind:function(arm,size=0x50) addr:0x02146ae0
__sinit_ov028_02146b30 kind:function(arm,size=0x20) addr:0x02146b30
__sinit_MapObjectUnkTRSS.cpp kind:function(arm,size=0x50) addr:0x02146b50
__sinit_MapObjectUnkTRRS.cpp kind:function(arm,size=0x50) addr:0x02146ba0
__sinit_MapObjectUnkTRMA.cpp kind:function(arm,size=0x50) addr:0x02146bf0
__sinit_MapObjectUnkTRBM.cpp kind:function(arm,size=0x50) addr:0x02146c40
__sinit_MapObjectUnkTMSN.cpp kind:function(arm,size=0x70) addr:0x02146c90
__sinit_MapObjectUnkETNS.cpp kind:function(arm,size=0x50) addr:0x02146d00
__sinit_MapObjectUnkETSW.cpp kind:function(arm,size=0x50) addr:0x02146d50
__sinit_MapObjectUnkEFRF.cpp kind:function(arm,size=0x50) addr:0x02146da0
__sinit_MapObjectUnkRLPT.cpp kind:function(arm,size=0x50) addr:0x02146df0
__sinit_MapObjectUnkTRH0.cpp kind:function(arm,size=0x50) addr:0x02146e40
__sinit_MapObjectUnkTRTS.cpp kind:function(arm,size=0x50) addr:0x02146e90
__sinit_MapObjectUnkTRSR.cpp kind:function(arm,size=0x50) addr:0x02146ee0
__sinit_MapObjectUnkRBSR.cpp kind:function(arm,size=0x50) addr:0x02146f30
__sinit_MapObjectUnkTRFS.cpp kind:function(arm,size=0x50) addr:0x02146f80
.p__sinit_ActorUnkSNMA.cpp kind:data(word) addr:0x02146fd0
.p__sinit_ActorUnkSNMB.cpp kind:data(word) addr:0x02146fd4
.p__sinit_ov028_02146b30 kind:data(word) addr:0x02146fd8
.p__sinit_MapObjectUnkTRSS.cpp kind:data(word) addr:0x02146fdc
.p__sinit_MapObjectUnkTRRS.cpp kind:data(word) addr:0x02146fe0
.p__sinit_MapObjectUnkTRMA.cpp kind:data(word) addr:0x02146fe4
.p__sinit_MapObjectUnkTRBM.cpp kind:data(word) addr:0x02146fe8
.p__sinit_MapObjectUnkTMSN.cpp kind:data(word) addr:0x02146fec
.p__sinit_MapObjectUnkETNS.cpp kind:data(word) addr:0x02146ff0
.p__sinit_MapObjectUnkETSW.cpp kind:data(word) addr:0x02146ff4
.p__sinit_MapObjectUnkEFRF.cpp kind:data(word) addr:0x02146ff8
.p__sinit_MapObjectUnkRLPT.cpp kind:data(word) addr:0x02146ffc
.p__sinit_MapObjectUnkTRH0.cpp kind:data(word) addr:0x02147000
.p__sinit_MapObjectUnkTRTS.cpp kind:data(word) addr:0x02147004
.p__sinit_MapObjectUnkTRSR.cpp kind:data(word) addr:0x02147008
.p__sinit_MapObjectUnkRBSR.cpp kind:data(word) addr:0x0214700c
.p__sinit_MapObjectUnkTRFS.cpp kind:data(word) addr:0x02147010
data_ov028_02147020 kind:data(any) addr:0x02147020
data_ov028_02147038 kind:data(any) addr:0x02147038
data_ov028_02147070 kind:data(any) addr:0x02147070
_ZTV19data_ov028_021470a8 kind:data(any) addr:0x021470a8
data_ov028_021470d4 kind:data(any) addr:0x021470d4
data_ov028_02147100 kind:data(any) addr:0x02147100
_ZTV19data_ov028_02147144 kind:data(any) addr:0x02147144
data_ov028_021471a8 kind:data(any) addr:0x021471a8
data_ov028_021471c0 kind:data(any) addr:0x021471c0
data_ov028_021471d8 kind:data(any) addr:0x021471d8
data_ov028_021471f0 kind:data(any) addr:0x021471f0
data_ov028_02147208 kind:data(any) addr:0x02147208
data_ov028_02147220 kind:data(any) addr:0x02147220
data_ov028_02147238 kind:data(any) addr:0x02147238
data_ov028_02147250 kind:data(any) addr:0x02147250
data_ov028_02147268 kind:data(any) addr:0x02147268
data_ov028_02147280 kind:data(any) addr:0x02147280
_ZTV19data_ov028_02147298 kind:data(any) addr:0x02147298
_ZTV19data_ov028_021472bc kind:data(any) addr:0x021472bc
data_ov028_02147320 kind:data(any) addr:0x02147320
data_ov028_02147340 kind:data(any) addr:0x02147340
data_ov028_0214734c kind:data(any) addr:0x0214734c
data_ov028_02147350 kind:data(any) addr:0x02147350
data_ov028_02147364 kind:data(any) addr:0x02147364
data_ov028_02147378 kind:data(any) addr:0x02147378
data_ov028_02147394 kind:data(any) addr:0x02147394
data_ov028_021473b4 kind:data(any) addr:0x021473b4
data_ov028_021473c4 kind:data(any) addr:0x021473c4
data_ov028_021473e4 kind:data(any) addr:0x021473e4 ambiguous
data_ov028_021473f8 kind:data(any) addr:0x021473f8
data_ov028_02147414 kind:data(any) addr:0x02147414
data_ov028_02147480 kind:data(any) addr:0x02147480
data_ov028_021474ec kind:data(any) addr:0x021474ec
data_ov028_02147508 kind:data(any) addr:0x02147508
data_ov028_02147574 kind:data(any) addr:0x02147574
data_ov028_02147590 kind:data(any) addr:0x02147590
data_ov028_021475fc kind:data(any) addr:0x021475fc
data_ov028_02147618 kind:data(any) addr:0x02147618
data_ov028_0214767c kind:data(any) addr:0x0214767c
data_ov028_0214768c kind:data(any) addr:0x0214768c
data_ov028_021476a0 kind:data(any) addr:0x021476a0
data_ov028_021476bc kind:data(any) addr:0x021476bc
data_ov028_021476e8 kind:data(any) addr:0x021476e8
data_ov028_02147754 kind:data(any) addr:0x02147754
data_ov028_02147770 kind:data(any) addr:0x02147770
data_ov028_021477ec kind:data(any) addr:0x021477ec
data_ov028_02147808 kind:data(any) addr:0x02147808
data_ov028_02147880 kind:data(any) addr:0x02147880
data_ov028_0214789c kind:data(any) addr:0x0214789c
data_ov028_02147918 kind:data(any) addr:0x02147918
data_ov028_02147934 kind:data(any) addr:0x02147934
data_ov028_021479a8 kind:data(any) addr:0x021479a8
data_ov028_021479c4 kind:data(any) addr:0x021479c4
data_ov028_02147a30 kind:data(any) addr:0x02147a30
data_ov028_02147a4c kind:data(any) addr:0x02147a4c
data_ov028_02147a68 kind:data(any) addr:0x02147a68
data_ov028_02147a90 kind:data(any) addr:0x02147a90
data_ov028_02147ae0 kind:data(any) addr:0x02147ae0
data_ov028_02147afc kind:data(any) addr:0x02147afc
data_ov028_02147b5c kind:data(any) addr:0x02147b5c
data_ov028_02147b78 kind:data(any) addr:0x02147b78
data_ov028_02147b94 kind:data(any) addr:0x02147b94
data_ov028_02147bf4 kind:data(any) addr:0x02147bf4
data_ov028_02147c10 kind:data(any) addr:0x02147c10
data_ov028_02147c60 kind:bss addr:0x02147c60
_ZGVN15ProfileInstanceI19ActorProfileUnkSNMAE8sProfileE kind:bss addr:0x02147c64
@10469 kind:bss addr:0x02147c70
_ZN15ProfileInstanceI19ActorProfileUnkSNMAE8sProfileE kind:bss addr:0x02147c7c
_ZGVN15ProfileInstanceI19ActorProfileUnkSNMBE8sProfileE kind:bss addr:0x02147d54
@10475 kind:bss addr:0x02147d58
_ZN15ProfileInstanceI19ActorProfileUnkSNMBE8sProfileE kind:bss addr:0x02147d64
data_ov028_02147e3c kind:bss addr:0x02147e3c
_ZGVN15ProfileInstanceI23MapObjectProfileUnkTRSSE8sProfileE kind:bss addr:0x02147e40
@10470 kind:bss addr:0x02147e48 ambiguous
_ZN15ProfileInstanceI23MapObjectProfileUnkTRSSE8sProfileE kind:bss addr:0x02147e4c
_ZGVN15ProfileInstanceI23MapObjectProfileUnkTRRSE8sProfileE kind:bss addr:0x02147f20
@10476 kind:bss addr:0x02147f24
_ZN15ProfileInstanceI23MapObjectProfileUnkTRRSE8sProfileE kind:bss addr:0x02147f30
_ZGVN15ProfileInstanceI23MapObjectProfileUnkTRMAE8sProfileE kind:bss addr:0x02148004
@10482 kind:bss addr:0x02148008
_ZN15ProfileInstanceI23MapObjectProfileUnkTRMAE8sProfileE kind:bss addr:0x02148014
_ZGVN15ProfileInstanceI23MapObjectProfileUnkTRBME8sProfileE kind:bss addr:0x021480e8
@10488 kind:bss addr:0x021480ec
_ZN15ProfileInstanceI23MapObjectProfileUnkTRBME8sProfileE kind:bss addr:0x021480f8
data_ov028_021481cc kind:bss addr:0x021481cc
_ZGVN15ProfileInstanceI23MapObjectProfileUnkTMSNE8sProfileE kind:bss addr:0x021481d4
@10494 kind:bss addr:0x021481e0
_ZN15ProfileInstanceI23MapObjectProfileUnkTMSNE8sProfileE kind:bss addr:0x021481ec
_ZGVN15ProfileInstanceI23MapObjectProfileUnkETNSE8sProfileE kind:bss addr:0x021482c0
@10500 kind:bss addr:0x021482c4
_ZN15ProfileInstanceI23MapObjectProfileUnkETNSE8sProfileE kind:bss addr:0x021482d0
_ZGVN15ProfileInstanceI23MapObjectProfileUnkETSWE8sProfileE kind:bss addr:0x021483a4
@10506 kind:bss addr:0x021483a8
_ZN15ProfileInstanceI23MapObjectProfileUnkETSWE8sProfileE kind:bss addr:0x021483b4
_ZGVN15ProfileInstanceI23MapObjectProfileUnkEFRFE8sProfileE kind:bss addr:0x02148488
@10512 kind:bss addr:0x0214848c
_ZN15ProfileInstanceI23MapObjectProfileUnkEFRFE8sProfileE kind:bss addr:0x02148498
_ZGVN15ProfileInstanceI23MapObjectProfileUnkRLPTE8sProfileE kind:bss addr:0x0214856c
@10518 kind:bss addr:0x02148570
_ZN15ProfileInstanceI23MapObjectProfileUnkRLPTE8sProfileE kind:bss addr:0x0214857c
_ZGVN15ProfileInstanceI23MapObjectProfileUnkTRH0E8sProfileE kind:bss addr:0x0214859c
@10524 kind:bss addr:0x021485a0
_ZN15ProfileInstanceI23MapObjectProfileUnkTRH0E8sProfileE kind:bss addr:0x021485ac
_ZGVN15ProfileInstanceI23MapObjectProfileUnkTRTSE8sProfileE kind:bss addr:0x02148680
@10530 kind:bss addr:0x02148684
_ZN15ProfileInstanceI23MapObjectProfileUnkTRTSE8sProfileE kind:bss addr:0x02148690
data_ov028_02148764 kind:bss addr:0x02148764
_ZGVN15ProfileInstanceI23MapObjectProfileUnkTRSRE8sProfileE kind:bss addr:0x02148784
@10536 kind:bss addr:0x02148788
_ZN15ProfileInstanceI23MapObjectProfileUnkTRSRE8sProfileE kind:bss addr:0x02148794
data_ov028_02148868 kind:bss addr:0x02148868
_ZGVN15ProfileInstanceI23MapObjectProfileUnkRBSRE8sProfileE kind:bss addr:0x02148888
@10542 kind:bss addr:0x0214888c
_ZN15ProfileInstanceI23MapObjectProfileUnkRBSRE8sProfileE kind:bss addr:0x02148898
_ZGVN15ProfileInstanceI23MapObjectProfileUnkTRFSE8sProfileE kind:bss addr:0x021488dc
@10548 kind:bss addr:0x021488e0
_ZN15ProfileInstanceI23MapObjectProfileUnkTRFSE8sProfileE kind:bss addr:0x021488ec
data_ov028_021489c0 kind:bss addr:0x021489c0
