_ZN19ActorProfileUnkPRPL10GetProfileEv kind:function(arm,size=0xc) addr:0x02150c00
_ZN19ActorProfileUnkPRPL6CreateEv kind:function(arm,size=0x24) addr:0x02150c0c
_ZN19ActorProfileUnkPRPLC1Ev kind:function(arm,size=0x44) addr:0x02150c30
_ZN12ActorUnkPRPL19func_ov081_02150c74Ev kind:function(arm,size=0xf8) addr:0x02150c74
_ZN12ActorUnkPRPLD1Ev kind:function(arm,size=0x14) addr:0x02150d6c
_ZN12ActorUnkPRPLD0Ev kind:function(arm,size=0x1c) addr:0x02150d80
_ZN12ActorUnkPRPL19func_ov081_02150d9cEv kind:function(arm,size=0xd0) addr:0x02150d9c
_ZN12ActorUnkPRPL19func_ov081_02150e6cEv kind:function(arm,size=0x3c) addr:0x02150e6c
_ZN12ActorUnkPRPL19func_ov081_02150ea8Ev kind:function(arm,size=0x3c) addr:0x02150ea8
_ZN12ActorUnkPRPL19func_ov081_02150ee4Ev kind:function(arm,size=0x3c) addr:0x02150ee4
_ZN12ActorUnkPRPL19func_ov081_02150f20Ev kind:function(arm,size=0x3c) addr:0x02150f20
_ZN12ActorUnkPRPL19func_ov081_02150f5cEv kind:function(arm,size=0x3c) addr:0x02150f5c
_ZN12ActorUnkPRPL19func_ov081_02150f98Ev kind:function(arm,size=0x38) addr:0x02150f98
_ZN12ActorUnkPRPL19func_ov081_02150fd0Ev kind:function(arm,size=0x34) addr:0x02150fd0
_ZN12ActorUnkPRPLC1Ev kind:function(arm,size=0xe0) addr:0x02151004
_ZN12ActorUnkPRPL19func_ov081_021510e4Ev kind:function(arm,size=0x44) addr:0x021510e4
_ZN12ActorUnkPRPL19func_ov081_02151128Ev kind:function(arm,size=0x48) addr:0x02151128
_ZN12ActorUnkPRPL19func_ov081_02151170Ev kind:function(arm,size=0x194) addr:0x02151170
_ZN12ActorUnkPRPL19func_ov081_02151304Ev kind:function(arm,size=0x44) addr:0x02151304
_ZN12ActorUnkPRPL19func_ov081_02151348Ev kind:function(arm,size=0x28) addr:0x02151348
_ZN12ActorUnkPRPL19func_ov081_02151370Ev kind:function(arm,size=0x28) addr:0x02151370
_ZN12ActorUnkPRPL19func_ov081_02151398Ev kind:function(arm,size=0xb0) addr:0x02151398
_ZN12ActorUnkPRPL19func_ov081_02151448Ev kind:function(arm,size=0x48) addr:0x02151448
_ZN12ActorUnkPRPL19func_ov081_02151490Ev kind:function(arm,size=0x4) addr:0x02151490
_ZN12ActorUnkPRPL19func_ov081_02151494Ev kind:function(arm,size=0x44) addr:0x02151494
_ZN12ActorUnkPRPL19func_ov081_021514d8Ev kind:function(arm,size=0x7c) addr:0x021514d8
_ZN12ActorUnkPRPL19func_ov081_02151554Ev kind:function(arm,size=0x5c) addr:0x02151554
_ZN12ActorUnkPRPL19func_ov081_021515b0Ev kind:function(arm,size=0x1d0) addr:0x021515b0
_ZN12ActorUnkPRPL19func_ov081_02151780Ev kind:function(arm,size=0x78) addr:0x02151780
_ZN12ActorUnkPRPL19func_ov081_021517f8Ev kind:function(arm,size=0x3c) addr:0x021517f8
_ZN12ActorUnkPRPL19func_ov081_02151834Ev kind:function(arm,size=0x110) addr:0x02151834
_ZN12ActorUnkPRPL19func_ov081_02151944Ev kind:function(arm,size=0x44) addr:0x02151944
_ZN12ActorUnkPRPL19func_ov081_02151988Ev kind:function(arm,size=0x5c) addr:0x02151988
_ZN12ActorUnkPRPL19func_ov081_021519e4Ev kind:function(arm,size=0x10) addr:0x021519e4
_ZN12ActorUnkPRPL19func_ov081_021519f4Ev kind:function(arm,size=0x10) addr:0x021519f4
_ZN12ActorUnkPRPL19func_ov081_02151a04Ev kind:function(arm,size=0x20) addr:0x02151a04
_ZN12ActorUnkPRPL19func_ov081_02151a24Ev kind:function(arm,size=0x28) addr:0x02151a24
_ZN19ActorProfileUnkPRPLD1Ev kind:function(arm,size=0x14) addr:0x02151a4c
_ZN19ActorProfileUnkPRPP10GetProfileEv kind:function(arm,size=0xc) addr:0x02151a60
_ZN19ActorProfileUnkPRPP6CreateEv kind:function(arm,size=0x24) addr:0x02151a6c
_ZN19ActorProfileUnkPRPPC1Ev kind:function(arm,size=0x44) addr:0x02151a90
_ZN12ActorUnkPRPPC1Ev kind:function(arm,size=0x48) addr:0x02151ad4
_ZN12ActorUnkPRPP19func_ov081_02151b1cEv kind:function(arm,size=0x38) addr:0x02151b1c
_ZN12ActorUnkPRPP19func_ov081_02151b54Ev kind:function(arm,size=0x44) addr:0x02151b54
_ZN12ActorUnkPRPP19func_ov081_02151b98Ev kind:function(arm,size=0x90) addr:0x02151b98
_ZN12ActorUnkPRPP19func_ov081_02151c28Ev kind:function(arm,size=0x14) addr:0x02151c28
_ZN12ActorUnkPRPP19func_ov081_02151c3cEv kind:function(arm,size=0x38) addr:0x02151c3c
_ZN12ActorUnkPRPP19func_ov081_02151c74Ev kind:function(arm,size=0x3c) addr:0x02151c74
_ZN12ActorUnkPRPP19func_ov081_02151cb0Ev kind:function(arm,size=0xb4) addr:0x02151cb0
_ZN12ActorUnkPRPP19func_ov081_02151d64Ev kind:function(arm,size=0x74) addr:0x02151d64
_ZN12ActorUnkPRPP19func_ov081_02151dd8Ev kind:function(arm,size=0x38) addr:0x02151dd8
_ZN12ActorUnkPRPP19func_ov081_02151e10Ev kind:function(arm,size=0xc8) addr:0x02151e10
_ZN12ActorUnkPRPP19func_ov081_02151ed8Ev kind:function(arm,size=0x78) addr:0x02151ed8
_ZN12ActorUnkPRPP19func_ov081_02151f50Ev kind:function(arm,size=0x2c) addr:0x02151f50
_ZN12ActorUnkPRPP19func_ov081_02151f7cEv kind:function(arm,size=0x28) addr:0x02151f7c
_ZN12ActorUnkPRPP19func_ov081_02151fa4Ev kind:function(arm,size=0x30) addr:0x02151fa4
_ZN12ActorUnkPRPPD1Ev kind:function(arm,size=0x14) addr:0x02151fd4
_ZN12ActorUnkPRPPD0Ev kind:function(arm,size=0x1c) addr:0x02151fe8
_ZN19ActorProfileUnkPRPPD1Ev kind:function(arm,size=0x14) addr:0x02152004
_ZN23MapObjectProfileUnkPRSH10GetProfileEv kind:function(arm,size=0xc) addr:0x02152018
_ZN23MapObjectProfileUnkPRSH6CreateEv kind:function(arm,size=0x24) addr:0x02152024
_ZN23MapObjectProfileUnkPRSHC1Ev kind:function(arm,size=0xa4) addr:0x02152048
_ZN16MapObjectUnkPRSH19func_ov081_021520ecEv kind:function(arm,size=0xb0) addr:0x021520ec
_ZN16MapObjectUnkPRSHD1Ev kind:function(arm,size=0x14) addr:0x0215219c
_ZN16MapObjectUnkPRSHD0Ev kind:function(arm,size=0x1c) addr:0x021521b0
_ZN16MapObjectUnkPRSH19func_ov081_021521ccEv kind:function(arm,size=0xd0) addr:0x021521cc
_ZN16MapObjectUnkPRSHC1Ev kind:function(arm,size=0x98) addr:0x0215229c
_ZN16MapObjectUnkPRSH19func_ov081_02152334Ev kind:function(arm,size=0x80) addr:0x02152334
_ZN16MapObjectUnkPRSH19func_ov081_021523b4Ev kind:function(arm,size=0x88) addr:0x021523b4
_ZN16MapObjectUnkPRSH19func_ov081_0215243cEv kind:function(arm,size=0x8) addr:0x0215243c
_ZN16MapObjectUnkPRSH19func_ov081_02152444Ev kind:function(arm,size=0x12c) addr:0x02152444
_ZN16MapObjectUnkPRSH19func_ov081_02152570Ev kind:function(arm,size=0x4) addr:0x02152570
_ZN16MapObjectUnkPRSH19func_ov081_02152574Ev kind:function(arm,size=0x6c) addr:0x02152574
_ZN16MapObjectUnkPRSH19func_ov081_021525e0Ev kind:function(arm,size=0x20) addr:0x021525e0
_ZN16MapObjectUnkPRSH19func_ov081_02152600Ev kind:function(arm,size=0x10) addr:0x02152600
_ZN16MapObjectUnkPRSH19func_ov081_02152610Ev kind:function(arm,size=0x88) addr:0x02152610
_ZN16MapObjectUnkPRSH19func_ov081_02152698Ev kind:function(arm,size=0x20) addr:0x02152698
_ZN23MapObjectProfileUnkPRSHD1Ev kind:function(arm,size=0x14) addr:0x021526b8
data_ov081_021526cc kind:data(any) addr:0x021526cc
data_ov081_021526d0 kind:data(any) addr:0x021526d0
data_ov081_021526d4 kind:data(any) addr:0x021526d4
data_ov081_021526d8 kind:data(any) addr:0x021526d8
data_ov081_021526dc kind:data(any) addr:0x021526dc
data_ov081_021526ec kind:data(any) addr:0x021526ec
data_ov081_0215270c kind:data(any) addr:0x0215270c
__sinit_ActorUnkPRPL.cpp kind:function(arm,size=0x50) addr:0x0215271c
__sinit_ActorUnkPRPP.cpp kind:function(arm,size=0x50) addr:0x0215276c
__sinit_MapObjectUnkPRSH.cpp kind:function(arm,size=0x7c) addr:0x021527bc
.p__sinit_ActorUnkPRPL.cpp kind:data(word) addr:0x02152838
.p__sinit_ActorUnkPRPP.cpp kind:data(word) addr:0x0215283c
.p__sinit_MapObjectUnkPRSH.cpp kind:data(word) addr:0x02152840
data_ov081_02152860 kind:data(any) addr:0x02152860
data_ov081_02152864 kind:data(any) addr:0x02152864
data_ov081_0215288c kind:data(any) addr:0x0215288c
data_ov081_021528b4 kind:data(any) addr:0x021528b4
data_ov081_021528c8 kind:data(any) addr:0x021528c8
_ZTV19data_ov081_021528d8 kind:data(any) addr:0x021528d8
data_ov081_02152904 kind:data(any) addr:0x02152904
_ZTV19data_ov081_02152928 kind:data(any) addr:0x02152928
data_ov081_0215298c kind:data(any) addr:0x0215298c
_ZTV19data_ov081_0215299c kind:data(any) addr:0x0215299c
_ZTV19data_ov081_021529c0 kind:data(any) addr:0x021529c0
data_ov081_021529c4 kind:data(any) addr:0x021529c4 ambiguous
data_ov081_02152a1c kind:data(any) addr:0x02152a1c
data_ov081_02152a25 kind:data(any) addr:0x02152a25 ambiguous
data_ov081_02152a28 kind:data(any) addr:0x02152a28
data_ov081_02152a3c kind:data(any) addr:0x02152a3c
data_ov081_02152a58 kind:data(any) addr:0x02152a58
data_ov081_02152a74 kind:data(any) addr:0x02152a74
data_ov081_02152a9c kind:data(any) addr:0x02152a9c
data_ov081_02152ac8 kind:data(any) addr:0x02152ac8
data_ov081_02152b00 kind:bss addr:0x02152b00
data_ov081_02152b04 kind:bss addr:0x02152b04
sActorProfileUnkPRPL kind:bss addr:0x02152b10
data_ov081_02152b4c kind:bss addr:0x02152b4c
data_ov081_02152b50 kind:bss addr:0x02152b50
data_ov081_02152b54 kind:bss addr:0x02152b54 ambiguous
sActorProfileUnkPRPP kind:bss addr:0x02152b5c
data_ov081_02152b98 kind:bss addr:0x02152b98
data_ov081_02152b9c kind:bss addr:0x02152b9c
sMapObjectProfileUnkPRSH kind:bss addr:0x02152ba8
data_ov081_02152c7c kind:bss addr:0x02152c7c
