func_ov053_021384e0 kind:function(arm,size=0x48) addr:0x021384e0
func_ov053_02138528 kind:function(arm,size=0x2c) addr:0x02138528
func_ov053_02138554 kind:function(arm,size=0x48) addr:0x02138554
_ZN19ActorProfileUnkLIKE10GetProfileEv kind:function(arm,size=0xc) addr:0x0213859c
_ZN19ActorProfileUnkLIKE6CreateEv kind:function(arm,size=0x24) addr:0x021385a8
_ZN19ActorProfileUnkLIKEC1Ev kind:function(arm,size=0x5c) addr:0x021385cc
_ZN12ActorUnkLIKE19func_ov053_02138628Ev kind:function(arm,size=0x28) addr:0x02138628
_ZN12ActorUnkLIKED1Ev kind:function(arm,size=0x1c) addr:0x02138650
_ZN12ActorUnkLIKED0Ev kind:function(arm,size=0x24) addr:0x0213866c
_ZN12ActorUnkLIKE19func_ov053_02138690Ev kind:function(arm,size=0xf8) addr:0x02138690
_ZN12ActorUnkLIKEC1Ev kind:function(arm,size=0x32c) addr:0x02138788
_ZN12ActorUnkLIKE19func_ov053_02138ab4Ev kind:function(arm,size=0x14) addr:0x02138ab4
_ZN12ActorUnkLIKE19func_ov053_02138ac8Ev kind:function(arm,size=0x14) addr:0x02138ac8
_ZN12ActorUnkLIKE19func_ov053_02138adcEv kind:function(arm,size=0x14) addr:0x02138adc
_ZN12ActorUnkLIKE19func_ov053_02138af0Ev kind:function(arm,size=0xc0) addr:0x02138af0
_ZN12ActorUnkLIKE19func_ov053_02138bb0Ev kind:function(arm,size=0xc8) addr:0x02138bb0
_ZN12ActorUnkLIKE19func_ov053_02138c78Ev kind:function(arm,size=0x80) addr:0x02138c78
_ZN12ActorUnkLIKE19func_ov053_02138cf8Ev kind:function(arm,size=0x5cc) addr:0x02138cf8
_ZN12ActorUnkLIKE19func_ov053_021392c4Ev kind:function(arm,size=0x168) addr:0x021392c4
_ZN12ActorUnkLIKE19func_ov053_0213942cEv kind:function(arm,size=0x8) addr:0x0213942c
_ZN12ActorUnkLIKE19func_ov053_02139434Ev kind:function(arm,size=0x74) addr:0x02139434
_ZN12ActorUnkLIKE19func_ov053_021394a8Ev kind:function(arm,size=0x14c) addr:0x021394a8
_ZN12ActorUnkLIKE19func_ov053_021395f4Ev kind:function(arm,size=0x268) addr:0x021395f4
_ZN12ActorUnkLIKE19func_ov053_0213985cEv kind:function(arm,size=0x78) addr:0x0213985c
_ZN12ActorUnkLIKE19func_ov053_021398d4Ev kind:function(arm,size=0x188) addr:0x021398d4
_ZN12ActorUnkLIKE19func_ov053_02139a5cEv kind:function(arm,size=0x78) addr:0x02139a5c
_ZN12ActorUnkLIKE19func_ov053_02139ad4Ev kind:function(arm,size=0x15c) addr:0x02139ad4
_ZN12ActorUnkLIKE19func_ov053_02139c30Ev kind:function(arm,size=0x6c) addr:0x02139c30
_ZN12ActorUnkLIKE19func_ov053_02139c9cEv kind:function(arm,size=0x5c) addr:0x02139c9c
_ZN12ActorUnkLIKE19func_ov053_02139cf8Ev kind:function(arm,size=0x13c) addr:0x02139cf8
_ZN12ActorUnkLIKE19func_ov053_02139e34Ev kind:function(arm,size=0x2c4) addr:0x02139e34
_ZN12ActorUnkLIKE19func_ov053_0213a0f8Ev kind:function(arm,size=0x90) addr:0x0213a0f8
_ZN12ActorUnkLIKE19func_ov053_0213a188Ev kind:function(arm,size=0x34) addr:0x0213a188
_ZN12ActorUnkLIKE19func_ov053_0213a1bcEv kind:function(arm,size=0x64) addr:0x0213a1bc
_ZN12ActorUnkLIKE19func_ov053_0213a220Ev kind:function(arm,size=0x34) addr:0x0213a220
_ZN12ActorUnkLIKE19func_ov053_0213a254Ev kind:function(arm,size=0x110) addr:0x0213a254
_ZN12ActorUnkLIKE19func_ov053_0213a364Ev kind:function(arm,size=0x108) addr:0x0213a364
_ZN12ActorUnkLIKE19func_ov053_0213a46cEv kind:function(arm,size=0xa0) addr:0x0213a46c
_ZN12ActorUnkLIKE19func_ov053_0213a50cEv kind:function(arm,size=0x1a4) addr:0x0213a50c
_ZN12ActorUnkLIKE19func_ov053_0213a6b0Ev kind:function(arm,size=0xb0) addr:0x0213a6b0
_ZN12ActorUnkLIKE19func_ov053_0213a760Ev kind:function(arm,size=0x5c) addr:0x0213a760
_ZN12ActorUnkLIKE19func_ov053_0213a7bcEv kind:function(arm,size=0x78) addr:0x0213a7bc
_ZN12ActorUnkLIKE19func_ov053_0213a834Ev kind:function(arm,size=0x84) addr:0x0213a834
_ZN12ActorUnkLIKE19func_ov053_0213a8b8Ev kind:function(arm,size=0xa0) addr:0x0213a8b8
_ZN12ActorUnkLIKE19func_ov053_0213a958Ev kind:function(arm,size=0x54) addr:0x0213a958
_ZN12ActorUnkLIKE19func_ov053_0213a9acEv kind:function(arm,size=0x8c) addr:0x0213a9ac
_ZN12ActorUnkLIKE19func_ov053_0213aa38Ev kind:function(arm,size=0x48) addr:0x0213aa38
_ZN12ActorUnkLIKE19func_ov053_0213aa80Ev kind:function(arm,size=0xc4) addr:0x0213aa80
_ZN12ActorUnkLIKE19func_ov053_0213ab44Ev kind:function(arm,size=0x1e0) addr:0x0213ab44
_ZN12ActorUnkLIKE19func_ov053_0213ad24Ev kind:function(arm,size=0x188) addr:0x0213ad24
_ZN12ActorUnkLIKE19func_ov053_0213aeacEv kind:function(arm,size=0x58) addr:0x0213aeac
_ZN12ActorUnkLIKE19func_ov053_0213af04Ev kind:function(arm,size=0x50) addr:0x0213af04
_ZN12ActorUnkLIKE19func_ov053_0213af54Ev kind:function(arm,size=0x90) addr:0x0213af54
_ZN12ActorUnkLIKE19func_ov053_0213afe4Ev kind:function(arm,size=0x18) addr:0x0213afe4
_ZN12ActorUnkLIKE19func_ov053_0213affcEv kind:function(arm,size=0x10c) addr:0x0213affc
_ZN12ActorUnkLIKE19func_ov053_0213b108Ev kind:function(arm,size=0xac) addr:0x0213b108
_ZN12ActorUnkLIKE19func_ov053_0213b1b4Ev kind:function(arm,size=0x24) addr:0x0213b1b4
_ZN12ActorUnkLIKE19func_ov053_0213b1d8Ev kind:function(arm,size=0x10) addr:0x0213b1d8
_ZN12ActorUnkLIKE19func_ov053_0213b1e8Ev kind:function(arm,size=0x8) addr:0x0213b1e8
_ZN12ActorUnkLIKE19func_ov053_0213b1f0Ev kind:function(arm,size=0x24) addr:0x0213b1f0
_ZN12ActorUnkLIKE19func_ov053_0213b214Ev kind:function(arm,size=0x2c) addr:0x0213b214
_ZN12ActorUnkLIKE19func_ov053_0213b240Ev kind:function(arm,size=0x1c) addr:0x0213b240
_ZN12ActorUnkLIKE19func_ov053_0213b25cEv kind:function(arm,size=0x1c) addr:0x0213b25c
_ZN12ActorUnkLIKE19func_ov053_0213b278Ev kind:function(arm,size=0x1c) addr:0x0213b278
_ZN19ActorProfileUnkLIKED1Ev kind:function(arm,size=0x14) addr:0x0213b294
_ZN19ActorProfileUnkRAT010GetProfileEv kind:function(arm,size=0xc) addr:0x0213b2a8
_ZN19ActorProfileUnkRAT06CreateEv kind:function(arm,size=0x24) addr:0x0213b2b4
_ZN19ActorProfileUnkRAT0C1Ev kind:function(arm,size=0x44) addr:0x0213b2d8
_ZN12ActorUnkRAT0C1Ev kind:function(arm,size=0x190) addr:0x0213b31c
_ZN12ActorUnkRAT019func_ov053_0213b4acEv kind:function(arm,size=0x14) addr:0x0213b4ac
_ZN12ActorUnkRAT019func_ov053_0213b4c0Ev kind:function(arm,size=0x70) addr:0x0213b4c0
_ZN12ActorUnkRAT019func_ov053_0213b530Ev kind:function(arm,size=0x24) addr:0x0213b530
_ZN12ActorUnkRAT019func_ov053_0213b554Ev kind:function(arm,size=0x23c) addr:0x0213b554
_ZN12ActorUnkRAT019func_ov053_0213b790Ev kind:function(arm,size=0x7c) addr:0x0213b790
_ZN12ActorUnkRAT019func_ov053_0213b80cEv kind:function(arm,size=0x60) addr:0x0213b80c
_ZN12ActorUnkRAT019func_ov053_0213b86cEv kind:function(arm,size=0xb8) addr:0x0213b86c
_ZN12ActorUnkRAT019func_ov053_0213b924Ev kind:function(arm,size=0x8c) addr:0x0213b924
_ZN12ActorUnkRAT019func_ov053_0213b9b0Ev kind:function(arm,size=0x1c) addr:0x0213b9b0
_ZN12ActorUnkRAT019func_ov053_0213b9ccEv kind:function(arm,size=0x4) addr:0x0213b9cc
_ZN12ActorUnkRAT019func_ov053_0213b9d0Ev kind:function(arm,size=0x74) addr:0x0213b9d0
_ZN12ActorUnkRAT019func_ov053_0213ba44Ev kind:function(arm,size=0x70) addr:0x0213ba44
_ZN12ActorUnkRAT019func_ov053_0213bab4Ev kind:function(arm,size=0x10) addr:0x0213bab4
_ZN12ActorUnkRAT019func_ov053_0213bac4Ev kind:function(arm,size=0x28) addr:0x0213bac4
_ZN12ActorUnkRAT019func_ov053_0213baecEv kind:function(arm,size=0x3c) addr:0x0213baec
_ZN12ActorUnkRAT019func_ov053_0213bb28Ev kind:function(arm,size=0x28) addr:0x0213bb28
_ZN12ActorUnkRAT019func_ov053_0213bb50Ev kind:function(arm,size=0x4) addr:0x0213bb50
_ZN12ActorUnkRAT019func_ov053_0213bb54Ev kind:function(arm,size=0xb4) addr:0x0213bb54
_ZN12ActorUnkRAT019func_ov053_0213bc08Ev kind:function(arm,size=0xfc) addr:0x0213bc08
_ZN12ActorUnkRAT019func_ov053_0213bd04Ev kind:function(arm,size=0x70) addr:0x0213bd04
_ZN12ActorUnkRAT019func_ov053_0213bd74Ev kind:function(arm,size=0x2d0) addr:0x0213bd74
_ZN12ActorUnkRAT019func_ov053_0213c044Ev kind:function(arm,size=0x8c) addr:0x0213c044
_ZN12ActorUnkRAT019func_ov053_0213c0d0Ev kind:function(arm,size=0x294) addr:0x0213c0d0
_ZN12ActorUnkRAT019func_ov053_0213c364Ev kind:function(arm,size=0x40) addr:0x0213c364
_ZN12ActorUnkRAT019func_ov053_0213c3a4Ev kind:function(arm,size=0x4c) addr:0x0213c3a4
_ZN12ActorUnkRAT019func_ov053_0213c3f0Ev kind:function(arm,size=0x14) addr:0x0213c3f0
_ZN12ActorUnkRAT019func_ov053_0213c404Ev kind:function(arm,size=0x28) addr:0x0213c404
_ZN12ActorUnkRAT019func_ov053_0213c42cEv kind:function(arm,size=0x90) addr:0x0213c42c
_ZN12ActorUnkRAT019func_ov053_0213c4bcEv kind:function(arm,size=0x3c) addr:0x0213c4bc
_ZN12ActorUnkRAT019func_ov053_0213c4f8Ev kind:function(arm,size=0x198) addr:0x0213c4f8
_ZN12ActorUnkRAT019func_ov053_0213c690Ev kind:function(arm,size=0x174) addr:0x0213c690
_ZN12ActorUnkRAT019func_ov053_0213c804Ev kind:function(arm,size=0x20) addr:0x0213c804
_ZN12ActorUnkRAT019func_ov053_0213c824Ev kind:function(arm,size=0x80) addr:0x0213c824
_ZN12ActorUnkRAT019func_ov053_0213c8a4Ev kind:function(arm,size=0x3c) addr:0x0213c8a4
_ZN12ActorUnkRAT0D1Ev kind:function(arm,size=0x14) addr:0x0213c8e0
_ZN12ActorUnkRAT0D0Ev kind:function(arm,size=0x1c) addr:0x0213c8f4
_ZN12ActorUnkRAT019func_ov053_0213c910Ev kind:function(arm,size=0xc) addr:0x0213c910
_ZN12ActorUnkRAT019func_ov053_0213c91cEv kind:function(arm,size=0x24) addr:0x0213c91c
_ZN12ActorUnkRAT019func_ov053_0213c940Ev kind:function(arm,size=0x44) addr:0x0213c940
_ZN12ActorUnkRAT019func_ov053_0213c984Ev kind:function(arm,size=0x2c) addr:0x0213c984
_ZN12ActorUnkRAT019func_ov053_0213c9b0Ev kind:function(arm,size=0x1c) addr:0x0213c9b0
_ZN12ActorUnkRAT019func_ov053_0213c9ccEv kind:function(arm,size=0x84) addr:0x0213c9cc
_ZN12ActorUnkRAT019func_ov053_0213ca50Ev kind:function(arm,size=0x8c) addr:0x0213ca50
_ZN19ActorProfileUnkRAT0D1Ev kind:function(arm,size=0x14) addr:0x0213cadc
_ZN27UnkStruct_ItemManager_20_1419func_ov053_0213caf0Ev kind:function(arm,size=0x98) addr:0x0213caf0
func_ov053_0213cb88 kind:function(arm,size=0x194) addr:0x0213cb88
data_ov053_0213cd1c kind:data(any) addr:0x0213cd1c
data_ov053_0213cd2c kind:data(any) addr:0x0213cd2c
data_ov053_0213cd3c kind:data(any) addr:0x0213cd3c
data_ov053_0213cd4c kind:data(any) addr:0x0213cd4c
__sinit_ActorUnkLIKE.cpp kind:function(arm,size=0x50) addr:0x0213cd5c
__sinit_ActorUnkRAT0.cpp kind:function(arm,size=0xb0) addr:0x0213cdac
__sinit_ov053_0213ce5c kind:function(arm,size=0x18) addr:0x0213ce5c
.p__sinit_ActorUnkLIKE.cpp kind:data(word) addr:0x0213ce74
.p__sinit_ActorUnkRAT0.cpp kind:data(word) addr:0x0213ce78
.p__sinit_ov053_0213ce5c kind:data(word) addr:0x0213ce7c
data_ov053_0213cea0 kind:data(any) addr:0x0213cea0
data_ov053_0213ceb8 kind:data(any) addr:0x0213ceb8
data_ov053_0213ced8 kind:data(any) addr:0x0213ced8
_ZTV19data_ov053_0213ceec kind:data(any) addr:0x0213ceec
data_ov053_0213cf18 kind:data(any) addr:0x0213cf18
data_ov053_0213cf44 kind:data(any) addr:0x0213cf44
data_ov053_0213cf8c kind:data(any) addr:0x0213cf8c
_ZTV19data_ov053_0213cfd0 kind:data(any) addr:0x0213cfd0
data_ov053_0213d030 kind:data(any) addr:0x0213d030
data_ov053_0213d0a0 kind:data(any) addr:0x0213d0a0
data_ov053_0213d110 kind:data(any) addr:0x0213d110
data_ov053_0213d128 kind:data(any) addr:0x0213d128
data_ov053_0213d158 kind:data(any) addr:0x0213d158
data_ov053_0213d170 kind:data(any) addr:0x0213d170
data_ov053_0213d188 kind:data(any) addr:0x0213d188
data_ov053_0213d1a0 kind:data(any) addr:0x0213d1a0
data_ov053_0213d1c0 kind:data(any) addr:0x0213d1c0
data_ov053_0213d1cc kind:data(any) addr:0x0213d1cc
_ZTV19data_ov053_0213d1e0 kind:data(any) addr:0x0213d1e0
data_ov053_0213d204 kind:data(any) addr:0x0213d204
data_ov053_0213d21c kind:data(any) addr:0x0213d21c
data_ov053_0213d23c kind:data(any) addr:0x0213d23c
_ZTV19data_ov053_0213d280 kind:data(any) addr:0x0213d280
data_ov053_0213d2e0 kind:data(any) addr:0x0213d2e0
data_ov053_0213d2f0 kind:data(any) addr:0x0213d2f0
data_ov053_0213d3b8 kind:data(any) addr:0x0213d3b8
data_ov053_0213d3c0 kind:bss addr:0x0213d3c0
data_ov053_0213d3c4 kind:bss addr:0x0213d3c4
sActorProfileUnkLIKE kind:bss addr:0x0213d3d0
data_ov053_0213d4a8 kind:bss addr:0x0213d4a8
data_ov053_0213d4b0 kind:bss addr:0x0213d4b0
sActorProfileUnkRAT0 kind:bss addr:0x0213d4bc
