_ZN19ActorProfileUnkFSST10GetProfileEv kind:function(arm,size=0xc) addr:0x021384e0
_ZN19ActorProfileUnkFSST6CreateEv kind:function(arm,size=0x24) addr:0x021384ec
_ZN19ActorProfileUnkFSSTC1Ev kind:function(arm,size=0x4c) addr:0x02138510
_ZN12ActorUnkFSSTC1Ev kind:function(arm,size=0x1d8) addr:0x0213855c
_ZN12ActorUnkFSST19func_ov057_02138734Ev kind:function(arm,size=0x14) addr:0x02138734
_ZN12ActorUnkFSST19func_ov057_02138748Ev kind:function(arm,size=0x1e4) addr:0x02138748
_ZN12ActorUnkFSST19func_ov057_0213892cEv kind:function(arm,size=0x24) addr:0x0213892c
_ZN12ActorUnkFSST19func_ov057_02138950Ev kind:function(arm,size=0x234) addr:0x02138950
_ZN12ActorUnkFSST19func_ov057_02138b84Ev kind:function(arm,size=0x4c) addr:0x02138b84
_ZN12ActorUnkFSST19func_ov057_02138bd0Ev kind:function(arm,size=0x80) addr:0x02138bd0
_ZN12ActorUnkFSST19func_ov057_02138c50Ev kind:function(arm,size=0xb4) addr:0x02138c50
_ZN12ActorUnkFSST19func_ov057_02138d04Ev kind:function(arm,size=0xc4) addr:0x02138d04
_ZN12ActorUnkFSST19func_ov057_02138dc8Ev kind:function(arm,size=0xa8) addr:0x02138dc8
_ZN12ActorUnkFSST19func_ov057_02138e70Ev kind:function(arm,size=0xfc) addr:0x02138e70
_ZN12ActorUnkFSST19func_ov057_02138f6cEv kind:function(arm,size=0x2c) addr:0x02138f6c
_ZN12ActorUnkFSST19func_ov057_02138f98Ev kind:function(arm,size=0x28c) addr:0x02138f98
_ZN12ActorUnkFSST19func_ov057_02139224Ev kind:function(arm,size=0x60) addr:0x02139224
_ZN12ActorUnkFSST19func_ov057_02139284Ev kind:function(arm,size=0x1b8) addr:0x02139284
_ZN12ActorUnkFSST19func_ov057_0213943cEv kind:function(arm,size=0x70) addr:0x0213943c
_ZN12ActorUnkFSST19func_ov057_021394acEv kind:function(arm,size=0x214) addr:0x021394ac
_ZN12ActorUnkFSST19func_ov057_021396c0Ev kind:function(arm,size=0x280) addr:0x021396c0
_ZN12ActorUnkFSST19func_ov057_02139940Ev kind:function(arm,size=0x27c) addr:0x02139940
_ZN12ActorUnkFSST19func_ov057_02139bbcEv kind:function(arm,size=0x24) addr:0x02139bbc
_ZN12ActorUnkFSST19func_ov057_02139be0Ev kind:function(arm,size=0x28) addr:0x02139be0
_ZN12ActorUnkFSST19func_ov057_02139c08Ev kind:function(arm,size=0x18) addr:0x02139c08
_ZN12ActorUnkFSST19func_ov057_02139c20Ev kind:function(arm,size=0x150) addr:0x02139c20
_ZN12ActorUnkFSST19func_ov057_02139d70Ev kind:function(arm,size=0x14) addr:0x02139d70
_ZN12ActorUnkFSSTD1Ev kind:function(arm,size=0x60) addr:0x02139d84
_ZN12ActorUnkFSSTD0Ev kind:function(arm,size=0x68) addr:0x02139de4
_ZN19ActorProfileUnkFSSTD1Ev kind:function(arm,size=0x14) addr:0x02139e4c
_ZN19ActorProfileUnkFSSF10GetProfileEv kind:function(arm,size=0xc) addr:0x02139e60
_ZN19ActorProfileUnkFSSF6CreateEv kind:function(arm,size=0x24) addr:0x02139e6c
_ZN19ActorProfileUnkFSSFC1Ev kind:function(arm,size=0x28) addr:0x02139e90
_ZN12ActorUnkFSSFC1Ev kind:function(arm,size=0x3c) addr:0x02139eb8
_ZN12ActorUnkFSSFD1Ev kind:function(arm,size=0x14) addr:0x02139ef4
_ZN12ActorUnkFSSFD0Ev kind:function(arm,size=0x1c) addr:0x02139f08
_ZN12ActorUnkFSSF19func_ov057_02139f24Ev kind:function(arm,size=0xa0) addr:0x02139f24
_ZN12ActorUnkFSSF19func_ov057_02139fc4Ev kind:function(arm,size=0xfc) addr:0x02139fc4
_ZN12ActorUnkFSSF19func_ov057_0213a0c0Ev kind:function(arm,size=0xc) addr:0x0213a0c0
_ZN12ActorUnkFSSF19func_ov057_0213a0ccEv kind:function(arm,size=0x58) addr:0x0213a0cc
_ZN12ActorUnkFSSF19func_ov057_0213a124Ev kind:function(arm,size=0x44) addr:0x0213a124
_ZN19ActorProfileUnkFSSFD1Ev kind:function(arm,size=0x14) addr:0x0213a168
_ZN19ActorProfileUnkRMFK10GetProfileEv kind:function(arm,size=0xc) addr:0x0213a17c
_ZN19ActorProfileUnkRMFK6CreateEv kind:function(arm,size=0x24) addr:0x0213a188
_ZN19ActorProfileUnkRMFKC1Ev kind:function(arm,size=0x28) addr:0x0213a1ac
_ZN12ActorUnkRMFK19func_ov057_0213a1d4Ev kind:function(arm,size=0x14) addr:0x0213a1d4
_ZN12ActorUnkRMFK19func_ov057_0213a1e8Ev kind:function(arm,size=0x1e8) addr:0x0213a1e8
_ZN12ActorUnkRMFKC1Ev kind:function(arm,size=0x6c) addr:0x0213a3d0
_ZN12ActorUnkRMFK19func_ov057_0213a43cEv kind:function(arm,size=0x10) addr:0x0213a43c
_ZN12ActorUnkRMFK19func_ov057_0213a44cEv kind:function(arm,size=0xf4) addr:0x0213a44c
_ZN12ActorUnkRMFK19func_ov057_0213a540Ev kind:function(arm,size=0x4) addr:0x0213a540
_ZN12ActorUnkRMFK19func_ov057_0213a544Ev kind:function(arm,size=0x14) addr:0x0213a544
_ZN12ActorUnkRMFK19func_ov057_0213a558Ev kind:function(arm,size=0xe8) addr:0x0213a558
_ZN12ActorUnkRMFK19func_ov057_0213a640Ev kind:function(arm,size=0x78) addr:0x0213a640
_ZN12ActorUnkRMFK19func_ov057_0213a6b8Ev kind:function(arm,size=0x40) addr:0x0213a6b8
_ZN12ActorUnkRMFK19func_ov057_0213a6f8Ev kind:function(arm,size=0x64) addr:0x0213a6f8
_ZN12ActorUnkRMFKD1Ev kind:function(arm,size=0x40) addr:0x0213a75c
_ZN12ActorUnkRMFKD0Ev kind:function(arm,size=0x48) addr:0x0213a79c
_ZN19ActorProfileUnkRMFKD1Ev kind:function(arm,size=0x14) addr:0x0213a7e4
_ZN19ActorProfileUnkGTTG10GetProfileEv kind:function(arm,size=0xc) addr:0x0213a7f8
_ZN19ActorProfileUnkGTTG6CreateEv kind:function(arm,size=0x24) addr:0x0213a804
_ZN19ActorProfileUnkGTTGC1Ev kind:function(arm,size=0x40) addr:0x0213a828
_ZN12ActorUnkGTTGC1Ev kind:function(arm,size=0x50) addr:0x0213a868
_ZN12ActorUnkGTTG19func_ov057_0213a8b8Ev kind:function(arm,size=0xe8) addr:0x0213a8b8
_ZN12ActorUnkGTTGD1Ev kind:function(arm,size=0x20) addr:0x0213a9a0
_ZN12ActorUnkGTTGD0Ev kind:function(arm,size=0x28) addr:0x0213a9c0
_ZN19ActorProfileUnkGTTGD1Ev kind:function(arm,size=0x14) addr:0x0213a9e8
_ZN19ActorProfileUnkHYSW10GetProfileEv kind:function(arm,size=0xc) addr:0x0213a9fc
_ZN19ActorProfileUnkHYSW6CreateEv kind:function(arm,size=0x24) addr:0x0213aa08
_ZN19ActorProfileUnkHYSWC1Ev kind:function(arm,size=0x28) addr:0x0213aa2c
_ZN12ActorUnkHYSWC1Ev kind:function(arm,size=0x20) addr:0x0213aa54
_ZN12ActorUnkHYSW19func_ov057_0213aa74Ev kind:function(arm,size=0x44) addr:0x0213aa74
_ZN12ActorUnkHYSW19func_ov057_0213aab8Ev kind:function(arm,size=0x74) addr:0x0213aab8
_ZN12ActorUnkHYSW19func_ov057_0213ab2cEv kind:function(arm,size=0x14) addr:0x0213ab2c
_ZN12ActorUnkHYSW19func_ov057_0213ab40Ev kind:function(arm,size=0x6c) addr:0x0213ab40
_ZN12ActorUnkHYSWD1Ev kind:function(arm,size=0x14) addr:0x0213abac
_ZN12ActorUnkHYSWD0Ev kind:function(arm,size=0x1c) addr:0x0213abc0
_ZN19ActorProfileUnkHYSWD1Ev kind:function(arm,size=0x14) addr:0x0213abdc
_ZN19ActorProfileUnkELVT10GetProfileEv kind:function(arm,size=0xc) addr:0x0213abf0
_ZN19ActorProfileUnkELVT6CreateEv kind:function(arm,size=0x24) addr:0x0213abfc
_ZN19ActorProfileUnkELVTC1Ev kind:function(arm,size=0x4c) addr:0x0213ac20
_ZN12ActorUnkELVT19func_ov057_0213ac6cEv kind:function(arm,size=0x28) addr:0x0213ac6c
_ZN12ActorUnkELVTD1Ev kind:function(arm,size=0x14) addr:0x0213ac94
_ZN12ActorUnkELVTD0Ev kind:function(arm,size=0x1c) addr:0x0213aca8
_ZN12ActorUnkELVT19func_ov057_0213acc4Ev kind:function(arm,size=0x50) addr:0x0213acc4
_ZN12ActorUnkELVT19func_ov057_0213ad14Ev kind:function(arm,size=0x24) addr:0x0213ad14
_ZN12ActorUnkELVTC1Ev kind:function(arm,size=0x1f8) addr:0x0213ad38
_ZN12ActorUnkELVT19func_ov057_0213af30Ev kind:function(arm,size=0x14) addr:0x0213af30
_ZN12ActorUnkELVT19func_ov057_0213af44Ev kind:function(arm,size=0x13c) addr:0x0213af44
_ZN12ActorUnkELVT19func_ov057_0213b080Ev kind:function(arm,size=0x1f4) addr:0x0213b080
_ZN12ActorUnkELVT19func_ov057_0213b274Ev kind:function(arm,size=0x40) addr:0x0213b274
_ZN12ActorUnkELVT19func_ov057_0213b2b4Ev kind:function(arm,size=0x21c) addr:0x0213b2b4
_ZN12ActorUnkELVT19func_ov057_0213b4d0Ev kind:function(arm,size=0x4c) addr:0x0213b4d0
_ZN12ActorUnkELVT19func_ov057_0213b51cEv kind:function(arm,size=0x20) addr:0x0213b51c
_ZN12ActorUnkELVT19func_ov057_0213b53cEv kind:function(arm,size=0x90) addr:0x0213b53c
_ZN12ActorUnkELVT19func_ov057_0213b5ccEv kind:function(arm,size=0x2c) addr:0x0213b5cc
_ZN12ActorUnkELVT19func_ov057_0213b5f8Ev kind:function(arm,size=0xa0) addr:0x0213b5f8
_ZN12ActorUnkELVT19func_ov057_0213b698Ev kind:function(arm,size=0x10) addr:0x0213b698
_ZN12ActorUnkELVT19func_ov057_0213b6a8Ev kind:function(arm,size=0x8) addr:0x0213b6a8
_ZN12ActorUnkELVT19func_ov057_0213b6b0Ev kind:function(arm,size=0x1c) addr:0x0213b6b0
_ZN12ActorUnkELVT19func_ov057_0213b6ccEv kind:function(arm,size=0x40) addr:0x0213b6cc
_ZN12ActorUnkELVT19func_ov057_0213b70cEv kind:function(arm,size=0x48) addr:0x0213b70c
_ZN19ActorProfileUnkELVTD1Ev kind:function(arm,size=0x14) addr:0x0213b754
_ZN23MapObjectProfileUnkTRLN10GetProfileEv kind:function(arm,size=0xc) addr:0x0213b768
_ZN23MapObjectProfileUnkTRLN6CreateEv kind:function(arm,size=0x24) addr:0x0213b774
_ZN23MapObjectProfileUnkTRLNC1Ev kind:function(arm,size=0x48) addr:0x0213b798
_ZN16MapObjectUnkTRLNC1Ev kind:function(arm,size=0x80) addr:0x0213b7e0
_ZN16MapObjectUnkTRLN19func_ov057_0213b860Ev kind:function(arm,size=0x4) addr:0x0213b860
_ZN16MapObjectUnkTRLN19func_ov057_0213b864Ev kind:function(arm,size=0x28) addr:0x0213b864
_ZN16MapObjectUnkTRLN19func_ov057_0213b88cEv kind:function(arm,size=0xc) addr:0x0213b88c
_ZN16MapObjectUnkTRLND1Ev kind:function(arm,size=0x14) addr:0x0213b898
_ZN16MapObjectUnkTRLND0Ev kind:function(arm,size=0x1c) addr:0x0213b8ac
_ZN23MapObjectProfileUnkTRLND1Ev kind:function(arm,size=0x14) addr:0x0213b8c8
data_ov057_0213b8dc kind:data(any) addr:0x0213b8dc
data_ov057_0213b8e4 kind:data(any) addr:0x0213b8e4
data_ov057_0213b8ee kind:data(any) addr:0x0213b8ee
data_ov057_0213b910 kind:data(any) addr:0x0213b910
__sinit_ActorUnkFSST.cpp kind:function(arm,size=0x60) addr:0x0213b960
__sinit_ActorUnkFSSF.cpp kind:function(arm,size=0x50) addr:0x0213b9c0
__sinit_ActorUnkRMFK.cpp kind:function(arm,size=0x1f8) addr:0x0213ba10
__sinit_ActorUnkGTTG.cpp kind:function(arm,size=0x50) addr:0x0213bc08
__sinit_ActorUnkHYSW.cpp kind:function(arm,size=0x50) addr:0x0213bc58
__sinit_ActorUnkELVT.cpp kind:function(arm,size=0x50) addr:0x0213bca8
__sinit_MapObjectUnkTRLN.cpp kind:function(arm,size=0x6c) addr:0x0213bcf8
.p__sinit_ActorUnkFSST.cpp kind:data(word) addr:0x0213bd64
.p__sinit_ActorUnkFSSF.cpp kind:data(word) addr:0x0213bd68
.p__sinit_ActorUnkRMFK.cpp kind:data(word) addr:0x0213bd6c
.p__sinit_ActorUnkGTTG.cpp kind:data(word) addr:0x0213bd70
.p__sinit_ActorUnkHYSW.cpp kind:data(word) addr:0x0213bd74
.p__sinit_ActorUnkELVT.cpp kind:data(word) addr:0x0213bd78
.p__sinit_MapObjectUnkTRLN.cpp kind:data(word) addr:0x0213bd7c
_ZTV19data_ov057_0213bda0 kind:data(any) addr:0x0213bda0
data_ov057_0213bdcc kind:data(any) addr:0x0213bdcc
data_ov057_0213bdf4 kind:data(any) addr:0x0213bdf4
_ZTV19data_ov057_0213be14 kind:data(any) addr:0x0213be14
_ZTV19data_ov057_0213be74 kind:data(any) addr:0x0213be74
_ZTV19data_ov057_0213be98 kind:data(any) addr:0x0213be98
data_ov057_0213bef8 kind:data(any) addr:0x0213bef8
data_ov057_0213befa kind:data(any) addr:0x0213befa
data_ov057_0213befc kind:data(any) addr:0x0213befc
data_ov057_0213befe kind:data(any) addr:0x0213befe
data_ov057_0213bf00 kind:data(any) addr:0x0213bf00
data_ov057_0213bf02 kind:data(any) addr:0x0213bf02
data_ov057_0213bf04 kind:data(any) addr:0x0213bf04
data_ov057_0213bf0a kind:data(any) addr:0x0213bf0a
data_ov057_0213bf10 kind:data(any) addr:0x0213bf10
data_ov057_0213bf16 kind:data(any) addr:0x0213bf16
data_ov057_0213bf1c kind:data(any) addr:0x0213bf1c
data_ov057_0213bf22 kind:data(any) addr:0x0213bf22
data_ov057_0213bf28 kind:data(any) addr:0x0213bf28
data_ov057_0213bf30 kind:data(any) addr:0x0213bf30
data_ov057_0213bf3c kind:data(any) addr:0x0213bf3c
data_ov057_0213bf48 kind:data(any) addr:0x0213bf48
data_ov057_0213bf54 kind:data(any) addr:0x0213bf54
data_ov057_0213bf60 kind:data(any) addr:0x0213bf60
data_ov057_0213bf6c kind:data(any) addr:0x0213bf6c
data_ov057_0213bf78 kind:data(any) addr:0x0213bf78
data_ov057_0213bf84 kind:data(any) addr:0x0213bf84
data_ov057_0213bf90 kind:data(any) addr:0x0213bf90
_ZTV19data_ov057_0213bf9c kind:data(any) addr:0x0213bf9c
_ZTV19data_ov057_0213bfc0 kind:data(any) addr:0x0213bfc0
_ZTV19data_ov057_0213c020 kind:data(any) addr:0x0213c020
_ZTV19data_ov057_0213c044 kind:data(any) addr:0x0213c044
_ZTV19data_ov057_0213c0a0 kind:data(any) addr:0x0213c0a0
_ZTV19data_ov057_0213c0c4 kind:data(any) addr:0x0213c0c4
data_ov057_0213c128 kind:data(any) addr:0x0213c128
_ZTV19data_ov057_0213c134 kind:data(any) addr:0x0213c134
data_ov057_0213c158 kind:data(any) addr:0x0213c158
data_ov057_0213c170 kind:data(any) addr:0x0213c170
data_ov057_0213c190 kind:data(any) addr:0x0213c190
_ZTV19data_ov057_0213c1d0 kind:data(any) addr:0x0213c1d0
_ZTV19data_ov057_0213c214 kind:data(any) addr:0x0213c214 ambiguous
data_ov057_0213c22c kind:data(any) addr:0x0213c22c
data_ov057_0213c23c kind:data(any) addr:0x0213c23c
data_ov057_0213c258 kind:data(any) addr:0x0213c258
data_ov057_0213c2c0 kind:bss addr:0x0213c2c0
_ZGVN15ProfileInstanceI19ActorProfileUnkFSSTE8sProfileE kind:bss addr:0x0213c2c4
@11991 kind:bss addr:0x0213c2d0
_ZN15ProfileInstanceI19ActorProfileUnkFSSTE8sProfileE kind:bss addr:0x0213c2dc
_ZGVN15ProfileInstanceI19ActorProfileUnkFSSFE8sProfileE kind:bss addr:0x0213c3b4
@11997 kind:bss addr:0x0213c3b8
_ZN15ProfileInstanceI19ActorProfileUnkFSSFE8sProfileE kind:bss addr:0x0213c3c4
_ZGVN15ProfileInstanceI19ActorProfileUnkRMFKE8sProfileE kind:bss addr:0x0213c400
@12003 kind:bss addr:0x0213c404
_ZN15ProfileInstanceI19ActorProfileUnkRMFKE8sProfileE kind:bss addr:0x0213c410
_ZGVN15ProfileInstanceI19ActorProfileUnkGTTGE8sProfileE kind:bss addr:0x0213c4e8
@12009 kind:bss addr:0x0213c4ec
_ZN15ProfileInstanceI19ActorProfileUnkGTTGE8sProfileE kind:bss addr:0x0213c4f8
_ZGVN15ProfileInstanceI19ActorProfileUnkHYSWE8sProfileE kind:bss addr:0x0213c534
@12015 kind:bss addr:0x0213c538
_ZN15ProfileInstanceI19ActorProfileUnkHYSWE8sProfileE kind:bss addr:0x0213c544
_ZGVN15ProfileInstanceI19ActorProfileUnkELVTE8sProfileE kind:bss addr:0x0213c580
@12021 kind:bss addr:0x0213c584
_ZN15ProfileInstanceI19ActorProfileUnkELVTE8sProfileE kind:bss addr:0x0213c590
data_ov057_0213c668 kind:bss addr:0x0213c668
data_ov057_0213c66c kind:bss addr:0x0213c66c
_ZN15ProfileInstanceI23MapObjectProfileUnkTRLNE8sProfileE kind:bss addr:0x0213c678
