_ZN19ActorProfileUnkGRCM10GetProfileEv kind:function(arm,size=0xc) addr:0x02152c20
_ZN19ActorProfileUnkGRCM6CreateEv kind:function(arm,size=0x24) addr:0x02152c2c
_ZN19ActorProfileUnkGRCMC1Ev kind:function(arm,size=0x28) addr:0x02152c50
_ZN12ActorUnkGRCM19func_ov085_02150c58Ev kind:function(arm,size=0x30) addr:0x02152c78
_ZN12ActorUnkGRCMC1Ev kind:function(arm,size=0x30) addr:0x02152ca8
_ZN12ActorUnkGRCM19func_ov085_02150cb8Ev kind:function(arm,size=0x10) addr:0x02152cd8
_ZN12ActorUnkGRCM19func_ov085_02150cc8Ev kind:function(arm,size=0x19c) addr:0x02152ce8
_ZN12ActorUnkGRCM19func_ov085_02150e64Ev kind:function(arm,size=0x8) addr:0x02152e84
_ZN12ActorUnkGRCM19func_ov085_02150e6cEv kind:function(arm,size=0x44) addr:0x02152e8c
_ZN12ActorUnkGRCM19func_ov085_02150eb0Ev kind:function(arm,size=0x4c) addr:0x02152ed0
_ZN12ActorUnkGRCM19func_ov085_02150efcEv kind:function(arm,size=0x4c) addr:0x02152f1c
_ZN12ActorUnkGRCMD1Ev kind:function(arm,size=0x14) addr:0x02152f68
_ZN12ActorUnkGRCMD0Ev kind:function(arm,size=0x1c) addr:0x02152f7c
_ZN19ActorProfileUnkGRCMD1Ev kind:function(arm,size=0x14) addr:0x02152f98
_ZN19ActorProfileUnkSRST10GetProfileEv kind:function(arm,size=0xc) addr:0x02152fac
_ZN19ActorProfileUnkSRST6CreateEv kind:function(arm,size=0x24) addr:0x02152fb8
_ZN19ActorProfileUnkSRSTC1Ev kind:function(arm,size=0x60) addr:0x02152fdc
_ZN12ActorUnkSRSTC1Ev kind:function(arm,size=0x1a8) addr:0x0215303c
_ZN12ActorUnkSRST19func_ov085_021511c4Ev kind:function(arm,size=0x14) addr:0x021531e4
_ZN12ActorUnkSRST19func_ov085_021511d8Ev kind:function(arm,size=0x14) addr:0x021531f8
_ZN12ActorUnkSRST19func_ov085_021511ecEv kind:function(arm,size=0x8) addr:0x0215320c
_ZN12ActorUnkSRST19func_ov085_021511f4Ev kind:function(arm,size=0xec) addr:0x02153214
_ZN12ActorUnkSRST19func_ov085_021512e0Ev kind:function(arm,size=0x74) addr:0x02153300
_ZN12ActorUnkSRST19func_ov085_02151354Ev kind:function(arm,size=0x110) addr:0x02153374
_ZN12ActorUnkSRST19func_ov085_02151464Ev kind:function(arm,size=0x64) addr:0x02153484
_ZN12ActorUnkSRST19func_ov085_021514c8Ev kind:function(arm,size=0x20) addr:0x021534e8
_ZN12ActorUnkSRST19func_ov085_021514e8Ev kind:function(arm,size=0x18) addr:0x02153508
_ZN12ActorUnkSRST19func_ov085_02151500Ev kind:function(arm,size=0x148) addr:0x02153520
_ZN12ActorUnkSRST19func_ov085_02151648Ev kind:function(arm,size=0x118) addr:0x02153668
_ZN12ActorUnkSRST19func_ov085_02151760Ev kind:function(arm,size=0xcc) addr:0x02153780
_ZN12ActorUnkSRST19func_ov085_0215182cEv kind:function(arm,size=0x630) addr:0x0215384c
_ZN12ActorUnkSRST19func_ov085_02151e54Ev kind:function(arm,size=0x3ec) addr:0x02153e7c
_ZN12ActorUnkSRST19func_ov085_02152240Ev kind:function(arm,size=0x3b4) addr:0x02154268
_ZN12ActorUnkSRST19func_ov085_021525f4Ev kind:function(arm,size=0x1ac) addr:0x0215461c
_ZN12ActorUnkSRST19func_ov085_021527a0Ev kind:function(arm,size=0x210) addr:0x021547c8
_ZN12ActorUnkSRST19func_ov085_021529b0Ev kind:function(arm,size=0xe4) addr:0x021549d8
_ZN12ActorUnkSRST19func_ov085_02152a70Ev kind:function(arm,size=0x58) addr:0x02154abc
_ZN12ActorUnkSRST19func_ov085_02152ac8Ev kind:function(arm,size=0xb0) addr:0x02154b14
_ZN12ActorUnkSRST19func_ov085_02152b78Ev kind:function(arm,size=0x88) addr:0x02154bc4
_ZN12ActorUnkSRST19func_ov085_02152c00Ev kind:function(arm,size=0xf8) addr:0x02154c4c
_ZN12ActorUnkSRST19func_ov085_02152cf8Ev kind:function(arm,size=0x34) addr:0x02154d44
_ZN12ActorUnkSRST19func_ov085_02152d2cEv kind:function(arm,size=0x1c) addr:0x02154d78
_ZN12ActorUnkSRST19func_ov085_02152d48Ev kind:function(arm,size=0xd0) addr:0x02154d94
_ZN12ActorUnkSRST19func_ov085_02152e18Ev kind:function(arm,size=0x74) addr:0x02154e64
_ZN12ActorUnkSRST19func_ov085_02152e8cEv kind:function(arm,size=0x9c) addr:0x02154ed8
_ZN12ActorUnkSRST19func_ov085_02152f28Ev kind:function(arm,size=0x18) addr:0x02154f74
_ZN12ActorUnkSRST19func_ov085_02152f40Ev kind:function(arm,size=0x70) addr:0x02154f8c
_ZN12ActorUnkSRST19func_ov085_02152fb0Ev kind:function(arm,size=0x24) addr:0x02154ffc
_ZN12ActorUnkSRST19func_ov085_02152fd4Ev kind:function(arm,size=0x70) addr:0x02155020
_ZN12ActorUnkSRST19func_ov085_02153044Ev kind:function(arm,size=0x3c) addr:0x02155090
_ZN12ActorUnkSRST19func_ov085_02153080Ev kind:function(arm,size=0x3c) addr:0x021550cc
_ZN12ActorUnkSRST19func_ov085_021530bcEv kind:function(arm,size=0x24) addr:0x02155108
_ZN12ActorUnkSRSTD0Ev kind:function(arm,size=0x1c) addr:0x0215512c
_ZN12ActorUnkSRST19func_ov085_021530fcEv kind:function(arm,size=0x1c) addr:0x02155148
_ZN12ActorUnkSRSTD1Ev kind:function(arm,size=0x40) addr:0x02155164
_ZN12ActorUnkSRST19func_ov085_02153158Ev kind:function(arm,size=0x48) addr:0x021551a4
_ZN19ActorProfileUnkSRSTD1Ev kind:function(arm,size=0x14) addr:0x021551ec
_ZN23MapObjectProfileUnkCTPT10GetProfileEv kind:function(arm,size=0xc) addr:0x02155200
_ZN23MapObjectProfileUnkCTPT6CreateEv kind:function(arm,size=0x24) addr:0x0215520c
_ZN23MapObjectProfileUnkCTPTC1Ev kind:function(arm,size=0x7c) addr:0x02155230
_ZN16MapObjectUnkCTPTC1Ev kind:function(arm,size=0x128) addr:0x021552ac
_ZN16MapObjectUnkCTPT19func_ov085_02153388Ev kind:function(arm,size=0x14) addr:0x021553d4
_ZN16MapObjectUnkCTPT19func_ov085_0215339cEv kind:function(arm,size=0x14) addr:0x021553e8
_ZN16MapObjectUnkCTPT19func_ov085_021533b0Ev kind:function(arm,size=0x254) addr:0x021553fc
_ZN16MapObjectUnkCTPT19func_ov085_02153604Ev kind:function(arm,size=0x2c8) addr:0x02155650
_ZN16MapObjectUnkCTPT19func_ov085_021538ccEv kind:function(arm,size=0x140) addr:0x02155918
_ZN16MapObjectUnkCTPT19func_ov085_02153a0cEv kind:function(arm,size=0x16c) addr:0x02155a58
_ZN16MapObjectUnkCTPT19func_ov085_02153b78Ev kind:function(arm,size=0x90) addr:0x02155bc4
_ZN16MapObjectUnkCTPT19func_ov085_02153c08Ev kind:function(arm,size=0x44) addr:0x02155c54
_ZN16MapObjectUnkCTPT19func_ov085_02153c4cEv kind:function(arm,size=0x28) addr:0x02155c98
_ZN16MapObjectUnkCTPT19func_ov085_02153c74Ev kind:function(arm,size=0x70) addr:0x02155cc0
_ZN16MapObjectUnkCTPT19func_ov085_02153ce4Ev kind:function(arm,size=0x70) addr:0x02155d30
_ZN16MapObjectUnkCTPTD0Ev kind:function(arm,size=0x1c) addr:0x02155da0
_ZN16MapObjectUnkCTPT19func_ov085_02153d70Ev kind:function(arm,size=0x1c) addr:0x02155dbc
_ZN16MapObjectUnkCTPTD1Ev kind:function(arm,size=0x38) addr:0x02155dd8
_ZN16MapObjectUnkCTPT19func_ov085_02153dc4Ev kind:function(arm,size=0x40) addr:0x02155e10
_ZN23MapObjectProfileUnkCTPTD1Ev kind:function(arm,size=0x14) addr:0x02155e50
data_ov085_02155e64 kind:data(any) addr:0x02155e64
data_ov085_02155e6c kind:data(any) addr:0x02155e6c
data_ov085_02155e7c kind:data(any) addr:0x02155e7c
data_ov085_02155e8c kind:data(any) addr:0x02155e8c
data_ov085_02155e9c kind:data(any) addr:0x02155e9c
data_ov085_02155ea8 kind:data(any) addr:0x02155ea8
data_ov085_02155eb4 kind:data(any) addr:0x02155eb4
data_ov085_02155ec0 kind:data(any) addr:0x02155ec0
data_ov085_02155ecc kind:data(any) addr:0x02155ecc
data_ov085_02155ed8 kind:data(any) addr:0x02155ed8
data_ov085_02155ee8 kind:data(any) addr:0x02155ee8
data_ov085_02155ef8 kind:data(any) addr:0x02155ef8
__sinit_ActorUnkGRCM.cpp kind:function(arm,size=0x50) addr:0x02155f08
__sinit_ActorUnkSRST.cpp kind:function(arm,size=0x50) addr:0x02155f58
__sinit_MapObjectUnkCTPT.cpp kind:function(arm,size=0x50) addr:0x02155fa8
.p__sinit_ActorUnkGRCM.cpp kind:data(word) addr:0x02155ff8
.p__sinit_ActorUnkSRST.cpp kind:data(word) addr:0x02155ffc
.p__sinit_MapObjectUnkCTPT.cpp kind:data(word) addr:0x02156000
_ZTV19data_ov085_02156020 kind:data(any) addr:0x02156020
_ZTV19data_ov085_02156024 kind:data(any) addr:0x02156024 ambiguous
_ZTV19data_ov085_02156044 kind:data(any) addr:0x02156044
data_ov085_021560ac kind:data(any) addr:0x021560ac
data_ov085_021560c8 kind:data(any) addr:0x021560c8
_ZTV19data_ov085_021560dc kind:data(any) addr:0x021560dc
_ZTV19data_ov085_02156100 kind:data(any) addr:0x02156100
data_ov085_02156168 kind:data(any) addr:0x02156168
data_ov085_0215617c kind:data(any) addr:0x0215617c
data_ov085_02156190 kind:data(any) addr:0x02156190
data_ov085_021561ac kind:data(any) addr:0x021561ac
data_ov085_021561c4 kind:data(any) addr:0x021561c4 ambiguous
data_ov085_021561c8 kind:data(any) addr:0x021561c8
data_ov085_021561f0 kind:data(any) addr:0x021561f0
data_ov085_02156218 kind:data(any) addr:0x02156218
_ZGVN15ProfileInstanceI19ActorProfileUnkGRCME8sProfileE kind:bss addr:0x02156260
@33841 kind:bss addr:0x02156264
_ZN15ProfileInstanceI19ActorProfileUnkGRCME8sProfileE kind:bss addr:0x02156270
data_ov085_0215628c kind:bss addr:0x0215628c ambiguous
_ZGVN15ProfileInstanceI19ActorProfileUnkSRSTE8sProfileE kind:bss addr:0x021562ac
@33847 kind:bss addr:0x021562b0
_ZN15ProfileInstanceI19ActorProfileUnkSRSTE8sProfileE kind:bss addr:0x021562bc
data_ov085_021562c0 kind:bss addr:0x021562c0 ambiguous
_ZGVN15ProfileInstanceI23MapObjectProfileUnkCTPTE8sProfileE kind:bss addr:0x02156394
@33291 kind:bss addr:0x02156398
_ZN15ProfileInstanceI23MapObjectProfileUnkCTPTE8sProfileE kind:bss addr:0x021563a4
data_ov085_021563c4 kind:bss addr:0x021563c4
