_ZN19ActorProfileUnkKURI10GetProfileEv kind:function(arm,size=0xc) addr:0x0211ad60
_ZN19ActorProfileUnkKURI6CreateEv kind:function(arm,size=0x24) addr:0x0211ad6c
_ZN19ActorProfileUnkKURIC1Ev kind:function(arm,size=0x5c) addr:0x0211ad90
_ZN12ActorUnkKURIC1Ev kind:function(arm,size=0x1fc) addr:0x0211adec
_ZN12ActorUnkKURI19func_ov032_02119248Ev kind:function(arm,size=0x14) addr:0x0211afe8
_ZN12ActorUnkKURI19func_ov032_0211925cEv kind:function(arm,size=0x14) addr:0x0211affc
_ZN12ActorUnkKURI19func_ov032_02119270Ev kind:function(arm,size=0x8c) addr:0x0211b010
_ZN12ActorUnkKURID0Ev kind:function(arm,size=0x94) addr:0x0211b09c
_ZN12ActorUnkKURI19func_ov032_02119390Ev kind:function(arm,size=0xc8) addr:0x0211b130
_ZN12ActorUnkKURI19func_ov032_02119458Ev kind:function(arm,size=0x84) addr:0x0211b1f8
_ZN12ActorUnkKURI19func_ov032_021194dcEv kind:function(arm,size=0x60) addr:0x0211b27c
_ZN12ActorUnkKURI19func_ov032_0211953cEv kind:function(arm,size=0x48) addr:0x0211b2dc
_ZN12ActorUnkKURI19func_ov032_02119584Ev kind:function(arm,size=0x358) addr:0x0211b324
_ZN12ActorUnkKURI19func_ov032_021198dcEv kind:function(arm,size=0xb4) addr:0x0211b67c
_ZN12ActorUnkKURI19func_ov032_02119990Ev kind:function(arm,size=0x7c) addr:0x0211b730
_ZN12ActorUnkKURI19func_ov032_02119a0cEv kind:function(arm,size=0x1dc) addr:0x0211b7ac
_ZN12ActorUnkKURI19func_ov032_02119be8Ev kind:function(arm,size=0x98) addr:0x0211b988
_ZN12ActorUnkKURI19func_ov032_02119c80Ev kind:function(arm,size=0xfc) addr:0x0211ba20
_ZN12ActorUnkKURI19func_ov032_02119d7cEv kind:function(arm,size=0x78) addr:0x0211bb1c
_ZN12ActorUnkKURI19func_ov032_02119df4Ev kind:function(arm,size=0x9c) addr:0x0211bb94
_ZN12ActorUnkKURI19func_ov032_02119e90Ev kind:function(arm,size=0xb0) addr:0x0211bc30
_ZN12ActorUnkKURI19func_ov032_02119f40Ev kind:function(arm,size=0x200) addr:0x0211bce0
_ZN12ActorUnkKURI19func_ov032_0211a140Ev kind:function(arm,size=0xcc) addr:0x0211bee0
_ZN12ActorUnkKURI19func_ov032_0211a20cEv kind:function(arm,size=0x278) addr:0x0211bfac
_ZN12ActorUnkKURI19func_ov032_0211a484Ev kind:function(arm,size=0xa8) addr:0x0211c224
_ZN12ActorUnkKURI19func_ov032_0211a52cEv kind:function(arm,size=0x28c) addr:0x0211c2cc
_ZN12ActorUnkKURI19func_ov032_0211a7b8Ev kind:function(arm,size=0xb4) addr:0x0211c558
_ZN12ActorUnkKURI19func_ov032_0211a86cEv kind:function(arm,size=0xe4) addr:0x0211c60c
_ZN12ActorUnkKURI19func_ov032_0211a950Ev kind:function(arm,size=0x78) addr:0x0211c6f0
_ZN12ActorUnkKURI19func_ov032_0211a9c8Ev kind:function(arm,size=0x78) addr:0x0211c768
_ZN12ActorUnkKURI19func_ov032_0211aa40Ev kind:function(arm,size=0x88) addr:0x0211c7e0
_ZN12ActorUnkKURI19func_ov032_0211aac8Ev kind:function(arm,size=0x58) addr:0x0211c868
_ZN12ActorUnkKURI19func_ov032_0211ab20Ev kind:function(arm,size=0xa0) addr:0x0211c8c0
_ZN12ActorUnkKURI19func_ov032_0211abc0Ev kind:function(arm,size=0x60) addr:0x0211c960
_ZN12ActorUnkKURI19func_ov032_0211ac20Ev kind:function(arm,size=0x74) addr:0x0211c9c0
_ZN12ActorUnkKURI19func_ov032_0211ac94Ev kind:function(arm,size=0xac) addr:0x0211ca34
_ZN12ActorUnkKURI19func_ov032_0211ad40Ev kind:function(arm,size=0xb4) addr:0x0211cae0
_ZN12ActorUnkKURI19func_ov032_0211adf4Ev kind:function(arm,size=0x230) addr:0x0211cb94
_ZN12ActorUnkKURI19func_ov032_0211b024Ev kind:function(arm,size=0x40) addr:0x0211cdc4
_ZN12ActorUnkKURI19func_ov032_0211b064Ev kind:function(arm,size=0xb0) addr:0x0211ce04
_ZN12ActorUnkKURI19func_ov032_0211b114Ev kind:function(arm,size=0x68) addr:0x0211ceb4
_ZN12ActorUnkKURI19func_ov032_0211b17cEv kind:function(arm,size=0x14) addr:0x0211cf1c
_ZN12ActorUnkKURI19func_ov032_0211b190Ev kind:function(arm,size=0x50) addr:0x0211cf30
_ZN12ActorUnkKURI19func_ov032_0211b1e0Ev kind:function(arm,size=0xb8) addr:0x0211cf80
_ZN12ActorUnkKURI19func_ov032_0211b298Ev kind:function(arm,size=0xe4) addr:0x0211d038
_ZN12ActorUnkKURI19func_ov032_0211b37cEv kind:function(arm,size=0x34) addr:0x0211d11c
_ZN12ActorUnkKURI19func_ov032_0211b3b0Ev kind:function(arm,size=0x58) addr:0x0211d150
_ZN12ActorUnkKURI19func_ov032_0211b408Ev kind:function(arm,size=0x168) addr:0x0211d1a8
_ZN12ActorUnkKURI19func_ov032_0211b570Ev kind:function(arm,size=0x30) addr:0x0211d310
_ZN12ActorUnkKURID1Ev kind:function(arm,size=0x14) addr:0x0211d340
_ZN12ActorUnkKURI19func_ov032_0211b5b4Ev kind:function(arm,size=0x1c) addr:0x0211d354
_ZN12ActorUnkKURI19func_ov032_0211b5d0Ev kind:function(arm,size=0x24) addr:0x0211d370
_ZN12ActorUnkKURI19func_ov032_0211b5f4Ev kind:function(arm,size=0x24) addr:0x0211d394
_ZN12ActorUnkKURI19func_ov032_0211b618Ev kind:function(arm,size=0x10) addr:0x0211d3b8
_ZN12ActorUnkKURI19func_ov032_0211b628Ev kind:function(arm,size=0x8) addr:0x0211d3c8
_ZN12ActorUnkKURI19func_ov032_0211b630Ev kind:function(arm,size=0x24) addr:0x0211d3d0
_ZN12ActorUnkKURI19func_ov032_0211b654Ev kind:function(arm,size=0x2c) addr:0x0211d3f4
_ZN12ActorUnkKURI19func_ov032_0211b680Ev kind:function(arm,size=0x1c) addr:0x0211d420
_ZN12ActorUnkKURI19func_ov032_0211b69cEv kind:function(arm,size=0x1c) addr:0x0211d43c
_ZN19ActorProfileUnkKURID1Ev kind:function(arm,size=0x14) addr:0x0211d458
_ZN19ActorProfileUnkMKUR10GetProfileEv kind:function(arm,size=0xc) addr:0x0211d46c
_ZN19ActorProfileUnkMKUR6CreateEv kind:function(arm,size=0x24) addr:0x0211d478
_ZN19ActorProfileUnkMKURC1Ev kind:function(arm,size=0x4c) addr:0x0211d49c
_ZN12ActorUnkMKURC1Ev kind:function(arm,size=0x1d8) addr:0x0211d4e8
_ZN12ActorUnkMKURD1Ev kind:function(arm,size=0x30) addr:0x0211d6c0
_ZN12ActorUnkMKURD0Ev kind:function(arm,size=0x38) addr:0x0211d6f0
_ZN12ActorUnkMKUR19func_ov032_0211b988Ev kind:function(arm,size=0x1c) addr:0x0211d728
_ZN12ActorUnkMKUR19func_ov032_0211b9a4Ev kind:function(arm,size=0x68) addr:0x0211d744
_ZN12ActorUnkMKUR19func_ov032_0211ba0cEv kind:function(arm,size=0x268) addr:0x0211d7ac
_ZN12ActorUnkMKUR19func_ov032_0211bc74Ev kind:function(arm,size=0x104) addr:0x0211da14
_ZN12ActorUnkMKUR19func_ov032_0211bd78Ev kind:function(arm,size=0x8c) addr:0x0211db18
_ZN12ActorUnkMKUR19func_ov032_0211be04Ev kind:function(arm,size=0x2c) addr:0x0211dba4
_ZN12ActorUnkMKUR19func_ov032_0211be30Ev kind:function(arm,size=0x78) addr:0x0211dbd0
_ZN12ActorUnkMKUR19func_ov032_0211bea8Ev kind:function(arm,size=0xdc) addr:0x0211dc48
_ZN12ActorUnkMKUR19func_ov032_0211bf84Ev kind:function(arm,size=0x78) addr:0x0211dd24
_ZN12ActorUnkMKUR19func_ov032_0211bffcEv kind:function(arm,size=0x80) addr:0x0211dd9c
_ZN12ActorUnkMKUR19func_ov032_0211c07cEv kind:function(arm,size=0x8c) addr:0x0211de1c
_ZN12ActorUnkMKUR19func_ov032_0211c108Ev kind:function(arm,size=0x1bc) addr:0x0211dea8
_ZN12ActorUnkMKUR19func_ov032_0211c2c4Ev kind:function(arm,size=0x7c) addr:0x0211e064
_ZN12ActorUnkMKUR19func_ov032_0211c340Ev kind:function(arm,size=0x104) addr:0x0211e0e0
_ZN12ActorUnkMKUR19func_ov032_0211c444Ev kind:function(arm,size=0x90) addr:0x0211e1e4
_ZN12ActorUnkMKUR19func_ov032_0211c4d4Ev kind:function(arm,size=0x68) addr:0x0211e274
_ZN12ActorUnkMKUR19func_ov032_0211c53cEv kind:function(arm,size=0x90) addr:0x0211e2dc
_ZN12ActorUnkMKUR19func_ov032_0211c5ccEv kind:function(arm,size=0x170) addr:0x0211e36c
_ZN12ActorUnkMKUR19func_ov032_0211c73cEv kind:function(arm,size=0x80) addr:0x0211e4dc
_ZN12ActorUnkMKUR19func_ov032_0211c7bcEv kind:function(arm,size=0x17c) addr:0x0211e55c
_ZN12ActorUnkMKUR19func_ov032_0211c938Ev kind:function(arm,size=0xa0) addr:0x0211e6d8
_ZN12ActorUnkMKUR19func_ov032_0211c9d8Ev kind:function(arm,size=0x48) addr:0x0211e778
_ZN12ActorUnkMKUR19func_ov032_0211ca20Ev kind:function(arm,size=0x4c) addr:0x0211e7c0
_ZN12ActorUnkMKUR19func_ov032_0211ca6cEv kind:function(arm,size=0x4c) addr:0x0211e80c
_ZN12ActorUnkMKUR19func_ov032_0211cab8Ev kind:function(arm,size=0x74) addr:0x0211e858
_ZN12ActorUnkMKUR19func_ov032_0211cb2cEv kind:function(arm,size=0xe4) addr:0x0211e8cc
_ZN12ActorUnkMKUR19func_ov032_0211cc10Ev kind:function(arm,size=0x38) addr:0x0211e9b0
_ZN12ActorUnkMKUR19func_ov032_0211cc48Ev kind:function(arm,size=0xd8) addr:0x0211e9e8
_ZN12ActorUnkMKUR19func_ov032_0211cd20Ev kind:function(arm,size=0x40) addr:0x0211eac0
_ZN12ActorUnkMKUR19func_ov032_0211cd60Ev kind:function(arm,size=0x214) addr:0x0211eb00
_ZN12ActorUnkMKUR19func_ov032_0211cf74Ev kind:function(arm,size=0x38) addr:0x0211ed14
_ZN12ActorUnkMKUR19func_ov032_0211cfacEv kind:function(arm,size=0x7c) addr:0x0211ed4c
_ZN12ActorUnkMKUR19func_ov032_0211d028Ev kind:function(arm,size=0x18) addr:0x0211edc8
_ZN12ActorUnkMKUR19func_ov032_0211d040Ev kind:function(arm,size=0x4c) addr:0x0211ede0
_ZN12ActorUnkMKUR19func_ov032_0211d08cEv kind:function(arm,size=0x258) addr:0x0211ee2c
_ZN12ActorUnkMKUR19func_ov032_0211d2e4Ev kind:function(arm,size=0xa0) addr:0x0211f084
_ZN12ActorUnkMKUR19func_ov032_0211d384Ev kind:function(arm,size=0x1e4) addr:0x0211f124
_ZN12ActorUnkMKUR19func_ov032_0211d568Ev kind:function(arm,size=0x10c) addr:0x0211f308
_ZN12ActorUnkMKUR19func_ov032_0211d674Ev kind:function(arm,size=0x64) addr:0x0211f414
_ZN12ActorUnkMKUR19func_ov032_0211d6d8Ev kind:function(arm,size=0x110) addr:0x0211f478
_ZN12ActorUnkMKUR19func_ov032_0211d7e8Ev kind:function(arm,size=0x24) addr:0x0211f588
_ZN12ActorUnkMKUR19func_ov032_0211d80cEv kind:function(arm,size=0x24) addr:0x0211f5ac
_ZN12ActorUnkMKUR19func_ov032_0211d830Ev kind:function(arm,size=0x34) addr:0x0211f5d0
_ZN12ActorUnkMKUR19func_ov032_0211d864Ev kind:function(arm,size=0xac) addr:0x0211f604
_ZN12ActorUnkMKUR19func_ov032_0211d910Ev kind:function(arm,size=0x10) addr:0x0211f6b0
_ZN12ActorUnkMKUR19func_ov032_0211d920Ev kind:function(arm,size=0xec) addr:0x0211f6c0
_ZN12ActorUnkMKUR19func_ov032_0211da0cEv kind:function(arm,size=0x120) addr:0x0211f7ac
_ZN19ActorProfileUnkMKURD1Ev kind:function(arm,size=0x14) addr:0x0211f8cc
_ZN19ActorProfileUnkKETH10GetProfileEv kind:function(arm,size=0xc) addr:0x0211f8e0
_ZN19ActorProfileUnkKETH6CreateEv kind:function(arm,size=0x24) addr:0x0211f8ec
_ZN19ActorProfileUnkKETHC1Ev kind:function(arm,size=0x5c) addr:0x0211f910
_ZN12ActorUnkKETH19func_ov032_0211dbccEv kind:function(arm,size=0x34) addr:0x0211f96c
_ZN12ActorUnkKETHC1Ev kind:function(arm,size=0x20c) addr:0x0211f9a0
_ZN12ActorUnkKETH19func_ov032_0211de0cEv kind:function(arm,size=0x14) addr:0x0211fbac
_ZN12ActorUnkKETH19func_ov032_0211de20Ev kind:function(arm,size=0x14) addr:0x0211fbc0
_ZN12ActorUnkKETH19func_ov032_0211de34Ev kind:function(arm,size=0x38) addr:0x0211fbd4
_ZN12ActorUnkKETHD1Ev kind:function(arm,size=0x1c) addr:0x0211fc0c
_ZN12ActorUnkKETHD0Ev kind:function(arm,size=0x24) addr:0x0211fc28
_ZN12ActorUnkKETH19func_ov032_0211deacEv kind:function(arm,size=0x24) addr:0x0211fc4c
_ZN12ActorUnkKETH19func_ov032_0211ded0Ev kind:function(arm,size=0x144) addr:0x0211fc70
_ZN12ActorUnkKETH19func_ov032_0211e014Ev kind:function(arm,size=0xac) addr:0x0211fdb4
_ZN12ActorUnkKETH19func_ov032_0211e0c0Ev kind:function(arm,size=0x14) addr:0x0211fe60
_ZN12ActorUnkKETH19func_ov032_0211e0d4Ev kind:function(arm,size=0x234) addr:0x0211fe74
_ZN12ActorUnkKETH19func_ov032_0211e308Ev kind:function(arm,size=0x78) addr:0x021200a8
_ZN12ActorUnkKETH19func_ov032_0211e380Ev kind:function(arm,size=0x8c) addr:0x02120120
_ZN12ActorUnkKETH19func_ov032_0211e40cEv kind:function(arm,size=0x14) addr:0x021201ac
_ZN12ActorUnkKETH19func_ov032_0211e420Ev kind:function(arm,size=0x48) addr:0x021201c0
_ZN12ActorUnkKETH19func_ov032_0211e468Ev kind:function(arm,size=0x310) addr:0x02120208
_ZN12ActorUnkKETH19func_ov032_0211e778Ev kind:function(arm,size=0x1b8) addr:0x02120518
_ZN12ActorUnkKETH19func_ov032_0211e930Ev kind:function(arm,size=0xbc) addr:0x021206d0
_ZN12ActorUnkKETH19func_ov032_0211e9ecEv kind:function(arm,size=0x174) addr:0x0212078c
_ZN12ActorUnkKETH19func_ov032_0211eb60Ev kind:function(arm,size=0x188) addr:0x02120900
_ZN12ActorUnkKETH19func_ov032_0211ece8Ev kind:function(arm,size=0x174) addr:0x02120a88
_ZN12ActorUnkKETH19func_ov032_0211ee5cEv kind:function(arm,size=0x1f8) addr:0x02120bfc
_ZN12ActorUnkKETH19func_ov032_0211f054Ev kind:function(arm,size=0x54) addr:0x02120df4
_ZN12ActorUnkKETH19func_ov032_0211f0a8Ev kind:function(arm,size=0x148) addr:0x02120e48
_ZN12ActorUnkKETH19func_ov032_0211f1f0Ev kind:function(arm,size=0x4) addr:0x02120f90
_ZN12ActorUnkKETH19func_ov032_0211f1f4Ev kind:function(arm,size=0x10c) addr:0x02120f94
_ZN12ActorUnkKETH19func_ov032_0211f300Ev kind:function(arm,size=0x10) addr:0x021210a0
_ZN12ActorUnkKETH19func_ov032_0211f310Ev kind:function(arm,size=0x9c) addr:0x021210b0
_ZN12ActorUnkKETH19func_ov032_0211f3acEv kind:function(arm,size=0x58) addr:0x0212114c
_ZN12ActorUnkKETH19func_ov032_0211f404Ev kind:function(arm,size=0xa0) addr:0x021211a4
_ZN12ActorUnkKETH19func_ov032_0211f4a4Ev kind:function(arm,size=0x68) addr:0x02121244
_ZN12ActorUnkKETH19func_ov032_0211f50cEv kind:function(arm,size=0x54) addr:0x021212ac
_ZN12ActorUnkKETH19func_ov032_0211f560Ev kind:function(arm,size=0x2c) addr:0x02121300
_ZN12ActorUnkKETH19func_ov032_0211f58cEv kind:function(arm,size=0x78) addr:0x0212132c
_ZN12ActorUnkKETH19func_ov032_0211f604Ev kind:function(arm,size=0x10) addr:0x021213a4
_ZN12ActorUnkKETH19func_ov032_0211f614Ev kind:function(arm,size=0xa8) addr:0x021213b4
_ZN12ActorUnkKETH19func_ov032_0211f6bcEv kind:function(arm,size=0x148) addr:0x0212145c
_ZN12ActorUnkKETH19func_ov032_0211f804Ev kind:function(arm,size=0x138) addr:0x021215a4
_ZN12ActorUnkKETH19func_ov032_0211f93cEv kind:function(arm,size=0x88) addr:0x021216dc
_ZN12ActorUnkKETH19func_ov032_0211f9c4Ev kind:function(arm,size=0x88) addr:0x02121764
_ZN12ActorUnkKETH19func_ov032_0211fa4cEv kind:function(arm,size=0xa4) addr:0x021217ec
_ZN12ActorUnkKETH19func_ov032_0211faf0Ev kind:function(arm,size=0xac) addr:0x02121890
_ZN12ActorUnkKETH19func_ov032_0211fb9cEv kind:function(arm,size=0x18) addr:0x0212193c
_ZN12ActorUnkKETH19func_ov032_0211fbb4Ev kind:function(arm,size=0x38) addr:0x02121954
_ZN12ActorUnkKETH19func_ov032_0211fbecEv kind:function(arm,size=0x14) addr:0x0212198c
_ZN12ActorUnkKETH19func_ov032_0211fc00Ev kind:function(arm,size=0x1c) addr:0x021219a0
_ZN12ActorUnkKETH19func_ov032_0211fc1cEv kind:function(arm,size=0xa4) addr:0x021219bc
_ZN12ActorUnkKETH19func_ov032_0211fcc0Ev kind:function(arm,size=0xac) addr:0x02121a60
_ZN19ActorProfileUnkKETHD1Ev kind:function(arm,size=0x14) addr:0x02121b0c
_ZN19ActorProfileUnkNSSW10GetProfileEv kind:function(arm,size=0xc) addr:0x02121b20
_ZN19ActorProfileUnkNSSW6CreateEv kind:function(arm,size=0x24) addr:0x02121b2c
_ZN19ActorProfileUnkNSSWC1Ev kind:function(arm,size=0x44) addr:0x02121b50
_ZN12ActorUnkNSSWC1Ev kind:function(arm,size=0x120) addr:0x02121b94
_ZN12ActorUnkNSSW19func_ov032_02121cb4Ev kind:function(arm,size=0x14) addr:0x02121cb4
_ZN12ActorUnkNSSW19func_ov032_02121cc8Ev kind:function(arm,size=0x14) addr:0x02121cc8
_ZN12ActorUnkNSSW19func_ov032_0211ff10Ev kind:function(arm,size=0x28) addr:0x02121cdc
_ZN12ActorUnkNSSW19func_ov032_0211ff38Ev kind:function(arm,size=0x224) addr:0x02121d04
_ZN12ActorUnkNSSW19func_ov032_02120118Ev kind:function(arm,size=0x78) addr:0x02121f28
_ZN12ActorUnkNSSW19func_ov032_02120190Ev kind:function(arm,size=0xcc) addr:0x02121fa0
_ZN12ActorUnkNSSW19func_ov032_0212025cEv kind:function(arm,size=0x7c) addr:0x0212206c
_ZN12ActorUnkNSSW19func_ov032_021202d8Ev kind:function(arm,size=0x124) addr:0x021220e8
_ZN12ActorUnkNSSW19func_ov032_021203fcEv kind:function(arm,size=0x360) addr:0x0212220c
_ZN12ActorUnkNSSW19func_ov032_0212074cEv kind:function(arm,size=0x134) addr:0x0212256c
_ZN12ActorUnkNSSW19func_ov032_02120880Ev kind:function(arm,size=0x14) addr:0x021226a0
_ZN12ActorUnkNSSW19func_ov032_02120894Ev kind:function(arm,size=0x2ec) addr:0x021226b4
_ZN12ActorUnkNSSW19func_ov032_02120b34Ev kind:function(arm,size=0x38) addr:0x021229a0
_ZN12ActorUnkNSSW19func_ov032_02120b6cEv kind:function(arm,size=0x10) addr:0x021229d8
_ZN12ActorUnkNSSW19func_ov032_02120b7cEv kind:function(arm,size=0x44) addr:0x021229e8
_ZN12ActorUnkNSSW19func_ov032_02120bc0Ev kind:function(arm,size=0x3c) addr:0x02122a2c
_ZN12ActorUnkNSSW19func_ov032_02122a68Ev kind:function(arm,size=0xa4) addr:0x02122a68
_ZN12ActorUnkNSSW19func_ov032_02122b0cEv kind:function(arm,size=0x6c) addr:0x02122b0c
_ZN12ActorUnkNSSW19func_ov032_02120c64Ev kind:function(arm,size=0x8c) addr:0x02122b78
_ZN12ActorUnkNSSW19func_ov032_02120cf0Ev kind:function(arm,size=0x34) addr:0x02122c04
_ZN12ActorUnkNSSW19func_ov032_02120d24Ev kind:function(arm,size=0x3c) addr:0x02122c38
_ZN12ActorUnkNSSW19func_ov032_02120d60Ev kind:function(arm,size=0x1c) addr:0x02122c74
_ZN12ActorUnkNSSW19func_ov032_02120d7cEv kind:function(arm,size=0x40) addr:0x02122c90
_ZN12ActorUnkNSSW19func_ov032_02120dbcEv kind:function(arm,size=0x3c) addr:0x02122cd0
_ZN12ActorUnkNSSW19func_ov032_02120df8Ev kind:function(arm,size=0x10) addr:0x02122d0c
_ZN12ActorUnkNSSW19func_ov032_02122d1cEv kind:function(arm,size=0x98) addr:0x02122d1c
_ZN12ActorUnkNSSWD0Ev kind:function(arm,size=0x1c) addr:0x02122db4
_ZN12ActorUnkNSSW19func_ov032_02122dd0Ev kind:function(arm,size=0x1c) addr:0x02122dd0
_ZN12ActorUnkNSSWD1Ev kind:function(arm,size=0x30) addr:0x02122dec
_ZN12ActorUnkNSSW19func_ov032_02122e1cEv kind:function(arm,size=0x38) addr:0x02122e1c
_ZN19ActorProfileUnkNSSWD1Ev kind:function(arm,size=0x14) addr:0x02122e54
_ZN23MapObjectProfileUnkSWSW10GetProfileEv kind:function(arm,size=0xc) addr:0x02122e68
_ZN23MapObjectProfileUnkSWSW6CreateEv kind:function(arm,size=0x24) addr:0x02122e74
_ZN23MapObjectProfileUnkSWSWC1Ev kind:function(arm,size=0xb8) addr:0x02122e98
_ZN16MapObjectUnkSWSW19func_ov032_02120f78Ev kind:function(arm,size=0x6c) addr:0x02122f50
_ZN16MapObjectUnkSWSW19func_ov032_02120fe4Ev kind:function(arm,size=0xbc) addr:0x02122fbc
_ZN16MapObjectUnkSWSW19func_ov032_021210a0Ev kind:function(arm,size=0x64) addr:0x02123078
_ZN16MapObjectUnkSWSWC1Ev kind:function(arm,size=0xc4) addr:0x021230dc
_ZN16MapObjectUnkSWSW19func_ov032_021211c8Ev kind:function(arm,size=0x14) addr:0x021231a0
_ZN16MapObjectUnkSWSW19func_ov032_021211dcEv kind:function(arm,size=0x240) addr:0x021231b4
_ZN16MapObjectUnkSWSW19func_ov032_0212141cEv kind:function(arm,size=0x4b4) addr:0x021233f4
_ZN16MapObjectUnkSWSW19func_ov032_021218d0Ev kind:function(arm,size=0x278) addr:0x021238a8
_ZN16MapObjectUnkSWSW19func_ov032_02121b48Ev kind:function(arm,size=0x48) addr:0x02123b20
_ZN16MapObjectUnkSWSW19func_ov032_02121b90Ev kind:function(arm,size=0x88) addr:0x02123b68
_ZN16MapObjectUnkSWSW19func_ov032_02121c18Ev kind:function(arm,size=0x158) addr:0x02123bf0
_ZN16MapObjectUnkSWSW19func_ov032_02121d70Ev kind:function(arm,size=0x58) addr:0x02123d48
_ZN16MapObjectUnkSWSW19func_ov032_02121dc8Ev kind:function(arm,size=0x90) addr:0x02123da0
_ZN16MapObjectUnkSWSWD0Ev kind:function(arm,size=0x1c) addr:0x02123e30
_ZN16MapObjectUnkSWSWD1Ev kind:function(arm,size=0x20) addr:0x02123e4c
_ZN16MapObjectUnkSWSW19func_ov032_02123e6cEv kind:function(arm,size=0x28) addr:0x02123e6c
_ZN23MapObjectProfileUnkSWSWD1Ev kind:function(arm,size=0x14) addr:0x02123e94
data_ov032_02123eac kind:data(any) addr:0x02123eac
data_ov032_02123ebc kind:data(any) addr:0x02123ebc
data_ov032_02123ecc kind:data(any) addr:0x02123ecc
data_ov032_02123edc kind:data(any) addr:0x02123edc
data_ov032_02123eec kind:data(any) addr:0x02123eec
data_ov032_02123efc kind:data(any) addr:0x02123efc
__sinit_ActorUnkKURI.cpp kind:function(arm,size=0x6c) addr:0x02123f0c
__sinit_ActorUnkMKUR.cpp kind:function(arm,size=0x80) addr:0x02123f78
__sinit_ActorUnkKETH.cpp kind:function(arm,size=0x6c) addr:0x02123ff8
__sinit_ActorUnkNSSW.cpp kind:function(arm,size=0x50) addr:0x02124064
__sinit_MapObjectUnkSWSW.cpp kind:function(arm,size=0x50) addr:0x021240b4
.p__sinit_ActorUnkKURI.cpp kind:data(word) addr:0x02124104
.p__sinit_ActorUnkMKUR.cpp kind:data(word) addr:0x02124108
.p__sinit_ActorUnkKETH.cpp kind:data(word) addr:0x0212410c
.p__sinit_ActorUnkNSSW.cpp kind:data(word) addr:0x02124110
.p__sinit_MapObjectUnkSWSW.cpp kind:data(word) addr:0x02124114
data_ov032_02124120 kind:data(any) addr:0x02124120
data_ov032_0212412c kind:data(any) addr:0x0212412c
data_ov032_02124144 kind:data(any) addr:0x02124144
data_ov032_0212415c kind:data(any) addr:0x0212415c
data_ov032_0212417c kind:data(any) addr:0x0212417c
_ZTV19data_ov032_02124190 kind:data(any) addr:0x02124190
data_ov032_021241ad kind:data(any) addr:0x021241ad ambiguous
data_ov032_021241bc kind:data(any) addr:0x021241bc
data_ov032_02124204 kind:data(any) addr:0x02124204
data_ov032_02124248 kind:data(any) addr:0x02124248
_ZTV19data_ov032_021242a8 kind:data(any) addr:0x021242a8
data_ov032_02124308 kind:data(any) addr:0x02124308
data_ov032_02124348 kind:data(any) addr:0x02124348 ambiguous
data_ov032_02124360 kind:data(any) addr:0x02124360 ambiguous
data_ov032_02124368 kind:data(any) addr:0x02124368
data_ov032_02124374 kind:data(any) addr:0x02124374
data_ov032_0212438c kind:data(any) addr:0x0212438c
data_ov032_021243a4 kind:data(any) addr:0x021243a4
data_ov032_021243dc kind:data(any) addr:0x021243dc
_ZTV19data_ov032_02124414 kind:data(any) addr:0x02124414
_ZTV19data_ov032_02124438 kind:data(any) addr:0x02124438
data_ov032_02124498 kind:data(any) addr:0x02124498
data_ov032_021244a4 kind:data(any) addr:0x021244a4
data_ov032_021244bc kind:data(any) addr:0x021244bc
data_ov032_021244dc kind:data(any) addr:0x021244dc
data_ov032_021244e8 kind:data(any) addr:0x021244e8
_ZTV19data_ov032_021244fc kind:data(any) addr:0x021244fc
data_ov032_02124528 kind:data(any) addr:0x02124528
data_ov032_0212454c kind:data(any) addr:0x0212454c
data_ov032_0212459c kind:data(any) addr:0x0212459c
data_ov032_021245d0 kind:data(any) addr:0x021245d0 ambiguous
_ZTV19data_ov032_021245ec kind:data(any) addr:0x021245ec
data_ov032_02124654 kind:data(any) addr:0x02124654
data_ov032_0212466c kind:data(any) addr:0x0212466c
data_ov032_02124688 kind:data(any) addr:0x02124688
_ZTV19data_ov032_0212469c kind:data(any) addr:0x0212469c
_ZTV19data_ov032_021246c0 kind:data(any) addr:0x021246c0
data_ov032_02124728 kind:data(any) addr:0x02124728
data_ov032_02124744 kind:data(any) addr:0x02124744
data_ov032_02124760 kind:data(any) addr:0x02124760
data_ov032_02124788 kind:data(any) addr:0x02124788
data_ov032_021247b4 kind:data(any) addr:0x021247b4
data_ov032_02124800 kind:bss addr:0x02124800
data_ov032_02124804 kind:bss addr:0x02124804
sActorProfileUnkKURI kind:bss addr:0x02124810
data_ov032_021248e8 kind:bss addr:0x021248e8
data_ov032_021248ec kind:bss addr:0x021248ec
data_ov032_021248f8 kind:bss addr:0x021248f8
data_ov032_02124904 kind:bss addr:0x02124904
sActorProfileUnkMKUR kind:bss addr:0x02124910
data_ov032_02124954 kind:bss addr:0x02124954
data_ov032_02124958 kind:bss addr:0x02124958
sActorProfileUnkKETH kind:bss addr:0x02124964
data_ov032_02124a3c kind:bss addr:0x02124a3c
data_ov032_02124a40 kind:bss addr:0x02124a40
sActorProfileUnkNSSW kind:bss addr:0x02124a4c
data_ov032_02124a88 kind:bss addr:0x02124a88
data_ov032_02124a8c kind:bss addr:0x02124a8c
sMapObjectProfileUnkSWSW kind:bss addr:0x02124a98
data_ov032_02124ab8 kind:bss addr:0x02124ab8
data_ov032_02124b6c kind:bss addr:0x02124b6c
