_ZN19ActorProfileUnkGYAM10GetProfileEv kind:function(arm,size=0xc) addr:0x02131ec0
_ZN19ActorProfileUnkGYAM6CreateEv kind:function(arm,size=0x24) addr:0x02131ecc
_ZN19ActorProfileUnkGYAMC1Ev kind:function(arm,size=0x44) addr:0x02131ef0
_ZN12ActorUnkGYAM19func_ov051_02130514Ev kind:function(arm,size=0x5c) addr:0x02131f34
_ZN12ActorUnkGYAMC1Ev kind:function(arm,size=0x24c) addr:0x02131f90
_ZN12ActorUnkGYAM19func_ov051_021307bcEv kind:function(arm,size=0x14) addr:0x021321dc
_ZN12ActorUnkGYAM19func_ov051_021307d0Ev kind:function(arm,size=0x14) addr:0x021321f0
_ZN12ActorUnkGYAM19func_ov051_021307e4Ev kind:function(arm,size=0x14) addr:0x02132204
_ZN12ActorUnkGYAM19func_ov051_021307f8Ev kind:function(arm,size=0x14) addr:0x02132218
_ZN12ActorUnkGYAM19func_ov051_0213080cEv kind:function(arm,size=0xb0) addr:0x0213222c
_ZN12ActorUnkGYAMD0Ev kind:function(arm,size=0xb8) addr:0x021322dc
_ZN12ActorUnkGYAM19func_ov051_02130974Ev kind:function(arm,size=0xe4) addr:0x02132394
_ZN12ActorUnkGYAM19func_ov051_02130a58Ev kind:function(arm,size=0x5c) addr:0x02132478
_ZN12ActorUnkGYAM19func_ov051_02130ab4Ev kind:function(arm,size=0x48) addr:0x021324d4
_ZN12ActorUnkGYAM19func_ov051_02130afcEv kind:function(arm,size=0x94) addr:0x0213251c
_ZN12ActorUnkGYAM19func_ov051_02130b90Ev kind:function(arm,size=0xa30) addr:0x021325b0
_ZN12ActorUnkGYAM19func_ov051_021315c0Ev kind:function(arm,size=0xd8) addr:0x02132fe0
_ZN12ActorUnkGYAM19func_ov051_02131698Ev kind:function(arm,size=0x70) addr:0x021330b8
_ZN12ActorUnkGYAM19func_ov051_02131708Ev kind:function(arm,size=0x40) addr:0x02133128
_ZN12ActorUnkGYAM19func_ov051_02131748Ev kind:function(arm,size=0x70) addr:0x02133168
_ZN12ActorUnkGYAM19func_ov051_021317b8Ev kind:function(arm,size=0xf8) addr:0x021331d8
_ZN12ActorUnkGYAM19func_ov051_021318b0Ev kind:function(arm,size=0x70) addr:0x021332d0
_ZN12ActorUnkGYAM19func_ov051_02131920Ev kind:function(arm,size=0x34) addr:0x02133340
_ZN12ActorUnkGYAM19func_ov051_02131954Ev kind:function(arm,size=0x78) addr:0x02133374
_ZN12ActorUnkGYAM19func_ov051_021319ccEv kind:function(arm,size=0x50) addr:0x021333ec
_ZN12ActorUnkGYAM19func_ov051_02131a1cEv kind:function(arm,size=0x70) addr:0x0213343c
_ZN12ActorUnkGYAM19func_ov051_02131a8cEv kind:function(arm,size=0x50) addr:0x021334ac
_ZN12ActorUnkGYAM19func_ov051_02131adcEv kind:function(arm,size=0x20) addr:0x021334fc
_ZN12ActorUnkGYAM19func_ov051_02131afcEv kind:function(arm,size=0x240) addr:0x0213351c
_ZN12ActorUnkGYAM19func_ov051_02131d3cEv kind:function(arm,size=0xf4) addr:0x0213375c
_ZN12ActorUnkGYAM19func_ov051_02131e30Ev kind:function(arm,size=0x4c4) addr:0x02133850
_ZN12ActorUnkGYAM19func_ov051_021322f4Ev kind:function(arm,size=0x88) addr:0x02133d14
_ZN12ActorUnkGYAM19func_ov051_0213237cEv kind:function(arm,size=0x508) addr:0x02133d9c
_ZN12ActorUnkGYAM19func_ov051_02132884Ev kind:function(arm,size=0x14) addr:0x021342a4
_ZN12ActorUnkGYAM19func_ov051_02132898Ev kind:function(arm,size=0x43c) addr:0x021342b8
_ZN12ActorUnkGYAM19func_ov051_02132cd4Ev kind:function(arm,size=0x32c) addr:0x021346f4
_ZN12ActorUnkGYAM19func_ov051_02133000Ev kind:function(arm,size=0x30c) addr:0x02134a20
_ZN12ActorUnkGYAM19func_ov051_0213330cEv kind:function(arm,size=0x1b0) addr:0x02134d2c
_ZN12ActorUnkGYAM19func_ov051_021334bcEv kind:function(arm,size=0x30c) addr:0x02134edc
_ZN12ActorUnkGYAM19func_ov051_021337c8Ev kind:function(arm,size=0x1a0) addr:0x021351e8
_ZN12ActorUnkGYAM19func_ov051_02133968Ev kind:function(arm,size=0x258) addr:0x02135388
_ZN12ActorUnkGYAM19func_ov051_02133bc0Ev kind:function(arm,size=0x80) addr:0x021355e0
_ZN12ActorUnkGYAM19func_ov051_02133c40Ev kind:function(arm,size=0x3c) addr:0x02135660
_ZN12ActorUnkGYAM19func_ov051_02133c7cEv kind:function(arm,size=0x8c) addr:0x0213569c
_ZN12ActorUnkGYAM19func_ov051_02133d08Ev kind:function(arm,size=0x28) addr:0x02135728
_ZN12ActorUnkGYAM19func_ov051_02133d30Ev kind:function(arm,size=0x70) addr:0x02135750
_ZN12ActorUnkGYAM19func_ov051_02133da0Ev kind:function(arm,size=0x34) addr:0x021357c0
_ZN12ActorUnkGYAM19func_ov051_02133dd4Ev kind:function(arm,size=0x10c) addr:0x021357f4
_ZN12ActorUnkGYAM19func_ov051_02133ee0Ev kind:function(arm,size=0x170) addr:0x02135900
_ZN12ActorUnkGYAM19func_ov051_02134050Ev kind:function(arm,size=0xbc) addr:0x02135a70
_ZN12ActorUnkGYAM19func_ov051_0213410cEv kind:function(arm,size=0x104) addr:0x02135b2c
_ZN12ActorUnkGYAM19func_ov051_02134210Ev kind:function(arm,size=0x28) addr:0x02135c30
_ZN12ActorUnkGYAM19func_ov051_02134238Ev kind:function(arm,size=0x34) addr:0x02135c58
_ZN12ActorUnkGYAM19func_ov051_0213426cEv kind:function(arm,size=0x1ac) addr:0x02135c8c
_ZN12ActorUnkGYAM19func_ov051_02134418Ev kind:function(arm,size=0x5dc) addr:0x02135e38
_ZN12ActorUnkGYAM19func_ov051_021349f4Ev kind:function(arm,size=0xb8) addr:0x02136414
_ZN12ActorUnkGYAM19func_ov051_02134aacEv kind:function(arm,size=0x80) addr:0x021364cc
_ZN12ActorUnkGYAM19func_ov051_02134b2cEv kind:function(arm,size=0x40) addr:0x0213654c
_ZN12ActorUnkGYAM19func_ov051_02134b6cEv kind:function(arm,size=0x94) addr:0x0213658c
_ZN12ActorUnkGYAM19func_ov051_02134c00Ev kind:function(arm,size=0x48) addr:0x02136620
_ZN12ActorUnkGYAM19func_ov051_02134c48Ev kind:function(arm,size=0xd0) addr:0x02136668
_ZN12ActorUnkGYAM19func_ov051_02134d18Ev kind:function(arm,size=0xd0) addr:0x02136738
_ZN12ActorUnkGYAM19func_ov051_02134de8Ev kind:function(arm,size=0x18) addr:0x02136808
_ZN12ActorUnkGYAM19func_ov051_02134e00Ev kind:function(arm,size=0x2e8) addr:0x02136820
_ZN12ActorUnkGYAM19func_ov051_021350e8Ev kind:function(arm,size=0xb4) addr:0x02136b08
_ZN12ActorUnkGYAM19func_ov051_0213519cEv kind:function(arm,size=0x48) addr:0x02136bbc
_ZN12ActorUnkGYAM19func_ov051_021351e4Ev kind:function(arm,size=0xb4) addr:0x02136c04
_ZN12ActorUnkGYAM19func_ov051_02135298Ev kind:function(arm,size=0xa0) addr:0x02136cb8
_ZN12ActorUnkGYAM19func_ov051_02135338Ev kind:function(arm,size=0xb4) addr:0x02136d58
_ZN12ActorUnkGYAM19func_ov051_021353ecEv kind:function(arm,size=0xcc) addr:0x02136e0c
_ZN12ActorUnkGYAM19func_ov051_021354b8Ev kind:function(arm,size=0x110) addr:0x02136ed8
_ZN12ActorUnkGYAM19func_ov051_021355c8Ev kind:function(arm,size=0x10) addr:0x02136fe8
_ZN12ActorUnkGYAM19func_ov051_021355d8Ev kind:function(arm,size=0x74) addr:0x02136ff8
_ZN12ActorUnkGYAM19func_ov051_0213564cEv kind:function(arm,size=0xa0) addr:0x0213706c
_ZN12ActorUnkGYAM19func_ov051_021356ecEv kind:function(arm,size=0xdc) addr:0x0213710c
_ZN12ActorUnkGYAM19func_ov051_021357c8Ev kind:function(arm,size=0x18) addr:0x021371e8
_ZN12ActorUnkGYAM19func_ov051_021357e0Ev kind:function(arm,size=0x2d0) addr:0x02137200
_ZN12ActorUnkGYAM19func_ov051_02135ab0Ev kind:function(arm,size=0x12c) addr:0x021374d0
_ZN12ActorUnkGYAM19func_ov051_02135bdcEv kind:function(arm,size=0x78) addr:0x021375fc
_ZN12ActorUnkGYAM19func_ov051_02135c54Ev kind:function(arm,size=0x64) addr:0x02137674
_ZN12ActorUnkGYAM19func_ov051_02135cb8Ev kind:function(arm,size=0x78) addr:0x021376d8
_ZN12ActorUnkGYAM19func_ov051_02135d30Ev kind:function(arm,size=0x114) addr:0x02137750
_ZN12ActorUnkGYAM19func_ov051_02135e44Ev kind:function(arm,size=0x520) addr:0x02137864
_ZN12ActorUnkGYAM19func_ov051_02136364Ev kind:function(arm,size=0x180) addr:0x02137d84
_ZN12ActorUnkGYAM19func_ov051_021364e4Ev kind:function(arm,size=0x38) addr:0x02137f04
_ZN12ActorUnkGYAM19func_ov051_0213651cEv kind:function(arm,size=0x5c) addr:0x02137f3c
_ZN12ActorUnkGYAM19func_ov051_02136578Ev kind:function(arm,size=0x11c) addr:0x02137f98
_ZN12ActorUnkGYAM19func_ov051_02136694Ev kind:function(arm,size=0x508) addr:0x021380b4
_ZN12ActorUnkGYAM19func_ov051_02136b9cEv kind:function(arm,size=0x8) addr:0x021385bc
_ZN12ActorUnkGYAM19func_ov051_02136ba4Ev kind:function(arm,size=0x2c) addr:0x021385c4
_ZN12ActorUnkGYAM19func_ov051_02136bd0Ev kind:function(arm,size=0x24) addr:0x021385f0
_ZN12ActorUnkGYAM19func_ov051_02136bf4Ev kind:function(arm,size=0x24) addr:0x02138614
_ZN12ActorUnkGYAM19func_ov051_02136c18Ev kind:function(arm,size=0x2c) addr:0x02138638
_ZN12ActorUnkGYAM19func_ov051_02136c44Ev kind:function(arm,size=0xc) addr:0x02138664
_ZN12ActorUnkGYAM19func_ov051_02136c50Ev kind:function(arm,size=0x1c) addr:0x02138670
_ZN12ActorUnkGYAM19func_ov051_02136c6cEv kind:function(arm,size=0x1c) addr:0x0213868c
_ZN12ActorUnkGYAM19func_ov051_02136c88Ev kind:function(arm,size=0x1c) addr:0x021386a8
_ZN12ActorUnkGYAM19func_ov051_02136ca4Ev kind:function(arm,size=0x1c) addr:0x021386c4
_ZN19ActorProfileUnkGYAMD1Ev kind:function(arm,size=0x14) addr:0x021386e0
data_ov051_021386f8 kind:data(any) addr:0x021386f8
data_ov051_02138708 kind:data(any) addr:0x02138708
data_ov051_02138718 kind:data(any) addr:0x02138718
__sinit_ActorUnkGYAM.cpp kind:function(arm,size=0x8c) addr:0x02138728
.p__sinit_ActorUnkGYAM.cpp kind:data(word) addr:0x021387b4
data_ov051_021387c8 kind:data(any) addr:0x021387c8
data_ov051_021387cc kind:data(any) addr:0x021387cc
data_ov051_021387d8 kind:data(any) addr:0x021387d8
data_ov051_021387f0 kind:data(any) addr:0x021387f0
data_ov051_021387fc kind:data(any) addr:0x021387fc
data_ov051_02138818 kind:data(any) addr:0x02138818
_ZTV19data_ov051_0213882c kind:data(any) addr:0x0213882c
data_ov051_02138858 kind:data(any) addr:0x02138858
data_ov051_02138884 kind:data(any) addr:0x02138884
_ZTV19data_ov051_021388c8 kind:data(any) addr:0x021388c8
data_ov051_02138928 kind:data(any) addr:0x02138928
data_ov051_021389c0 kind:data(any) addr:0x021389c0
data_ov051_02138a58 kind:data(any) addr:0x02138a58
data_ov051_02138a70 kind:data(any) addr:0x02138a70
data_ov051_02138a88 kind:data(any) addr:0x02138a88
data_ov051_02138aa0 kind:data(any) addr:0x02138aa0
data_ov051_02138ab8 kind:data(any) addr:0x02138ab8
data_ov051_02138ad0 kind:data(any) addr:0x02138ad0
data_ov051_02138ae8 kind:data(any) addr:0x02138ae8
data_ov051_02138b00 kind:data(any) addr:0x02138b00
data_ov051_02138b18 kind:data(any) addr:0x02138b18
data_ov051_02138b30 kind:data(any) addr:0x02138b30
data_ov051_02138b48 kind:data(any) addr:0x02138b48
data_ov051_02138b60 kind:data(any) addr:0x02138b60
data_ov051_02138b78 kind:data(any) addr:0x02138b78
data_ov051_02138b90 kind:data(any) addr:0x02138b90
data_ov051_02138ba8 kind:data(any) addr:0x02138ba8
data_ov051_02138bc0 kind:bss addr:0x02138bc0
data_ov051_02138bc4 kind:bss addr:0x02138bc4
_ZN15ProfileInstanceI19ActorProfileUnkGYAME8sProfileE kind:bss addr:0x02138bd0
