_ZN19ActorProfileUnkSTLW10GetProfileEv kind:function(arm,size=0xc) addr:0x02131ec0
_ZN19ActorProfileUnkSTLW6CreateEv kind:function(arm,size=0x24) addr:0x02131ecc
_ZN19ActorProfileUnkSTLWC1Ev kind:function(arm,size=0x50) addr:0x02131ef0
_ZN12ActorUnkSTLWC1Ev kind:function(arm,size=0x1b8) addr:0x02131f40
_ZN12ActorUnkSTLW19func_ov052_021320f8Ev kind:function(arm,size=0x14) addr:0x021320f8
_ZN12ActorUnkSTLWD1Ev kind:function(arm,size=0x70) addr:0x0213210c
_ZN12ActorUnkSTLWD0Ev kind:function(arm,size=0x78) addr:0x0213217c
_ZN12ActorUnkSTLW19func_ov052_021321f4Ev kind:function(arm,size=0xf0) addr:0x021321f4
_ZN12ActorUnkSTLW19func_ov052_021322e4Ev kind:function(arm,size=0x54) addr:0x021322e4
_ZN12ActorUnkSTLW19func_ov052_02132338Ev kind:function(arm,size=0x24) addr:0x02132338
_ZN12ActorUnkSTLW19func_ov052_0213235cEv kind:function(arm,size=0x94) addr:0x0213235c
_ZN12ActorUnkSTLW19func_ov052_021323f0Ev kind:function(arm,size=0x300) addr:0x021323f0
_ZN12ActorUnkSTLW19func_ov052_021326f0Ev kind:function(arm,size=0xb8) addr:0x021326f0
_ZN12ActorUnkSTLW19func_ov052_021327a8Ev kind:function(arm,size=0x80) addr:0x021327a8
_ZN12ActorUnkSTLW19func_ov052_02132828Ev kind:function(arm,size=0x68) addr:0x02132828
_ZN12ActorUnkSTLW19func_ov052_02132890Ev kind:function(arm,size=0xc0) addr:0x02132890
_ZN12ActorUnkSTLW19func_ov052_02132950Ev kind:function(arm,size=0x54) addr:0x02132950
_ZN12ActorUnkSTLW19func_ov052_021329a4Ev kind:function(arm,size=0x10) addr:0x021329a4
_ZN12ActorUnkSTLW19func_ov052_021329b4Ev kind:function(arm,size=0x8c) addr:0x021329b4
_ZN12ActorUnkSTLW19func_ov052_02132a40Ev kind:function(arm,size=0xcc) addr:0x02132a40
_ZN12ActorUnkSTLW19func_ov052_02132b0cEv kind:function(arm,size=0xb8) addr:0x02132b0c
_ZN12ActorUnkSTLW19func_ov052_02132bc4Ev kind:function(arm,size=0x80) addr:0x02132bc4
_ZN12ActorUnkSTLW19func_ov052_02132c44Ev kind:function(arm,size=0x84) addr:0x02132c44
_ZN12ActorUnkSTLW19func_ov052_02132cc8Ev kind:function(arm,size=0xd8) addr:0x02132cc8
_ZN12ActorUnkSTLW19func_ov052_02132da0Ev kind:function(arm,size=0xe0) addr:0x02132da0
_ZN12ActorUnkSTLW19func_ov052_02132e80Ev kind:function(arm,size=0x210) addr:0x02132e80
_ZN12ActorUnkSTLW19func_ov052_02133090Ev kind:function(arm,size=0xe4) addr:0x02133090
_ZN12ActorUnkSTLW19func_ov052_02133174Ev kind:function(arm,size=0x264) addr:0x02133174
_ZN12ActorUnkSTLW19func_ov052_021333d8Ev kind:function(arm,size=0x7c) addr:0x021333d8
_ZN12ActorUnkSTLW19func_ov052_02133454Ev kind:function(arm,size=0x9c) addr:0x02133454
_ZN12ActorUnkSTLW19func_ov052_021334f0Ev kind:function(arm,size=0xec) addr:0x021334f0
_ZN12ActorUnkSTLW19func_ov052_021335dcEv kind:function(arm,size=0x7c) addr:0x021335dc
_ZN12ActorUnkSTLW19func_ov052_02133658Ev kind:function(arm,size=0x138) addr:0x02133658
_ZN12ActorUnkSTLW19func_ov052_02133790Ev kind:function(arm,size=0xfc) addr:0x02133790
_ZN12ActorUnkSTLW19func_ov052_0213388cEv kind:function(arm,size=0x48) addr:0x0213388c
_ZN12ActorUnkSTLW19func_ov052_021338d4Ev kind:function(arm,size=0x18) addr:0x021338d4
_ZN12ActorUnkSTLW19func_ov052_021338ecEv kind:function(arm,size=0x44) addr:0x021338ec
_ZN12ActorUnkSTLW19func_ov052_02133930Ev kind:function(arm,size=0xdc) addr:0x02133930
_ZN12ActorUnkSTLW19func_ov052_02133a0cEv kind:function(arm,size=0x6c) addr:0x02133a0c
_ZN12ActorUnkSTLW19func_ov052_02133a78Ev kind:function(arm,size=0x18) addr:0x02133a78
_ZN12ActorUnkSTLW19func_ov052_02133a90Ev kind:function(arm,size=0x88) addr:0x02133a90
_ZN12ActorUnkSTLW19func_ov052_02133b18Ev kind:function(arm,size=0x134) addr:0x02133b18
_ZN12ActorUnkSTLW19func_ov052_02133c4cEv kind:function(arm,size=0x14c) addr:0x02133c4c
_ZN12ActorUnkSTLW19func_ov052_02133d98Ev kind:function(arm,size=0xfc) addr:0x02133d98
_ZN12ActorUnkSTLW19func_ov052_02133e94Ev kind:function(arm,size=0x90) addr:0x02133e94
_ZN12ActorUnkSTLW19func_ov052_02133f24Ev kind:function(arm,size=0xe0) addr:0x02133f24
_ZN12ActorUnkSTLW19func_ov052_02134004Ev kind:function(arm,size=0x24) addr:0x02134004
_ZN12ActorUnkSTLW19func_ov052_02134028Ev kind:function(arm,size=0x74) addr:0x02134028
_ZN12ActorUnkSTLW19func_ov052_0213409cEv kind:function(arm,size=0x9c) addr:0x0213409c
_ZN12ActorUnkSTLW19func_ov052_02134138Ev kind:function(arm,size=0x78) addr:0x02134138
_ZN12ActorUnkSTLW19func_ov052_021341b0Ev kind:function(arm,size=0xa4) addr:0x021341b0
_ZN12ActorUnkSTLW19func_ov052_02134254Ev kind:function(arm,size=0x18) addr:0x02134254
_ZN12ActorUnkSTLW19func_ov052_0213426cEv kind:function(arm,size=0x3b8) addr:0x0213426c
_ZN12ActorUnkSTLW19func_ov052_02134624Ev kind:function(arm,size=0x68) addr:0x02134624
_ZN12ActorUnkSTLW19func_ov052_0213468cEv kind:function(arm,size=0x28) addr:0x0213468c
_ZN12ActorUnkSTLW19func_ov052_021346b4Ev kind:function(arm,size=0xe8) addr:0x021346b4
_ZN12ActorUnkSTLW19func_ov052_0213479cEv kind:function(arm,size=0x30) addr:0x0213479c
_ZN12ActorUnkSTLW19func_ov052_021347ccEv kind:function(arm,size=0x94) addr:0x021347cc
_ZN12ActorUnkSTLW19func_ov052_02134860Ev kind:function(arm,size=0x18c) addr:0x02134860
_ZN12ActorUnkSTLW19func_ov052_021349ecEv kind:function(arm,size=0x10c) addr:0x021349ec
_ZN12ActorUnkSTLW19func_ov052_02134af8Ev kind:function(arm,size=0x24) addr:0x02134af8
_ZN12ActorUnkSTLW19func_ov052_02134b1cEv kind:function(arm,size=0x2c) addr:0x02134b1c
_ZN12ActorUnkSTLW19func_ov052_02134b48Ev kind:function(arm,size=0xc) addr:0x02134b48
_ZN12ActorUnkSTLW19func_ov052_02134b54Ev kind:function(arm,size=0x1c) addr:0x02134b54
_ZN19ActorProfileUnkSTLWD1Ev kind:function(arm,size=0x14) addr:0x02134b70
_ZN19ActorProfileUnkSTWH10GetProfileEv kind:function(arm,size=0xc) addr:0x02134b84
_ZN19ActorProfileUnkSTWH6CreateEv kind:function(arm,size=0x24) addr:0x02134b90
_ZN19ActorProfileUnkSTWHC1Ev kind:function(arm,size=0x58) addr:0x02134bb4
_ZN12ActorUnkSTWH19func_ov052_02134c0cEv kind:function(arm,size=0x34) addr:0x02134c0c
_ZN12ActorUnkSTWH19func_ov052_02134c40Ev kind:function(arm,size=0x3c) addr:0x02134c40
_ZN12ActorUnkSTWH19func_ov052_02134c7cEv kind:function(arm,size=0x20) addr:0x02134c7c
_ZN12ActorUnkSTWH19func_ov052_02134c9cEv kind:function(arm,size=0x24) addr:0x02134c9c
_ZN12ActorUnkSTWHC1Ev kind:function(arm,size=0x260) addr:0x02134cc0
_ZN12ActorUnkSTWH19func_ov052_02134f20Ev kind:function(arm,size=0x14) addr:0x02134f20
_ZN12ActorUnkSTWH19func_ov052_02134f34Ev kind:function(arm,size=0x14) addr:0x02134f34
_ZN12ActorUnkSTWH19func_ov052_02134f48Ev kind:function(arm,size=0x50) addr:0x02134f48
_ZN12ActorUnkSTWH19func_ov052_02134f98Ev kind:function(arm,size=0x30) addr:0x02134f98
_ZN12ActorUnkSTWH19func_ov052_02134fc8Ev kind:function(arm,size=0x94) addr:0x02134fc8
_ZN12ActorUnkSTWH19func_ov052_0213505cEv kind:function(arm,size=0x84) addr:0x0213505c
_ZN12ActorUnkSTWH19func_ov052_021350e0Ev kind:function(arm,size=0x6c) addr:0x021350e0
_ZN12ActorUnkSTWH19func_ov052_0213514cEv kind:function(arm,size=0x28) addr:0x0213514c
_ZN12ActorUnkSTWH19func_ov052_02135174Ev kind:function(arm,size=0x84) addr:0x02135174
_ZN12ActorUnkSTWH19func_ov052_021351f8Ev kind:function(arm,size=0xd4) addr:0x021351f8
_ZN12ActorUnkSTWH19func_ov052_021352ccEv kind:function(arm,size=0xec) addr:0x021352cc
_ZN12ActorUnkSTWH19func_ov052_021353b8Ev kind:function(arm,size=0x100) addr:0x021353b8
_ZN12ActorUnkSTWH19func_ov052_021354b8Ev kind:function(arm,size=0x4) addr:0x021354b8
_ZN12ActorUnkSTWH19func_ov052_021354bcEv kind:function(arm,size=0x4c) addr:0x021354bc
_ZN12ActorUnkSTWH19func_ov052_02135508Ev kind:function(arm,size=0x4) addr:0x02135508
_ZN12ActorUnkSTWH19func_ov052_0213550cEv kind:function(arm,size=0x44) addr:0x0213550c
_ZN12ActorUnkSTWH19func_ov052_02135550Ev kind:function(arm,size=0x94) addr:0x02135550
_ZN12ActorUnkSTWH19func_ov052_021355e4Ev kind:function(arm,size=0x98) addr:0x021355e4
_ZN12ActorUnkSTWH19func_ov052_0213567cEv kind:function(arm,size=0x8c) addr:0x0213567c
_ZN12ActorUnkSTWH19func_ov052_02135708Ev kind:function(arm,size=0x154) addr:0x02135708
_ZN12ActorUnkSTWH19func_ov052_0213585cEv kind:function(arm,size=0x64) addr:0x0213585c
_ZN12ActorUnkSTWH19func_ov052_021358c0Ev kind:function(arm,size=0x4) addr:0x021358c0
_ZN12ActorUnkSTWH19func_ov052_021358c4Ev kind:function(arm,size=0x7c) addr:0x021358c4
_ZN12ActorUnkSTWH19func_ov052_02135940Ev kind:function(arm,size=0xd0) addr:0x02135940
_ZN12ActorUnkSTWH19func_ov052_02135a10Ev kind:function(arm,size=0xac) addr:0x02135a10
_ZN12ActorUnkSTWH19func_ov052_02135abcEv kind:function(arm,size=0x138) addr:0x02135abc
_ZN12ActorUnkSTWH19func_ov052_02135bf4Ev kind:function(arm,size=0x90) addr:0x02135bf4
_ZN12ActorUnkSTWH19func_ov052_02135c84Ev kind:function(arm,size=0xb4) addr:0x02135c84
_ZN12ActorUnkSTWH19func_ov052_02135d38Ev kind:function(arm,size=0xc0) addr:0x02135d38
_ZN12ActorUnkSTWH19func_ov052_02135df8Ev kind:function(arm,size=0x98) addr:0x02135df8
_ZN12ActorUnkSTWH19func_ov052_02135e90Ev kind:function(arm,size=0x24) addr:0x02135e90
_ZN12ActorUnkSTWH19func_ov052_02135eb4Ev kind:function(arm,size=0x8c) addr:0x02135eb4
_ZN12ActorUnkSTWH19func_ov052_02135f40Ev kind:function(arm,size=0x9c) addr:0x02135f40
_ZN12ActorUnkSTWH19func_ov052_02135fdcEv kind:function(arm,size=0x140) addr:0x02135fdc
_ZN12ActorUnkSTWH19func_ov052_0213611cEv kind:function(arm,size=0xac) addr:0x0213611c
_ZN12ActorUnkSTWH19func_ov052_021361c8Ev kind:function(arm,size=0x24) addr:0x021361c8
_ZN12ActorUnkSTWH19func_ov052_021361ecEv kind:function(arm,size=0x60) addr:0x021361ec
_ZN12ActorUnkSTWH19func_ov052_0213624cEv kind:function(arm,size=0x2c) addr:0x0213624c
_ZN12ActorUnkSTWH19func_ov052_02136278Ev kind:function(arm,size=0xc0) addr:0x02136278
_ZN12ActorUnkSTWH19func_ov052_02136338Ev kind:function(arm,size=0x10) addr:0x02136338
_ZN12ActorUnkSTWH19func_ov052_02136348Ev kind:function(arm,size=0x64) addr:0x02136348
_ZN12ActorUnkSTWH19func_ov052_021363acEv kind:function(arm,size=0x1fc) addr:0x021363ac
_ZN12ActorUnkSTWH19func_ov052_021365a8Ev kind:function(arm,size=0x44) addr:0x021365a8
_ZN12ActorUnkSTWH19func_ov052_021365ecEv kind:function(arm,size=0xa8) addr:0x021365ec
_ZN12ActorUnkSTWH19func_ov052_02136694Ev kind:function(arm,size=0x24) addr:0x02136694
_ZN12ActorUnkSTWH19func_ov052_021366b8Ev kind:function(arm,size=0x10) addr:0x021366b8
_ZN12ActorUnkSTWH19func_ov052_021366c8Ev kind:function(arm,size=0x8) addr:0x021366c8
_ZN12ActorUnkSTWHD0Ev kind:function(arm,size=0x1c) addr:0x021366d0
_ZN12ActorUnkSTWH19func_ov052_021366ecEv kind:function(arm,size=0x1c) addr:0x021366ec
_ZN12ActorUnkSTWHD1Ev kind:function(arm,size=0x40) addr:0x02136708
_ZN12ActorUnkSTWH19func_ov052_02136748Ev kind:function(arm,size=0x48) addr:0x02136748
_ZN19ActorProfileUnkSTWHD1Ev kind:function(arm,size=0x14) addr:0x02136790
_ZN19ActorProfileUnkNAVI10GetProfileEv kind:function(arm,size=0xc) addr:0x021367a4
_ZN19ActorProfileUnkNAVI6CreateEv kind:function(arm,size=0x24) addr:0x021367b0
_ZN19ActorProfileUnkNAVIC1Ev kind:function(arm,size=0x5c) addr:0x021367d4
_ZN12ActorUnkNAVIC1Ev kind:function(arm,size=0x17c) addr:0x02136830
_ZN12ActorUnkNAVI19func_ov052_021369acEv kind:function(arm,size=0x14) addr:0x021369ac
_ZN12ActorUnkNAVI19func_ov052_021369c0Ev kind:function(arm,size=0x14) addr:0x021369c0
_ZN12ActorUnkNAVID1Ev kind:function(arm,size=0x64) addr:0x021369d4
_ZN12ActorUnkNAVID0Ev kind:function(arm,size=0x6c) addr:0x02136a38
_ZN12ActorUnkNAVI19func_ov052_02136aa4Ev kind:function(arm,size=0x20) addr:0x02136aa4
_ZN12ActorUnkNAVI19func_ov052_02136ac4Ev kind:function(arm,size=0x5c) addr:0x02136ac4
_ZN12ActorUnkNAVI19func_ov052_02136b20Ev kind:function(arm,size=0x1b0) addr:0x02136b20
_ZN12ActorUnkNAVI19func_ov052_02136cd0Ev kind:function(arm,size=0x60) addr:0x02136cd0
_ZN12ActorUnkNAVI19func_ov052_02136d30Ev kind:function(arm,size=0xa0) addr:0x02136d30
_ZN12ActorUnkNAVI19func_ov052_02136dd0Ev kind:function(arm,size=0x248) addr:0x02136dd0
_ZN12ActorUnkNAVI19func_ov052_02137018Ev kind:function(arm,size=0x7c) addr:0x02137018
_ZN12ActorUnkNAVI19func_ov052_02137094Ev kind:function(arm,size=0x1bc) addr:0x02137094
_ZN12ActorUnkNAVI19func_ov052_02137250Ev kind:function(arm,size=0x24) addr:0x02137250
_ZN12ActorUnkNAVI19func_ov052_02137274Ev kind:function(arm,size=0x13c) addr:0x02137274
_ZN12ActorUnkNAVI19func_ov052_021373b0Ev kind:function(arm,size=0x20) addr:0x021373b0
_ZN12ActorUnkNAVI19func_ov052_021373d0Ev kind:function(arm,size=0x14) addr:0x021373d0
_ZN12ActorUnkNAVI19func_ov052_021373e4Ev kind:function(arm,size=0x18) addr:0x021373e4
_ZN12ActorUnkNAVI19func_ov052_021373fcEv kind:function(arm,size=0x30) addr:0x021373fc
_ZN12ActorUnkNAVI19func_ov052_0213742cEv kind:function(arm,size=0x38) addr:0x0213742c
_ZN12ActorUnkNAVI19func_ov052_02137464Ev kind:function(arm,size=0x18) addr:0x02137464
_ZN12ActorUnkNAVI19func_ov052_0213747cEv kind:function(arm,size=0x20) addr:0x0213747c
_ZN12ActorUnkNAVI19func_ov052_0213749cEv kind:function(arm,size=0x30) addr:0x0213749c
_ZN12ActorUnkNAVI19func_ov052_021374ccEv kind:function(arm,size=0xc) addr:0x021374cc
_ZN12ActorUnkNAVI19func_ov052_021374d8Ev kind:function(arm,size=0x20) addr:0x021374d8
_ZN12ActorUnkNAVI19func_ov052_021374f8Ev kind:function(arm,size=0x20) addr:0x021374f8
_ZN12ActorUnkNAVI19func_ov052_02137518Ev kind:function(arm,size=0x14) addr:0x02137518
_ZN12ActorUnkNAVI19func_ov052_0213752cEv kind:function(arm,size=0x1c) addr:0x0213752c
_ZN12ActorUnkNAVI19func_ov052_02137548Ev kind:function(arm,size=0x28) addr:0x02137548
_ZN12ActorUnkNAVID2Ev kind:function(arm,size=0x20) addr:0x02137570
_ZN19ActorProfileUnkNAVID1Ev kind:function(arm,size=0x14) addr:0x02137590
_ZN19ActorProfileUnkPTSW10GetProfileEv kind:function(arm,size=0xc) addr:0x021375a4
_ZN19ActorProfileUnkPTSW6CreateEv kind:function(arm,size=0x24) addr:0x021375b0
_ZN19ActorProfileUnkPTSWC1Ev kind:function(arm,size=0x28) addr:0x021375d4
_ZN12ActorUnkPTSWC1Ev kind:function(arm,size=0x20) addr:0x021375fc
_ZN12ActorUnkPTSW19func_ov052_0213761cEv kind:function(arm,size=0x34) addr:0x0213761c
_ZN12ActorUnkPTSW19func_ov052_02137650Ev kind:function(arm,size=0x34) addr:0x02137650
_ZN12ActorUnkPTSW19func_ov052_02137684Ev kind:function(arm,size=0x14) addr:0x02137684
_ZN12ActorUnkPTSW19func_ov052_02137698Ev kind:function(arm,size=0xe0) addr:0x02137698
_ZN12ActorUnkPTSWD1Ev kind:function(arm,size=0x14) addr:0x02137778
_ZN12ActorUnkPTSWD0Ev kind:function(arm,size=0x1c) addr:0x0213778c
_ZN19ActorProfileUnkPTSWD1Ev kind:function(arm,size=0x14) addr:0x021377a8
data_ov052_021377bc kind:data(any) addr:0x021377bc
data_ov052_021377c0 kind:data(any) addr:0x021377c0
data_ov052_021377d0 kind:data(any) addr:0x021377d0
data_ov052_021377d4 kind:data(any) addr:0x021377d4
__sinit_ActorUnkSTLW.cpp kind:function(arm,size=0xe0) addr:0x021377e4
__sinit_ActorUnkSTWH.cpp kind:function(arm,size=0xe8) addr:0x021378c4
__sinit_ActorUnkNAVI.cpp kind:function(arm,size=0x90) addr:0x021379ac
__sinit_ActorUnkPTSW.cpp kind:function(arm,size=0x50) addr:0x02137a3c
.p__sinit_ActorUnkSTLW.cpp kind:data(word) addr:0x02137a8c
.p__sinit_ActorUnkSTWH.cpp kind:data(word) addr:0x02137a90
.p__sinit_ActorUnkNAVI.cpp kind:data(word) addr:0x02137a94
.p__sinit_ActorUnkPTSW.cpp kind:data(word) addr:0x02137a98
_ZTV19data_ov052_02137aa0 kind:data(any) addr:0x02137aa0
data_ov052_02137acc kind:data(any) addr:0x02137acc
_ZTV19data_ov052_02137b10 kind:data(any) addr:0x02137b10
data_ov052_02137b14 kind:data(any) addr:0x02137b14 ambiguous
data_ov052_02137b70 kind:data(any) addr:0x02137b70
data_ov052_02137b88 kind:data(any) addr:0x02137b88
data_ov052_02137ba0 kind:data(any) addr:0x02137ba0
data_ov052_02137bb8 kind:data(any) addr:0x02137bb8
data_ov052_02137bd0 kind:data(any) addr:0x02137bd0
data_ov052_02137be8 kind:data(any) addr:0x02137be8
data_ov052_02137c00 kind:data(any) addr:0x02137c00
data_ov052_02137c10 kind:data(any) addr:0x02137c10
data_ov052_02137d88 kind:data(any) addr:0x02137d88
data_ov052_02137d98 kind:data(any) addr:0x02137d98
_ZTV19data_ov052_02137db0 kind:data(any) addr:0x02137db0
data_ov052_02137ddc kind:data(any) addr:0x02137ddc
data_ov052_02137e24 kind:data(any) addr:0x02137e24
data_ov052_02137e2c kind:data(any) addr:0x02137e2c ambiguous
_ZTV19data_ov052_02137e68 kind:data(any) addr:0x02137e68
_ZTV19data_ov052_02137e6c kind:data(any) addr:0x02137e6c ambiguous
data_ov052_02137ec8 kind:data(any) addr:0x02137ec8
data_ov052_02137ee0 kind:data(any) addr:0x02137ee0
data_ov052_02137ef8 kind:data(any) addr:0x02137ef8
data_ov052_02137f10 kind:data(any) addr:0x02137f10
data_ov052_02137f40 kind:data(any) addr:0x02137f40
data_ov052_02137f58 kind:data(any) addr:0x02137f58
data_ov052_02137f68 kind:data(any) addr:0x02137f68
data_ov052_021380a8 kind:data(any) addr:0x021380a8
data_ov052_021380b4 kind:data(any) addr:0x021380b4
data_ov052_021380c8 kind:data(any) addr:0x021380c8
_ZTV19data_ov052_021380d0 kind:data(any) addr:0x021380d0
data_ov052_021380f4 kind:data(any) addr:0x021380f4
data_ov052_02138144 kind:data(any) addr:0x02138144
_ZTV19data_ov052_02138188 kind:data(any) addr:0x02138188
_ZTV19data_ov052_021382a4 kind:data(any) addr:0x021382a4
_ZTV19data_ov052_021383c0 kind:data(any) addr:0x021383c0
_ZTV19data_ov052_021383e4 kind:data(any) addr:0x021383e4
_ZGVN15ProfileInstanceI19ActorProfileUnkSTLWE8sProfileE kind:bss addr:0x02138440
@31887 kind:bss addr:0x0213844c
_ZN15ProfileInstanceI19ActorProfileUnkSTLWE8sProfileE kind:bss addr:0x02138458
_ZGVN15ProfileInstanceI19ActorProfileUnkSTWHE8sProfileE kind:bss addr:0x02138530
@31893 kind:bss addr:0x02138534
_ZN15ProfileInstanceI19ActorProfileUnkSTWHE8sProfileE kind:bss addr:0x02138540
_ZGVN15ProfileInstanceI19ActorProfileUnkNAVIE8sProfileE kind:bss addr:0x02138618
@31899 kind:bss addr:0x0213861c
_ZN15ProfileInstanceI19ActorProfileUnkNAVIE8sProfileE kind:bss addr:0x02138628
data_ov052_02138700 kind:bss addr:0x02138700
data_ov052_02138704 kind:bss addr:0x02138704
_ZN15ProfileInstanceI19ActorProfileUnkPTSWE8sProfileE kind:bss addr:0x02138710
