_ZN19ActorProfileUnkKMOS10GetProfileEv kind:function(arm,size=0xc) addr:0x021304a0
_ZN19ActorProfileUnkKMOS6CreateEv kind:function(arm,size=0x24) addr:0x021304ac
_ZN19ActorProfileUnkKMOSC1Ev kind:function(arm,size=0x68) addr:0x021304d0
_ZN12ActorUnkKMOSC1Ev kind:function(arm,size=0x1ec) addr:0x02130538
_ZN12ActorUnkKMOS19func_ov050_02130724Ev kind:function(arm,size=0x14) addr:0x02130724
_ZN12ActorUnkKMOS19func_ov050_02130738Ev kind:function(arm,size=0x14) addr:0x02130738
_ZN12ActorUnkKMOS19func_ov050_0213074cEv kind:function(arm,size=0x64) addr:0x0213074c
_ZN12ActorUnkKMOS19func_ov050_021307b0Ev kind:function(arm,size=0xcc) addr:0x021307b0
_ZN12ActorUnkKMOS19func_ov050_0213087cEv kind:function(arm,size=0x54) addr:0x0213087c
_ZN12ActorUnkKMOS19func_ov050_021308d0Ev kind:function(arm,size=0x4ac) addr:0x021308d0
_ZN12ActorUnkKMOS19func_ov050_02130d7cEv kind:function(arm,size=0x40) addr:0x02130d7c
_ZN12ActorUnkKMOS19func_ov050_02130dbcEv kind:function(arm,size=0x1c) addr:0x02130dbc
_ZN12ActorUnkKMOS19func_ov050_02130dd8Ev kind:function(arm,size=0x13c) addr:0x02130dd8
_ZN12ActorUnkKMOS19func_ov050_02130f14Ev kind:function(arm,size=0x34) addr:0x02130f14
_ZN12ActorUnkKMOS19func_ov050_02130f48Ev kind:function(arm,size=0x254) addr:0x02130f48
_ZN12ActorUnkKMOS19func_ov050_0213119cEv kind:function(arm,size=0x70) addr:0x0213119c
_ZN12ActorUnkKMOS19func_ov050_0213120cEv kind:function(arm,size=0x2c4) addr:0x0213120c
_ZN12ActorUnkKMOS19func_ov050_021314d0Ev kind:function(arm,size=0x4) addr:0x021314d0
_ZN12ActorUnkKMOS19func_ov050_021314d4Ev kind:function(arm,size=0x1ac) addr:0x021314d4
_ZN12ActorUnkKMOS19func_ov050_02131680Ev kind:function(arm,size=0x48) addr:0x02131680
_ZN12ActorUnkKMOS19func_ov050_021316c8Ev kind:function(arm,size=0x2ac) addr:0x021316c8
_ZN12ActorUnkKMOS19func_ov050_02131974Ev kind:function(arm,size=0x34) addr:0x02131974
_ZN12ActorUnkKMOS19func_ov050_021319a8Ev kind:function(arm,size=0x1e4) addr:0x021319a8
_ZN12ActorUnkKMOS19func_ov050_02131b8cEv kind:function(arm,size=0x4c) addr:0x02131b8c
_ZN12ActorUnkKMOS19func_ov050_02131bd8Ev kind:function(arm,size=0xac) addr:0x02131bd8
_ZN12ActorUnkKMOS19func_ov050_02131c84Ev kind:function(arm,size=0x9c) addr:0x02131c84
_ZN12ActorUnkKMOS19func_ov050_02131d20Ev kind:function(arm,size=0x180) addr:0x02131d20
_ZN12ActorUnkKMOS19func_ov050_02131ea0Ev kind:function(arm,size=0x7c) addr:0x02131ea0
_ZN12ActorUnkKMOS19func_ov050_02131f1cEv kind:function(arm,size=0x4) addr:0x02131f1c
_ZN12ActorUnkKMOS19func_ov050_02131f20Ev kind:function(arm,size=0xc8) addr:0x02131f20
_ZN12ActorUnkKMOS19func_ov050_02131fe8Ev kind:function(arm,size=0x348) addr:0x02131fe8
_ZN12ActorUnkKMOS19func_ov050_02132330Ev kind:function(arm,size=0x148) addr:0x02132330
_ZN12ActorUnkKMOS19func_ov050_02132478Ev kind:function(arm,size=0x64) addr:0x02132478
_ZN12ActorUnkKMOS19func_ov050_021324dcEv kind:function(arm,size=0x164) addr:0x021324dc
_ZN12ActorUnkKMOS19func_ov050_02132640Ev kind:function(arm,size=0x1c) addr:0x02132640
_ZN12ActorUnkKMOS19func_ov050_0213265cEv kind:function(arm,size=0x40) addr:0x0213265c
_ZN12ActorUnkKMOS19func_ov050_0213269cEv kind:function(arm,size=0x24) addr:0x0213269c
_ZN12ActorUnkKMOS19func_ov050_021326c0Ev kind:function(arm,size=0x4) addr:0x021326c0
_ZN12ActorUnkKMOS19func_ov050_021326c4Ev kind:function(arm,size=0xe4) addr:0x021326c4
_ZN12ActorUnkKMOS19func_ov050_021327a8Ev kind:function(arm,size=0x3c) addr:0x021327a8
_ZN12ActorUnkKMOS19func_ov050_021327e4Ev kind:function(arm,size=0x1c) addr:0x021327e4
_ZN12ActorUnkKMOS19func_ov050_02132800Ev kind:function(arm,size=0x74) addr:0x02132800
_ZN12ActorUnkKMOS19func_ov050_02132874Ev kind:function(arm,size=0x54) addr:0x02132874
_ZN12ActorUnkKMOS19func_ov050_021328c8Ev kind:function(arm,size=0x74) addr:0x021328c8
_ZN12ActorUnkKMOS19func_ov050_0213293cEv kind:function(arm,size=0xa4) addr:0x0213293c
_ZN12ActorUnkKMOS19func_ov050_021329e0Ev kind:function(arm,size=0x6c) addr:0x021329e0
_ZN12ActorUnkKMOS19func_ov050_02132a4cEv kind:function(arm,size=0x124) addr:0x02132a4c
_ZN12ActorUnkKMOS19func_ov050_02132b70Ev kind:function(arm,size=0x44) addr:0x02132b70
_ZN12ActorUnkKMOS19func_ov050_02132bb4Ev kind:function(arm,size=0x80) addr:0x02132bb4
_ZN12ActorUnkKMOS19func_ov050_02132c34Ev kind:function(arm,size=0x28) addr:0x02132c34
_ZN12ActorUnkKMOSD1Ev kind:function(arm,size=0x1c) addr:0x02132c5c
_ZN12ActorUnkKMOSD0Ev kind:function(arm,size=0x24) addr:0x02132c78
_ZN12ActorUnkKMOS19func_ov050_02132c9cEv kind:function(arm,size=0x50) addr:0x02132c9c
_ZN12ActorUnkKMOS19func_ov050_02132cecEv kind:function(arm,size=0x7c) addr:0x02132cec
_ZN12ActorUnkKMOS19func_ov050_02132d68Ev kind:function(arm,size=0x28) addr:0x02132d68
_ZN12ActorUnkKMOS19func_ov050_02132d90Ev kind:function(arm,size=0x24) addr:0x02132d90
_ZN12ActorUnkKMOS19func_ov050_02132db4Ev kind:function(arm,size=0x10) addr:0x02132db4
_ZN12ActorUnkKMOS19func_ov050_02132dc4Ev kind:function(arm,size=0x8) addr:0x02132dc4
_ZN12ActorUnkKMOS19func_ov050_02132dccEv kind:function(arm,size=0x1c) addr:0x02132dcc
_ZN12ActorUnkKMOS19func_ov050_02132de8Ev kind:function(arm,size=0x1c) addr:0x02132de8
_ZN12ActorUnkKMOS19func_ov050_02132e04Ev kind:function(arm,size=0x50) addr:0x02132e04
_ZN12ActorUnkKMOS19func_ov050_02132e54Ev kind:function(arm,size=0x58) addr:0x02132e54
_ZN19ActorProfileUnkKMOSD1Ev kind:function(arm,size=0x14) addr:0x02132eac
_ZN19ActorProfileUnkKMOH10GetProfileEv kind:function(arm,size=0xc) addr:0x02132ec0
_ZN19ActorProfileUnkKMOH6CreateEv kind:function(arm,size=0x24) addr:0x02132ecc
_ZN19ActorProfileUnkKMOHC1Ev kind:function(arm,size=0x4c) addr:0x02132ef0
_ZN12ActorUnkKMOHC1Ev kind:function(arm,size=0x16c) addr:0x02132f3c
_ZN12ActorUnkKMOH19func_ov050_021330a8Ev kind:function(arm,size=0x14) addr:0x021330a8
_ZN12ActorUnkKMOH19func_ov050_021330bcEv kind:function(arm,size=0x48) addr:0x021330bc
_ZN12ActorUnkKMOH19func_ov050_02133104Ev kind:function(arm,size=0x24) addr:0x02133104
_ZN12ActorUnkKMOH19func_ov050_02133128Ev kind:function(arm,size=0x54) addr:0x02133128
_ZN12ActorUnkKMOH19func_ov050_0213317cEv kind:function(arm,size=0x1b8) addr:0x0213317c
_ZN12ActorUnkKMOH19func_ov050_02133334Ev kind:function(arm,size=0x68) addr:0x02133334
_ZN12ActorUnkKMOH19func_ov050_0213339cEv kind:function(arm,size=0x38) addr:0x0213339c
_ZN12ActorUnkKMOH19func_ov050_021333d4Ev kind:function(arm,size=0x88) addr:0x021333d4
_ZN12ActorUnkKMOH19func_ov050_0213345cEv kind:function(arm,size=0x84) addr:0x0213345c
_ZN12ActorUnkKMOH19func_ov050_021334e0Ev kind:function(arm,size=0x68) addr:0x021334e0
_ZN12ActorUnkKMOH19func_ov050_02133548Ev kind:function(arm,size=0x13c) addr:0x02133548
_ZN12ActorUnkKMOH19func_ov050_02133684Ev kind:function(arm,size=0x88) addr:0x02133684
_ZN12ActorUnkKMOH19func_ov050_0213370cEv kind:function(arm,size=0x90) addr:0x0213370c
_ZN12ActorUnkKMOH19func_ov050_0213379cEv kind:function(arm,size=0x88) addr:0x0213379c
_ZN12ActorUnkKMOH19func_ov050_02133824Ev kind:function(arm,size=0x144) addr:0x02133824
_ZN12ActorUnkKMOH19func_ov050_02133968Ev kind:function(arm,size=0x68) addr:0x02133968
_ZN12ActorUnkKMOH19func_ov050_021339d0Ev kind:function(arm,size=0x34) addr:0x021339d0
_ZN12ActorUnkKMOH19func_ov050_02133a04Ev kind:function(arm,size=0xe8) addr:0x02133a04
_ZN12ActorUnkKMOH19func_ov050_02133aecEv kind:function(arm,size=0x80) addr:0x02133aec
_ZN12ActorUnkKMOH19func_ov050_02133b6cEv kind:function(arm,size=0x64) addr:0x02133b6c
_ZN12ActorUnkKMOH19func_ov050_02133bd0Ev kind:function(arm,size=0x94) addr:0x02133bd0
_ZN12ActorUnkKMOH19func_ov050_02133c64Ev kind:function(arm,size=0x94) addr:0x02133c64
_ZN12ActorUnkKMOH19func_ov050_02133cf8Ev kind:function(arm,size=0x44) addr:0x02133cf8
_ZN12ActorUnkKMOH19func_ov050_02133d3cEv kind:function(arm,size=0xa8) addr:0x02133d3c
_ZN12ActorUnkKMOH19func_ov050_02133de4Ev kind:function(arm,size=0x58) addr:0x02133de4
_ZN12ActorUnkKMOH19func_ov050_02133e3cEv kind:function(arm,size=0xac) addr:0x02133e3c
_ZN12ActorUnkKMOH19func_ov050_02133ee8Ev kind:function(arm,size=0x68) addr:0x02133ee8
_ZN12ActorUnkKMOH19func_ov050_02133f50Ev kind:function(arm,size=0x74) addr:0x02133f50
_ZN12ActorUnkKMOH19func_ov050_02133fc4Ev kind:function(arm,size=0x1cc) addr:0x02133fc4
_ZN12ActorUnkKMOH19func_ov050_02134190Ev kind:function(arm,size=0x94) addr:0x02134190
_ZN12ActorUnkKMOH19func_ov050_02134224Ev kind:function(arm,size=0x2b0) addr:0x02134224
_ZN12ActorUnkKMOH19func_ov050_021344d4Ev kind:function(arm,size=0x6c) addr:0x021344d4
_ZN12ActorUnkKMOH19func_ov050_02134540Ev kind:function(arm,size=0x6c) addr:0x02134540
_ZN12ActorUnkKMOH19func_ov050_021345acEv kind:function(arm,size=0x30) addr:0x021345ac
_ZN12ActorUnkKMOH19func_ov050_021345dcEv kind:function(arm,size=0x174) addr:0x021345dc
_ZN12ActorUnkKMOH19func_ov050_02134750Ev kind:function(arm,size=0x78) addr:0x02134750
_ZN12ActorUnkKMOH19func_ov050_021347c8Ev kind:function(arm,size=0x84) addr:0x021347c8
_ZN12ActorUnkKMOH19func_ov050_0213484cEv kind:function(arm,size=0xf4) addr:0x0213484c
_ZN12ActorUnkKMOH19func_ov050_02134940Ev kind:function(arm,size=0x48) addr:0x02134940
_ZN12ActorUnkKMOH19func_ov050_02134988Ev kind:function(arm,size=0x28) addr:0x02134988
_ZN12ActorUnkKMOH19func_ov050_021349b0Ev kind:function(arm,size=0x10) addr:0x021349b0
_ZN12ActorUnkKMOH19func_ov050_021349c0Ev kind:function(arm,size=0xc4) addr:0x021349c0
_ZN12ActorUnkKMOH19func_ov050_02134a84Ev kind:function(arm,size=0x38) addr:0x02134a84
_ZN12ActorUnkKMOH19func_ov050_02134abcEv kind:function(arm,size=0x174) addr:0x02134abc
_ZN12ActorUnkKMOH19func_ov050_02134c30Ev kind:function(arm,size=0x238) addr:0x02134c30
_ZN12ActorUnkKMOH19func_ov050_02134e68Ev kind:function(arm,size=0x64) addr:0x02134e68
_ZN12ActorUnkKMOH19func_ov050_02134eccEv kind:function(arm,size=0x1a4) addr:0x02134ecc
_ZN12ActorUnkKMOH19func_ov050_02135070Ev kind:function(arm,size=0xd8) addr:0x02135070
_ZN12ActorUnkKMOH19func_ov050_02135148Ev kind:function(arm,size=0x4c) addr:0x02135148
_ZN12ActorUnkKMOH19func_ov050_02135194Ev kind:function(arm,size=0x24) addr:0x02135194
_ZN12ActorUnkKMOH19func_ov050_021351b8Ev kind:function(arm,size=0x2c) addr:0x021351b8
_ZN12ActorUnkKMOHD0Ev kind:function(arm,size=0x1c) addr:0x021351e4
_ZN12ActorUnkKMOH19func_ov050_02135200Ev kind:function(arm,size=0x7c) addr:0x02135200
_ZN12ActorUnkKMOH19func_ov050_0213527cEv kind:function(arm,size=0x84) addr:0x0213527c
_ZN19ActorProfileUnkKMOHD1Ev kind:function(arm,size=0x14) addr:0x02135300
_ZN19ActorProfileUnkFRTN10GetProfileEv kind:function(arm,size=0xc) addr:0x02135314
_ZN19ActorProfileUnkFRTN6CreateEv kind:function(arm,size=0x24) addr:0x02135320
_ZN19ActorProfileUnkFRTNC1Ev kind:function(arm,size=0x4c) addr:0x02135344
_ZN12ActorUnkFRTNC1Ev kind:function(arm,size=0x138) addr:0x02135390
_ZN12ActorUnkFRTN19func_ov050_021354c8Ev kind:function(arm,size=0x14) addr:0x021354c8
_ZN12ActorUnkFRTN19func_ov050_021354dcEv kind:function(arm,size=0xc0) addr:0x021354dc
_ZN12ActorUnkFRTN19func_ov050_0213559cEv kind:function(arm,size=0x1b0) addr:0x0213559c
_ZN12ActorUnkFRTN19func_ov050_0213574cEv kind:function(arm,size=0x124) addr:0x0213574c
_ZN12ActorUnkFRTN19func_ov050_02135870Ev kind:function(arm,size=0x78) addr:0x02135870
_ZN12ActorUnkFRTN19func_ov050_021358e8Ev kind:function(arm,size=0xb8) addr:0x021358e8
_ZN12ActorUnkFRTN19func_ov050_021359a0Ev kind:function(arm,size=0x1ec) addr:0x021359a0
_ZN12ActorUnkFRTN19func_ov050_02135b8cEv kind:function(arm,size=0xe4) addr:0x02135b8c
_ZN12ActorUnkFRTN19func_ov050_02135c70Ev kind:function(arm,size=0x9c) addr:0x02135c70
_ZN12ActorUnkFRTN19func_ov050_02135d0cEv kind:function(arm,size=0x1d8) addr:0x02135d0c
_ZN12ActorUnkFRTN19func_ov050_02135ee4Ev kind:function(arm,size=0x38) addr:0x02135ee4
_ZN12ActorUnkFRTN19func_ov050_02135f1cEv kind:function(arm,size=0x10) addr:0x02135f1c
_ZN12ActorUnkFRTN19func_ov050_02135f2cEv kind:function(arm,size=0x44) addr:0x02135f2c
_ZN12ActorUnkFRTN19func_ov050_02135f70Ev kind:function(arm,size=0x10) addr:0x02135f70
_ZN12ActorUnkFRTN19func_ov050_02135f80Ev kind:function(arm,size=0x10) addr:0x02135f80
_ZN12ActorUnkFRTN19func_ov050_02135f90Ev kind:function(arm,size=0x34) addr:0x02135f90
_ZN12ActorUnkFRTN19func_ov050_02135fc4Ev kind:function(arm,size=0x3c) addr:0x02135fc4
_ZN12ActorUnkFRTN19func_ov050_02136000Ev kind:function(arm,size=0x1c) addr:0x02136000
_ZN12ActorUnkFRTN19func_ov050_0213601cEv kind:function(arm,size=0x40) addr:0x0213601c
_ZN12ActorUnkFRTN19func_ov050_0213605cEv kind:function(arm,size=0x80) addr:0x0213605c
_ZN12ActorUnkFRTN19func_ov050_021360dcEv kind:function(arm,size=0x3c) addr:0x021360dc
_ZN12ActorUnkFRTN19func_ov050_02136118Ev kind:function(arm,size=0x10) addr:0x02136118
_ZN12ActorUnkFRTN19func_ov050_02136128Ev kind:function(arm,size=0x6c) addr:0x02136128
_ZN12ActorUnkFRTND0Ev kind:function(arm,size=0x1c) addr:0x02136194
_ZN12ActorUnkFRTND1Ev kind:function(arm,size=0x30) addr:0x021361b0
_ZN12ActorUnkFRTN19func_ov050_021361e0Ev kind:function(arm,size=0x38) addr:0x021361e0
_ZN19ActorProfileUnkFRTND1Ev kind:function(arm,size=0x14) addr:0x02136218
_ZN23MapObjectProfileUnkGTTN10GetProfileEv kind:function(arm,size=0xc) addr:0x0213622c
_ZN23MapObjectProfileUnkGTTN6CreateEv kind:function(arm,size=0x24) addr:0x02136238
_ZN23MapObjectProfileUnkGTTNC1Ev kind:function(arm,size=0x48) addr:0x0213625c
_ZN16MapObjectUnkGTTNC1Ev kind:function(arm,size=0x120) addr:0x021362a4
_ZN16MapObjectUnkGTTN19func_ov050_021363c4Ev kind:function(arm,size=0x14) addr:0x021363c4
_ZN16MapObjectUnkGTTN19func_ov050_021363d8Ev kind:function(arm,size=0x260) addr:0x021363d8
_ZN16MapObjectUnkGTTN19func_ov050_02136638Ev kind:function(arm,size=0x20) addr:0x02136638
_ZN16MapObjectUnkGTTN19func_ov050_02136658Ev kind:function(arm,size=0x14) addr:0x02136658
_ZN16MapObjectUnkGTTN19func_ov050_0213666cEv kind:function(arm,size=0x20) addr:0x0213666c
_ZN16MapObjectUnkGTTN19func_ov050_0213668cEv kind:function(arm,size=0x30) addr:0x0213668c
_ZN16MapObjectUnkGTTN19func_ov050_021366bcEv kind:function(arm,size=0x60) addr:0x021366bc
_ZN16MapObjectUnkGTTND0Ev kind:function(arm,size=0x1c) addr:0x0213671c
_ZN16MapObjectUnkGTTND1Ev kind:function(arm,size=0x38) addr:0x02136738
_ZN16MapObjectUnkGTTN19func_ov050_02136770Ev kind:function(arm,size=0x40) addr:0x02136770
_ZN23MapObjectProfileUnkGTTND1Ev kind:function(arm,size=0x14) addr:0x021367b0
data_ov050_021367c4 kind:data(any) addr:0x021367c4
data_ov050_021367dc kind:data(any) addr:0x021367dc
data_ov050_021367e0 kind:data(any) addr:0x021367e0
__sinit_ActorUnkKMOS.cpp kind:function(arm,size=0x5c) addr:0x021367e4
__sinit_ActorUnkKMOH.cpp kind:function(arm,size=0x68) addr:0x02136840
__sinit_ActorUnkFRTN.cpp kind:function(arm,size=0x60) addr:0x021368a8
__sinit_MapObjectUnkGTTN.cpp kind:function(arm,size=0x50) addr:0x02136908
.p__sinit_ActorUnkKMOS.cpp kind:data(word) addr:0x02136958
.p__sinit_ActorUnkKMOH.cpp kind:data(word) addr:0x0213695c
.p__sinit_ActorUnkFRTN.cpp kind:data(word) addr:0x02136960
.p__sinit_MapObjectUnkGTTN.cpp kind:data(word) addr:0x02136964
data_ov050_02136980 kind:data(any) addr:0x02136980
data_ov050_02136988 kind:data(any) addr:0x02136988
data_ov050_021369a0 kind:data(any) addr:0x021369a0
data_ov050_021369c0 kind:data(any) addr:0x021369c0
_ZTV19data_ov050_021369d4 kind:data(any) addr:0x021369d4
data_ov050_02136a00 kind:data(any) addr:0x02136a00
data_ov050_02136a48 kind:data(any) addr:0x02136a48
_ZTV19data_ov050_02136a88 kind:data(any) addr:0x02136a88
data_ov050_02136ae8 kind:data(any) addr:0x02136ae8
data_ov050_02136b58 kind:data(any) addr:0x02136b58
data_ov050_02136bc8 kind:data(any) addr:0x02136bc8
_ZTV19data_ov050_02136bd4 kind:data(any) addr:0x02136bd4
data_ov050_02136c00 kind:data(any) addr:0x02136c00
_ZTV19data_ov050_02136c44 kind:data(any) addr:0x02136c44
data_ov050_02136ca4 kind:data(any) addr:0x02136ca4
data_ov050_02136d24 kind:data(any) addr:0x02136d24
data_ov050_02136da4 kind:data(any) addr:0x02136da4
data_ov050_02136dbc kind:data(any) addr:0x02136dbc
data_ov050_02136dd4 kind:data(any) addr:0x02136dd4
data_ov050_02136dec kind:data(any) addr:0x02136dec
data_ov050_02136e04 kind:data(any) addr:0x02136e04
data_ov050_02136e1c kind:data(any) addr:0x02136e1c
data_ov050_02136e34 kind:data(any) addr:0x02136e34
data_ov050_02136e6c kind:data(any) addr:0x02136e6c
data_ov050_02136e84 kind:data(any) addr:0x02136e84
_ZTV19data_ov050_02136e98 kind:data(any) addr:0x02136e98
data_ov050_02136ec4 kind:data(any) addr:0x02136ec4
_ZTV19data_ov050_02136ee4 kind:data(any) addr:0x02136ee4
data_ov050_02136f44 kind:data(any) addr:0x02136f44
data_ov050_02136f4c kind:data(any) addr:0x02136f4c
data_ov050_02136f58 kind:data(any) addr:0x02136f58
data_ov050_02136f6c kind:data(any) addr:0x02136f6c
data_ov050_02136f88 kind:data(any) addr:0x02136f88
data_ov050_02136fb0 kind:data(any) addr:0x02136fb0
data_ov050_02136fdc kind:data(any) addr:0x02136fdc
data_ov050_02137020 kind:bss addr:0x02137020
_ZGVN15ProfileInstanceI19ActorProfileUnkKMOSE8sProfileE kind:bss addr:0x02137024
@11842 kind:bss addr:0x02137030
_ZN15ProfileInstanceI19ActorProfileUnkKMOSE8sProfileE kind:bss addr:0x0213703c
_ZGVN15ProfileInstanceI19ActorProfileUnkKMOHE8sProfileE kind:bss addr:0x02137114
@11848 kind:bss addr:0x02137118
_ZN15ProfileInstanceI19ActorProfileUnkKMOHE8sProfileE kind:bss addr:0x02137124
_ZGVN15ProfileInstanceI19ActorProfileUnkFRTNE8sProfileE kind:bss addr:0x021371fc
@11854 kind:bss addr:0x02137200
_ZN15ProfileInstanceI19ActorProfileUnkFRTNE8sProfileE kind:bss addr:0x02137218
data_ov050_021372f0 kind:bss addr:0x021372f0
data_ov050_021372f4 kind:bss addr:0x021372f4
_ZN15ProfileInstanceI23MapObjectProfileUnkGTTNE8sProfileE kind:bss addr:0x02137300
