_ZN27UnkStruct_027e09a4_54_Type5C1EP18UnkStruct_027e09a4 kind:function(arm,size=0x110) addr:0x02140ba0
func_ov070_0213f0d0 kind:function(arm,size=0x20) addr:0x02140cb0
func_ov070_0213f0f0 kind:function(arm,size=0x3cc) addr:0x02140cd0
_ZN19func_ov070_0213f314D1Ev kind:function(arm,size=0x14) addr:0x0214109c
_ZN19func_ov070_0213f328D0Ev kind:function(arm,size=0x1c) addr:0x021410b0
_ZN19ActorProfileUnkENGE10GetProfileEv kind:function(arm,size=0xc) addr:0x021410cc
_ZN19ActorProfileUnkENGE6CreateEv kind:function(arm,size=0x24) addr:0x021410d8
_ZN19ActorProfileUnkENGEC1Ev kind:function(arm,size=0x3c) addr:0x021410fc
_ZN12ActorUnkENGEC1Ev kind:function(arm,size=0x34) addr:0x02141138
_ZN12ActorUnkENGE19func_ov070_0213f3e4Ev kind:function(arm,size=0x4c) addr:0x0214116c
_ZN12ActorUnkENGE19func_ov070_0213f430Ev kind:function(arm,size=0xd8) addr:0x021411b8
_ZN12ActorUnkENGE19func_ov070_0213f508Ev kind:function(arm,size=0x40) addr:0x02141290
_ZN12ActorUnkENGE19func_ov070_0213f548Ev kind:function(arm,size=0x114) addr:0x021412d0
_ZN12ActorUnkENGE19func_ov070_0213f65cEv kind:function(arm,size=0xf4) addr:0x021413e4
_ZN12ActorUnkENGED1Ev kind:function(arm,size=0x14) addr:0x021414d8
_ZN12ActorUnkENGED0Ev kind:function(arm,size=0x1c) addr:0x021414ec
_ZN19ActorProfileUnkENGED1Ev kind:function(arm,size=0x14) addr:0x02141508
_ZN19ActorProfileUnkALEV10GetProfileEv kind:function(arm,size=0xc) addr:0x0214151c
_ZN19ActorProfileUnkALEV6CreateEv kind:function(arm,size=0x24) addr:0x02141528
_ZN19ActorProfileUnkALEVC1Ev kind:function(arm,size=0x3c) addr:0x0214154c
_ZN12ActorUnkALEVC1Ev kind:function(arm,size=0x28) addr:0x02141588
_ZN12ActorUnkALEV19func_ov070_0213f828Ev kind:function(arm,size=0x20) addr:0x021415b0
_ZN12ActorUnkALEV19func_ov070_0213f848Ev kind:function(arm,size=0x10) addr:0x021415d0
_ZN12ActorUnkALEV19func_ov070_0213f858Ev kind:function(arm,size=0x14) addr:0x021415e0
_ZN12ActorUnkALEV19func_ov070_0213f86cEv kind:function(arm,size=0x70) addr:0x021415f4
_ZN12ActorUnkALEV19func_ov070_0213f8dcEv kind:function(arm,size=0x50) addr:0x02141664
_ZN12ActorUnkALEVD1Ev kind:function(arm,size=0x20) addr:0x021416b4
_ZN12ActorUnkALEVD0Ev kind:function(arm,size=0x28) addr:0x021416d4
_ZN19ActorProfileUnkALEVD1Ev kind:function(arm,size=0x14) addr:0x021416fc
func_ov070_0213f988 kind:function(thumb,size=0x54) addr:0x02141710
func_ov070_0213f9dc kind:function(arm,size=0x14) addr:0x02141764
func_ov070_0213f9f0 kind:function(arm,size=0x40) addr:0x02141778
func_ov070_0213fa30 kind:function(arm,size=0x8) addr:0x021417b8
func_ov070_0213fa38 kind:function(arm,size=0xdc) addr:0x021417c0
func_ov070_0213fb14 kind:function(arm,size=0xb0) addr:0x0214189c
func_ov070_0213fbc4 kind:function(arm,size=0x1f0) addr:0x0214194c
func_ov070_0213fdb4 kind:function(arm,size=0x1c) addr:0x02141b3c
_ZN19func_ov070_0213fdd0D0Ev kind:function(arm,size=0x1c) addr:0x02141b58
func_ov070_0213fdec kind:function(arm,size=0x44) addr:0x02141b74
func_ov070_0213fe30 kind:function(arm,size=0x44) addr:0x02141bb8
func_ov070_0213fe74 kind:function(arm,size=0x74) addr:0x02141bfc
func_ov070_0213fee8 kind:function(arm,size=0xbc) addr:0x02141c70
func_ov070_0213ffa4 kind:function(arm,size=0xc) addr:0x02141d2c
func_ov070_0213ffb0 kind:function(arm,size=0x10) addr:0x02141d38
func_ov070_0213ffc0 kind:function(arm,size=0x20) addr:0x02141d48
func_ov070_0213ffe0 kind:function(arm,size=0x2c) addr:0x02141d68
func_ov070_0214000c kind:function(arm,size=0x4) addr:0x02141d94
_ZN19func_ov070_02140010D1Ev kind:function(arm,size=0x20) addr:0x02141d98
_ZN19func_ov070_02140030D0Ev kind:function(arm,size=0x28) addr:0x02141db8
_ZN19ActorProfileUnkBROW10GetProfileEv kind:function(arm,size=0xc) addr:0x02141de0
_ZN19ActorProfileUnkBROW6CreateEv kind:function(arm,size=0x24) addr:0x02141dec
_ZN19ActorProfileUnkBROWC1Ev kind:function(arm,size=0x60) addr:0x02141e10
_ZN12ActorUnkBROW19func_ov070_021400e8Ev kind:function(arm,size=0x20) addr:0x02141e70
_ZN12ActorUnkBROWD1Ev kind:function(arm,size=0x14) addr:0x02141e90
_ZN12ActorUnkBROWD0Ev kind:function(arm,size=0x1c) addr:0x02141ea4
_ZN12ActorUnkBROW19func_ov070_02140138Ev kind:function(arm,size=0x48) addr:0x02141ec0
_ZN12ActorUnkBROWC1Ev kind:function(arm,size=0xb8) addr:0x02141f08
_ZN12ActorUnkBROW19func_ov070_02140238Ev kind:function(arm,size=0xd4) addr:0x02141fc0
_ZN12ActorUnkBROW19func_ov070_0214030cEv kind:function(arm,size=0xf4) addr:0x02142094
_ZN12ActorUnkBROW19func_ov070_02140400Ev kind:function(arm,size=0x70) addr:0x02142188
_ZN12ActorUnkBROW19func_ov070_02140470Ev kind:function(arm,size=0x24c) addr:0x021421f8
_ZN12ActorUnkBROW19func_ov070_021406bcEv kind:function(arm,size=0xe8) addr:0x02142444
_ZN12ActorUnkBROW19func_ov070_021407a4Ev kind:function(arm,size=0xa0) addr:0x0214252c
_ZN12ActorUnkBROW19func_ov070_02140844Ev kind:function(arm,size=0x14) addr:0x021425cc
_ZN12ActorUnkBROW19func_ov070_02140858Ev kind:function(arm,size=0x3c) addr:0x021425e0
_ZN12ActorUnkBROW19func_ov070_02140894Ev kind:function(arm,size=0x20) addr:0x0214261c
_ZN12ActorUnkBROW19func_ov070_021408b4Ev kind:function(arm,size=0x1c) addr:0x0214263c
_ZN12ActorUnkBROW19func_ov070_021408d0Ev kind:function(arm,size=0x74) addr:0x02142658
_ZN12ActorUnkBROW19func_ov070_02140944Ev kind:function(arm,size=0x50) addr:0x021426cc
_ZN12ActorUnkBROW19func_ov070_02140994Ev kind:function(arm,size=0x28) addr:0x0214271c
_ZN12ActorUnkBROW19func_ov070_021409bcEv kind:function(arm,size=0x30) addr:0x02142744
_ZN19ActorProfileUnkBROWD1Ev kind:function(arm,size=0x14) addr:0x02142774
func_ov070_02140a00 kind:function(thumb,size=0x1c) addr:0x02142788
func_ov070_02140a1c kind:function(thumb,size=0xc) addr:0x021427a4
func_ov070_02140a28 kind:function(thumb,size=0x12) addr:0x021427b0
func_ov070_02140a3c kind:function(arm,size=0x8) addr:0x021427c4
func_ov070_02140a44 kind:function(arm,size=0x18) addr:0x021427cc
func_ov070_02140a5c kind:function(thumb,size=0x20) addr:0x021427e4
func_ov070_02140a7c kind:function(thumb,size=0x5c) addr:0x02142804
_ZN19func_ov070_02140ad8D0Ev kind:function(thumb,size=0x60) addr:0x02142860
func_ov070_02140b38 kind:function(arm,size=0xc0) addr:0x021428c0
func_ov070_02140bf8 kind:function(arm,size=0x5c) addr:0x02142980
func_ov070_02140c54 kind:function(arm,size=0xbc) addr:0x021429dc
func_ov070_02140d10 kind:function(arm,size=0x3c) addr:0x02142a98
func_ov070_02140d4c kind:function(arm,size=0x10c) addr:0x02142ad4
func_ov070_02140e58 kind:function(arm,size=0x18) addr:0x02142be0
func_ov070_02140e70 kind:function(arm,size=0x18) addr:0x02142bf8
func_ov070_02140e88 kind:function(arm,size=0x2c) addr:0x02142c10
func_ov070_02140eb4 kind:function(arm,size=0x2c) addr:0x02142c3c
func_ov070_02140ee0 kind:function(arm,size=0x2c) addr:0x02142c68
func_ov070_02140f0c kind:function(thumb,size=0x26) addr:0x02142c94
func_ov070_02140f34 kind:function(thumb,size=0xc) addr:0x02142cbc
func_ov070_02140f40 kind:function(arm,size=0xc) addr:0x02142cc8
func_ov070_02140f4c kind:function(arm,size=0x10) addr:0x02142cd4
func_ov070_02140f5c kind:function(arm,size=0xf8) addr:0x02142ce4
func_ov070_02141054 kind:function(arm,size=0x210) addr:0x02142ddc
func_ov070_02141264 kind:function(arm,size=0x150) addr:0x02142fec
_ZN19ActorProfileUnkKEYN10GetProfileEv kind:function(arm,size=0xc) addr:0x0214313c
_ZN19ActorProfileUnkKEYN6CreateEv kind:function(arm,size=0x24) addr:0x02143148
_ZN19ActorProfileUnkKEYNC1Ev kind:function(arm,size=0x58) addr:0x0214316c
_ZN12ActorUnkKEYN19func_ov070_0214143cEv kind:function(arm,size=0xac) addr:0x021431c4
_ZN12ActorUnkKEYNC1Ev kind:function(arm,size=0x130) addr:0x02143270
_ZN12ActorUnkKEYN19func_ov070_02141618Ev kind:function(arm,size=0x14) addr:0x021433a0
_ZN12ActorUnkKEYN19func_ov070_0214162cEv kind:function(arm,size=0x124) addr:0x021433b4
_ZN12ActorUnkKEYN19func_ov070_02141750Ev kind:function(arm,size=0xc) addr:0x021434d8
_ZN12ActorUnkKEYN19func_ov070_0214175cEv kind:function(arm,size=0xbc) addr:0x021434e4
_ZN12ActorUnkKEYN19func_ov070_02141818Ev kind:function(arm,size=0xa4) addr:0x021435a0
_ZN12ActorUnkKEYN19func_ov070_021418bcEv kind:function(arm,size=0x24) addr:0x02143644
_ZN12ActorUnkKEYN19func_ov070_021418e0Ev kind:function(arm,size=0x24) addr:0x02143668
_ZN12ActorUnkKEYN19func_ov070_02141904Ev kind:function(arm,size=0x18) addr:0x0214368c
_ZN12ActorUnkKEYN19func_ov070_0214191cEv kind:function(arm,size=0x34) addr:0x021436a4
_ZN12ActorUnkKEYN19func_ov070_02141950Ev kind:function(arm,size=0x380) addr:0x021436d8
_ZN12ActorUnkKEYN19func_ov070_02141cd0Ev kind:function(arm,size=0xc) addr:0x02143a58
_ZN12ActorUnkKEYN19func_ov070_02141cdcEv kind:function(arm,size=0x50) addr:0x02143a64
_ZN12ActorUnkKEYN19func_ov070_02141d2cEv kind:function(arm,size=0x60) addr:0x02143ab4
_ZN12ActorUnkKEYN19func_ov070_02141d8cEv kind:function(arm,size=0xa0) addr:0x02143b14
_ZN12ActorUnkKEYN19func_ov070_02141e2cEv kind:function(arm,size=0x54) addr:0x02143bb4
_ZN12ActorUnkKEYN19func_ov070_02141e80Ev kind:function(arm,size=0x80) addr:0x02143c08
_ZN12ActorUnkKEYN19func_ov070_02141f00Ev kind:function(arm,size=0x3c) addr:0x02143c88
_ZN12ActorUnkKEYN19func_ov070_02141f3cEv kind:function(arm,size=0x40) addr:0x02143cc4
_ZN12ActorUnkKEYN19func_ov070_02141f7cEv kind:function(arm,size=0x40) addr:0x02143d04
_ZN12ActorUnkKEYN19func_ov070_02141fbcEv kind:function(arm,size=0x58) addr:0x02143d44
_ZN12ActorUnkKEYN19func_ov070_02142014Ev kind:function(arm,size=0x90) addr:0x02143d9c
_ZN12ActorUnkKEYN19func_ov070_021420a4Ev kind:function(arm,size=0x34) addr:0x02143e2c
_ZN12ActorUnkKEYN19func_ov070_021420d8Ev kind:function(arm,size=0x68) addr:0x02143e60
_ZN12ActorUnkKEYN19func_ov070_02142140Ev kind:function(arm,size=0x7c) addr:0x02143ec8
_ZN12ActorUnkKEYN19func_ov070_021421bcEv kind:function(arm,size=0x2c) addr:0x02143f44
_ZN12ActorUnkKEYN19func_ov070_021421e8Ev kind:function(arm,size=0x4) addr:0x02143f70
_ZN12ActorUnkKEYN19func_ov070_021421ecEv kind:function(arm,size=0x44) addr:0x02143f74
_ZN12ActorUnkKEYN19func_ov070_02142230Ev kind:function(arm,size=0x144) addr:0x02143fb8
_ZN12ActorUnkKEYN19func_ov070_02142374Ev kind:function(arm,size=0x280) addr:0x021440fc
_ZN12ActorUnkKEYN19func_ov070_021425f4Ev kind:function(arm,size=0x38) addr:0x0214437c
_ZN12ActorUnkKEYN19func_ov070_0214262cEv kind:function(arm,size=0x40) addr:0x021443b4
_ZN12ActorUnkKEYN19func_ov070_0214266cEv kind:function(arm,size=0x1c) addr:0x021443f4
_ZN12ActorUnkKEYN19func_ov070_02142688Ev kind:function(arm,size=0x24) addr:0x02144410
_ZN12ActorUnkKEYN19func_ov070_021426acEv kind:function(arm,size=0x1c) addr:0x02144434
_ZN12ActorUnkKEYND1Ev kind:function(arm,size=0x28) addr:0x02144450
_ZN12ActorUnkKEYND0Ev kind:function(arm,size=0x30) addr:0x02144478
_ZN19ActorProfileUnkKEYND1Ev kind:function(arm,size=0x14) addr:0x021444a8
_ZN19ActorProfileUnkLIRA10GetProfileEv kind:function(arm,size=0xc) addr:0x021444bc
_ZN19ActorProfileUnkLIRA6CreateEv kind:function(arm,size=0x24) addr:0x021444c8
_ZN19ActorProfileUnkLIRAC1Ev kind:function(arm,size=0x108) addr:0x021444ec
_ZN12ActorUnkLIRA19func_ov070_0214286cEv kind:function(arm,size=0x18) addr:0x021445f4
_ZN12ActorUnkLIRAD1Ev kind:function(arm,size=0x14) addr:0x0214460c
_ZN12ActorUnkLIRAD0Ev kind:function(arm,size=0x1c) addr:0x02144620
_ZN12ActorUnkLIRA19func_ov070_021428b4Ev kind:function(arm,size=0x138) addr:0x0214463c
_ZN12ActorUnkLIRAC1Ev kind:function(arm,size=0x15c) addr:0x02144774
_ZN12ActorUnkLIRA19func_ov070_02142b48Ev kind:function(arm,size=0x30) addr:0x021448d0
_ZN12ActorUnkLIRA19func_ov070_02142b78Ev kind:function(arm,size=0x38) addr:0x02144900
_ZN12ActorUnkLIRA19func_ov070_02142bb0Ev kind:function(arm,size=0x78) addr:0x02144938
_ZN12ActorUnkLIRA19func_ov070_02142c28Ev kind:function(arm,size=0x78) addr:0x021449b0
_ZN12ActorUnkLIRA19func_ov070_02142ca0Ev kind:function(arm,size=0xb0) addr:0x02144a28
_ZN12ActorUnkLIRA19func_ov070_02142d50Ev kind:function(arm,size=0xb4) addr:0x02144ad8
_ZN12ActorUnkLIRA19func_ov070_02142e04Ev kind:function(arm,size=0xd8) addr:0x02144b8c
_ZN12ActorUnkLIRA19func_ov070_02142edcEv kind:function(arm,size=0x40) addr:0x02144c64
_ZN12ActorUnkLIRA19func_ov070_02142f1cEv kind:function(arm,size=0x3c) addr:0x02144ca4
_ZN12ActorUnkLIRA19func_ov070_02142f58Ev kind:function(arm,size=0x3c) addr:0x02144ce0
_ZN12ActorUnkLIRA19func_ov070_02142f94Ev kind:function(arm,size=0x4) addr:0x02144d1c
_ZN12ActorUnkLIRA19func_ov070_02142f98Ev kind:function(arm,size=0xcc) addr:0x02144d20
_ZN12ActorUnkLIRA19func_ov070_02143064Ev kind:function(arm,size=0x10) addr:0x02144dec
_ZN12ActorUnkLIRA19func_ov070_02143074Ev kind:function(arm,size=0x4) addr:0x02144dfc
_ZN12ActorUnkLIRA19func_ov070_02143078Ev kind:function(arm,size=0x5c) addr:0x02144e00
_ZN12ActorUnkLIRA19func_ov070_021430d4Ev kind:function(arm,size=0x24) addr:0x02144e5c
_ZN12ActorUnkLIRA19func_ov070_021430f8Ev kind:function(arm,size=0xa0) addr:0x02144e80
_ZN12ActorUnkLIRA19func_ov070_02143198Ev kind:function(arm,size=0x30) addr:0x02144f20
_ZN12ActorUnkLIRA19func_ov070_021431c8Ev kind:function(arm,size=0x58) addr:0x02144f50
_ZN12ActorUnkLIRA19func_ov070_02143220Ev kind:function(arm,size=0x24) addr:0x02144fa8
_ZN12ActorUnkLIRA19func_ov070_02143244Ev kind:function(arm,size=0x48) addr:0x02144fcc
_ZN12ActorUnkLIRA19func_ov070_0214328cEv kind:function(arm,size=0x28) addr:0x02145014
_ZN12ActorUnkLIRA19func_ov070_021432b4Ev kind:function(arm,size=0x54) addr:0x0214503c
_ZN12ActorUnkLIRA19func_ov070_02143308Ev kind:function(arm,size=0x48) addr:0x02145090
_ZN12ActorUnkLIRA19func_ov070_02143350Ev kind:function(arm,size=0x80) addr:0x021450d8
_ZN12ActorUnkLIRA19func_ov070_021433d0Ev kind:function(arm,size=0x44) addr:0x02145158
_ZN12ActorUnkLIRA19func_ov070_02143414Ev kind:function(arm,size=0x19c) addr:0x0214519c
_ZN19ActorProfileUnkLIRAD1Ev kind:function(arm,size=0x20) addr:0x02145338
_ZN19ActorProfileUnkBMHN10GetProfileEv kind:function(arm,size=0xc) addr:0x02145358
_ZN19ActorProfileUnkBMHN6CreateEv kind:function(arm,size=0x24) addr:0x02145364
_ZN19ActorProfileUnkBMHNC1Ev kind:function(arm,size=0x28) addr:0x02145388
_ZN12ActorUnkBMHNC1Ev kind:function(arm,size=0x4c) addr:0x021453b0
_ZN12ActorUnkBMHND1Ev kind:function(arm,size=0x14) addr:0x021453fc
_ZN12ActorUnkBMHND0Ev kind:function(arm,size=0x1c) addr:0x02145410
_ZN19ActorProfileUnkBMHND1Ev kind:function(arm,size=0x14) addr:0x0214542c
func_ov070_021436b8 kind:function(arm,size=0x20) addr:0x02145440
func_ov070_021436d8 kind:function(arm,size=0x4) addr:0x02145460
func_ov070_021436dc kind:function(arm,size=0x80) addr:0x02145464
func_ov070_0214375c kind:function(arm,size=0x74) addr:0x021454e4
func_ov070_021437d0 kind:function(arm,size=0x118) addr:0x02145558
func_ov070_021438e8 kind:function(arm,size=0x38) addr:0x02145670
func_ov070_02143920 kind:function(arm,size=0x38) addr:0x021456a8
func_ov070_02143958 kind:function(arm,size=0x70) addr:0x021456e0
_ZN19ActorProfileUnkSWDS10GetProfileEv kind:function(arm,size=0xc) addr:0x02145750
_ZN19ActorProfileUnkSWDS6CreateEv kind:function(arm,size=0x24) addr:0x0214575c
_ZN19ActorProfileUnkSWDSC1Ev kind:function(arm,size=0x28) addr:0x02145780
_ZN12ActorUnkSWDSC1Ev kind:function(arm,size=0x30) addr:0x021457a8
_ZN12ActorUnkSWDS19func_ov070_02143a50Ev kind:function(arm,size=0x8c) addr:0x021457d8
_ZN12ActorUnkSWDS19func_ov070_02143adcEv kind:function(arm,size=0xf8) addr:0x02145864
_ZN12ActorUnkSWDS19func_ov070_02143bd4Ev kind:function(arm,size=0x14) addr:0x0214595c
_ZN12ActorUnkSWDS19func_ov070_02143be8Ev kind:function(arm,size=0x60) addr:0x02145970
_ZN12ActorUnkSWDSD1Ev kind:function(arm,size=0x14) addr:0x021459d0
_ZN12ActorUnkSWDSD0Ev kind:function(arm,size=0x1c) addr:0x021459e4
_ZN19ActorProfileUnkSWDSD1Ev kind:function(arm,size=0x14) addr:0x02145a00
_ZN19ActorProfileUnkRCSG10GetProfileEv kind:function(arm,size=0xc) addr:0x02145a14
_ZN19ActorProfileUnkRCSG6CreateEv kind:function(arm,size=0x24) addr:0x02145a20
_ZN19ActorProfileUnkRCSGC1Ev kind:function(arm,size=0x28) addr:0x02145a44
_ZN12ActorUnkRCSGC1Ev kind:function(arm,size=0x4c) addr:0x02145a6c
_ZN12ActorUnkRCSG19func_ov070_02143d30Ev kind:function(arm,size=0xb0) addr:0x02145ab8
_ZN12ActorUnkRCSG19func_ov070_02143de0Ev kind:function(arm,size=0x74) addr:0x02145b68
_ZN12ActorUnkRCSG19func_ov070_02143e54Ev kind:function(arm,size=0x14) addr:0x02145bdc
_ZN12ActorUnkRCSG19func_ov070_02143e68Ev kind:function(arm,size=0x44) addr:0x02145bf0
_ZN12ActorUnkRCSG19func_ov070_02143eacEv kind:function(arm,size=0x80) addr:0x02145c34
_ZN12ActorUnkRCSG19func_ov070_02143f2cEv kind:function(arm,size=0x8) addr:0x02145cb4
_ZN12ActorUnkRCSG19func_ov070_02143f34Ev kind:function(arm,size=0x4) addr:0x02145cbc
_ZN12ActorUnkRCSG19func_ov070_02143f38Ev kind:function(arm,size=0x44) addr:0x02145cc0
_ZN12ActorUnkRCSG19func_ov070_02143f7cEv kind:function(arm,size=0x4) addr:0x02145d04
_ZN12ActorUnkRCSGD1Ev kind:function(arm,size=0x14) addr:0x02145d08
_ZN12ActorUnkRCSGD0Ev kind:function(arm,size=0x1c) addr:0x02145d1c
_ZN19ActorProfileUnkRCSGD1Ev kind:function(arm,size=0x14) addr:0x02145d38
func_ov070_02143fc4 kind:function(arm,size=0x10) addr:0x02145d4c
func_ov070_02143fd4 kind:function(arm,size=0x10) addr:0x02145d5c
func_ov070_02143fe4 kind:function(arm,size=0x10) addr:0x02145d6c
_ZN23MapObjectProfileUnkBLCK10GetProfileEv kind:function(arm,size=0xc) addr:0x02145d7c
_ZN23MapObjectProfileUnkBLCK6CreateEv kind:function(arm,size=0x24) addr:0x02145d88
_ZN23MapObjectProfileUnkBLCKC1Ev kind:function(arm,size=0x4c) addr:0x02145dac
_ZN16MapObjectUnkBLCKC1Ev kind:function(arm,size=0x3c) addr:0x02145df8
_ZN16MapObjectUnkBLCK19func_ov070_021440acEv kind:function(arm,size=0xc8) addr:0x02145e34
_ZN16MapObjectUnkBLCK19func_ov070_02144174Ev kind:function(arm,size=0x20) addr:0x02145efc
_ZN16MapObjectUnkBLCKD1Ev kind:function(arm,size=0x20) addr:0x02145f1c
_ZN16MapObjectUnkBLCKD0Ev kind:function(arm,size=0x28) addr:0x02145f3c
_ZN23MapObjectProfileUnkBLCKD1Ev kind:function(arm,size=0x14) addr:0x02145f64
_ZN19func_ov070_021441f0D0Ev kind:function(arm,size=0x1c) addr:0x02145f78
_ZN23MapObjectProfileUnkFLSP10GetProfileEv kind:function(arm,size=0xc) addr:0x02145f94
_ZN23MapObjectProfileUnkFLSP6CreateEv kind:function(arm,size=0x24) addr:0x02145fa0
_ZN23MapObjectProfileUnkFLSPC1Ev kind:function(arm,size=0xb8) addr:0x02145fc4
_ZN16MapObjectUnkFLSP19func_ov070_021442f4Ev kind:function(arm,size=0x48) addr:0x0214607c
_ZN16MapObjectUnkFLSP19func_ov070_0214433cEv kind:function(arm,size=0x64) addr:0x021460c4
_ZN16MapObjectUnkFLSP19func_ov070_021443a0Ev kind:function(arm,size=0x60) addr:0x02146128
_ZN16MapObjectUnkFLSP19func_ov070_02144400Ev kind:function(arm,size=0x68) addr:0x02146188
_ZN16MapObjectUnkFLSP19func_ov070_02144468Ev kind:function(arm,size=0x14) addr:0x021461f0
_ZN16MapObjectUnkFLSPC1Ev kind:function(arm,size=0x68) addr:0x02146204
_ZN16MapObjectUnkFLSP19func_ov070_021444e4Ev kind:function(arm,size=0x28c) addr:0x0214626c
_ZN16MapObjectUnkFLSP19func_ov070_02144770Ev kind:function(arm,size=0x10) addr:0x021464f8
_ZN16MapObjectUnkFLSP19func_ov070_02144780Ev kind:function(arm,size=0x60) addr:0x02146508
_ZN16MapObjectUnkFLSP19func_ov070_021447e0Ev kind:function(arm,size=0x2ac) addr:0x02146568
_ZN16MapObjectUnkFLSP19func_ov070_02144a8cEv kind:function(arm,size=0x348) addr:0x02146814
_ZN16MapObjectUnkFLSP19func_ov070_02144dd4Ev kind:function(arm,size=0x20) addr:0x02146b5c
_ZN16MapObjectUnkFLSP19func_ov070_02144df4Ev kind:function(arm,size=0x14) addr:0x02146b7c
_ZN16MapObjectUnkFLSP19func_ov070_02144e08Ev kind:function(arm,size=0x88) addr:0x02146b90
_ZN16MapObjectUnkFLSP19func_ov070_02144e90Ev kind:function(arm,size=0x30) addr:0x02146c18
_ZN16MapObjectUnkFLSP19func_ov070_02144ec0Ev kind:function(arm,size=0x50) addr:0x02146c48
_ZN16MapObjectUnkFLSP19func_ov070_02144f10Ev kind:function(arm,size=0xc) addr:0x02146c98
_ZN16MapObjectUnkFLSP19func_ov070_02144f1cEv kind:function(arm,size=0x160) addr:0x02146ca4
_ZN16MapObjectUnkFLSPD0Ev kind:function(arm,size=0x1c) addr:0x02146e04
_ZN16MapObjectUnkFLSPD1Ev kind:function(arm,size=0x20) addr:0x02146e20
_ZN16MapObjectUnkFLSP19func_ov070_021450b8Ev kind:function(arm,size=0x28) addr:0x02146e40
_ZN23MapObjectProfileUnkFLSPD1Ev kind:function(arm,size=0x14) addr:0x02146e68
_ZN23MapObjectProfileUnkFSPS10GetProfileEv kind:function(arm,size=0xc) addr:0x02146e7c
_ZN23MapObjectProfileUnkFSPS6CreateEv kind:function(arm,size=0x24) addr:0x02146e88
_ZN23MapObjectProfileUnkFSPSC1Ev kind:function(arm,size=0xbc) addr:0x02146eac
_ZN16MapObjectUnkFSPSC1Ev kind:function(arm,size=0x20) addr:0x02146f68
_ZN16MapObjectUnkFSPS19func_ov070_02145200Ev kind:function(arm,size=0xc) addr:0x02146f88
_ZN16MapObjectUnkFSPS19func_ov070_0214520cEv kind:function(arm,size=0x50) addr:0x02146f94
_ZN16MapObjectUnkFSPS19func_ov070_0214525cEv kind:function(arm,size=0xc) addr:0x02146fe4
_ZN16MapObjectUnkFSPSD1Ev kind:function(arm,size=0x20) addr:0x02146ff0
_ZN16MapObjectUnkFSPSD0Ev kind:function(arm,size=0x28) addr:0x02147010
_ZN23MapObjectProfileUnkFSPSD1Ev kind:function(arm,size=0x14) addr:0x02147038
func_ov070_021452c4 kind:function(arm,size=0x34) addr:0x0214704c
func_ov070_021452f8 kind:function(arm,size=0x1c) addr:0x02147080
func_ov070_02145314 kind:function(arm,size=0x3c) addr:0x0214709c
func_ov070_02145350 kind:function(arm,size=0x48) addr:0x021470d8
_ZN23MapObjectProfileUnkBLRB10GetProfileEv kind:function(arm,size=0xc) addr:0x02147120
_ZN23MapObjectProfileUnkBLRB6CreateEv kind:function(arm,size=0x24) addr:0x0214712c
_ZN23MapObjectProfileUnkBLRBC1Ev kind:function(arm,size=0xb0) addr:0x02147150
_ZN16MapObjectUnkBLRBC1Ev kind:function(arm,size=0x40) addr:0x02147200
_ZN16MapObjectUnkBLRB19func_ov070_021454b8Ev kind:function(arm,size=0x14) addr:0x02147240
_ZN16MapObjectUnkBLRB19func_ov070_021454ccEv kind:function(arm,size=0x174) addr:0x02147254
_ZN16MapObjectUnkBLRB19func_ov070_02145640Ev kind:function(arm,size=0xe0) addr:0x021473c8
_ZN16MapObjectUnkBLRB19func_ov070_02145720Ev kind:function(arm,size=0xc4) addr:0x021474a8
_ZN16MapObjectUnkBLRB19func_ov070_021457e4Ev kind:function(arm,size=0x20) addr:0x0214756c
_ZN16MapObjectUnkBLRB19func_ov070_02145804Ev kind:function(arm,size=0xf8) addr:0x0214758c
_ZN16MapObjectUnkBLRB19func_ov070_021458fcEv kind:function(arm,size=0x29c) addr:0x02147684
_ZN16MapObjectUnkBLRBD0Ev kind:function(arm,size=0x1c) addr:0x02147920
_ZN16MapObjectUnkBLRBD1Ev kind:function(arm,size=0x20) addr:0x0214793c
_ZN16MapObjectUnkBLRB19func_ov070_02145bd4Ev kind:function(arm,size=0x28) addr:0x0214795c
_ZN16MapObjectUnkBLRB19func_ov070_02145bfcEv kind:function(arm,size=0x10) addr:0x02147984
_ZN23MapObjectProfileUnkBLRBD1Ev kind:function(arm,size=0x14) addr:0x02147994
_ZN23MapObjectProfileUnkSWRB10GetProfileEv kind:function(arm,size=0xc) addr:0x021479a8
_ZN23MapObjectProfileUnkSWRB6CreateEv kind:function(arm,size=0x24) addr:0x021479b4
_ZN23MapObjectProfileUnkSWRBC1Ev kind:function(arm,size=0xa8) addr:0x021479d8
_ZN16MapObjectUnkSWRBC1Ev kind:function(arm,size=0x108) addr:0x02147a80
_ZN16MapObjectUnkSWRBD1Ev kind:function(arm,size=0x48) addr:0x02147b88
_ZN16MapObjectUnkSWRBD0Ev kind:function(arm,size=0x50) addr:0x02147bd0
_ZN16MapObjectUnkSWRB19func_ov070_02145e98Ev kind:function(arm,size=0x78) addr:0x02147c20
_ZN16MapObjectUnkSWRB19func_ov070_02145f10Ev kind:function(arm,size=0xc0) addr:0x02147c98
_ZN16MapObjectUnkSWRB19func_ov070_02145fd0Ev kind:function(arm,size=0x20) addr:0x02147d58
_ZN16MapObjectUnkSWRB19func_ov070_02145ff0Ev kind:function(arm,size=0x64) addr:0x02147d78
_ZN16MapObjectUnkSWRB19func_ov070_02146054Ev kind:function(arm,size=0x4c) addr:0x02147ddc
_ZN16MapObjectUnkSWRB19func_ov070_021460a0Ev kind:function(arm,size=0xa8) addr:0x02147e28
_ZN23MapObjectProfileUnkSWRBD1Ev kind:function(arm,size=0x14) addr:0x02147ed0
_ZN23MapObjectProfileUnkARWL10GetProfileEv kind:function(arm,size=0xc) addr:0x02147ee4
_ZN23MapObjectProfileUnkARWL6CreateEv kind:function(arm,size=0x24) addr:0x02147ef0
_ZN23MapObjectProfileUnkARWLC1Ev kind:function(arm,size=0xa4) addr:0x02147f14
_ZN16MapObjectUnkARWL19func_ov070_02146230Ev kind:function(arm,size=0x28) addr:0x02147fb8
_ZN16MapObjectUnkARWL19func_ov070_02146258Ev kind:function(arm,size=0x38) addr:0x02147fe0
_ZN16MapObjectUnkARWLC1Ev kind:function(arm,size=0x120) addr:0x02148018
_ZN16MapObjectUnkARWL19func_ov070_021463b0Ev kind:function(arm,size=0x14) addr:0x02148138
_ZN16MapObjectUnkARWL19func_ov070_021463c4Ev kind:function(arm,size=0x1e4) addr:0x0214814c
_ZN16MapObjectUnkARWL19func_ov070_021465a8Ev kind:function(arm,size=0x1cc) addr:0x02148330
_ZN16MapObjectUnkARWL19func_ov070_02146774Ev kind:function(arm,size=0x148) addr:0x021484fc
_ZN16MapObjectUnkARWL19func_ov070_021468bcEv kind:function(arm,size=0xdc) addr:0x02148644
_ZN16MapObjectUnkARWL19func_ov070_02146998Ev kind:function(arm,size=0x4c) addr:0x02148720
_ZN16MapObjectUnkARWL19func_ov070_021469e4Ev kind:function(arm,size=0x20) addr:0x0214876c
_ZN16MapObjectUnkARWLD0Ev kind:function(arm,size=0x1c) addr:0x0214878c
_ZN16MapObjectUnkARWLD1Ev kind:function(arm,size=0x30) addr:0x021487a8
_ZN16MapObjectUnkARWL19func_ov070_02146a50Ev kind:function(arm,size=0x38) addr:0x021487d8
_ZN23MapObjectProfileUnkARWLD1Ev kind:function(arm,size=0x14) addr:0x02148810
_ZN23MapObjectProfileUnkSWWN10GetProfileEv kind:function(arm,size=0xc) addr:0x02148824
_ZN23MapObjectProfileUnkSWWN6CreateEv kind:function(arm,size=0x24) addr:0x02148830
_ZN23MapObjectProfileUnkSWWNC1Ev kind:function(arm,size=0xb8) addr:0x02148854
_ZN16MapObjectUnkSWWN19func_ov070_02146b84Ev kind:function(arm,size=0x34) addr:0x0214890c
_ZN16MapObjectUnkSWWN19func_ov070_02146bb8Ev kind:function(arm,size=0x9c) addr:0x02148940
_ZN16MapObjectUnkSWWN19func_ov070_02146c54Ev kind:function(arm,size=0x20) addr:0x021489dc
_ZN16MapObjectUnkSWWN19func_ov070_02146c74Ev kind:function(arm,size=0x14) addr:0x021489fc
_ZN16MapObjectUnkSWWNC1Ev kind:function(arm,size=0xd0) addr:0x02148a10
_ZN16MapObjectUnkSWWN19func_ov070_02146d58Ev kind:function(arm,size=0x84) addr:0x02148ae0
_ZN16MapObjectUnkSWWN19func_ov070_02146ddcEv kind:function(arm,size=0x154) addr:0x02148b64
_ZN16MapObjectUnkSWWN19func_ov070_02146f30Ev kind:function(arm,size=0x14) addr:0x02148cb8
_ZN16MapObjectUnkSWWN19func_ov070_02146f44Ev kind:function(arm,size=0x218) addr:0x02148ccc
_ZN16MapObjectUnkSWWN19func_ov070_0214715cEv kind:function(arm,size=0x64) addr:0x02148ee4
_ZN16MapObjectUnkSWWN19func_ov070_021471c0Ev kind:function(arm,size=0x19c) addr:0x02148f48
_ZN16MapObjectUnkSWWND0Ev kind:function(arm,size=0x1c) addr:0x021490e4
_ZN16MapObjectUnkSWWND1Ev kind:function(arm,size=0x28) addr:0x02149100
_ZN16MapObjectUnkSWWN19func_ov070_021473a0Ev kind:function(arm,size=0x30) addr:0x02149128
_ZN23MapObjectProfileUnkSWWND1Ev kind:function(arm,size=0x14) addr:0x02149158
_ZN23MapObjectProfileUnkSWEY10GetProfileEv kind:function(arm,size=0xc) addr:0x0214916c
_ZN23MapObjectProfileUnkSWEY6CreateEv kind:function(arm,size=0x24) addr:0x02149178
_ZN23MapObjectProfileUnkSWEYC1Ev kind:function(arm,size=0xa4) addr:0x0214919c
_ZN16MapObjectUnkSWEYC1Ev kind:function(arm,size=0x110) addr:0x02149240
_ZN16MapObjectUnkSWEYD1Ev kind:function(arm,size=0x60) addr:0x02149350
_ZN16MapObjectUnkSWEYD0Ev kind:function(arm,size=0x68) addr:0x021493b0
_ZN16MapObjectUnkSWEY19func_ov070_02147690Ev kind:function(arm,size=0x1bc) addr:0x02149418
_ZN16MapObjectUnkSWEY19func_ov070_0214784cEv kind:function(arm,size=0x120) addr:0x021495d4
_ZN16MapObjectUnkSWEY19func_ov070_0214796cEv kind:function(arm,size=0x1dc) addr:0x021496f4
_ZN16MapObjectUnkSWEY19func_ov070_02147b48Ev kind:function(arm,size=0xc8) addr:0x021498d0
_ZN16MapObjectUnkSWEY19func_ov070_02147c10Ev kind:function(arm,size=0x98) addr:0x02149998
_ZN16MapObjectUnkSWEY19func_ov070_02147ca8Ev kind:function(arm,size=0x3c) addr:0x02149a30
_ZN23MapObjectProfileUnkSWEYD1Ev kind:function(arm,size=0x14) addr:0x02149a6c
func_ov070_02147cf8 kind:function(arm,size=0x30) addr:0x02149a80
func_ov070_02147d28 kind:function(arm,size=0xd8) addr:0x02149ab0
func_ov070_02147e00 kind:function(arm,size=0x30) addr:0x02149b88
func_ov070_02147e30 kind:function(arm,size=0x18) addr:0x02149bb8
_ZN19ActorProfileUnkTRAP10GetProfileEv kind:function(arm,size=0xc) addr:0x02149bd0
_ZN19ActorProfileUnkTRAP6CreateEv kind:function(arm,size=0x24) addr:0x02149bdc
_ZN19ActorProfileUnkTRAPC1Ev kind:function(arm,size=0x44) addr:0x02149c00
_ZN12ActorUnkTRAPC1Ev kind:function(arm,size=0x154) addr:0x02149c44
_ZN12ActorUnkTRAP19func_ov070_02148010Ev kind:function(arm,size=0x14) addr:0x02149d98
_ZN12ActorUnkTRAP19func_ov070_02148024Ev kind:function(arm,size=0x64) addr:0x02149dac
_ZN12ActorUnkTRAP19func_ov070_02148088Ev kind:function(arm,size=0x1d8) addr:0x02149e10
_ZN12ActorUnkTRAP19func_ov070_02148260Ev kind:function(arm,size=0x6c) addr:0x02149fe8
_ZN12ActorUnkTRAP19func_ov070_021482ccEv kind:function(arm,size=0x48) addr:0x0214a054
_ZN12ActorUnkTRAP19func_ov070_02148314Ev kind:function(arm,size=0x10) addr:0x0214a09c
_ZN12ActorUnkTRAP19func_ov070_02148324Ev kind:function(arm,size=0x20) addr:0x0214a0ac
_ZN12ActorUnkTRAP19func_ov070_02148344Ev kind:function(arm,size=0x10) addr:0x0214a0cc
_ZN12ActorUnkTRAP19func_ov070_02148354Ev kind:function(arm,size=0x3c) addr:0x0214a0dc
_ZN12ActorUnkTRAP19func_ov070_02148390Ev kind:function(arm,size=0x20) addr:0x0214a118
_ZN12ActorUnkTRAP19func_ov070_021483b0Ev kind:function(arm,size=0x24) addr:0x0214a138
_ZN12ActorUnkTRAP19func_ov070_021483d4Ev kind:function(arm,size=0x20) addr:0x0214a15c
_ZN12ActorUnkTRAP19func_ov070_021483f4Ev kind:function(arm,size=0x24) addr:0x0214a17c
_ZN12ActorUnkTRAP19func_ov070_02148418Ev kind:function(arm,size=0x20) addr:0x0214a1a0
_ZN12ActorUnkTRAP19func_ov070_02148438Ev kind:function(arm,size=0x24) addr:0x0214a1c0
_ZN12ActorUnkTRAP19func_ov070_0214845cEv kind:function(arm,size=0x1c) addr:0x0214a1e4
_ZN12ActorUnkTRAP19func_ov070_02148478Ev kind:function(arm,size=0x24) addr:0x0214a200
_ZN12ActorUnkTRAP19func_ov070_0214849cEv kind:function(arm,size=0x38) addr:0x0214a224
_ZN12ActorUnkTRAP19func_ov070_021484d4Ev kind:function(arm,size=0x80) addr:0x0214a25c
_ZN12ActorUnkTRAP19func_ov070_02148554Ev kind:function(arm,size=0x14) addr:0x0214a2dc
_ZN12ActorUnkTRAP19func_ov070_02148568Ev kind:function(arm,size=0x78) addr:0x0214a2f0
_ZN12ActorUnkTRAP19func_ov070_021485e0Ev kind:function(arm,size=0xb4) addr:0x0214a368
_ZN12ActorUnkTRAP19func_ov070_02148694Ev kind:function(arm,size=0xbc) addr:0x0214a41c
_ZN12ActorUnkTRAP19func_ov070_02148750Ev kind:function(arm,size=0x14) addr:0x0214a4d8
_ZN12ActorUnkTRAP19func_ov070_02148764Ev kind:function(arm,size=0x11c) addr:0x0214a4ec
_ZN12ActorUnkTRAP19func_ov070_02148880Ev kind:function(arm,size=0x1c4) addr:0x0214a608
_ZN12ActorUnkTRAP19func_ov070_02148a44Ev kind:function(arm,size=0x94) addr:0x0214a7cc
_ZN12ActorUnkTRAP19func_ov070_02148ad8Ev kind:function(arm,size=0x54) addr:0x0214a860
_ZN12ActorUnkTRAPD0Ev kind:function(arm,size=0x1c) addr:0x0214a8b4
_ZN12ActorUnkTRAPD1Ev kind:function(arm,size=0x38) addr:0x0214a8d0
_ZN12ActorUnkTRAP19func_ov070_02148b80Ev kind:function(arm,size=0x40) addr:0x0214a908
_ZN19ActorProfileUnkTRAPD1Ev kind:function(arm,size=0x14) addr:0x0214a948
_ZN23MapObjectProfileUnkDRST10GetProfileEv kind:function(arm,size=0xc) addr:0x0214a95c
_ZN23MapObjectProfileUnkDRST6CreateEv kind:function(arm,size=0x24) addr:0x0214a968
_ZN23MapObjectProfileUnkDRSTC1Ev kind:function(arm,size=0x48) addr:0x0214a98c
_ZN16MapObjectUnkDRSTC1Ev kind:function(arm,size=0xa4) addr:0x0214a9d4
_ZN16MapObjectUnkDRST19func_ov070_02148cf0Ev kind:function(arm,size=0x1c) addr:0x0214aa78
_ZN16MapObjectUnkDRST19func_ov070_02148d0cEv kind:function(arm,size=0x20) addr:0x0214aa94
_ZN16MapObjectUnkDRST19func_ov070_02148d2cEv kind:function(arm,size=0x10) addr:0x0214aab4
_ZN16MapObjectUnkDRST19func_ov070_02148d3cEv kind:function(arm,size=0x20) addr:0x0214aac4
_ZN16MapObjectUnkDRST19func_ov070_02148d5cEv kind:function(arm,size=0x94) addr:0x0214aae4
_ZN16MapObjectUnkDRST19func_ov070_02148df0Ev kind:function(arm,size=0xc) addr:0x0214ab78
_ZN16MapObjectUnkDRST19func_ov070_02148dfcEv kind:function(arm,size=0xcc) addr:0x0214ab84
_ZN16MapObjectUnkDRST19func_ov070_02148ec8Ev kind:function(arm,size=0x28) addr:0x0214ac50
_ZN16MapObjectUnkDRST19func_ov070_02148ef0Ev kind:function(arm,size=0x2c) addr:0x0214ac78
_ZN16MapObjectUnkDRST19func_ov070_02148f1cEv kind:function(arm,size=0x40) addr:0x0214aca4
_ZN16MapObjectUnkDRST19func_ov070_02148f5cEv kind:function(arm,size=0x2c) addr:0x0214ace4
_ZN16MapObjectUnkDRST19func_ov070_02148f88Ev kind:function(arm,size=0x44) addr:0x0214ad10
_ZN16MapObjectUnkDRSTD1Ev kind:function(arm,size=0x28) addr:0x0214ad54
_ZN16MapObjectUnkDRSTD0Ev kind:function(arm,size=0x30) addr:0x0214ad7c
_ZN23MapObjectProfileUnkDRSTD1Ev kind:function(arm,size=0x14) addr:0x0214adac
func_ov070_02149038 kind:function(arm,size=0x10) addr:0x0214adc0
func_ov070_02149048 kind:function(arm,size=0x10) addr:0x0214add0
_ZN23MapObjectProfileUnkFRWL10GetProfileEv kind:function(arm,size=0xc) addr:0x0214ade0
_ZN23MapObjectProfileUnkFRWL6CreateEv kind:function(arm,size=0x24) addr:0x0214adec
_ZN23MapObjectProfileUnkFRWLC1Ev kind:function(arm,size=0xbc) addr:0x0214ae10
_ZN16MapObjectUnkFRWLC1Ev kind:function(arm,size=0x104) addr:0x0214aecc
_ZN16MapObjectUnkFRWL19func_ov070_02149248Ev kind:function(arm,size=0x260) addr:0x0214afd0
_ZN16MapObjectUnkFRWL19func_ov070_021494a8Ev kind:function(arm,size=0x34) addr:0x0214b230
_ZN16MapObjectUnkFRWL19func_ov070_021494dcEv kind:function(arm,size=0x18) addr:0x0214b264
_ZN16MapObjectUnkFRWL19func_ov070_021494f4Ev kind:function(arm,size=0x520) addr:0x0214b27c
_ZN16MapObjectUnkFRWL19func_ov070_02149a14Ev kind:function(arm,size=0x64) addr:0x0214b79c
_ZN16MapObjectUnkFRWL19func_ov070_02149a78Ev kind:function(arm,size=0x44c) addr:0x0214b800
_ZN16MapObjectUnkFRWL19func_ov070_02149ec4Ev kind:function(arm,size=0x3c) addr:0x0214bc4c
_ZN16MapObjectUnkFRWL19func_ov070_02149f00Ev kind:function(arm,size=0x30) addr:0x0214bc88
_ZN16MapObjectUnkFRWL19func_ov070_02149f30Ev kind:function(arm,size=0x38) addr:0x0214bcb8
_ZN16MapObjectUnkFRWL19func_ov070_02149f68Ev kind:function(arm,size=0x38) addr:0x0214bcf0
_ZN16MapObjectUnkFRWL19func_ov070_02149fa0Ev kind:function(arm,size=0x14) addr:0x0214bd28
_ZN16MapObjectUnkFRWLD1Ev kind:function(arm,size=0x38) addr:0x0214bd3c
_ZN16MapObjectUnkFRWLD0Ev kind:function(arm,size=0x40) addr:0x0214bd74
_ZN23MapObjectProfileUnkFRWLD1Ev kind:function(arm,size=0x14) addr:0x0214bdb4
_ZN23MapObjectProfileUnkSTSH10GetProfileEv kind:function(arm,size=0xc) addr:0x0214bdc8
_ZN23MapObjectProfileUnkSTSH6CreateEv kind:function(arm,size=0x24) addr:0x0214bdd4
_ZN23MapObjectProfileUnkSTSHC1Ev kind:function(arm,size=0x48) addr:0x0214bdf8
_ZN16MapObjectUnkSTSH19func_ov070_0214a0b8Ev kind:function(arm,size=0x74) addr:0x0214be40
_ZN16MapObjectUnkSTSHC1Ev kind:function(arm,size=0x74) addr:0x0214beb4
_ZN16MapObjectUnkSTSH19func_ov070_0214a1a0Ev kind:function(arm,size=0x50) addr:0x0214bf28
_ZN16MapObjectUnkSTSH19func_ov070_0214a1f0Ev kind:function(arm,size=0x5c) addr:0x0214bf78
_ZN16MapObjectUnkSTSH19func_ov070_0214a24cEv kind:function(arm,size=0xa8) addr:0x0214bfd4
_ZN16MapObjectUnkSTSH19func_ov070_0214a2f4Ev kind:function(arm,size=0x124) addr:0x0214c07c
_ZN16MapObjectUnkSTSH19func_ov070_0214a33cEv kind:function(arm,size=0x9c) addr:0x0214c1a0
_ZN16MapObjectUnkSTSH19func_ov070_0214a3d8Ev kind:function(arm,size=0x12c) addr:0x0214c23c
_ZN16MapObjectUnkSTSH19func_ov070_0214a504Ev kind:function(arm,size=0x64) addr:0x0214c368
_ZN16MapObjectUnkSTSH19func_ov070_0214a568Ev kind:function(arm,size=0x22c) addr:0x0214c3cc
_ZN16MapObjectUnkSTSH19func_ov070_0214a794Ev kind:function(arm,size=0x1cc) addr:0x0214c5f8
_ZN16MapObjectUnkSTSH19func_ov070_0214a91cEv kind:function(arm,size=0xc) addr:0x0214c7c4
_ZN16MapObjectUnkSTSH19func_ov070_0214a928Ev kind:function(arm,size=0x94) addr:0x0214c7d0
_ZN16MapObjectUnkSTSH19func_ov070_0214a9bcEv kind:function(arm,size=0x28c) addr:0x0214c864
_ZN16MapObjectUnkSTSH19func_ov070_0214ac48Ev kind:function(arm,size=0xf4) addr:0x0214caf0
_ZN16MapObjectUnkSTSH19func_ov070_0214ad3cEv kind:function(arm,size=0xa4) addr:0x0214cbe4
_ZN16MapObjectUnkSTSH19func_ov070_0214ade0Ev kind:function(arm,size=0x7c) addr:0x0214cc88
_ZN16MapObjectUnkSTSH19func_ov070_0214ae5cEv kind:function(arm,size=0x290) addr:0x0214cd04
_ZN16MapObjectUnkSTSH19func_ov070_0214b0ecEv kind:function(arm,size=0x28) addr:0x0214cf94
_ZN16MapObjectUnkSTSH19func_ov070_0214b114Ev kind:function(arm,size=0x24) addr:0x0214cfbc
_ZN16MapObjectUnkSTSH19func_ov070_0214b138Ev kind:function(arm,size=0x24) addr:0x0214cfe0
_ZN16MapObjectUnkSTSH19func_ov070_0214b15cEv kind:function(arm,size=0x24) addr:0x0214d004
_ZN16MapObjectUnkSTSH19func_ov070_0214b180Ev kind:function(arm,size=0x24) addr:0x0214d028
_ZN16MapObjectUnkSTSH19func_ov070_0214b1a4Ev kind:function(arm,size=0x20) addr:0x0214d04c
_ZN16MapObjectUnkSTSH19func_ov070_0214b1c4Ev kind:function(arm,size=0x2c) addr:0x0214d06c
_ZN16MapObjectUnkSTSH19func_ov070_0214b1f0Ev kind:function(arm,size=0x20) addr:0x0214d098
_ZN16MapObjectUnkSTSH19func_ov070_0214b210Ev kind:function(arm,size=0x18) addr:0x0214d0b8
_ZN16MapObjectUnkSTSH19func_ov070_0214b228Ev kind:function(arm,size=0x14) addr:0x0214d0d0
_ZN16MapObjectUnkSTSH19func_ov070_0214b23cEv kind:function(arm,size=0xc) addr:0x0214d0e4
_ZN16MapObjectUnkSTSH19func_ov070_0214b248Ev kind:function(arm,size=0x54) addr:0x0214d0f0
_ZN16MapObjectUnkSTSH19func_ov070_0214b29cEv kind:function(arm,size=0x18) addr:0x0214d144
_ZN16MapObjectUnkSTSHD1Ev kind:function(arm,size=0x28) addr:0x0214d15c
_ZN16MapObjectUnkSTSHD0Ev kind:function(arm,size=0x30) addr:0x0214d184
_ZN23MapObjectProfileUnkSTSHD1Ev kind:function(arm,size=0x14) addr:0x0214d1b4
func_ov070_0214b320 kind:function(arm,size=0x10) addr:0x0214d1c8
_ZN23MapObjectProfileUnkTRLS10GetProfileEv kind:function(arm,size=0xc) addr:0x0214d1d8
_ZN23MapObjectProfileUnkTRLS6CreateEv kind:function(arm,size=0x24) addr:0x0214d1e4
_ZN23MapObjectProfileUnkTRLSC1Ev kind:function(arm,size=0x44) addr:0x0214d208
_ZN16MapObjectUnkTRLSC1Ev kind:function(arm,size=0x80) addr:0x0214d24c
_ZN16MapObjectUnkTRLS19func_ov070_0214b424Ev kind:function(arm,size=0x2c) addr:0x0214d2cc
_ZN16MapObjectUnkTRLS19func_ov070_0214b450Ev kind:function(arm,size=0x8) addr:0x0214d2f8
_ZN16MapObjectUnkTRLS19func_ov070_0214b458Ev kind:function(arm,size=0x2c) addr:0x0214d300
_ZN16MapObjectUnkTRLS19func_ov070_0214b484Ev kind:function(arm,size=0x28) addr:0x0214d32c
_ZN16MapObjectUnkTRLS19func_ov070_0214b4acEv kind:function(arm,size=0xc) addr:0x0214d354
_ZN16MapObjectUnkTRLSD1Ev kind:function(arm,size=0x14) addr:0x0214d360
_ZN16MapObjectUnkTRLSD0Ev kind:function(arm,size=0x1c) addr:0x0214d374
_ZN23MapObjectProfileUnkTRLSD1Ev kind:function(arm,size=0x14) addr:0x0214d390
_ZN23MapObjectProfileUnkTRLD10GetProfileEv kind:function(arm,size=0xc) addr:0x0214d3a4
_ZN23MapObjectProfileUnkTRLD6CreateEv kind:function(arm,size=0x24) addr:0x0214d3b0
_ZN23MapObjectProfileUnkTRLDC1Ev kind:function(arm,size=0x44) addr:0x0214d3d4
_ZN16MapObjectUnkTRLDC1Ev kind:function(arm,size=0x84) addr:0x0214d418
_ZN16MapObjectUnkTRLD19func_ov070_0214b5f4Ev kind:function(arm,size=0x54) addr:0x0214d49c
_ZN16MapObjectUnkTRLD19func_ov070_0214b648Ev kind:function(arm,size=0x28) addr:0x0214d4f0
_ZN16MapObjectUnkTRLD19func_ov070_0214b670Ev kind:function(arm,size=0x28) addr:0x0214d518
_ZN16MapObjectUnkTRLD19func_ov070_0214b698Ev kind:function(arm,size=0xc) addr:0x0214d540
_ZN16MapObjectUnkTRLDD1Ev kind:function(arm,size=0x14) addr:0x0214d54c
_ZN16MapObjectUnkTRLDD0Ev kind:function(arm,size=0x1c) addr:0x0214d560
_ZN23MapObjectProfileUnkTRLDD1Ev kind:function(arm,size=0x14) addr:0x0214d57c
_ZN23MapObjectProfileUnkTRLW10GetProfileEv kind:function(arm,size=0xc) addr:0x0214d590
_ZN23MapObjectProfileUnkTRLW6CreateEv kind:function(arm,size=0x24) addr:0x0214d59c
_ZN23MapObjectProfileUnkTRLWC1Ev kind:function(arm,size=0x44) addr:0x0214d5c0
_ZN16MapObjectUnkTRLWC1Ev kind:function(arm,size=0x84) addr:0x0214d604
_ZN16MapObjectUnkTRLW19func_ov070_0214b7e0Ev kind:function(arm,size=0x20) addr:0x0214d688
_ZN16MapObjectUnkTRLW19func_ov070_0214b800Ev kind:function(arm,size=0x10) addr:0x0214d6a8
_ZN16MapObjectUnkTRLW19func_ov070_0214b810Ev kind:function(arm,size=0x2c) addr:0x0214d6b8
_ZN16MapObjectUnkTRLW19func_ov070_0214b83cEv kind:function(arm,size=0x28) addr:0x0214d6e4
_ZN16MapObjectUnkTRLW19func_ov070_0214b864Ev kind:function(arm,size=0x28) addr:0x0214d70c
_ZN16MapObjectUnkTRLW19func_ov070_0214b88cEv kind:function(arm,size=0xc) addr:0x0214d734
_ZN16MapObjectUnkTRLWD1Ev kind:function(arm,size=0x14) addr:0x0214d740
_ZN16MapObjectUnkTRLWD0Ev kind:function(arm,size=0x1c) addr:0x0214d754
_ZN23MapObjectProfileUnkTRLWD1Ev kind:function(arm,size=0x14) addr:0x0214d770
_ZN23MapObjectProfileUnkPTFL10GetProfileEv kind:function(arm,size=0xc) addr:0x0214d784
_ZN23MapObjectProfileUnkPTFL6CreateEv kind:function(arm,size=0x24) addr:0x0214d790
_ZN23MapObjectProfileUnkPTFLC1Ev kind:function(arm,size=0xa8) addr:0x0214d7b4
_ZN16MapObjectUnkPTFLC1Ev kind:function(arm,size=0x80) addr:0x0214d85c
_ZN16MapObjectUnkPTFL19func_ov070_0214ba34Ev kind:function(arm,size=0x144) addr:0x0214d8dc
_ZN16MapObjectUnkPTFL19func_ov070_0214bb78Ev kind:function(arm,size=0x58) addr:0x0214da20
_ZN16MapObjectUnkPTFL19func_ov070_0214bbd0Ev kind:function(arm,size=0x178) addr:0x0214da78
_ZN16MapObjectUnkPTFL19func_ov070_0214bd48Ev kind:function(arm,size=0x48) addr:0x0214dbf0
_ZN16MapObjectUnkPTFL19func_ov070_0214bd90Ev kind:function(arm,size=0x1c8) addr:0x0214dc38
_ZN16MapObjectUnkPTFL19func_ov070_0214bf58Ev kind:function(arm,size=0x4) addr:0x0214de00
_ZN16MapObjectUnkPTFL19func_ov070_0214bf5cEv kind:function(arm,size=0x10) addr:0x0214de04
_ZN16MapObjectUnkPTFL19func_ov070_0214bf6cEv kind:function(arm,size=0x50) addr:0x0214de14
_ZN16MapObjectUnkPTFL19func_ov070_0214bfbcEv kind:function(arm,size=0x24) addr:0x0214de64
_ZN16MapObjectUnkPTFLD1Ev kind:function(arm,size=0x14) addr:0x0214de88
_ZN16MapObjectUnkPTFLD0Ev kind:function(arm,size=0x1c) addr:0x0214de9c
_ZN23MapObjectProfileUnkPTFLD1Ev kind:function(arm,size=0x14) addr:0x0214deb8
_ZN19ActorProfileUnkRYAW10GetProfileEv kind:function(arm,size=0xc) addr:0x0214decc
_ZN19ActorProfileUnkRYAW6CreateEv kind:function(arm,size=0x24) addr:0x0214ded8
_ZN19ActorProfileUnkRYAWC1Ev kind:function(arm,size=0x60) addr:0x0214defc
_ZN12ActorUnkRYAWC1Ev kind:function(arm,size=0x150) addr:0x0214df5c
_ZN12ActorUnkRYAW19func_ov070_0214c204Ev kind:function(arm,size=0x14) addr:0x0214e0ac
_ZN12ActorUnkRYAW19func_ov070_0214c218Ev kind:function(arm,size=0x14) addr:0x0214e0c0
_ZN12ActorUnkRYAW19func_ov070_0214c22cEv kind:function(arm,size=0x13c) addr:0x0214e0d4
_ZN12ActorUnkRYAW19func_ov070_0214c354Ev kind:function(arm,size=0x180) addr:0x0214e210
_ZN12ActorUnkRYAW19func_ov070_0214c4d4Ev kind:function(arm,size=0x20) addr:0x0214e390
_ZN12ActorUnkRYAW19func_ov070_0214c4f4Ev kind:function(arm,size=0x25c) addr:0x0214e3b0
_ZN12ActorUnkRYAW19func_ov070_0214c6fcEv kind:function(arm,size=0x50) addr:0x0214e60c
_ZN12ActorUnkRYAW19func_ov070_0214c74cEv kind:function(arm,size=0xd0) addr:0x0214e65c
_ZN12ActorUnkRYAW19func_ov070_0214c81cEv kind:function(arm,size=0x3ec) addr:0x0214e72c
_ZN12ActorUnkRYAW19func_ov070_0214cc08Ev kind:function(arm,size=0x70) addr:0x0214eb18
_ZN12ActorUnkRYAW19func_ov070_0214cc78Ev kind:function(arm,size=0x134) addr:0x0214eb88
_ZN12ActorUnkRYAW19func_ov070_0214cdacEv kind:function(arm,size=0x58) addr:0x0214ecbc
_ZN12ActorUnkRYAW19func_ov070_0214ce04Ev kind:function(arm,size=0x84) addr:0x0214ed14
_ZN12ActorUnkRYAW19func_ov070_0214ce88Ev kind:function(arm,size=0x12c) addr:0x0214ed98
_ZN12ActorUnkRYAW19func_ov070_0214cfb4Ev kind:function(arm,size=0x1c0) addr:0x0214eec4
_ZN12ActorUnkRYAW19func_ov070_0214d174Ev kind:function(arm,size=0xa0) addr:0x0214f084
_ZN12ActorUnkRYAW19func_ov070_0214d214Ev kind:function(arm,size=0x54) addr:0x0214f124
_ZN12ActorUnkRYAW19func_ov070_0214d268Ev kind:function(arm,size=0xc4) addr:0x0214f178
_ZN12ActorUnkRYAW19func_ov070_0214d2a4Ev kind:function(arm,size=0x3c) addr:0x0214f23c
_ZN12ActorUnkRYAW19func_ov070_0214d2e0Ev kind:function(arm,size=0x31c) addr:0x0214f278
_ZN12ActorUnkRYAW19func_ov070_0214d5d4Ev kind:function(arm,size=0x280) addr:0x0214f594
_ZN12ActorUnkRYAW19func_ov070_0214d854Ev kind:function(arm,size=0xc) addr:0x0214f814
_ZN12ActorUnkRYAW19func_ov070_0214d860Ev kind:function(arm,size=0xf8) addr:0x0214f820
_ZN12ActorUnkRYAW19func_ov070_0214d958Ev kind:function(arm,size=0x74) addr:0x0214f918
_ZN12ActorUnkRYAW19func_ov070_0214d9ccEv kind:function(arm,size=0x28) addr:0x0214f98c
_ZN12ActorUnkRYAW19func_ov070_0214d9f4Ev kind:function(arm,size=0x94) addr:0x0214f9b4
_ZN12ActorUnkRYAW19func_ov070_0214da88Ev kind:function(arm,size=0x3c) addr:0x0214fa48
_ZN12ActorUnkRYAW19func_ov070_0214dac4Ev kind:function(arm,size=0x54) addr:0x0214fa84
_ZN12ActorUnkRYAW19func_ov070_0214fad8Ev kind:function(arm,size=0x78) addr:0x0214fad8
_ZN12ActorUnkRYAWD0Ev kind:function(arm,size=0x1c) addr:0x0214fb50
_ZN12ActorUnkRYAW19func_ov070_0214fb6cEv kind:function(arm,size=0x1c) addr:0x0214fb6c
_ZN12ActorUnkRYAWD1Ev kind:function(arm,size=0x40) addr:0x0214fb88
_ZN12ActorUnkRYAW19func_ov070_0214fbc8Ev kind:function(arm,size=0x48) addr:0x0214fbc8
_ZN19ActorProfileUnkRYAWD1Ev kind:function(arm,size=0x14) addr:0x0214fc10
data_ov070_0214fc24 kind:data(any) addr:0x0214fc24
data_ov070_0214fc4c kind:data(any) addr:0x0214fc4c
data_ov070_0214fc50 kind:data(any) addr:0x0214fc50 ambiguous
data_ov070_0214fc98 kind:data(any) addr:0x0214fc98 ambiguous
data_ov070_0214fc9c kind:data(any) addr:0x0214fc9c
data_ov070_0214fcac kind:data(any) addr:0x0214fcac
data_ov070_0214fd3c kind:data(any) addr:0x0214fd3c
data_ov070_0214fd4c kind:data(any) addr:0x0214fd4c
data_ov070_0214fd5c kind:data(any) addr:0x0214fd5c
data_ov070_0214fd64 kind:data(any) addr:0x0214fd64
data_ov070_0214fd74 kind:data(any) addr:0x0214fd74
data_ov070_0214fd84 kind:data(any) addr:0x0214fd84
data_ov070_0214fd9c kind:data(any) addr:0x0214fd9c
data_ov070_0214fdac kind:data(any) addr:0x0214fdac
data_ov070_0214fdbc kind:data(any) addr:0x0214fdbc
data_ov070_0214fdd0 kind:data(any) addr:0x0214fdd0
data_ov070_0214fde0 kind:data(any) addr:0x0214fde0
data_ov070_0214fdf8 kind:data(any) addr:0x0214fdf8
data_ov070_0214fe08 kind:data(any) addr:0x0214fe08
__sinit_ActorUnkENGE.cpp kind:function(arm,size=0x50) addr:0x0214fe10
__sinit_ActorUnkALEV.cpp kind:function(arm,size=0x50) addr:0x0214fe60
__sinit_ActorUnkBROW.cpp kind:function(arm,size=0x50) addr:0x0214feb0
__sinit_ActorUnkKEYN.cpp kind:function(arm,size=0x5c) addr:0x0214ff00
__sinit_ActorUnkLIRA.cpp kind:function(arm,size=0x5c) addr:0x0214ff5c
__sinit_ActorUnkBMHN.cpp kind:function(arm,size=0x50) addr:0x0214ffb8
__sinit_ActorUnkSWDS.cpp kind:function(arm,size=0x50) addr:0x02150008
__sinit_ActorUnkRCSG.cpp kind:function(arm,size=0x50) addr:0x02150058
__sinit_MapObjectUnkBLCK.cpp kind:function(arm,size=0x50) addr:0x021500a8
__sinit_MapObjectUnkFLSP.cpp kind:function(arm,size=0xd4) addr:0x021500f8
__sinit_MapObjectUnkFSPS.cpp kind:function(arm,size=0x50) addr:0x021501cc
__sinit_MapObjectUnkBLRB.cpp kind:function(arm,size=0x74) addr:0x0215021c
__sinit_MapObjectUnkSWRB.cpp kind:function(arm,size=0x50) addr:0x02150290
__sinit_MapObjectUnkARWL.cpp kind:function(arm,size=0x50) addr:0x021502e0
__sinit_MapObjectUnkSWWN.cpp kind:function(arm,size=0x50) addr:0x02150330
__sinit_MapObjectUnkSWEY.cpp kind:function(arm,size=0x50) addr:0x02150380
__sinit_ActorUnkTRAP.cpp kind:function(arm,size=0x50) addr:0x021503d0
__sinit_MapObjectUnkDRST.cpp kind:function(arm,size=0x64) addr:0x02150420
__sinit_MapObjectUnkFRWL.cpp kind:function(arm,size=0x5c) addr:0x02150484
__sinit_MapObjectUnkSTSH.cpp kind:function(arm,size=0x9c) addr:0x021504e0
__sinit_MapObjectUnkTRLS.cpp kind:function(arm,size=0x70) addr:0x0215057c
__sinit_MapObjectUnkTRLD.cpp kind:function(arm,size=0x70) addr:0x021505ec
__sinit_MapObjectUnkTRLW.cpp kind:function(arm,size=0x70) addr:0x0215065c
__sinit_MapObjectUnkPTFL.cpp kind:function(arm,size=0x5c) addr:0x021506cc
__sinit_ActorUnkRYAW.cpp kind:function(arm,size=0x6c) addr:0x02150728
.p__sinit_ActorUnkENGE.cpp kind:data(word) addr:0x02150794
.p__sinit_ActorUnkALEV.cpp kind:data(word) addr:0x02150798
.p__sinit_ActorUnkBROW.cpp kind:data(word) addr:0x0215079c
.p__sinit_ActorUnkKEYN.cpp kind:data(word) addr:0x021507a0
.p__sinit_ActorUnkLIRA.cpp kind:data(word) addr:0x021507a4
.p__sinit_ActorUnkBMHN.cpp kind:data(word) addr:0x021507a8
.p__sinit_ActorUnkSWDS.cpp kind:data(word) addr:0x021507ac
.p__sinit_ActorUnkRCSG.cpp kind:data(word) addr:0x021507b0
.p__sinit_MapObjectUnkBLCK.cpp kind:data(word) addr:0x021507b4
.p__sinit_MapObjectUnkFLSP.cpp kind:data(word) addr:0x021507b8
.p__sinit_MapObjectUnkFSPS.cpp kind:data(word) addr:0x021507bc
.p__sinit_MapObjectUnkBLRB.cpp kind:data(word) addr:0x021507c0
.p__sinit_MapObjectUnkSWRB.cpp kind:data(word) addr:0x021507c4
.p__sinit_MapObjectUnkARWL.cpp kind:data(word) addr:0x021507c8
.p__sinit_MapObjectUnkSWWN.cpp kind:data(word) addr:0x021507cc
.p__sinit_MapObjectUnkSWEY.cpp kind:data(word) addr:0x021507d0
.p__sinit_ActorUnkTRAP.cpp kind:data(word) addr:0x021507d4
.p__sinit_MapObjectUnkDRST.cpp kind:data(word) addr:0x021507d8
.p__sinit_MapObjectUnkFRWL.cpp kind:data(word) addr:0x021507dc
.p__sinit_MapObjectUnkSTSH.cpp kind:data(word) addr:0x021507e0
.p__sinit_MapObjectUnkTRLS.cpp kind:data(word) addr:0x021507e4
.p__sinit_MapObjectUnkTRLD.cpp kind:data(word) addr:0x021507e8
.p__sinit_MapObjectUnkTRLW.cpp kind:data(word) addr:0x021507ec
.p__sinit_MapObjectUnkPTFL.cpp kind:data(word) addr:0x021507f0
.p__sinit_ActorUnkRYAW.cpp kind:data(word) addr:0x021507f4
data_ov070_02150808 kind:data(any) addr:0x02150808
_ZTV19data_ov070_0215081c kind:data(any) addr:0x0215081c
_ZTV19data_ov070_02150840 kind:data(any) addr:0x02150840
_ZTV19data_ov070_0215089c kind:data(any) addr:0x0215089c
_ZTV19data_ov070_021508c0 kind:data(any) addr:0x021508c0
data_ov070_02150924 kind:data(any) addr:0x02150924
data_ov070_02150938 kind:data(any) addr:0x02150938
_ZTV19data_ov070_0215094c kind:data(any) addr:0x0215094c
data_ov070_021509b4 kind:data(any) addr:0x021509b4
data_ov070_021509c0 kind:data(any) addr:0x021509c0
data_ov070_021509d4 kind:data(any) addr:0x021509d4
_ZTV19data_ov070_021509e8 kind:data(any) addr:0x021509e8
data_ov070_02150a14 kind:data(any) addr:0x02150a14
_ZTV19data_ov070_02150a34 kind:data(any) addr:0x02150a34
data_ov070_02150a98 kind:data(any) addr:0x02150a98
data_ov070_02150ab4 kind:data(any) addr:0x02150ab4
data_ov070_02150adc kind:data(any) addr:0x02150adc
_ZTV19data_ov070_02150aec kind:data(any) addr:0x02150aec
_ZTV19data_ov070_02150b10 kind:data(any) addr:0x02150b10
data_ov070_02150b6c kind:data(any) addr:0x02150b6c
data_ov070_02150b74 kind:data(any) addr:0x02150b74
data_ov070_02150b7c kind:data(any) addr:0x02150b7c
data_ov070_02150b84 kind:data(any) addr:0x02150b84
data_ov070_02150b8c kind:data(any) addr:0x02150b8c
data_ov070_02150b94 kind:data(any) addr:0x02150b94
data_ov070_02150b9c kind:data(any) addr:0x02150b9c
data_ov070_02150ba4 kind:data(any) addr:0x02150ba4
data_ov070_02150bac kind:data(any) addr:0x02150bac
data_ov070_02150bb4 kind:data(any) addr:0x02150bb4
data_ov070_02150bc4 kind:data(any) addr:0x02150bc4
_ZTV19data_ov070_02150bd0 kind:data(any) addr:0x02150bd0
data_ov070_02150bfc kind:data(any) addr:0x02150bfc
data_ov070_02150c18 kind:data(any) addr:0x02150c18
data_ov070_02150c48 kind:data(any) addr:0x02150c48
_ZTV19data_ov070_02150c78 kind:data(any) addr:0x02150c78
_ZTV19data_ov070_02150cd4 kind:data(any) addr:0x02150cd4
_ZTV19data_ov070_02150cf8 kind:data(any) addr:0x02150cf8
_ZTV19data_ov070_02150d54 kind:data(any) addr:0x02150d54
_ZTV19data_ov070_02150d78 kind:data(any) addr:0x02150d78
_ZTV19data_ov070_02150d98 kind:data(any) addr:0x02150d98 ambiguous
_ZTV19data_ov070_02150dd4 kind:data(any) addr:0x02150dd4
_ZTV19data_ov070_02150df8 kind:data(any) addr:0x02150df8
data_ov070_02150e68 kind:data(any) addr:0x02150e68
data_ov070_02150e7c kind:data(any) addr:0x02150e7c
data_ov070_02150ea4 kind:data(any) addr:0x02150ea4
data_ov070_02150ee4 kind:data(any) addr:0x02150ee4
data_ov070_02150f00 kind:data(any) addr:0x02150f00
data_ov070_02150f14 kind:data(any) addr:0x02150f14
data_ov070_02150f20 kind:data(any) addr:0x02150f20
data_ov070_02150f2c kind:data(any) addr:0x02150f2c
data_ov070_02150f40 kind:data(any) addr:0x02150f40
data_ov070_02150f6c kind:data(any) addr:0x02150f6c
data_ov070_02150fb4 kind:data(any) addr:0x02150fb4
data_ov070_02150fd0 kind:data(any) addr:0x02150fd0
data_ov070_02150fdd kind:data(any) addr:0x02150fdd
data_ov070_02151018 kind:data(any) addr:0x02151018
data_ov070_02151034 kind:data(any) addr:0x02151034
data_ov070_02151060 kind:data(any) addr:0x02151060
data_ov070_021510a0 kind:data(any) addr:0x021510a0
data_ov070_021510bc kind:data(any) addr:0x021510bc
data_ov070_021510d8 kind:data(any) addr:0x021510d8
data_ov070_02151100 kind:data(any) addr:0x02151100
data_ov070_02151140 kind:data(any) addr:0x02151140
data_ov070_02151154 kind:data(any) addr:0x02151154
data_ov070_02151170 kind:data(any) addr:0x02151170
data_ov070_021511b0 kind:data(any) addr:0x021511b0
data_ov070_021511cc kind:data(any) addr:0x021511cc
data_ov070_021511f8 kind:data(any) addr:0x021511f8
data_ov070_02151238 kind:data(any) addr:0x02151238
data_ov070_02151254 kind:data(any) addr:0x02151254
data_ov070_02151294 kind:data(any) addr:0x02151294
_ZTV19data_ov070_021512a8 kind:data(any) addr:0x021512a8
data_ov070_021512cc kind:data(any) addr:0x021512cc
data_ov070_0215130c kind:data(any) addr:0x0215130c
_ZTV19data_ov070_0215134c kind:data(any) addr:0x0215134c
_ZTV19data_ov070_02151374 kind:data(any) addr:0x02151374 ambiguous
data_ov070_021513ac kind:data(any) addr:0x021513ac
data_ov070_021513b8 kind:data(any) addr:0x021513b8
data_ov070_021513d4 kind:data(any) addr:0x021513d4
data_ov070_021513fc kind:data(any) addr:0x021513fc ambiguous
data_ov070_0215146c kind:data(any) addr:0x0215146c
data_ov070_02151484 kind:data(any) addr:0x02151484
data_ov070_0215148c kind:data(any) addr:0x0215148c ambiguous
data_ov070_021514a0 kind:data(any) addr:0x021514a0
data_ov070_021514dc kind:data(any) addr:0x021514dc ambiguous
data_ov070_021514e0 kind:data(any) addr:0x021514e0
data_ov070_021514f4 kind:data(any) addr:0x021514f4
data_ov070_02151500 kind:data(any) addr:0x02151500
data_ov070_0215150c kind:data(any) addr:0x0215150c
data_ov070_02151520 kind:data(any) addr:0x02151520
data_ov070_02151590 kind:data(any) addr:0x02151590
data_ov070_021515a0 kind:data(any) addr:0x021515a0
data_ov070_021515b0 kind:data(any) addr:0x021515b0
data_ov070_021515cc kind:data(any) addr:0x021515cc
data_ov070_02151620 kind:data(any) addr:0x02151620
data_ov070_02151628 kind:data(any) addr:0x02151628 ambiguous
data_ov070_02151630 kind:data(any) addr:0x02151630
data_ov070_0215164c kind:data(any) addr:0x0215164c
data_ov070_021516a0 kind:data(any) addr:0x021516a0
data_ov070_021516b0 kind:data(any) addr:0x021516b0
data_ov070_021516cc kind:data(any) addr:0x021516cc
data_ov070_02151728 kind:data(any) addr:0x02151728
data_ov070_02151744 kind:data(any) addr:0x02151744
data_ov070_02151760 kind:data(any) addr:0x02151760
data_ov070_021517a0 kind:data(any) addr:0x021517a0
data_ov070_021517b0 kind:data(any) addr:0x021517b0
data_ov070_021517cc kind:data(any) addr:0x021517cc
_ZTV19data_ov070_021517e0 kind:data(any) addr:0x021517e0
_ZTV19data_ov070_02151804 kind:data(any) addr:0x02151804
_ZGVN15ProfileInstanceI19ActorProfileUnkENGEE8sProfileE kind:bss addr:0x02151880
@33120 kind:bss addr:0x02151884
_ZN15ProfileInstanceI19ActorProfileUnkENGEE8sProfileE kind:bss addr:0x02151890
_ZGVN15ProfileInstanceI19ActorProfileUnkALEVE8sProfileE kind:bss addr:0x021518cc
@33126 kind:bss addr:0x021518d0
_ZN15ProfileInstanceI19ActorProfileUnkALEVE8sProfileE kind:bss addr:0x021518dc
_ZGVN15ProfileInstanceI19ActorProfileUnkBROWE8sProfileE kind:bss addr:0x02151918
@33132 kind:bss addr:0x0215191c
_ZN15ProfileInstanceI19ActorProfileUnkBROWE8sProfileE kind:bss addr:0x02151928
data_ov070_021519b8 kind:bss addr:0x021519b8 ambiguous
data_ov070_021519cc kind:bss addr:0x021519cc ambiguous
data_ov070_02151a00 kind:bss addr:0x02151a00
data_ov070_02151a04 kind:bss addr:0x02151a04
_ZGVN15ProfileInstanceI19ActorProfileUnkKEYNE8sProfileE kind:bss addr:0x02151a08
@33138 kind:bss addr:0x02151a14
_ZN15ProfileInstanceI19ActorProfileUnkKEYNE8sProfileE kind:bss addr:0x02151a20
data_ov070_02151a54 kind:bss addr:0x02151a54 ambiguous
data_ov070_02151af8 kind:bss addr:0x02151af8
_ZGVN15ProfileInstanceI19ActorProfileUnkLIRAE8sProfileE kind:bss addr:0x02151afc
@33144 kind:bss addr:0x02151b08
_ZN15ProfileInstanceI19ActorProfileUnkLIRAE8sProfileE kind:bss addr:0x02151b14
data_ov070_02151bec kind:bss addr:0x02151bec
data_ov070_02151c0c kind:bss addr:0x02151c0c ambiguous
data_ov070_02151c10 kind:bss addr:0x02151c10
_ZGVN15ProfileInstanceI19ActorProfileUnkBMHNE8sProfileE kind:bss addr:0x02151ce0
@33150 kind:bss addr:0x02151ce4
_ZN15ProfileInstanceI19ActorProfileUnkBMHNE8sProfileE kind:bss addr:0x02151cf0
_ZGVN15ProfileInstanceI19ActorProfileUnkSWDSE8sProfileE kind:bss addr:0x02151d2c
@33156 kind:bss addr:0x02151d30
_ZN15ProfileInstanceI19ActorProfileUnkSWDSE8sProfileE kind:bss addr:0x02151d3c
_ZGVN15ProfileInstanceI19ActorProfileUnkRCSGE8sProfileE kind:bss addr:0x02151d78
@33162 kind:bss addr:0x02151d7c
_ZN15ProfileInstanceI19ActorProfileUnkRCSGE8sProfileE kind:bss addr:0x02151d88
_ZGVN15ProfileInstanceI23MapObjectProfileUnkBLCKE8sProfileE kind:bss addr:0x02151dc4
@32760 kind:bss addr:0x02151dc8
_ZN15ProfileInstanceI23MapObjectProfileUnkBLCKE8sProfileE kind:bss addr:0x02151dd4
data_ov070_02151df4 kind:bss addr:0x02151df4
data_ov070_02151e3c kind:bss addr:0x02151e3c
data_ov070_02151e40 kind:bss addr:0x02151e40
_ZGVN15ProfileInstanceI23MapObjectProfileUnkFLSPE8sProfileE kind:bss addr:0x02151e4c
@32766 kind:bss addr:0x02151e58
_ZN15ProfileInstanceI23MapObjectProfileUnkFLSPE8sProfileE kind:bss addr:0x02151e64
data_ov070_02151f38 kind:bss addr:0x02151f38
_ZGVN15ProfileInstanceI23MapObjectProfileUnkFSPSE8sProfileE kind:bss addr:0x02151f5c
@32772 kind:bss addr:0x02151f60
_ZN15ProfileInstanceI23MapObjectProfileUnkFSPSE8sProfileE kind:bss addr:0x02151f6c
data_ov070_02152040 kind:bss addr:0x02152040
data_ov070_02152064 kind:bss addr:0x02152064
_ZGVN15ProfileInstanceI23MapObjectProfileUnkBLRBE8sProfileE kind:bss addr:0x02152068
@32778 kind:bss addr:0x02152074
_ZN15ProfileInstanceI23MapObjectProfileUnkBLRBE8sProfileE kind:bss addr:0x021520a4
data_ov070_02152178 kind:bss addr:0x02152178
_ZGVN15ProfileInstanceI23MapObjectProfileUnkSWRBE8sProfileE kind:bss addr:0x0215219c
@32784 kind:bss addr:0x021521a0
_ZN15ProfileInstanceI23MapObjectProfileUnkSWRBE8sProfileE kind:bss addr:0x021521ac
data_ov070_021521cc kind:bss addr:0x021521cc
data_ov070_02152280 kind:bss addr:0x02152280
_ZGVN15ProfileInstanceI23MapObjectProfileUnkARWLE8sProfileE kind:bss addr:0x021522a0
@32790 kind:bss addr:0x021522a4
_ZN15ProfileInstanceI23MapObjectProfileUnkARWLE8sProfileE kind:bss addr:0x021522b0
data_ov070_02152384 kind:bss addr:0x02152384
_ZGVN15ProfileInstanceI23MapObjectProfileUnkSWWNE8sProfileE kind:bss addr:0x021523a8
@32796 kind:bss addr:0x021523ac
_ZN15ProfileInstanceI23MapObjectProfileUnkSWWNE8sProfileE kind:bss addr:0x021523b8
data_ov070_0215248c kind:bss addr:0x0215248c
_ZGVN15ProfileInstanceI23MapObjectProfileUnkSWEYE8sProfileE kind:bss addr:0x021524b0
@32802 kind:bss addr:0x021524b4
_ZN15ProfileInstanceI23MapObjectProfileUnkSWEYE8sProfileE kind:bss addr:0x021524c0
data_ov070_021524e0 kind:bss addr:0x021524e0
data_ov070_02152594 kind:bss addr:0x02152594
_ZGVN15ProfileInstanceI19ActorProfileUnkTRAPE8sProfileE kind:bss addr:0x021525b4
@33216 kind:bss addr:0x021525b8
_ZN15ProfileInstanceI19ActorProfileUnkTRAPE8sProfileE kind:bss addr:0x021525c4
_ZGVN15ProfileInstanceI23MapObjectProfileUnkDRSTE8sProfileE kind:bss addr:0x0215269c
@32814 kind:bss addr:0x021526a0
_ZN15ProfileInstanceI23MapObjectProfileUnkDRSTE8sProfileE kind:bss addr:0x021526ac
data_ov070_021526e0 kind:bss addr:0x021526e0 ambiguous
data_ov070_02152780 kind:bss addr:0x02152780
_ZGVN15ProfileInstanceI23MapObjectProfileUnkFRWLE8sProfileE kind:bss addr:0x02152784
@32820 kind:bss addr:0x02152790
_ZN15ProfileInstanceI23MapObjectProfileUnkFRWLE8sProfileE kind:bss addr:0x0215279c
data_ov070_02152870 kind:bss addr:0x02152870
_ZGVN15ProfileInstanceI23MapObjectProfileUnkSTSHE8sProfileE kind:bss addr:0x02152894
@32826 kind:bss addr:0x02152898
_ZN15ProfileInstanceI23MapObjectProfileUnkSTSHE8sProfileE kind:bss addr:0x021528a4
_ZGVN15ProfileInstanceI23MapObjectProfileUnkTRLSE8sProfileE kind:bss addr:0x02152978
@32832 kind:bss addr:0x0215297c
_ZN15ProfileInstanceI23MapObjectProfileUnkTRLSE8sProfileE kind:bss addr:0x02152988
_ZGVN15ProfileInstanceI23MapObjectProfileUnkTRLDE8sProfileE kind:bss addr:0x02152a5c
@32838 kind:bss addr:0x02152a60
_ZN15ProfileInstanceI23MapObjectProfileUnkTRLDE8sProfileE kind:bss addr:0x02152a6c
_ZGVN15ProfileInstanceI23MapObjectProfileUnkTRLWE8sProfileE kind:bss addr:0x02152a90
@32844 kind:bss addr:0x02152a94
_ZN15ProfileInstanceI23MapObjectProfileUnkTRLWE8sProfileE kind:bss addr:0x02152aa0
data_ov070_02152ac4 kind:bss addr:0x02152ac4
_ZGVN15ProfileInstanceI23MapObjectProfileUnkPTFLE8sProfileE kind:bss addr:0x02152ac8
@32850 kind:bss addr:0x02152ad4
_ZN15ProfileInstanceI23MapObjectProfileUnkPTFLE8sProfileE kind:bss addr:0x02152ae0
data_ov070_02152b00 kind:bss addr:0x02152b00
data_ov070_02152b24 kind:bss addr:0x02152b24
data_ov070_02152b28 kind:bss addr:0x02152b28
data_ov070_02152b34 kind:bss addr:0x02152b34
_ZN15ProfileInstanceI19ActorProfileUnkRYAWE8sProfileE kind:bss addr:0x02152b44
