func_ov038_02118fc0 kind:function(arm,size=0x1c) addr:0x02118fc0
func_ov038_02118fdc kind:function(arm,size=0xa0) addr:0x02118fdc
func_ov038_0211907c kind:function(arm,size=0x10) addr:0x0211907c
func_ov038_0211908c kind:function(arm,size=0x44) addr:0x0211908c
_ZN19ActorProfileUnkWWFS10GetProfileEv kind:function(arm,size=0xc) addr:0x021190d0
_ZN19ActorProfileUnkWWFS6CreateEv kind:function(arm,size=0x24) addr:0x021190dc
_ZN19ActorProfileUnkWWFSC1Ev kind:function(arm,size=0x4c) addr:0x02119100
_ZN12ActorUnkWWFS19func_ov038_0211914cEv kind:function(arm,size=0x38) addr:0x0211914c
_ZN12ActorUnkWWFS19func_ov038_02119184Ev kind:function(arm,size=0x18) addr:0x02119184
_ZN12ActorUnkWWFSC1Ev kind:function(arm,size=0x27c) addr:0x0211919c
_ZN12ActorUnkWWFS19func_ov038_02119418Ev kind:function(arm,size=0x14) addr:0x02119418
_ZN12ActorUnkWWFS19func_ov038_0211942cEv kind:function(arm,size=0x14) addr:0x0211942c
_ZN12ActorUnkWWFS19func_ov038_02119440Ev kind:function(arm,size=0x14) addr:0x02119440
_ZN12ActorUnkWWFS19func_ov038_02119454Ev kind:function(arm,size=0xa4) addr:0x02119454
_ZN12ActorUnkWWFSD0Ev kind:function(arm,size=0xac) addr:0x021194f8
_ZN12ActorUnkWWFS19func_ov038_021195a4Ev kind:function(arm,size=0x78) addr:0x021195a4
_ZN12ActorUnkWWFS19func_ov038_0211961cEv kind:function(arm,size=0x44) addr:0x0211961c
_ZN12ActorUnkWWFS19func_ov038_02119660Ev kind:function(arm,size=0x50) addr:0x02119660
_ZN12ActorUnkWWFS19func_ov038_021196b0Ev kind:function(arm,size=0x24) addr:0x021196b0
_ZN12ActorUnkWWFS19func_ov038_021196d4Ev kind:function(arm,size=0x2c) addr:0x021196d4
_ZN12ActorUnkWWFS19func_ov038_02119700Ev kind:function(arm,size=0x4c) addr:0x02119700
_ZN12ActorUnkWWFS19func_ov038_0211974cEv kind:function(arm,size=0x34) addr:0x0211974c
_ZN12ActorUnkWWFS19func_ov038_02119780Ev kind:function(arm,size=0x50) addr:0x02119780
_ZN12ActorUnkWWFS19func_ov038_021197d0Ev kind:function(arm,size=0xcc) addr:0x021197d0
_ZN12ActorUnkWWFS19func_ov038_0211989cEv kind:function(arm,size=0x8c) addr:0x0211989c
_ZN12ActorUnkWWFS19func_ov038_02119928Ev kind:function(arm,size=0xe0) addr:0x02119928
_ZN12ActorUnkWWFS19func_ov038_02119a08Ev kind:function(arm,size=0x4c) addr:0x02119a08
_ZN12ActorUnkWWFS19func_ov038_02119a54Ev kind:function(arm,size=0xb4) addr:0x02119a54
_ZN12ActorUnkWWFS19func_ov038_02119b08Ev kind:function(arm,size=0x4e4) addr:0x02119b08
_ZN12ActorUnkWWFS19func_ov038_02119fecEv kind:function(arm,size=0x14c) addr:0x02119fec
_ZN12ActorUnkWWFS19func_ov038_0211a138Ev kind:function(arm,size=0x190) addr:0x0211a138
_ZN12ActorUnkWWFS19func_ov038_0211a2c8Ev kind:function(arm,size=0xe4) addr:0x0211a2c8
_ZN12ActorUnkWWFS19func_ov038_0211a3acEv kind:function(arm,size=0x3c) addr:0x0211a3ac
_ZN12ActorUnkWWFS19func_ov038_0211a3e8Ev kind:function(arm,size=0x70) addr:0x0211a3e8
_ZN12ActorUnkWWFS19func_ov038_0211a458Ev kind:function(arm,size=0x44) addr:0x0211a458
_ZN12ActorUnkWWFS19func_ov038_0211a49cEv kind:function(arm,size=0x70) addr:0x0211a49c
_ZN12ActorUnkWWFS19func_ov038_0211a50cEv kind:function(arm,size=0x28) addr:0x0211a50c
_ZN12ActorUnkWWFS19func_ov038_0211a534Ev kind:function(arm,size=0x138) addr:0x0211a534
_ZN12ActorUnkWWFS19func_ov038_0211a66cEv kind:function(arm,size=0x3c0) addr:0x0211a66c
_ZN12ActorUnkWWFS19func_ov038_0211aa2cEv kind:function(arm,size=0x170) addr:0x0211aa2c
_ZN12ActorUnkWWFS19func_ov038_0211ab9cEv kind:function(arm,size=0x188) addr:0x0211ab9c
_ZN12ActorUnkWWFS19func_ov038_0211ad24Ev kind:function(arm,size=0x1bc) addr:0x0211ad24
_ZN12ActorUnkWWFS19func_ov038_0211aee0Ev kind:function(arm,size=0x1b4) addr:0x0211aee0
_ZN12ActorUnkWWFS19func_ov038_0211b094Ev kind:function(arm,size=0xf8) addr:0x0211b094
_ZN12ActorUnkWWFS19func_ov038_0211b18cEv kind:function(arm,size=0x84) addr:0x0211b18c
_ZN12ActorUnkWWFS19func_ov038_0211b210Ev kind:function(arm,size=0x13c) addr:0x0211b210
_ZN12ActorUnkWWFS19func_ov038_0211b34cEv kind:function(arm,size=0x454) addr:0x0211b34c
_ZN12ActorUnkWWFS19func_ov038_0211b7a0Ev kind:function(arm,size=0x110) addr:0x0211b7a0
_ZN12ActorUnkWWFS19func_ov038_0211b8b0Ev kind:function(arm,size=0x1cc) addr:0x0211b8b0
_ZN12ActorUnkWWFS19func_ov038_0211ba7cEv kind:function(arm,size=0x100) addr:0x0211ba7c
_ZN12ActorUnkWWFS19func_ov038_0211bb7cEv kind:function(arm,size=0x140) addr:0x0211bb7c
_ZN12ActorUnkWWFS19func_ov038_0211bcbcEv kind:function(arm,size=0x118) addr:0x0211bcbc
_ZN12ActorUnkWWFS19func_ov038_0211bdd4Ev kind:function(arm,size=0x138) addr:0x0211bdd4
_ZN12ActorUnkWWFS19func_ov038_0211bf0cEv kind:function(arm,size=0x60) addr:0x0211bf0c
_ZN12ActorUnkWWFS19func_ov038_0211bf6cEv kind:function(arm,size=0x268) addr:0x0211bf6c
_ZN12ActorUnkWWFS19func_ov038_0211c1d4Ev kind:function(arm,size=0x4d8) addr:0x0211c1d4
_ZN12ActorUnkWWFS19func_ov038_0211c6acEv kind:function(arm,size=0x228) addr:0x0211c6ac
_ZN12ActorUnkWWFS19func_ov038_0211c8d4Ev kind:function(arm,size=0xec) addr:0x0211c8d4
_ZN12ActorUnkWWFS19func_ov038_0211c9c0Ev kind:function(arm,size=0xac) addr:0x0211c9c0
_ZN12ActorUnkWWFS19func_ov038_0211ca6cEv kind:function(arm,size=0x4c) addr:0x0211ca6c
_ZN12ActorUnkWWFS19func_ov038_0211cab8Ev kind:function(arm,size=0x28) addr:0x0211cab8
_ZN12ActorUnkWWFSD1Ev kind:function(arm,size=0x1c) addr:0x0211cae0
_ZN12ActorUnkWWFS19func_ov038_0211cafcEv kind:function(arm,size=0x24) addr:0x0211cafc
_ZN12ActorUnkWWFS19func_ov038_0211cb20Ev kind:function(arm,size=0x44) addr:0x0211cb20
_ZN12ActorUnkWWFS19func_ov038_0211cb64Ev kind:function(arm,size=0x124) addr:0x0211cb64
_ZN12ActorUnkWWFS19func_ov038_0211cc88Ev kind:function(arm,size=0x58) addr:0x0211cc88
_ZN12ActorUnkWWFS19func_ov038_0211cce0Ev kind:function(arm,size=0x24) addr:0x0211cce0
_ZN12ActorUnkWWFS19func_ov038_0211cd04Ev kind:function(arm,size=0x2c) addr:0x0211cd04
_ZN12ActorUnkWWFS19func_ov038_0211cd30Ev kind:function(arm,size=0x1c) addr:0x0211cd30
_ZN12ActorUnkWWFS19func_ov038_0211cd4cEv kind:function(arm,size=0x1c) addr:0x0211cd4c
_ZN12ActorUnkWWFS19func_ov038_0211cd68Ev kind:function(arm,size=0x1c) addr:0x0211cd68
_ZN19ActorProfileUnkWWFSD1Ev kind:function(arm,size=0x14) addr:0x0211cd84
_ZN19ActorProfileUnkBLBR10GetProfileEv kind:function(arm,size=0xc) addr:0x0211cd98
_ZN19ActorProfileUnkBLBR6CreateEv kind:function(arm,size=0x24) addr:0x0211cda4
_ZN19ActorProfileUnkBLBRC1Ev kind:function(arm,size=0x58) addr:0x0211cdc8
_ZN12ActorUnkBLBR19func_ov038_0211ce20Ev kind:function(arm,size=0xd8) addr:0x0211ce20
_ZN12ActorUnkBLBRC1Ev kind:function(arm,size=0xd8) addr:0x0211cef8
_ZN12ActorUnkBLBR19func_ov038_0211cfd0Ev kind:function(arm,size=0x100) addr:0x0211cfd0
_ZN12ActorUnkBLBR19func_ov038_0211d0d0Ev kind:function(arm,size=0xf0) addr:0x0211d0d0
_ZN12ActorUnkBLBR19func_ov038_0211d1c0Ev kind:function(arm,size=0x118) addr:0x0211d1c0
_ZN12ActorUnkBLBR19func_ov038_0211d2d8Ev kind:function(arm,size=0x254) addr:0x0211d2d8
_ZN12ActorUnkBLBR19func_ov038_0211d52cEv kind:function(arm,size=0x6b4) addr:0x0211d52c
_ZN12ActorUnkBLBR19func_ov038_0211dbe0Ev kind:function(arm,size=0x74) addr:0x0211dbe0
_ZN12ActorUnkBLBR19func_ov038_0211dc54Ev kind:function(arm,size=0x94) addr:0x0211dc54
_ZN12ActorUnkBLBR19func_ov038_0211dce8Ev kind:function(arm,size=0x9c) addr:0x0211dce8
_ZN12ActorUnkBLBR19func_ov038_0211dd84Ev kind:function(arm,size=0x70) addr:0x0211dd84
_ZN12ActorUnkBLBR19func_ov038_0211ddf4Ev kind:function(arm,size=0x70) addr:0x0211ddf4
_ZN12ActorUnkBLBR19func_ov038_0211de64Ev kind:function(arm,size=0x54) addr:0x0211de64
_ZN12ActorUnkBLBR19func_ov038_0211deb8Ev kind:function(arm,size=0x308) addr:0x0211deb8
_ZN12ActorUnkBLBR19func_ov038_0211e1c0Ev kind:function(arm,size=0xc0) addr:0x0211e1c0
_ZN12ActorUnkBLBR19func_ov038_0211e280Ev kind:function(arm,size=0x30) addr:0x0211e280
_ZN12ActorUnkBLBR19func_ov038_0211e2b0Ev kind:function(arm,size=0x30) addr:0x0211e2b0
_ZN12ActorUnkBLBR19func_ov038_0211e2e0Ev kind:function(arm,size=0x50) addr:0x0211e2e0
_ZN12ActorUnkBLBR19func_ov038_0211e330Ev kind:function(arm,size=0x2c) addr:0x0211e330
_ZN12ActorUnkBLBR19func_ov038_0211e35cEv kind:function(arm,size=0x2c) addr:0x0211e35c
_ZN12ActorUnkBLBR19func_ov038_0211e388Ev kind:function(arm,size=0x2c) addr:0x0211e388
_ZN12ActorUnkBLBRD1Ev kind:function(arm,size=0x30) addr:0x0211e3b4
_ZN12ActorUnkBLBRD0Ev kind:function(arm,size=0x38) addr:0x0211e3e4
_ZN19ActorProfileUnkBLBRD1Ev kind:function(arm,size=0x14) addr:0x0211e41c
_ZN23MapObjectProfileUnkBLSR10GetProfileEv kind:function(arm,size=0xc) addr:0x0211e430
_ZN23MapObjectProfileUnkBLSR6CreateEv kind:function(arm,size=0x24) addr:0x0211e43c
_ZN23MapObjectProfileUnkBLSRC1Ev kind:function(arm,size=0xac) addr:0x0211e460
_ZN16MapObjectUnkBLSRC1Ev kind:function(arm,size=0x3c) addr:0x0211e50c
_ZN16MapObjectUnkBLSR19func_ov038_0211e548Ev kind:function(arm,size=0x158) addr:0x0211e548
_ZN16MapObjectUnkBLSR19func_ov038_0211e6a0Ev kind:function(arm,size=0x4) addr:0x0211e6a0
_ZN16MapObjectUnkBLSR19func_ov038_0211e6a4Ev kind:function(arm,size=0x48) addr:0x0211e6a4
_ZN16MapObjectUnkBLSR19func_ov038_0211e6ecEv kind:function(arm,size=0x28) addr:0x0211e6ec
_ZN16MapObjectUnkBLSRD1Ev kind:function(arm,size=0x20) addr:0x0211e714
_ZN16MapObjectUnkBLSRD0Ev kind:function(arm,size=0x28) addr:0x0211e734
_ZN23MapObjectProfileUnkBLSRD1Ev kind:function(arm,size=0x14) addr:0x0211e75c
_ZN23MapObjectProfileUnkSWBR10GetProfileEv kind:function(arm,size=0xc) addr:0x0211e770
_ZN23MapObjectProfileUnkSWBR6CreateEv kind:function(arm,size=0x24) addr:0x0211e77c
_ZN23MapObjectProfileUnkSWBRC1Ev kind:function(arm,size=0x48) addr:0x0211e7a0
_ZN16MapObjectUnkSWBRC1Ev kind:function(arm,size=0x44) addr:0x0211e7e8
_ZN16MapObjectUnkSWBR19func_ov038_0211e82cEv kind:function(arm,size=0xac) addr:0x0211e82c
_ZN16MapObjectUnkSWBR19func_ov038_0211e8d8Ev kind:function(arm,size=0xa8) addr:0x0211e8d8
_ZN16MapObjectUnkSWBR19func_ov038_0211e980Ev kind:function(arm,size=0x1c) addr:0x0211e980
_ZN16MapObjectUnkSWBR19func_ov038_0211e99cEv kind:function(arm,size=0x20) addr:0x0211e99c
_ZN16MapObjectUnkSWBR19func_ov038_0211e9bcEv kind:function(arm,size=0x30) addr:0x0211e9bc
_ZN16MapObjectUnkSWBRD1Ev kind:function(arm,size=0x20) addr:0x0211e9ec
_ZN16MapObjectUnkSWBRD0Ev kind:function(arm,size=0x28) addr:0x0211ea0c
_ZN23MapObjectProfileUnkSWBRD1Ev kind:function(arm,size=0x14) addr:0x0211ea34
_ZN19ActorProfileUnkBLBL10GetProfileEv kind:function(arm,size=0xc) addr:0x0211ea48
_ZN19ActorProfileUnkBLBL6CreateEv kind:function(arm,size=0x24) addr:0x0211ea54
_ZN19ActorProfileUnkBLBLC1Ev kind:function(arm,size=0x44) addr:0x0211ea78
_ZN12ActorUnkBLBLC1Ev kind:function(arm,size=0x20) addr:0x0211eabc
_ZN12ActorUnkBLBL19func_ov038_0211eadcEv kind:function(arm,size=0x30) addr:0x0211eadc
_ZN12ActorUnkBLBL19func_ov038_0211eb0cEv kind:function(arm,size=0x8) addr:0x0211eb0c
_ZN12ActorUnkBLBL19func_ov038_0211eb14Ev kind:function(arm,size=0x50) addr:0x0211eb14
_ZN12ActorUnkBLBL19func_ov038_0211eb64Ev kind:function(arm,size=0x2c) addr:0x0211eb64
_ZN12ActorUnkBLBL19func_ov038_0211eb90Ev kind:function(arm,size=0x2c) addr:0x0211eb90
_ZN12ActorUnkBLBL19func_ov038_0211ebbcEv kind:function(arm,size=0x2c) addr:0x0211ebbc
_ZN12ActorUnkBLBLD1Ev kind:function(arm,size=0x30) addr:0x0211ebe8
_ZN12ActorUnkBLBLD0Ev kind:function(arm,size=0x38) addr:0x0211ec18
_ZN19ActorProfileUnkBLBLD1Ev kind:function(arm,size=0x14) addr:0x0211ec50
_ZN19ActorProfileUnkGRCF10GetProfileEv kind:function(arm,size=0xc) addr:0x0211ec64
_ZN19ActorProfileUnkGRCF6CreateEv kind:function(arm,size=0x24) addr:0x0211ec70
_ZN19ActorProfileUnkGRCFC1Ev kind:function(arm,size=0x28) addr:0x0211ec94
_ZN12ActorUnkGRCFC1Ev kind:function(arm,size=0x20) addr:0x0211ecbc
_ZN12ActorUnkGRCF19func_ov038_0211ecdcEv kind:function(arm,size=0x5c) addr:0x0211ecdc
_ZN12ActorUnkGRCF19func_ov038_0211ed38Ev kind:function(arm,size=0xfc) addr:0x0211ed38
_ZN12ActorUnkGRCFD1Ev kind:function(arm,size=0x14) addr:0x0211ee34
_ZN12ActorUnkGRCFD0Ev kind:function(arm,size=0x1c) addr:0x0211ee48
_ZN19ActorProfileUnkGRCFD1Ev kind:function(arm,size=0x14) addr:0x0211ee64
_ZN23MapObjectProfileUnkFSSN10GetProfileEv kind:function(arm,size=0xc) addr:0x0211ee78
_ZN23MapObjectProfileUnkFSSN6CreateEv kind:function(arm,size=0x24) addr:0x0211ee84
_ZN23MapObjectProfileUnkFSSNC1Ev kind:function(arm,size=0x34) addr:0x0211eea8
_ZN16MapObjectUnkFSSNC1Ev kind:function(arm,size=0x2c) addr:0x0211eedc
_ZN16MapObjectUnkFSSN19func_ov038_0211ef08Ev kind:function(arm,size=0x80) addr:0x0211ef08
_ZN16MapObjectUnkFSSN19func_ov038_0211ef88Ev kind:function(arm,size=0x64) addr:0x0211ef88
_ZN16MapObjectUnkFSSN19func_ov038_0211efecEv kind:function(arm,size=0x50) addr:0x0211efec
_ZN16MapObjectUnkFSSN19func_ov038_0211f03cEv kind:function(arm,size=0x8) addr:0x0211f03c
_ZN16MapObjectUnkFSSND1Ev kind:function(arm,size=0x20) addr:0x0211f044
_ZN16MapObjectUnkFSSND0Ev kind:function(arm,size=0x28) addr:0x0211f064
_ZN23MapObjectProfileUnkFSSND1Ev kind:function(arm,size=0x14) addr:0x0211f08c
_ZN19ActorProfileUnkPLSR10GetProfileEv kind:function(arm,size=0xc) addr:0x0211f0a0
_ZN19ActorProfileUnkPLSR6CreateEv kind:function(arm,size=0x24) addr:0x0211f0ac
_ZN19ActorProfileUnkPLSRC1Ev kind:function(arm,size=0x44) addr:0x0211f0d0
_ZN12ActorUnkPLSRC1Ev kind:function(arm,size=0x174) addr:0x0211f114
_ZN12ActorUnkPLSR19func_ov038_0211f288Ev kind:function(arm,size=0x4b8) addr:0x0211f288
_ZN12ActorUnkPLSR19func_ov038_0211f740Ev kind:function(arm,size=0x1c8) addr:0x0211f740
_ZN12ActorUnkPLSR19func_ov038_0211f908Ev kind:function(arm,size=0x3e8) addr:0x0211f908
_ZN12ActorUnkPLSR19func_ov038_0211fcf0Ev kind:function(arm,size=0x788) addr:0x0211fcf0
_ZN12ActorUnkPLSR19func_ov038_02120478Ev kind:function(arm,size=0x1dc) addr:0x02120478
_ZN12ActorUnkPLSR19func_ov038_02120654Ev kind:function(arm,size=0xd8) addr:0x02120654
_ZN12ActorUnkPLSR19func_ov038_0212072cEv kind:function(arm,size=0xf8) addr:0x0212072c
_ZN12ActorUnkPLSR19func_ov038_02120824Ev kind:function(arm,size=0x70) addr:0x02120824
_ZN12ActorUnkPLSR19func_ov038_02120894Ev kind:function(arm,size=0x30) addr:0x02120894
_ZN12ActorUnkPLSR19func_ov038_021208c4Ev kind:function(arm,size=0xc) addr:0x021208c4
_ZN12ActorUnkPLSRD1Ev kind:function(arm,size=0x40) addr:0x021208d0
_ZN12ActorUnkPLSRD0Ev kind:function(arm,size=0x48) addr:0x02120910
_ZN19ActorProfileUnkPLSRD1Ev kind:function(arm,size=0x28) addr:0x02120958
data_ov038_021209b8 kind:data(any) addr:0x021209b8 ambiguous
data_ov038_021209cc kind:data(any) addr:0x021209cc
data_ov038_021209dc kind:data(any) addr:0x021209dc
data_ov038_021209ec kind:data(any) addr:0x021209ec
data_ov038_021209fc kind:data(any) addr:0x021209fc
data_ov038_02120a04 kind:data(any) addr:0x02120a04
data_ov038_02120a14 kind:data(any) addr:0x02120a14
data_ov038_02120a24 kind:data(any) addr:0x02120a24
data_ov038_02120a34 kind:data(any) addr:0x02120a34
data_ov038_02120a64 kind:data(any) addr:0x02120a64
data_ov038_02120a6c kind:data(any) addr:0x02120a6c ambiguous
__sinit_ActorUnkWWFS.cpp kind:function(arm,size=0x90) addr:0x02120a74
__sinit_ActorUnkBLBR.cpp kind:function(arm,size=0x50) addr:0x02120b04
__sinit_MapObjectUnkBLSR.cpp kind:function(arm,size=0x50) addr:0x02120b54
__sinit_MapObjectUnkSWBR.cpp kind:function(arm,size=0x50) addr:0x02120ba4
__sinit_ActorUnkBLBL.cpp kind:function(arm,size=0x50) addr:0x02120bf4
__sinit_ActorUnkGRCF.cpp kind:function(arm,size=0x50) addr:0x02120c44
__sinit_MapObjectUnkFSSN.cpp kind:function(arm,size=0x50) addr:0x02120c94
__sinit_ActorUnkPLSR.cpp kind:function(arm,size=0x50) addr:0x02120ce4
.p__sinit_ActorUnkWWFS.cpp kind:data(word) addr:0x02120d34
.p__sinit_ActorUnkBLBR.cpp kind:data(word) addr:0x02120d38
.p__sinit_MapObjectUnkBLSR.cpp kind:data(word) addr:0x02120d3c
.p__sinit_MapObjectUnkSWBR.cpp kind:data(word) addr:0x02120d40
.p__sinit_ActorUnkBLBL.cpp kind:data(word) addr:0x02120d44
.p__sinit_ActorUnkGRCF.cpp kind:data(word) addr:0x02120d48
.p__sinit_MapObjectUnkFSSN.cpp kind:data(word) addr:0x02120d4c
.p__sinit_ActorUnkPLSR.cpp kind:data(word) addr:0x02120d50
data_ov038_02120d60 kind:data(any) addr:0x02120d60
data_ov038_02120d80 kind:data(any) addr:0x02120d80 ambiguous
data_ov038_02120d8c kind:data(any) addr:0x02120d8c
data_ov038_02120da4 kind:data(any) addr:0x02120da4
_ZTV19data_ov038_02120db8 kind:data(any) addr:0x02120db8
data_ov038_02120de4 kind:data(any) addr:0x02120de4
data_ov038_02120e10 kind:data(any) addr:0x02120e10
_ZTV19data_ov038_02120e54 kind:data(any) addr:0x02120e54
_ZTV19data_ov038_02120e88 kind:data(any) addr:0x02120e88 ambiguous
data_ov038_02120eb4 kind:data(any) addr:0x02120eb4
data_ov038_02120ecc kind:data(any) addr:0x02120ecc
data_ov038_02120ee4 kind:data(any) addr:0x02120ee4
data_ov038_02120efc kind:data(any) addr:0x02120efc
data_ov038_02120f14 kind:data(any) addr:0x02120f14
data_ov038_02120f2c kind:data(any) addr:0x02120f2c
data_ov038_02120f44 kind:data(any) addr:0x02120f44
data_ov038_02120f5c kind:data(any) addr:0x02120f5c
data_ov038_02120f74 kind:data(any) addr:0x02120f74
data_ov038_02120f8c kind:data(any) addr:0x02120f8c
_ZTV19data_ov038_0212106c kind:data(any) addr:0x0212106c
data_ov038_02121098 kind:data(any) addr:0x02121098
_ZTV19data_ov038_021210b8 kind:data(any) addr:0x021210b8
data_ov038_02121138 kind:data(any) addr:0x02121138
data_ov038_02121154 kind:data(any) addr:0x02121154
data_ov038_02121170 kind:data(any) addr:0x02121170
data_ov038_02121198 kind:data(any) addr:0x02121198
data_ov038_021211d8 kind:data(any) addr:0x021211d8
data_ov038_021211f4 kind:data(any) addr:0x021211f4
data_ov038_021211f8 kind:data(any) addr:0x021211f8 ambiguous
_ZTV19data_ov038_0212122c kind:data(any) addr:0x0212122c
_ZTV19data_ov038_02121250 kind:data(any) addr:0x02121250
_ZTV19data_ov038_021212c8 kind:data(any) addr:0x021212c8
_ZTV19data_ov038_021212ec kind:data(any) addr:0x021212ec
data_ov038_02121354 kind:data(any) addr:0x02121354
data_ov038_02121370 kind:data(any) addr:0x02121370
data_ov038_021213b0 kind:data(any) addr:0x021213b0
data_ov038_021213b8 kind:data(any) addr:0x021213b8
data_ov038_021213c0 kind:data(any) addr:0x021213c0
data_ov038_021213c8 kind:data(any) addr:0x021213c8
_ZTV19data_ov038_021213d0 kind:data(any) addr:0x021213d0
data_ov038_021213fc kind:data(any) addr:0x021213fc
_ZTV19data_ov038_02121418 kind:data(any) addr:0x02121418
data_ov038_02121480 kind:bss addr:0x02121480
data_ov038_02121484 kind:bss addr:0x02121484
_ZGVN15ProfileInstanceI19ActorProfileUnkWWFSE8sProfileE kind:bss addr:0x02121488
@11363 kind:bss addr:0x02121490
_ZN15ProfileInstanceI19ActorProfileUnkWWFSE8sProfileE kind:bss addr:0x0212149c
data_ov038_021214a0 kind:bss addr:0x021214a0
_ZGVN15ProfileInstanceI19ActorProfileUnkBLBRE8sProfileE kind:bss addr:0x02121574
@11369 kind:bss addr:0x02121578
_ZN15ProfileInstanceI19ActorProfileUnkBLBRE8sProfileE kind:bss addr:0x02121584
_ZGVN15ProfileInstanceI23MapObjectProfileUnkBLSRE8sProfileE kind:bss addr:0x0212165c
@11251 kind:bss addr:0x02121660
_ZN15ProfileInstanceI23MapObjectProfileUnkBLSRE8sProfileE kind:bss addr:0x0212166c
data_ov038_0212171c kind:bss addr:0x0212171c ambiguous
data_ov038_02121740 kind:bss addr:0x02121740
_ZGVN15ProfileInstanceI23MapObjectProfileUnkSWBRE8sProfileE kind:bss addr:0x02121760
@11257 kind:bss addr:0x02121764
_ZN15ProfileInstanceI23MapObjectProfileUnkSWBRE8sProfileE kind:bss addr:0x02121770
_ZGVN15ProfileInstanceI19ActorProfileUnkBLBLE8sProfileE kind:bss addr:0x02121844
@11387 kind:bss addr:0x02121848
_ZN15ProfileInstanceI19ActorProfileUnkBLBLE8sProfileE kind:bss addr:0x02121854
_ZGVN15ProfileInstanceI19ActorProfileUnkGRCFE8sProfileE kind:bss addr:0x0212192c
@11393 kind:bss addr:0x02121930
_ZN15ProfileInstanceI19ActorProfileUnkGRCFE8sProfileE kind:bss addr:0x0212193c
_ZGVN15ProfileInstanceI23MapObjectProfileUnkFSSNE8sProfileE kind:bss addr:0x02121978
@11275 kind:bss addr:0x0212197c
_ZN15ProfileInstanceI23MapObjectProfileUnkFSSNE8sProfileE kind:bss addr:0x02121988
_ZGVN15ProfileInstanceI19ActorProfileUnkPLSRE8sProfileE kind:bss addr:0x02121a5c
@11405 kind:bss addr:0x02121a60
_ZN15ProfileInstanceI19ActorProfileUnkPLSRE8sProfileE kind:bss addr:0x02121a6c
data_ov038_02121b44 kind:bss addr:0x02121b44
data_ov038_02121b58 kind:bss addr:0x02121b58
