_ZN19ActorProfileUnkDSDS10GetProfileEv kind:function(arm,size=0xc) addr:0x021564a0
_ZN19ActorProfileUnkDSDS6CreateEv kind:function(arm,size=0x24) addr:0x021564ac
_ZN19ActorProfileUnkDSDSC1Ev kind:function(arm,size=0x28) addr:0x021564d0
_ZN12ActorUnkDSDSC1Ev kind:function(arm,size=0x20) addr:0x021564f8
_ZN12ActorUnkDSDS19func_ov086_021544b8Ev kind:function(arm,size=0x50) addr:0x02156518
_ZN12ActorUnkDSDSD1Ev kind:function(arm,size=0x20) addr:0x02156568
_ZN12ActorUnkDSDSD0Ev kind:function(arm,size=0x28) addr:0x02156588
_ZN19ActorProfileUnkDSDSD1Ev kind:function(arm,size=0x14) addr:0x021565b0
_ZN19ActorProfileUnkHAMN10GetProfileEv kind:function(arm,size=0xc) addr:0x021565c4
_ZN19ActorProfileUnkHAMN6CreateEv kind:function(arm,size=0x24) addr:0x021565d0
_ZN19ActorProfileUnkHAMNC1Ev kind:function(arm,size=0x5c) addr:0x021565f4
_ZN12ActorUnkHAMN19func_ov086_021545f0Ev kind:function(arm,size=0x50) addr:0x02156650
_ZN12ActorUnkHAMN19func_ov086_02154640Ev kind:function(arm,size=0x78) addr:0x021566a0
_ZN12ActorUnkHAMN19func_ov086_021546b8Ev kind:function(arm,size=0x3c) addr:0x02156718
_ZN12ActorUnkHAMN19func_ov086_021546f4Ev kind:function(arm,size=0x20) addr:0x02156754
_ZN12ActorUnkHAMN19func_ov086_02154714Ev kind:function(arm,size=0x30) addr:0x02156774
_ZN12ActorUnkHAMN19func_ov086_02154744Ev kind:function(arm,size=0x104) addr:0x021567a4
_ZN12ActorUnkHAMNC1Ev kind:function(arm,size=0x248) addr:0x021568a8
_ZN12ActorUnkHAMN19func_ov086_02154a90Ev kind:function(arm,size=0x14) addr:0x02156af0
_ZN12ActorUnkHAMN19func_ov086_02154aa4Ev kind:function(arm,size=0x14) addr:0x02156b04
_ZN12ActorUnkHAMN19func_ov086_02154ab8Ev kind:function(arm,size=0x14) addr:0x02156b18
_ZN12ActorUnkHAMN19func_ov086_02154accEv kind:function(arm,size=0x14) addr:0x02156b2c
_ZN12ActorUnkHAMN19func_ov086_02154ae0Ev kind:function(arm,size=0x14) addr:0x02156b40
_ZN12ActorUnkHAMND1Ev kind:function(arm,size=0x50) addr:0x02156b54
_ZN12ActorUnkHAMND0Ev kind:function(arm,size=0x58) addr:0x02156ba4
_ZN12ActorUnkHAMN19func_ov086_02154b9cEv kind:function(arm,size=0xfc) addr:0x02156bfc
_ZN12ActorUnkHAMN19func_ov086_02154c98Ev kind:function(arm,size=0x38) addr:0x02156cf8
_ZN12ActorUnkHAMN19func_ov086_02154cd0Ev kind:function(arm,size=0x58) addr:0x02156d30
_ZN12ActorUnkHAMN19func_ov086_02154d28Ev kind:function(arm,size=0x330) addr:0x02156d88
_ZN12ActorUnkHAMN19func_ov086_02155058Ev kind:function(arm,size=0x80) addr:0x021570b8
_ZN12ActorUnkHAMN19func_ov086_021550d8Ev kind:function(arm,size=0x4c) addr:0x02157138
_ZN12ActorUnkHAMN19func_ov086_02155124Ev kind:function(arm,size=0x114) addr:0x02157184
_ZN12ActorUnkHAMN19func_ov086_02155238Ev kind:function(arm,size=0xb0) addr:0x02157298
_ZN12ActorUnkHAMN19func_ov086_021552e8Ev kind:function(arm,size=0x64) addr:0x02157348
_ZN12ActorUnkHAMN19func_ov086_0215534cEv kind:function(arm,size=0xc8) addr:0x021573ac
_ZN12ActorUnkHAMN19func_ov086_02155414Ev kind:function(arm,size=0x7c) addr:0x02157474
_ZN12ActorUnkHAMN19func_ov086_02155490Ev kind:function(arm,size=0x48) addr:0x021574f0
_ZN12ActorUnkHAMN19func_ov086_021554d8Ev kind:function(arm,size=0x94) addr:0x02157538
_ZN12ActorUnkHAMN19func_ov086_0215556cEv kind:function(arm,size=0x90) addr:0x021575cc
_ZN12ActorUnkHAMN19func_ov086_021555fcEv kind:function(arm,size=0x34) addr:0x0215765c
_ZN12ActorUnkHAMN19func_ov086_02155630Ev kind:function(arm,size=0xc8) addr:0x02157690
_ZN12ActorUnkHAMN19func_ov086_021556f8Ev kind:function(arm,size=0x104) addr:0x02157758
_ZN12ActorUnkHAMN19func_ov086_021557fcEv kind:function(arm,size=0x88) addr:0x0215785c
_ZN12ActorUnkHAMN19func_ov086_02155884Ev kind:function(arm,size=0x4c) addr:0x021578e4
_ZN12ActorUnkHAMN19func_ov086_021558d0Ev kind:function(arm,size=0x6c) addr:0x02157930
_ZN12ActorUnkHAMN19func_ov086_0215593cEv kind:function(arm,size=0x1f0) addr:0x0215799c
_ZN12ActorUnkHAMN19func_ov086_02155b2cEv kind:function(arm,size=0xa0) addr:0x02157b8c
_ZN12ActorUnkHAMN19func_ov086_02155bccEv kind:function(arm,size=0x74) addr:0x02157c2c
_ZN12ActorUnkHAMN19func_ov086_02155c40Ev kind:function(arm,size=0x74) addr:0x02157ca0
_ZN12ActorUnkHAMN19func_ov086_02155cb4Ev kind:function(arm,size=0x34) addr:0x02157d14
_ZN12ActorUnkHAMN19func_ov086_02155ce8Ev kind:function(arm,size=0x74) addr:0x02157d48
_ZN12ActorUnkHAMN19func_ov086_02155d5cEv kind:function(arm,size=0x34) addr:0x02157dbc
_ZN12ActorUnkHAMN19func_ov086_02155d90Ev kind:function(arm,size=0x15c) addr:0x02157df0
_ZN12ActorUnkHAMN19func_ov086_02155eecEv kind:function(arm,size=0x128) addr:0x02157f4c
_ZN12ActorUnkHAMN19func_ov086_02156014Ev kind:function(arm,size=0x9c) addr:0x02158074
_ZN12ActorUnkHAMN19func_ov086_021560b0Ev kind:function(arm,size=0x34) addr:0x02158110
_ZN12ActorUnkHAMN19func_ov086_021560e4Ev kind:function(arm,size=0x104) addr:0x02158144
_ZN12ActorUnkHAMN19func_ov086_021561e8Ev kind:function(arm,size=0xe4) addr:0x02158248
_ZN12ActorUnkHAMN19func_ov086_021562ccEv kind:function(arm,size=0x9c) addr:0x0215832c
_ZN12ActorUnkHAMN19func_ov086_02156368Ev kind:function(arm,size=0x2c) addr:0x021583c8
_ZN12ActorUnkHAMN19func_ov086_02156394Ev kind:function(arm,size=0x58) addr:0x021583f4
_ZN12ActorUnkHAMN19func_ov086_021563ecEv kind:function(arm,size=0x88) addr:0x0215844c
_ZN12ActorUnkHAMN19func_ov086_02156474Ev kind:function(arm,size=0x24) addr:0x021584d4
_ZN12ActorUnkHAMN19func_ov086_02156498Ev kind:function(arm,size=0x154) addr:0x021584f8
_ZN12ActorUnkHAMN19func_ov086_021565ecEv kind:function(arm,size=0x178) addr:0x0215864c
_ZN12ActorUnkHAMN19func_ov086_02156764Ev kind:function(arm,size=0x198) addr:0x021587c4
_ZN12ActorUnkHAMN19func_ov086_021568fcEv kind:function(arm,size=0x13c) addr:0x0215895c
_ZN12ActorUnkHAMN19func_ov086_02156a38Ev kind:function(arm,size=0x48) addr:0x02158a98
_ZN12ActorUnkHAMN19func_ov086_02156a80Ev kind:function(arm,size=0x8c) addr:0x02158ae0
_ZN12ActorUnkHAMN19func_ov086_02156b0cEv kind:function(arm,size=0x94) addr:0x02158b6c
_ZN12ActorUnkHAMN19func_ov086_02156ba0Ev kind:function(arm,size=0xa0) addr:0x02158c00
_ZN12ActorUnkHAMN19func_ov086_02156c40Ev kind:function(arm,size=0x48) addr:0x02158ca0
_ZN12ActorUnkHAMN19func_ov086_02156c88Ev kind:function(arm,size=0x6c) addr:0x02158ce8
_ZN12ActorUnkHAMN19func_ov086_02156cf4Ev kind:function(arm,size=0x110) addr:0x02158d54
_ZN12ActorUnkHAMN19func_ov086_02156e04Ev kind:function(arm,size=0x14) addr:0x02158e64
_ZN12ActorUnkHAMN19func_ov086_02156e18Ev kind:function(arm,size=0xec) addr:0x02158e78
_ZN12ActorUnkHAMN19func_ov086_02156f04Ev kind:function(arm,size=0x914) addr:0x02158f64
_ZN12ActorUnkHAMN19func_ov086_02157818Ev kind:function(arm,size=0xcc) addr:0x02159878
_ZN12ActorUnkHAMN19func_ov086_021578e4Ev kind:function(arm,size=0x2c) addr:0x02159944
_ZN12ActorUnkHAMN19func_ov086_02157910Ev kind:function(arm,size=0x68) addr:0x02159970
_ZN12ActorUnkHAMN19func_ov086_02157978Ev kind:function(arm,size=0x30) addr:0x021599d8
_ZN12ActorUnkHAMN19func_ov086_021579a8Ev kind:function(arm,size=0x40) addr:0x02159a08
_ZN12ActorUnkHAMN19func_ov086_021579e8Ev kind:function(arm,size=0x4c) addr:0x02159a48
_ZN12ActorUnkHAMN19func_ov086_02157a34Ev kind:function(arm,size=0x80) addr:0x02159a94
_ZN12ActorUnkHAMN19func_ov086_02157ab4Ev kind:function(arm,size=0x80) addr:0x02159b14
_ZN12ActorUnkHAMN19func_ov086_02157b34Ev kind:function(arm,size=0x60) addr:0x02159b94
_ZN12ActorUnkHAMN19func_ov086_02157b94Ev kind:function(arm,size=0x20) addr:0x02159bf4
_ZN12ActorUnkHAMN19func_ov086_02157bb4Ev kind:function(arm,size=0x18) addr:0x02159c14
_ZN12ActorUnkHAMN19func_ov086_02157bccEv kind:function(arm,size=0xc) addr:0x02159c2c
_ZN12ActorUnkHAMN19func_ov086_02157bd8Ev kind:function(arm,size=0x44) addr:0x02159c38
_ZN12ActorUnkHAMN19func_ov086_02157c1cEv kind:function(arm,size=0x114) addr:0x02159c7c
_ZN12ActorUnkHAMN19func_ov086_02157d30Ev kind:function(arm,size=0xb8) addr:0x02159d90
_ZN12ActorUnkHAMN19func_ov086_02157de8Ev kind:function(arm,size=0xa8) addr:0x02159e48
_ZN12ActorUnkHAMN19func_ov086_02157e90Ev kind:function(arm,size=0xb4) addr:0x02159ef0
_ZN12ActorUnkHAMN19func_ov086_02157f44Ev kind:function(arm,size=0x24) addr:0x02159fa4
_ZN12ActorUnkHAMN19func_ov086_02157f68Ev kind:function(arm,size=0x10) addr:0x02159fc8
_ZN12ActorUnkHAMN19func_ov086_02157f78Ev kind:function(arm,size=0x8) addr:0x02159fd8
_ZN12ActorUnkHAMN19func_ov086_02157f80Ev kind:function(arm,size=0x24) addr:0x02159fe0
_ZN12ActorUnkHAMN19func_ov086_02157fa4Ev kind:function(arm,size=0x2c) addr:0x0215a004
_ZN12ActorUnkHAMN19func_ov086_02157fd0Ev kind:function(arm,size=0x1c) addr:0x0215a030
_ZN12ActorUnkHAMN19func_ov086_02157fecEv kind:function(arm,size=0x1c) addr:0x0215a04c
_ZN12ActorUnkHAMN19func_ov086_02158008Ev kind:function(arm,size=0x1c) addr:0x0215a068
_ZN12ActorUnkHAMN19func_ov086_02158024Ev kind:function(arm,size=0x1c) addr:0x0215a084
_ZN12ActorUnkHAMN19func_ov086_02158040Ev kind:function(arm,size=0x1c) addr:0x0215a0a0
_ZN19ActorProfileUnkHAMND1Ev kind:function(arm,size=0x14) addr:0x0215a0bc
_ZN19ActorProfileUnkOCTG10GetProfileEv kind:function(arm,size=0xc) addr:0x0215a0d0
_ZN19ActorProfileUnkOCTG6CreateEv kind:function(arm,size=0x24) addr:0x0215a0dc
_ZN19ActorProfileUnkOCTGC1Ev kind:function(arm,size=0x50) addr:0x0215a100
_ZN12ActorUnkOCTG19func_ov086_021580f0Ev kind:function(arm,size=0x30) addr:0x0215a150
_ZN12ActorUnkOCTG19func_ov086_02158120Ev kind:function(arm,size=0x24) addr:0x0215a180
_ZN12ActorUnkOCTG19func_ov086_02158144Ev kind:function(arm,size=0xd0) addr:0x0215a1a4
_ZN12ActorUnkOCTG19func_ov086_02158214Ev kind:function(arm,size=0x4c) addr:0x0215a274
_ZN12ActorUnkOCTG19func_ov086_02158260Ev kind:function(arm,size=0x38) addr:0x0215a2c0
_ZN12ActorUnkOCTG19func_ov086_02158298Ev kind:function(arm,size=0x28) addr:0x0215a2f8
_ZN12ActorUnkOCTGC1Ev kind:function(arm,size=0x1f8) addr:0x0215a320
_ZN12ActorUnkOCTG19func_ov086_021584b8Ev kind:function(arm,size=0x14) addr:0x0215a518
_ZN12ActorUnkOCTG19func_ov086_021584ccEv kind:function(arm,size=0xa0) addr:0x0215a52c
_ZN12ActorUnkOCTGD0Ev kind:function(arm,size=0xa8) addr:0x0215a5cc
_ZN12ActorUnkOCTG19func_ov086_02158614Ev kind:function(arm,size=0x70) addr:0x0215a674
_ZN12ActorUnkOCTG19func_ov086_02158684Ev kind:function(arm,size=0x30) addr:0x0215a6e4
_ZN12ActorUnkOCTG19func_ov086_021586b4Ev kind:function(arm,size=0x48) addr:0x0215a714
_ZN12ActorUnkOCTG19func_ov086_021586fcEv kind:function(arm,size=0x9ac) addr:0x0215a75c
_ZN12ActorUnkOCTG19func_ov086_021590a8Ev kind:function(arm,size=0x5c) addr:0x0215b108
_ZN12ActorUnkOCTG19func_ov086_02159104Ev kind:function(arm,size=0xe8) addr:0x0215b164
_ZN12ActorUnkOCTG19func_ov086_021591ecEv kind:function(arm,size=0x6c) addr:0x0215b24c
_ZN12ActorUnkOCTG19func_ov086_02159258Ev kind:function(arm,size=0x88) addr:0x0215b2b8
_ZN12ActorUnkOCTG19func_ov086_021592e0Ev kind:function(arm,size=0x74) addr:0x0215b340
_ZN12ActorUnkOCTG19func_ov086_02159354Ev kind:function(arm,size=0x110) addr:0x0215b3b4
_ZN12ActorUnkOCTG19func_ov086_02159464Ev kind:function(arm,size=0x118) addr:0x0215b4c4
_ZN12ActorUnkOCTG19func_ov086_0215957cEv kind:function(arm,size=0x110) addr:0x0215b5dc
_ZN12ActorUnkOCTG19func_ov086_0215968cEv kind:function(arm,size=0x150) addr:0x0215b6ec
_ZN12ActorUnkOCTG19func_ov086_021597dcEv kind:function(arm,size=0x4a8) addr:0x0215b83c
_ZN12ActorUnkOCTG19func_ov086_02159c84Ev kind:function(arm,size=0xa0) addr:0x0215bce4
_ZN12ActorUnkOCTG19func_ov086_02159d24Ev kind:function(arm,size=0xd0) addr:0x0215bd84
_ZN12ActorUnkOCTG19func_ov086_02159df4Ev kind:function(arm,size=0xac) addr:0x0215be54
_ZN12ActorUnkOCTG19func_ov086_02159ea0Ev kind:function(arm,size=0xd0) addr:0x0215bf00
_ZN12ActorUnkOCTG19func_ov086_02159f70Ev kind:function(arm,size=0x4) addr:0x0215bfd0
_ZN12ActorUnkOCTG19func_ov086_02159f74Ev kind:function(arm,size=0xbc) addr:0x0215bfd4
_ZN12ActorUnkOCTG19func_ov086_0215a030Ev kind:function(arm,size=0x94) addr:0x0215c090
_ZN12ActorUnkOCTG19func_ov086_0215a0c4Ev kind:function(arm,size=0x3ac) addr:0x0215c124
_ZN12ActorUnkOCTG19func_ov086_0215a470Ev kind:function(arm,size=0xb0) addr:0x0215c4d0
_ZN12ActorUnkOCTG19func_ov086_0215a520Ev kind:function(arm,size=0x1b4) addr:0x0215c580
_ZN12ActorUnkOCTG19func_ov086_0215a6d4Ev kind:function(arm,size=0x104) addr:0x0215c734
_ZN12ActorUnkOCTG19func_ov086_0215a7d8Ev kind:function(arm,size=0xbc) addr:0x0215c838
_ZN12ActorUnkOCTG19func_ov086_0215a894Ev kind:function(arm,size=0x78) addr:0x0215c8f4
_ZN12ActorUnkOCTG19func_ov086_0215a90cEv kind:function(arm,size=0x84) addr:0x0215c96c
_ZN12ActorUnkOCTG19func_ov086_0215a990Ev kind:function(arm,size=0xa0) addr:0x0215c9f0
_ZN12ActorUnkOCTG19func_ov086_0215aa30Ev kind:function(arm,size=0x11c) addr:0x0215ca90
_ZN12ActorUnkOCTG19func_ov086_0215ab4cEv kind:function(arm,size=0x8c) addr:0x0215cbac
_ZN12ActorUnkOCTG19func_ov086_0215abd8Ev kind:function(arm,size=0xac) addr:0x0215cc38
_ZN12ActorUnkOCTG19func_ov086_0215ac84Ev kind:function(arm,size=0x90) addr:0x0215cce4
_ZN12ActorUnkOCTG19func_ov086_0215ad14Ev kind:function(arm,size=0x2c) addr:0x0215cd74
_ZN12ActorUnkOCTG19func_ov086_0215ad40Ev kind:function(arm,size=0x94) addr:0x0215cda0
_ZN12ActorUnkOCTG19func_ov086_0215add4Ev kind:function(arm,size=0x10) addr:0x0215ce34
_ZN12ActorUnkOCTG19func_ov086_0215ade4Ev kind:function(arm,size=0x30) addr:0x0215ce44
_ZN12ActorUnkOCTG19func_ov086_0215ae14Ev kind:function(arm,size=0x84) addr:0x0215ce74
_ZN12ActorUnkOCTG19func_ov086_0215ae98Ev kind:function(arm,size=0x90) addr:0x0215cef8
_ZN12ActorUnkOCTG19func_ov086_0215af28Ev kind:function(arm,size=0x4c) addr:0x0215cf88
_ZN12ActorUnkOCTG19func_ov086_0215af74Ev kind:function(arm,size=0x1c) addr:0x0215cfd4
_ZN19ActorProfileUnkOCTGD1Ev kind:function(arm,size=0x14) addr:0x0215cff0
_ZN19ActorProfileUnkOCGS10GetProfileEv kind:function(arm,size=0xc) addr:0x0215d004
_ZN19ActorProfileUnkOCGS6CreateEv kind:function(arm,size=0x24) addr:0x0215d010
_ZN19ActorProfileUnkOCGSC1Ev kind:function(arm,size=0x54) addr:0x0215d034
_ZN12ActorUnkOCGSC1Ev kind:function(arm,size=0xd4) addr:0x0215d088
_ZN12ActorUnkOCGS19func_ov086_0215b0fcEv kind:function(arm,size=0x14) addr:0x0215d15c
_ZN12ActorUnkOCGS19func_ov086_0215b110Ev kind:function(arm,size=0x84) addr:0x0215d170
_ZN12ActorUnkOCGS19func_ov086_0215b194Ev kind:function(arm,size=0x254) addr:0x0215d1f4
_ZN12ActorUnkOCGS19func_ov086_0215b3e8Ev kind:function(arm,size=0x11c) addr:0x0215d448
_ZN12ActorUnkOCGS19func_ov086_0215b504Ev kind:function(arm,size=0xa4) addr:0x0215d564
_ZN12ActorUnkOCGS19func_ov086_0215b5a8Ev kind:function(arm,size=0x48) addr:0x0215d608
_ZN12ActorUnkOCGS19func_ov086_0215b5f0Ev kind:function(arm,size=0x38) addr:0x0215d650
_ZN12ActorUnkOCGS19func_ov086_0215b628Ev kind:function(arm,size=0xcc) addr:0x0215d688
_ZN12ActorUnkOCGS19func_ov086_0215b6f4Ev kind:function(arm,size=0x3c) addr:0x0215d754
_ZN12ActorUnkOCGS19func_ov086_0215b730Ev kind:function(arm,size=0x4c) addr:0x0215d790
_ZN12ActorUnkOCGSD0Ev kind:function(arm,size=0x1c) addr:0x0215d7dc
_ZN12ActorUnkOCGSD1Ev kind:function(arm,size=0x28) addr:0x0215d7f8
_ZN12ActorUnkOCGS19func_ov086_0215b7c0Ev kind:function(arm,size=0x30) addr:0x0215d820
_ZN19ActorProfileUnkOCGSD1Ev kind:function(arm,size=0x14) addr:0x0215d850
_ZN19ActorProfileUnkEFSC10GetProfileEv kind:function(arm,size=0xc) addr:0x0215d864
_ZN19ActorProfileUnkEFSC6CreateEv kind:function(arm,size=0x24) addr:0x0215d870
_ZN19ActorProfileUnkEFSCC1Ev kind:function(arm,size=0x28) addr:0x0215d894
_ZN12ActorUnkEFSC19func_ov086_0215b85cEv kind:function(arm,size=0x14) addr:0x0215d8bc
_ZN12ActorUnkEFSCC1Ev kind:function(arm,size=0xfc) addr:0x0215d8d0
_ZN12ActorUnkEFSC19func_ov086_0215b96cEv kind:function(arm,size=0x68) addr:0x0215d9cc
_ZN12ActorUnkEFSC19func_ov086_0215b9d4Ev kind:function(arm,size=0x6c) addr:0x0215da34
_ZN12ActorUnkEFSC19func_ov086_0215ba40Ev kind:function(arm,size=0x14) addr:0x0215daa0
_ZN12ActorUnkEFSC19func_ov086_0215ba54Ev kind:function(arm,size=0x58) addr:0x0215dab4
_ZN12ActorUnkEFSCD0Ev kind:function(arm,size=0x30) addr:0x0215db0c
_ZN12ActorUnkEFSCD2Ev kind:function(arm,size=0x28) addr:0x0215db3c
_ZN12ActorUnkEFSC19func_ov086_0215bb04Ev kind:function(arm,size=0x1c) addr:0x0215db64
_ZN19ActorProfileUnkEFSCD1Ev kind:function(arm,size=0x14) addr:0x0215db80
_ZN19ActorProfileUnkQKSD10GetProfileEv kind:function(arm,size=0xc) addr:0x0215db94
_ZN19ActorProfileUnkQKSD6CreateEv kind:function(arm,size=0x24) addr:0x0215dba0
_ZN19ActorProfileUnkQKSDC1Ev kind:function(arm,size=0x28) addr:0x0215dbc4
_ZN12ActorUnkQKSDC1Ev kind:function(arm,size=0xc4) addr:0x0215dbec
_ZN12ActorUnkQKSD19func_ov086_0215bc50Ev kind:function(arm,size=0x14) addr:0x0215dcb0
_ZN12ActorUnkQKSD19func_ov086_0215bc64Ev kind:function(arm,size=0x64) addr:0x0215dcc4
_ZN12ActorUnkQKSD19func_ov086_0215bcc8Ev kind:function(arm,size=0x14) addr:0x0215dd28
_ZN12ActorUnkQKSD19func_ov086_0215bcdcEv kind:function(arm,size=0x14) addr:0x0215dd3c
_ZN12ActorUnkQKSD19func_ov086_0215bcf0Ev kind:function(arm,size=0x20) addr:0x0215dd50
_ZN12ActorUnkQKSDD0Ev kind:function(arm,size=0x1c) addr:0x0215dd70
_ZN12ActorUnkQKSDD1Ev kind:function(arm,size=0x28) addr:0x0215dd8c
_ZN12ActorUnkQKSD19func_ov086_0215bd54Ev kind:function(arm,size=0x30) addr:0x0215ddb4
_ZN19ActorProfileUnkQKSDD1Ev kind:function(arm,size=0x14) addr:0x0215dde4
_ZN19ActorProfileUnkRNTN10GetProfileEv kind:function(arm,size=0xc) addr:0x0215ddf8
_ZN19ActorProfileUnkRNTN6CreateEv kind:function(arm,size=0x24) addr:0x0215de04
_ZN19ActorProfileUnkRNTNC1Ev kind:function(arm,size=0x28) addr:0x0215de28
_ZN12ActorUnkRNTNC1Ev kind:function(arm,size=0x1c4) addr:0x0215de50
_ZN12ActorUnkRNTN19func_ov086_0215bfb4Ev kind:function(arm,size=0x418) addr:0x0215e014
_ZN12ActorUnkRNTN19func_ov086_0215c3ccEv kind:function(arm,size=0x46c) addr:0x0215e42c
_ZN12ActorUnkRNTN19func_ov086_0215c838Ev kind:function(arm,size=0xc4) addr:0x0215e898
_ZN12ActorUnkRNTN19func_ov086_0215c8fcEv kind:function(arm,size=0x3fc) addr:0x0215e95c
_ZN12ActorUnkRNTN19func_ov086_0215ccf8Ev kind:function(arm,size=0xe0) addr:0x0215ed58
_ZN12ActorUnkRNTN19func_ov086_0215cdd8Ev kind:function(arm,size=0x1bc) addr:0x0215ee38
_ZN12ActorUnkRNTN19func_ov086_0215cf94Ev kind:function(arm,size=0x1c0) addr:0x0215eff4
_ZN12ActorUnkRNTN19func_ov086_0215d154Ev kind:function(arm,size=0x240) addr:0x0215f1b4
_ZN12ActorUnkRNTN19func_ov086_0215d394Ev kind:function(arm,size=0x27c) addr:0x0215f3f4
_ZN12ActorUnkRNTN19func_ov086_0215d610Ev kind:function(arm,size=0x280) addr:0x0215f670
_ZN12ActorUnkRNTN19func_ov086_0215d890Ev kind:function(arm,size=0x13c) addr:0x0215f8f0
_ZN12ActorUnkRNTND1Ev kind:function(arm,size=0x48) addr:0x0215fa2c
_ZN12ActorUnkRNTND0Ev kind:function(arm,size=0x50) addr:0x0215fa74
_ZN19ActorProfileUnkRNTND1Ev kind:function(arm,size=0x14) addr:0x0215fac4
_ZN19ActorProfileUnkRMDS10GetProfileEv kind:function(arm,size=0xc) addr:0x0215fad8
_ZN19ActorProfileUnkRMDS6CreateEv kind:function(arm,size=0x24) addr:0x0215fae4
_ZN19ActorProfileUnkRMDSC1Ev kind:function(arm,size=0x28) addr:0x0215fb08
_ZN12ActorUnkRMDSC1Ev kind:function(arm,size=0x74) addr:0x0215fb30
_ZN12ActorUnkRMDS19func_ov086_0215db44Ev kind:function(arm,size=0x6c) addr:0x0215fba4
_ZN12ActorUnkRMDS19func_ov086_0215dbb0Ev kind:function(arm,size=0x4) addr:0x0215fc10
_ZN12ActorUnkRMDS19func_ov086_0215dbb4Ev kind:function(arm,size=0x14) addr:0x0215fc14
_ZN12ActorUnkRMDS19func_ov086_0215dbc8Ev kind:function(arm,size=0x14) addr:0x0215fc28
_ZN12ActorUnkRMDS19func_ov086_0215dbdcEv kind:function(arm,size=0xc) addr:0x0215fc3c
_ZN12ActorUnkRMDS19func_ov086_0215dbe8Ev kind:function(arm,size=0x50) addr:0x0215fc48
_ZN12ActorUnkRMDSD1Ev kind:function(arm,size=0x28) addr:0x0215fc98
_ZN12ActorUnkRMDSD0Ev kind:function(arm,size=0x30) addr:0x0215fcc0
_ZN19ActorProfileUnkRMDSD1Ev kind:function(arm,size=0x14) addr:0x0215fcf0
_ZN19ActorProfileUnkQKTG10GetProfileEv kind:function(arm,size=0xc) addr:0x0215fd04
_ZN19ActorProfileUnkQKTG6CreateEv kind:function(arm,size=0x24) addr:0x0215fd10
_ZN19ActorProfileUnkQKTGC1Ev kind:function(arm,size=0x28) addr:0x0215fd34
_ZN12ActorUnkQKTGC1Ev kind:function(arm,size=0x2c) addr:0x0215fd5c
_ZN12ActorUnkQKTG19func_ov086_0215dd28Ev kind:function(arm,size=0x40) addr:0x0215fd88
_ZN12ActorUnkQKTG19func_ov086_0215dd68Ev kind:function(arm,size=0xa0) addr:0x0215fdc8
_ZN12ActorUnkQKTG19func_ov086_0215de08Ev kind:function(arm,size=0x14) addr:0x0215fe68
_ZN12ActorUnkQKTG19func_ov086_0215de1cEv kind:function(arm,size=0xd8) addr:0x0215fe7c
_ZN12ActorUnkQKTGD1Ev kind:function(arm,size=0x14) addr:0x0215ff54
_ZN12ActorUnkQKTGD0Ev kind:function(arm,size=0x1c) addr:0x0215ff68
_ZN19ActorProfileUnkQKTGD1Ev kind:function(arm,size=0x14) addr:0x0215ff84
_ZN23MapObjectProfileUnkSTDS10GetProfileEv kind:function(arm,size=0xc) addr:0x0215ff98
_ZN23MapObjectProfileUnkSTDS6CreateEv kind:function(arm,size=0x24) addr:0x0215ffa4
_ZN23MapObjectProfileUnkSTDSC1Ev kind:function(arm,size=0x48) addr:0x0215ffc8
_ZN16MapObjectUnkSTDSC1Ev kind:function(arm,size=0x2c) addr:0x02160010
_ZN16MapObjectUnkSTDS19func_ov086_0215dfdcEv kind:function(arm,size=0xb8) addr:0x0216003c
_ZN16MapObjectUnkSTDS19func_ov086_0215e094Ev kind:function(arm,size=0x20) addr:0x021600f4
_ZN16MapObjectUnkSTDSD1Ev kind:function(arm,size=0x20) addr:0x02160114
_ZN16MapObjectUnkSTDSD0Ev kind:function(arm,size=0x28) addr:0x02160134
_ZN23MapObjectProfileUnkSTDSD1Ev kind:function(arm,size=0x14) addr:0x0216015c
_ZN23MapObjectProfileUnkDRBR10GetProfileEv kind:function(arm,size=0xc) addr:0x02160170
_ZN23MapObjectProfileUnkDRBR6CreateEv kind:function(arm,size=0x24) addr:0x0216017c
_ZN23MapObjectProfileUnkDRBRC1Ev kind:function(arm,size=0x48) addr:0x021601a0
_ZN16MapObjectUnkDRBRC1Ev kind:function(arm,size=0x34) addr:0x021601e8
_ZN16MapObjectUnkDRBR19func_ov086_0215e1bcEv kind:function(arm,size=0x48) addr:0x0216021c
_ZN16MapObjectUnkDRBRD1Ev kind:function(arm,size=0x28) addr:0x02160264
_ZN16MapObjectUnkDRBRD0Ev kind:function(arm,size=0x30) addr:0x0216028c
_ZN23MapObjectProfileUnkDRBRD1Ev kind:function(arm,size=0x14) addr:0x021602bc
func_ov086_021602d0 kind:function(arm,size=0x10) addr:0x021602d0
func_ov086_021602e0 kind:function(arm,size=0x10) addr:0x021602e0
_ZN23MapObjectProfileUnkGRSG10GetProfileEv kind:function(arm,size=0xc) addr:0x021602f0
_ZN23MapObjectProfileUnkGRSG6CreateEv kind:function(arm,size=0x24) addr:0x021602fc
_ZN23MapObjectProfileUnkGRSGC1Ev kind:function(arm,size=0xb8) addr:0x02160320
_ZN16MapObjectUnkGRSGC1Ev kind:function(arm,size=0x20) addr:0x021603d8
_ZN16MapObjectUnkGRSG19func_ov086_0215e398Ev kind:function(arm,size=0x19c) addr:0x021603f8
_ZN16MapObjectUnkGRSG19func_ov086_0215e534Ev kind:function(arm,size=0x50) addr:0x02160594
_ZN16MapObjectUnkGRSG19func_ov086_0215e584Ev kind:function(arm,size=0x5c) addr:0x021605e4
_ZN16MapObjectUnkGRSG19func_ov086_0215e5e0Ev kind:function(arm,size=0xc) addr:0x02160640
_ZN16MapObjectUnkGRSGD1Ev kind:function(arm,size=0x28) addr:0x0216064c
_ZN16MapObjectUnkGRSGD0Ev kind:function(arm,size=0x30) addr:0x02160674
_ZN23MapObjectProfileUnkGRSGD1Ev kind:function(arm,size=0x14) addr:0x021606a4
_ZN23MapObjectProfileUnkDRRS10GetProfileEv kind:function(arm,size=0xc) addr:0x021606b8
_ZN23MapObjectProfileUnkDRRS6CreateEv kind:function(arm,size=0x24) addr:0x021606c4
_ZN23MapObjectProfileUnkDRRSC1Ev kind:function(arm,size=0x48) addr:0x021606e8
_ZN16MapObjectUnkDRRSC1Ev kind:function(arm,size=0xa8) addr:0x02160730
_ZN16MapObjectUnkDRRS19func_ov086_0215e778Ev kind:function(arm,size=0x14) addr:0x021607d8
_ZN16MapObjectUnkDRRS19func_ov086_0215e78cEv kind:function(arm,size=0x12c) addr:0x021607ec
_ZN16MapObjectUnkDRRS19func_ov086_0215e8b8Ev kind:function(arm,size=0x44) addr:0x02160918
_ZN16MapObjectUnkDRRS19func_ov086_0215e8fcEv kind:function(arm,size=0x1c) addr:0x0216095c
_ZN16MapObjectUnkDRRS19func_ov086_0215e918Ev kind:function(arm,size=0x28) addr:0x02160978
_ZN16MapObjectUnkDRRS19func_ov086_0215e940Ev kind:function(arm,size=0x58) addr:0x021609a0
_ZN16MapObjectUnkDRRS19func_ov086_0215e998Ev kind:function(arm,size=0x28) addr:0x021609f8
_ZN16MapObjectUnkDRRS19func_ov086_0215e9c0Ev kind:function(arm,size=0xc) addr:0x02160a20
_ZN16MapObjectUnkDRRS19func_ov086_0215e9ccEv kind:function(arm,size=0x70) addr:0x02160a2c
_ZN16MapObjectUnkDRRS19func_ov086_0215ea3cEv kind:function(arm,size=0x120) addr:0x02160a9c
_ZN16MapObjectUnkDRRSD0Ev kind:function(arm,size=0x1c) addr:0x02160bbc
_ZN16MapObjectUnkDRRSD1Ev kind:function(arm,size=0x28) addr:0x02160bd8
_ZN16MapObjectUnkDRRS19func_ov086_0215eba0Ev kind:function(arm,size=0x30) addr:0x02160c00
_ZN23MapObjectProfileUnkDRRSD1Ev kind:function(arm,size=0x14) addr:0x02160c30
func_ov086_02160c44 kind:function(arm,size=0x1b0) addr:0x02160c44
func_ov086_02160df4 kind:function(arm,size=0x58) addr:0x02160df4
func_ov086_02160e4c kind:function(arm,size=0xac) addr:0x02160e4c
func_ov086_02160ef8 kind:function(arm,size=0x268) addr:0x02160ef8
data_ov086_02161160 kind:data(any) addr:0x02161160
data_ov086_02161170 kind:data(any) addr:0x02161170
data_ov086_02161188 kind:data(any) addr:0x02161188
data_ov086_02161198 kind:data(any) addr:0x02161198
data_ov086_021611a8 kind:data(any) addr:0x021611a8
data_ov086_021611c8 kind:data(any) addr:0x021611c8
__sinit_ActorUnkDSDS.cpp kind:function(arm,size=0x50) addr:0x021611e8
__sinit_ActorUnkHAMN.cpp kind:function(arm,size=0x50) addr:0x02161238
__sinit_ActorUnkOCTG.cpp kind:function(arm,size=0x8c) addr:0x02161288
__sinit_ActorUnkOCGS.cpp kind:function(arm,size=0x50) addr:0x02161314
__sinit_ActorUnkEFSC.cpp kind:function(arm,size=0x50) addr:0x02161364
__sinit_ActorUnkQKSD.cpp kind:function(arm,size=0x50) addr:0x021613b4
__sinit_ActorUnkRNTN.cpp kind:function(arm,size=0x50) addr:0x02161404
__sinit_ActorUnkRMDS.cpp kind:function(arm,size=0x50) addr:0x02161454
__sinit_ActorUnkQKTG.cpp kind:function(arm,size=0x50) addr:0x021614a4
__sinit_MapObjectUnkSTDS.cpp kind:function(arm,size=0x50) addr:0x021614f4
__sinit_MapObjectUnkDRBR.cpp kind:function(arm,size=0x50) addr:0x02161544
__sinit_MapObjectUnkGRSG.cpp kind:function(arm,size=0x50) addr:0x02161594
__sinit_MapObjectUnkDRRS.cpp kind:function(arm,size=0x50) addr:0x021615e4
.p__sinit_ActorUnkDSDS.cpp kind:data(word) addr:0x02161634
.p__sinit_ActorUnkHAMN.cpp kind:data(word) addr:0x02161638
.p__sinit_ActorUnkOCTG.cpp kind:data(word) addr:0x0216163c
.p__sinit_ActorUnkOCGS.cpp kind:data(word) addr:0x02161640
.p__sinit_ActorUnkEFSC.cpp kind:data(word) addr:0x02161644
.p__sinit_ActorUnkQKSD.cpp kind:data(word) addr:0x02161648
.p__sinit_ActorUnkRNTN.cpp kind:data(word) addr:0x0216164c
.p__sinit_ActorUnkRMDS.cpp kind:data(word) addr:0x02161650
.p__sinit_ActorUnkQKTG.cpp kind:data(word) addr:0x02161654
.p__sinit_MapObjectUnkSTDS.cpp kind:data(word) addr:0x02161658
.p__sinit_MapObjectUnkDRBR.cpp kind:data(word) addr:0x0216165c
.p__sinit_MapObjectUnkGRSG.cpp kind:data(word) addr:0x02161660
.p__sinit_MapObjectUnkDRRS.cpp kind:data(word) addr:0x02161664
_ZTV19data_ov086_02161680 kind:data(any) addr:0x02161680
_ZTV19data_ov086_021616a4 kind:data(any) addr:0x021616a4
data_ov086_02161704 kind:data(any) addr:0x02161704
data_ov086_0216171c kind:data(any) addr:0x0216171c
data_ov086_0216173c kind:data(any) addr:0x0216173c
data_ov086_02161758 kind:data(any) addr:0x02161758
_ZTV19data_ov086_0216176c kind:data(any) addr:0x0216176c
data_ov086_02161798 kind:data(any) addr:0x02161798
data_ov086_021617c4 kind:data(any) addr:0x021617c4
data_ov086_0216180c kind:data(any) addr:0x0216180c
_ZTV19data_ov086_02161850 kind:data(any) addr:0x02161850
data_ov086_021618b4 kind:data(any) addr:0x021618b4
data_ov086_0216195c kind:data(any) addr:0x0216195c
data_ov086_02161a1c kind:data(any) addr:0x02161a1c
data_ov086_02161a34 kind:data(any) addr:0x02161a34
data_ov086_02161a4c kind:data(any) addr:0x02161a4c
data_ov086_02161a64 kind:data(any) addr:0x02161a64
data_ov086_02161a7c kind:data(any) addr:0x02161a7c
data_ov086_02161a94 kind:data(any) addr:0x02161a94
data_ov086_02161aac kind:data(any) addr:0x02161aac
data_ov086_02161ac4 kind:data(any) addr:0x02161ac4
data_ov086_02161adc kind:data(any) addr:0x02161adc
data_ov086_02161af4 kind:data(any) addr:0x02161af4
data_ov086_02161b0c kind:data(any) addr:0x02161b0c
data_ov086_02161b18 kind:data(any) addr:0x02161b18
data_ov086_02161b30 kind:data(any) addr:0x02161b30
data_ov086_02161b40 kind:data(any) addr:0x02161b40
data_ov086_02161b5c kind:data(any) addr:0x02161b5c
_ZTV19data_ov086_02161b60 kind:data(any) addr:0x02161b60 ambiguous
_ZTV19data_ov086_02161b78 kind:data(any) addr:0x02161b78
data_ov086_02161bd8 kind:data(any) addr:0x02161bd8
data_ov086_02161c40 kind:data(any) addr:0x02161c40
data_ov086_02161ca8 kind:data(any) addr:0x02161ca8
data_ov086_02161cc0 kind:data(any) addr:0x02161cc0
data_ov086_02161cd8 kind:data(any) addr:0x02161cd8
data_ov086_02161cf0 kind:data(any) addr:0x02161cf0
data_ov086_02161d08 kind:data(any) addr:0x02161d08
data_ov086_02161d20 kind:data(any) addr:0x02161d20
data_ov086_02161d40 kind:data(any) addr:0x02161d40
_ZTV19data_ov086_02161d54 kind:data(any) addr:0x02161d54
_ZTV19data_ov086_02161d78 kind:data(any) addr:0x02161d78
data_ov086_02161dd4 kind:data(any) addr:0x02161dd4
_ZTV19data_ov086_02161dec kind:data(any) addr:0x02161dec
data_ov086_02161e18 kind:data(any) addr:0x02161e18
_ZTV19data_ov086_02161e5c kind:data(any) addr:0x02161e5c
_ZTV19data_ov086_02161e6c kind:data(any) addr:0x02161e6c ambiguous
_ZTV19data_ov086_02161eb8 kind:data(any) addr:0x02161eb8
data_ov086_02161edc kind:data(any) addr:0x02161edc
data_ov086_02161f14 kind:data(any) addr:0x02161f14
_ZTV19data_ov086_02161f54 kind:data(any) addr:0x02161f54
_ZTV19data_ov086_02161fb0 kind:data(any) addr:0x02161fb0
data_ov086_02161fdc kind:data(any) addr:0x02161fdc
_ZTV19data_ov086_02161ffc kind:data(any) addr:0x02161ffc
data_ov086_0216205c kind:data(any) addr:0x0216205c
_ZTV19data_ov086_02162074 kind:data(any) addr:0x02162074
_ZTV19data_ov086_02162098 kind:data(any) addr:0x02162098
_ZTV19data_ov086_0216209c kind:data(any) addr:0x0216209c ambiguous
_ZTV19data_ov086_021620f8 kind:data(any) addr:0x021620f8
_ZTV19data_ov086_0216211c kind:data(any) addr:0x0216211c
data_ov086_02162184 kind:data(any) addr:0x02162184
data_ov086_021621a0 kind:data(any) addr:0x021621a0
data_ov086_021621c9 kind:data(any) addr:0x021621c9 ambiguous
data_ov086_021621e0 kind:data(any) addr:0x021621e0
data_ov086_021621fc kind:data(any) addr:0x021621fc
data_ov086_02162274 kind:data(any) addr:0x02162274 ambiguous
data_ov086_02162294 kind:data(any) addr:0x02162294
data_ov086_021622b0 kind:data(any) addr:0x021622b0
data_ov086_021622cc kind:data(any) addr:0x021622cc
data_ov086_021622e8 kind:data(any) addr:0x021622e8
data_ov086_02162338 kind:data(any) addr:0x02162338
data_ov086_0216234c kind:data(any) addr:0x0216234c
data_ov086_02162358 kind:data(any) addr:0x02162358 ambiguous
data_ov086_02162368 kind:data(any) addr:0x02162368
data_ov086_021623a0 kind:bss addr:0x021623a0
data_ov086_021623a4 kind:bss addr:0x021623a4
sActorProfileUnkDSDS kind:bss addr:0x021623b0
data_ov086_0216243c kind:bss addr:0x0216243c ambiguous
data_ov086_02162488 kind:bss addr:0x02162488
data_ov086_0216248c kind:bss addr:0x0216248c
sActorProfileUnkHAMN kind:bss addr:0x02162498
data_ov086_02162570 kind:bss addr:0x02162570
data_ov086_02162574 kind:bss addr:0x02162574
sActorProfileUnkOCTG kind:bss addr:0x02162580
data_ov086_0216258c kind:bss addr:0x0216258c ambiguous
data_ov086_02162654 kind:bss addr:0x02162654 ambiguous
data_ov086_02162658 kind:bss addr:0x02162658
data_ov086_0216265c kind:bss addr:0x0216265c
sActorProfileUnkOCGS kind:bss addr:0x02162668
data_ov086_021626dc kind:bss addr:0x021626dc ambiguous
data_ov086_0216271c kind:bss addr:0x0216271c ambiguous
data_ov086_02162740 kind:bss addr:0x02162740
data_ov086_02162744 kind:bss addr:0x02162744
sActorProfileUnkEFSC kind:bss addr:0x02162750
data_ov086_02162808 kind:bss addr:0x02162808 ambiguous
data_ov086_02162828 kind:bss addr:0x02162828
data_ov086_0216282c kind:bss addr:0x0216282c
sActorProfileUnkQKSD kind:bss addr:0x02162838
data_ov086_021628e8 kind:bss addr:0x021628e8 ambiguous
data_ov086_02162910 kind:bss addr:0x02162910
data_ov086_02162914 kind:bss addr:0x02162914
sActorProfileUnkRNTN kind:bss addr:0x02162920
data_ov086_0216297c kind:bss addr:0x0216297c ambiguous
data_ov086_021629f8 kind:bss addr:0x021629f8
data_ov086_021629fc kind:bss addr:0x021629fc
sActorProfileUnkRMDS kind:bss addr:0x02162a08
data_ov086_02162a2c kind:bss addr:0x02162a2c ambiguous
data_ov086_02162ae0 kind:bss addr:0x02162ae0
data_ov086_02162ae4 kind:bss addr:0x02162ae4
sActorProfileUnkQKTG kind:bss addr:0x02162af0
data_ov086_02162b2c kind:bss addr:0x02162b2c
data_ov086_02162b30 kind:bss addr:0x02162b30
sMapObjectProfileUnkSTDS kind:bss addr:0x02162b3c
data_ov086_02162b7c kind:bss addr:0x02162b7c ambiguous
data_ov086_02162bbc kind:bss addr:0x02162bbc ambiguous
data_ov086_02162bd4 kind:bss addr:0x02162bd4 ambiguous
data_ov086_02162c10 kind:bss addr:0x02162c10
data_ov086_02162c14 kind:bss addr:0x02162c14
sMapObjectProfileUnkDRBR kind:bss addr:0x02162c20
data_ov086_02162cb0 kind:bss addr:0x02162cb0 ambiguous
data_ov086_02162cf4 kind:bss addr:0x02162cf4
data_ov086_02162cf8 kind:bss addr:0x02162cf8
sMapObjectProfileUnkGRSG kind:bss addr:0x02162d04
data_ov086_02162dd8 kind:bss addr:0x02162dd8
data_ov086_02162df8 kind:bss addr:0x02162df8 ambiguous
data_ov086_02162dfc kind:bss addr:0x02162dfc
data_ov086_02162e00 kind:bss addr:0x02162e00
sMapObjectProfileUnkDRRS kind:bss addr:0x02162e0c
