func_ov077_02152ea0 kind:function(arm,size=0x68) addr:0x02152ea0
_ZN19ActorProfileUnkASYU10GetProfileEv kind:function(arm,size=0xc) addr:0x02152f08
_ZN19ActorProfileUnkASYU6CreateEv kind:function(arm,size=0x24) addr:0x02152f14
_ZN19ActorProfileUnkASYUC1Ev kind:function(arm,size=0x4c) addr:0x02152f38
_ZN12ActorUnkASYU19func_ov077_02152f84Ev kind:function(arm,size=0x34) addr:0x02152f84
_ZN12ActorUnkASYUC1Ev kind:function(arm,size=0x204) addr:0x02152fb8
_ZN12ActorUnkASYU19func_ov077_021531bcEv kind:function(arm,size=0x14) addr:0x021531bc
_ZN12ActorUnkASYU19func_ov077_021531d0Ev kind:function(arm,size=0x14) addr:0x021531d0
_ZN12ActorUnkASYU19func_ov077_021531e4Ev kind:function(arm,size=0x14) addr:0x021531e4
_ZN12ActorUnkASYU19func_ov077_021531f8Ev kind:function(arm,size=0xac) addr:0x021531f8
_ZN12ActorUnkASYUD0Ev kind:function(arm,size=0xb4) addr:0x021532a4
_ZN12ActorUnkASYU19func_ov077_02153358Ev kind:function(arm,size=0x174) addr:0x02153358
_ZN12ActorUnkASYU19func_ov077_021534ccEv kind:function(arm,size=0xc0) addr:0x021534cc
_ZN12ActorUnkASYU19func_ov077_0215358cEv kind:function(arm,size=0x44) addr:0x0215358c
_ZN12ActorUnkASYU19func_ov077_021535d0Ev kind:function(arm,size=0x400) addr:0x021535d0
_ZN12ActorUnkASYU19func_ov077_021539d0Ev kind:function(arm,size=0x4c) addr:0x021539d0
_ZN12ActorUnkASYU19func_ov077_02153a1cEv kind:function(arm,size=0x194) addr:0x02153a1c
_ZN12ActorUnkASYU19func_ov077_02153bb0Ev kind:function(arm,size=0x1a8) addr:0x02153bb0
_ZN12ActorUnkASYU19func_ov077_02153d58Ev kind:function(arm,size=0x164) addr:0x02153d58
_ZN12ActorUnkASYU19func_ov077_02153ebcEv kind:function(arm,size=0xf0) addr:0x02153ebc
_ZN12ActorUnkASYU19func_ov077_02153facEv kind:function(arm,size=0x164) addr:0x02153fac
_ZN12ActorUnkASYU19func_ov077_02154110Ev kind:function(arm,size=0x174) addr:0x02154110
_ZN12ActorUnkASYU19func_ov077_02154284Ev kind:function(arm,size=0x31c) addr:0x02154284
_ZN12ActorUnkASYU19func_ov077_021545a0Ev kind:function(arm,size=0x188) addr:0x021545a0
_ZN12ActorUnkASYU19func_ov077_02154728Ev kind:function(arm,size=0x394) addr:0x02154728
_ZN12ActorUnkASYU19func_ov077_02154abcEv kind:function(arm,size=0x6c) addr:0x02154abc
_ZN12ActorUnkASYU19func_ov077_02154b28Ev kind:function(arm,size=0x48) addr:0x02154b28
_ZN12ActorUnkASYU19func_ov077_02154b70Ev kind:function(arm,size=0x90) addr:0x02154b70
_ZN12ActorUnkASYU19func_ov077_02154c00Ev kind:function(arm,size=0x334) addr:0x02154c00
_ZN12ActorUnkASYU19func_ov077_02154f34Ev kind:function(arm,size=0x124) addr:0x02154f34
_ZN12ActorUnkASYU19func_ov077_02155058Ev kind:function(arm,size=0x1c4) addr:0x02155058
_ZN12ActorUnkASYU19func_ov077_0215521cEv kind:function(arm,size=0x7c) addr:0x0215521c
_ZN12ActorUnkASYU19func_ov077_02155298Ev kind:function(arm,size=0xcc) addr:0x02155298
_ZN12ActorUnkASYU19func_ov077_02155364Ev kind:function(arm,size=0x10) addr:0x02155364
_ZN12ActorUnkASYU19func_ov077_02155374Ev kind:function(arm,size=0x1a4) addr:0x02155374
_ZN12ActorUnkASYU19func_ov077_02155518Ev kind:function(arm,size=0x6c) addr:0x02155518
_ZN12ActorUnkASYU19func_ov077_02155584Ev kind:function(arm,size=0x614) addr:0x02155584
_ZN12ActorUnkASYU19func_ov077_02155b98Ev kind:function(arm,size=0x78) addr:0x02155b98
_ZN12ActorUnkASYU19func_ov077_02155c10Ev kind:function(arm,size=0x234) addr:0x02155c10
_ZN12ActorUnkASYU19func_ov077_02155e44Ev kind:function(arm,size=0x90) addr:0x02155e44
_ZN12ActorUnkASYU19func_ov077_02155ed4Ev kind:function(arm,size=0x3c) addr:0x02155ed4
_ZN12ActorUnkASYU19func_ov077_02155f10Ev kind:function(arm,size=0x164) addr:0x02155f10
_ZN12ActorUnkASYU19func_ov077_02156074Ev kind:function(arm,size=0x28) addr:0x02156074
_ZN12ActorUnkASYU19func_ov077_0215609cEv kind:function(arm,size=0x98) addr:0x0215609c
_ZN12ActorUnkASYU19func_ov077_02156134Ev kind:function(arm,size=0x5c) addr:0x02156134
_ZN12ActorUnkASYU19func_ov077_02156190Ev kind:function(arm,size=0x78) addr:0x02156190
_ZN12ActorUnkASYU19func_ov077_02156208Ev kind:function(arm,size=0x94) addr:0x02156208
_ZN12ActorUnkASYU19func_ov077_0215629cEv kind:function(arm,size=0x20) addr:0x0215629c
_ZN12ActorUnkASYU19func_ov077_021562bcEv kind:function(arm,size=0x28) addr:0x021562bc
_ZN12ActorUnkASYU19func_ov077_021562e4Ev kind:function(arm,size=0xe0) addr:0x021562e4
_ZN12ActorUnkASYU19func_ov077_021563c4Ev kind:function(arm,size=0x2b8) addr:0x021563c4
_ZN12ActorUnkASYU19func_ov077_0215667cEv kind:function(arm,size=0x80) addr:0x0215667c
_ZN12ActorUnkASYU19func_ov077_021566fcEv kind:function(arm,size=0xcc) addr:0x021566fc
_ZN12ActorUnkASYU19func_ov077_021567c8Ev kind:function(arm,size=0x11c) addr:0x021567c8
_ZN12ActorUnkASYU19func_ov077_021568e4Ev kind:function(arm,size=0x14) addr:0x021568e4
_ZN12ActorUnkASYU19func_ov077_021568f8Ev kind:function(arm,size=0x78) addr:0x021568f8
_ZN12ActorUnkASYU19func_ov077_02156970Ev kind:function(arm,size=0x1c) addr:0x02156970
_ZN12ActorUnkASYU19func_ov077_0215698cEv kind:function(arm,size=0x40) addr:0x0215698c
_ZN12ActorUnkASYU19func_ov077_021569ccEv kind:function(arm,size=0x40) addr:0x021569cc
_ZN12ActorUnkASYU19func_ov077_02156a0cEv kind:function(arm,size=0xa4) addr:0x02156a0c
_ZN12ActorUnkASYU19func_ov077_02156ab0Ev kind:function(arm,size=0x98) addr:0x02156ab0
_ZN12ActorUnkASYU19func_ov077_02156b48Ev kind:function(arm,size=0x140) addr:0x02156b48
_ZN12ActorUnkASYU19func_ov077_02156c88Ev kind:function(arm,size=0x2c) addr:0x02156c88
_ZN12ActorUnkASYU19func_ov077_02156cb4Ev kind:function(arm,size=0x104) addr:0x02156cb4
_ZN12ActorUnkASYU19func_ov077_02156db8Ev kind:function(arm,size=0xac) addr:0x02156db8
_ZN12ActorUnkASYU19func_ov077_02156e64Ev kind:function(arm,size=0x30) addr:0x02156e64
_ZN12ActorUnkASYU19func_ov077_02156e94Ev kind:function(arm,size=0x24) addr:0x02156e94
_ZN12ActorUnkASYU19func_ov077_02156eb8Ev kind:function(arm,size=0x24) addr:0x02156eb8
_ZN12ActorUnkASYU19func_ov077_02156edcEv kind:function(arm,size=0x2c) addr:0x02156edc
_ZN12ActorUnkASYU19func_ov077_02156f08Ev kind:function(arm,size=0xc) addr:0x02156f08
_ZN12ActorUnkASYU19func_ov077_02156f14Ev kind:function(arm,size=0x1c) addr:0x02156f14
_ZN12ActorUnkASYU19func_ov077_02156f30Ev kind:function(arm,size=0x1c) addr:0x02156f30
_ZN12ActorUnkASYU19func_ov077_02156f4cEv kind:function(arm,size=0x1c) addr:0x02156f4c
_ZN19ActorProfileUnkASYUD1Ev kind:function(arm,size=0x14) addr:0x02156f68
_ZN19ActorProfileUnkASBA10GetProfileEv kind:function(arm,size=0xc) addr:0x02156f7c
_ZN19ActorProfileUnkASBA6CreateEv kind:function(arm,size=0x24) addr:0x02156f88
_ZN19ActorProfileUnkASBAC1Ev kind:function(arm,size=0x54) addr:0x02156fac
_ZN12ActorUnkASBAC1Ev kind:function(arm,size=0x154) addr:0x02157000
_ZN12ActorUnkASBA19func_ov077_02157154Ev kind:function(arm,size=0x14) addr:0x02157154
_ZN12ActorUnkASBA19func_ov077_02157168Ev kind:function(arm,size=0xc0) addr:0x02157168
_ZN12ActorUnkASBA19func_ov077_02157228Ev kind:function(arm,size=0x2f8) addr:0x02157228
_ZN12ActorUnkASBA19func_ov077_02157520Ev kind:function(arm,size=0xc8) addr:0x02157520
_ZN12ActorUnkASBA19func_ov077_021575e8Ev kind:function(arm,size=0xcc) addr:0x021575e8
_ZN12ActorUnkASBA19func_ov077_021576b4Ev kind:function(arm,size=0x78) addr:0x021576b4
_ZN12ActorUnkASBA19func_ov077_0215772cEv kind:function(arm,size=0x120) addr:0x0215772c
_ZN12ActorUnkASBA19func_ov077_0215784cEv kind:function(arm,size=0x58) addr:0x0215784c
_ZN12ActorUnkASBA19func_ov077_021578a4Ev kind:function(arm,size=0x38) addr:0x021578a4
_ZN12ActorUnkASBA19func_ov077_021578dcEv kind:function(arm,size=0xe0) addr:0x021578dc
_ZN12ActorUnkASBA19func_ov077_021579bcEv kind:function(arm,size=0x3c) addr:0x021579bc
_ZN12ActorUnkASBA19func_ov077_021579f8Ev kind:function(arm,size=0x34) addr:0x021579f8
_ZN12ActorUnkASBAD0Ev kind:function(arm,size=0x1c) addr:0x02157a2c
_ZN12ActorUnkASBAD1Ev kind:function(arm,size=0x38) addr:0x02157a48
_ZN12ActorUnkASBA19func_ov077_02157a80Ev kind:function(arm,size=0x40) addr:0x02157a80
_ZN19ActorProfileUnkASBAD1Ev kind:function(arm,size=0x14) addr:0x02157ac0
_ZN19ActorProfileUnkBBLE10GetProfileEv kind:function(arm,size=0xc) addr:0x02157ad4
_ZN19ActorProfileUnkBBLE6CreateEv kind:function(arm,size=0x24) addr:0x02157ae0
_ZN19ActorProfileUnkBBLEC1Ev kind:function(arm,size=0x44) addr:0x02157b04
_ZN12ActorUnkBBLE19func_ov077_02157b48Ev kind:function(arm,size=0x20) addr:0x02157b48
_ZN12ActorUnkBBLED1Ev kind:function(arm,size=0x1c) addr:0x02157b68
_ZN12ActorUnkBBLED0Ev kind:function(arm,size=0x24) addr:0x02157b84
_ZN12ActorUnkBBLE19func_ov077_02157ba8Ev kind:function(arm,size=0x20) addr:0x02157ba8
_ZN12ActorUnkBBLE19func_ov077_02157bc8Ev kind:function(arm,size=0x5c) addr:0x02157bc8
_ZN12ActorUnkBBLEC1Ev kind:function(arm,size=0xf0) addr:0x02157c24
_ZN12ActorUnkBBLE19func_ov077_02157d14Ev kind:function(arm,size=0x34) addr:0x02157d14
_ZN12ActorUnkBBLE19func_ov077_02157d48Ev kind:function(arm,size=0x304) addr:0x02157d48
_ZN12ActorUnkBBLE19func_ov077_0215804cEv kind:function(arm,size=0x6c) addr:0x0215804c
_ZN12ActorUnkBBLE19func_ov077_021580b8Ev kind:function(arm,size=0x88) addr:0x021580b8
_ZN12ActorUnkBBLE19func_ov077_02158140Ev kind:function(arm,size=0x2c) addr:0x02158140
_ZN12ActorUnkBBLE19func_ov077_0215816cEv kind:function(arm,size=0xb4) addr:0x0215816c
_ZN12ActorUnkBBLE19func_ov077_02158220Ev kind:function(arm,size=0x48) addr:0x02158220
_ZN12ActorUnkBBLE19func_ov077_02158268Ev kind:function(arm,size=0xe0) addr:0x02158268
_ZN12ActorUnkBBLE19func_ov077_02158348Ev kind:function(arm,size=0x34) addr:0x02158348
_ZN12ActorUnkBBLE19func_ov077_0215837cEv kind:function(arm,size=0xb0) addr:0x0215837c
_ZN12ActorUnkBBLE19func_ov077_0215842cEv kind:function(arm,size=0x140) addr:0x0215842c
_ZN12ActorUnkBBLE19func_ov077_0215856cEv kind:function(arm,size=0x170) addr:0x0215856c
_ZN12ActorUnkBBLE19func_ov077_021586dcEv kind:function(arm,size=0xf8) addr:0x021586dc
_ZN12ActorUnkBBLE19func_ov077_021587d4Ev kind:function(arm,size=0x88) addr:0x021587d4
_ZN12ActorUnkBBLE19func_ov077_0215885cEv kind:function(arm,size=0xbc) addr:0x0215885c
_ZN12ActorUnkBBLE19func_ov077_02158918Ev kind:function(arm,size=0xac) addr:0x02158918
_ZN12ActorUnkBBLE19func_ov077_021589c4Ev kind:function(arm,size=0x78) addr:0x021589c4
_ZN12ActorUnkBBLE19func_ov077_02158a3cEv kind:function(arm,size=0x18) addr:0x02158a3c
_ZN12ActorUnkBBLE19func_ov077_02158a54Ev kind:function(arm,size=0x84) addr:0x02158a54
_ZN12ActorUnkBBLE19func_ov077_02158ad8Ev kind:function(arm,size=0x8c) addr:0x02158ad8
_ZN19ActorProfileUnkBBLED1Ev kind:function(arm,size=0x14) addr:0x02158b64
_ZN19ActorProfileUnkDSFR10GetProfileEv kind:function(arm,size=0xc) addr:0x02158b78
_ZN19ActorProfileUnkDSFR6CreateEv kind:function(arm,size=0x24) addr:0x02158b84
_ZN19ActorProfileUnkDSFRC1Ev kind:function(arm,size=0x28) addr:0x02158ba8
_ZN12ActorUnkDSFRC1Ev kind:function(arm,size=0x20) addr:0x02158bd0
_ZN12ActorUnkDSFR19func_ov077_02158bf0Ev kind:function(arm,size=0x50) addr:0x02158bf0
_ZN12ActorUnkDSFRD1Ev kind:function(arm,size=0x20) addr:0x02158c40
_ZN12ActorUnkDSFRD0Ev kind:function(arm,size=0x28) addr:0x02158c60
_ZN19ActorProfileUnkDSFRD1Ev kind:function(arm,size=0x14) addr:0x02158c88
_ZN19ActorProfileUnkGOKI10GetProfileEv kind:function(arm,size=0xc) addr:0x02158c9c
_ZN19ActorProfileUnkGOKI6CreateEv kind:function(arm,size=0x24) addr:0x02158ca8
_ZN19ActorProfileUnkGOKIC1Ev kind:function(arm,size=0x50) addr:0x02158ccc
_ZN12ActorUnkGOKI19func_ov077_02158d1cEv kind:function(arm,size=0x14) addr:0x02158d1c
_ZN12ActorUnkGOKI19func_ov077_02158d30Ev kind:function(arm,size=0x14) addr:0x02158d30
_ZN12ActorUnkGOKIC1Ev kind:function(arm,size=0x158) addr:0x02158d44
_ZN12ActorUnkGOKI19func_ov077_02158e9cEv kind:function(arm,size=0x14) addr:0x02158e9c
_ZN12ActorUnkGOKI19func_ov077_02158eb0Ev kind:function(arm,size=0x20) addr:0x02158eb0
_ZN12ActorUnkGOKI19func_ov077_02158ed0Ev kind:function(arm,size=0x48) addr:0x02158ed0
_ZN12ActorUnkGOKI19func_ov077_02158f18Ev kind:function(arm,size=0x2dc) addr:0x02158f18
_ZN12ActorUnkGOKI19func_ov077_021591f4Ev kind:function(arm,size=0x6c) addr:0x021591f4
_ZN12ActorUnkGOKI19func_ov077_02159260Ev kind:function(arm,size=0xb8) addr:0x02159260
_ZN12ActorUnkGOKI19func_ov077_02159318Ev kind:function(arm,size=0x4c) addr:0x02159318
_ZN12ActorUnkGOKI19func_ov077_02159364Ev kind:function(arm,size=0x70) addr:0x02159364
_ZN12ActorUnkGOKI19func_ov077_021593d4Ev kind:function(arm,size=0x68) addr:0x021593d4
_ZN12ActorUnkGOKI19func_ov077_0215943cEv kind:function(arm,size=0x90) addr:0x0215943c
_ZN12ActorUnkGOKI19func_ov077_021594ccEv kind:function(arm,size=0x58) addr:0x021594cc
_ZN12ActorUnkGOKI19func_ov077_02159524Ev kind:function(arm,size=0x98) addr:0x02159524
_ZN12ActorUnkGOKI19func_ov077_021595bcEv kind:function(arm,size=0x68) addr:0x021595bc
_ZN12ActorUnkGOKI19func_ov077_02159624Ev kind:function(arm,size=0x94) addr:0x02159624
_ZN12ActorUnkGOKI19func_ov077_021596b8Ev kind:function(arm,size=0x54) addr:0x021596b8
_ZN12ActorUnkGOKI19func_ov077_0215970cEv kind:function(arm,size=0x174) addr:0x0215970c
_ZN12ActorUnkGOKI19func_ov077_02159880Ev kind:function(arm,size=0x1c4) addr:0x02159880
_ZN12ActorUnkGOKI19func_ov077_02159a44Ev kind:function(arm,size=0x64) addr:0x02159a44
_ZN12ActorUnkGOKI19func_ov077_02159aa8Ev kind:function(arm,size=0xb4) addr:0x02159aa8
_ZN12ActorUnkGOKI19func_ov077_02159b5cEv kind:function(arm,size=0x30) addr:0x02159b5c
_ZN12ActorUnkGOKI19func_ov077_02159b8cEv kind:function(arm,size=0x24) addr:0x02159b8c
_ZN12ActorUnkGOKID0Ev kind:function(arm,size=0x8c) addr:0x02159bb0
_ZN12ActorUnkGOKI19func_ov077_02159c3cEv kind:function(arm,size=0x84) addr:0x02159c3c
_ZN12ActorUnkGOKI19func_ov077_02159cc0Ev kind:function(arm,size=0x1c) addr:0x02159cc0
_ZN12ActorUnkGOKI19func_ov077_02159cdcEv kind:function(arm,size=0x1c) addr:0x02159cdc
_ZN19ActorProfileUnkGOKID1Ev kind:function(arm,size=0x14) addr:0x02159cf8
_ZN19ActorProfileUnkPMST10GetProfileEv kind:function(arm,size=0xc) addr:0x02159d0c
_ZN19ActorProfileUnkPMST6CreateEv kind:function(arm,size=0x24) addr:0x02159d18
_ZN19ActorProfileUnkPMSTC1Ev kind:function(arm,size=0x78) addr:0x02159d3c
_ZN12ActorUnkPMST19func_ov077_02159db4Ev kind:function(arm,size=0x28) addr:0x02159db4
_ZN12ActorUnkPMST19func_ov077_02159ddcEv kind:function(arm,size=0x38) addr:0x02159ddc
_ZN12ActorUnkPMST19func_ov077_02159e14Ev kind:function(arm,size=0x2c) addr:0x02159e14
_ZN12ActorUnkPMST19func_ov077_02159e40Ev kind:function(arm,size=0x14) addr:0x02159e40
_ZN12ActorUnkPMSTC1Ev kind:function(arm,size=0x334) addr:0x02159e54
_ZN12ActorUnkPMST19func_ov077_0215a188Ev kind:function(arm,size=0x14) addr:0x0215a188
_ZN12ActorUnkPMST19func_ov077_0215a19cEv kind:function(arm,size=0x1d8) addr:0x0215a19c
_ZN12ActorUnkPMST19func_ov077_0215a374Ev kind:function(arm,size=0xc4) addr:0x0215a374
_ZN12ActorUnkPMST19func_ov077_0215a438Ev kind:function(arm,size=0x14) addr:0x0215a438
_ZN12ActorUnkPMST19func_ov077_0215a44cEv kind:function(arm,size=0x144) addr:0x0215a44c
_ZN12ActorUnkPMST19func_ov077_0215a590Ev kind:function(arm,size=0xc4) addr:0x0215a590
_ZN12ActorUnkPMST19func_ov077_0215a654Ev kind:function(arm,size=0x58) addr:0x0215a654
_ZN12ActorUnkPMST19func_ov077_0215a6acEv kind:function(arm,size=0x58) addr:0x0215a6ac
_ZN12ActorUnkPMST19func_ov077_0215a704Ev kind:function(arm,size=0xac) addr:0x0215a704
_ZN12ActorUnkPMST19func_ov077_0215a7b0Ev kind:function(arm,size=0x174) addr:0x0215a7b0
_ZN12ActorUnkPMST19func_ov077_0215a924Ev kind:function(arm,size=0xc4) addr:0x0215a924
_ZN12ActorUnkPMST19func_ov077_0215a9e8Ev kind:function(arm,size=0x4) addr:0x0215a9e8
_ZN12ActorUnkPMST19func_ov077_0215a9ecEv kind:function(arm,size=0x24) addr:0x0215a9ec
_ZN12ActorUnkPMST19func_ov077_0215aa10Ev kind:function(arm,size=0x10) addr:0x0215aa10
_ZN12ActorUnkPMST19func_ov077_0215aa20Ev kind:function(arm,size=0x8) addr:0x0215aa20
_ZN12ActorUnkPMSTD0Ev kind:function(arm,size=0x1c) addr:0x0215aa28
_ZN12ActorUnkPMST19func_ov077_0215aa44Ev kind:function(arm,size=0x1c) addr:0x0215aa44
_ZN12ActorUnkPMSTD1Ev kind:function(arm,size=0x28) addr:0x0215aa60
_ZN12ActorUnkPMST19func_ov077_0215aa88Ev kind:function(arm,size=0x30) addr:0x0215aa88
_ZN19ActorProfileUnkPMSTD1Ev kind:function(arm,size=0x14) addr:0x0215aab8
_ZN19ActorProfileUnkOFSW10GetProfileEv kind:function(arm,size=0xc) addr:0x0215aacc
_ZN19ActorProfileUnkOFSW6CreateEv kind:function(arm,size=0x24) addr:0x0215aad8
_ZN19ActorProfileUnkOFSWC1Ev kind:function(arm,size=0x28) addr:0x0215aafc
_ZN12ActorUnkOFSWC1Ev kind:function(arm,size=0x28) addr:0x0215ab24
_ZN12ActorUnkOFSW19func_ov077_0215ab4cEv kind:function(arm,size=0x20) addr:0x0215ab4c
_ZN12ActorUnkOFSW19func_ov077_0215ab6cEv kind:function(arm,size=0x58) addr:0x0215ab6c
_ZN12ActorUnkOFSW19func_ov077_0215abc4Ev kind:function(arm,size=0x14) addr:0x0215abc4
_ZN12ActorUnkOFSWD1Ev kind:function(arm,size=0x14) addr:0x0215abd8
_ZN12ActorUnkOFSWD0Ev kind:function(arm,size=0x1c) addr:0x0215abec
_ZN19ActorProfileUnkOFSWD1Ev kind:function(arm,size=0x14) addr:0x0215ac08
_ZN23MapObjectProfileUnkPLFR10GetProfileEv kind:function(arm,size=0xc) addr:0x0215ac1c
_ZN23MapObjectProfileUnkPLFR6CreateEv kind:function(arm,size=0x24) addr:0x0215ac28
_ZN23MapObjectProfileUnkPLFRC1Ev kind:function(arm,size=0xa4) addr:0x0215ac4c
_ZN16MapObjectUnkPLFRC1Ev kind:function(arm,size=0x80) addr:0x0215acf0
_ZN16MapObjectUnkPLFR19func_ov077_0215ad70Ev kind:function(arm,size=0x60) addr:0x0215ad70
_ZN16MapObjectUnkPLFR19func_ov077_0215add0Ev kind:function(arm,size=0x4) addr:0x0215add0
_ZN16MapObjectUnkPLFR19func_ov077_0215add4Ev kind:function(arm,size=0x20) addr:0x0215add4
_ZN16MapObjectUnkPLFRD1Ev kind:function(arm,size=0x20) addr:0x0215adf4
_ZN16MapObjectUnkPLFRD0Ev kind:function(arm,size=0x28) addr:0x0215ae14
_ZN23MapObjectProfileUnkPLFRD1Ev kind:function(arm,size=0x14) addr:0x0215ae3c
_ZN23MapObjectProfileUnkGTRK10GetProfileEv kind:function(arm,size=0xc) addr:0x0215ae50
_ZN23MapObjectProfileUnkGTRK6CreateEv kind:function(arm,size=0x24) addr:0x0215ae5c
_ZN23MapObjectProfileUnkGTRKC1Ev kind:function(arm,size=0x48) addr:0x0215ae80
_ZN16MapObjectUnkGTRKC1Ev kind:function(arm,size=0x90) addr:0x0215aec8
_ZN16MapObjectUnkGTRK19func_ov077_0215af58Ev kind:function(arm,size=0xc0) addr:0x0215af58
_ZN16MapObjectUnkGTRK19func_ov077_0215b018Ev kind:function(arm,size=0x20) addr:0x0215b018
_ZN16MapObjectUnkGTRKD1Ev kind:function(arm,size=0x28) addr:0x0215b038
_ZN16MapObjectUnkGTRKD0Ev kind:function(arm,size=0x30) addr:0x0215b060
_ZN23MapObjectProfileUnkGTRKD1Ev kind:function(arm,size=0x14) addr:0x0215b090
data_ov077_0215b0a4 kind:data(any) addr:0x0215b0a4
data_ov077_0215b0b4 kind:data(any) addr:0x0215b0b4
data_ov077_0215b0c8 kind:data(any) addr:0x0215b0c8
data_ov077_0215b0dc kind:data(any) addr:0x0215b0dc
data_ov077_0215b0e4 kind:data(any) addr:0x0215b0e4
data_ov077_0215b0f0 kind:data(any) addr:0x0215b0f0
__sinit_ActorUnkASYU.cpp kind:function(arm,size=0x64) addr:0x0215b120
__sinit_ActorUnkASBA.cpp kind:function(arm,size=0x50) addr:0x0215b184
__sinit_ActorUnkBBLE.cpp kind:function(arm,size=0x50) addr:0x0215b1d4
__sinit_ActorUnkDSFR.cpp kind:function(arm,size=0x50) addr:0x0215b224
__sinit_ActorUnkGOKI.cpp kind:function(arm,size=0x50) addr:0x0215b274
__sinit_ActorUnkPMST.cpp kind:function(arm,size=0x50) addr:0x0215b2c4
__sinit_ActorUnkOFSW.cpp kind:function(arm,size=0x50) addr:0x0215b314
__sinit_MapObjectUnkPLFR.cpp kind:function(arm,size=0x50) addr:0x0215b364
__sinit_MapObjectUnkGTRK.cpp kind:function(arm,size=0x50) addr:0x0215b3b4
.p__sinit_ActorUnkASYU.cpp kind:data(word) addr:0x0215b404
.p__sinit_ActorUnkASBA.cpp kind:data(word) addr:0x0215b408
.p__sinit_ActorUnkBBLE.cpp kind:data(word) addr:0x0215b40c
.p__sinit_ActorUnkDSFR.cpp kind:data(word) addr:0x0215b410
.p__sinit_ActorUnkGOKI.cpp kind:data(word) addr:0x0215b414
.p__sinit_ActorUnkPMST.cpp kind:data(word) addr:0x0215b418
.p__sinit_ActorUnkOFSW.cpp kind:data(word) addr:0x0215b41c
.p__sinit_MapObjectUnkPLFR.cpp kind:data(word) addr:0x0215b420
.p__sinit_MapObjectUnkGTRK.cpp kind:data(word) addr:0x0215b424
data_ov077_0215b448 kind:data(any) addr:0x0215b448
data_ov077_0215b454 kind:data(any) addr:0x0215b454
_ZTV19data_ov077_0215b468 kind:data(any) addr:0x0215b468
data_ov077_0215b494 kind:data(any) addr:0x0215b494
data_ov077_0215b4c0 kind:data(any) addr:0x0215b4c0
_ZTV19data_ov077_0215b504 kind:data(any) addr:0x0215b504
data_ov077_0215b564 kind:data(any) addr:0x0215b564
data_ov077_0215b5ec kind:data(any) addr:0x0215b5ec
data_ov077_0215b674 kind:data(any) addr:0x0215b674
data_ov077_0215b68c kind:data(any) addr:0x0215b68c
data_ov077_0215b6a4 kind:data(any) addr:0x0215b6a4
data_ov077_0215b6bc kind:data(any) addr:0x0215b6bc
data_ov077_0215b6d4 kind:data(any) addr:0x0215b6d4
data_ov077_0215b6ec kind:data(any) addr:0x0215b6ec
data_ov077_0215b704 kind:data(any) addr:0x0215b704
data_ov077_0215b71c kind:data(any) addr:0x0215b71c
data_ov077_0215b734 kind:data(any) addr:0x0215b734
data_ov077_0215b744 kind:data(any) addr:0x0215b744
data_ov077_0215b764 kind:data(any) addr:0x0215b764
_ZTV19data_ov077_0215b778 kind:data(any) addr:0x0215b778
_ZTV19data_ov077_0215b79c kind:data(any) addr:0x0215b79c
data_ov077_0215b800 kind:data(any) addr:0x0215b800
data_ov077_0215b804 kind:data(any) addr:0x0215b804 ambiguous
_ZTV19data_ov077_0215b814 kind:data(any) addr:0x0215b814
_ZTV19data_ov077_0215b838 kind:data(any) addr:0x0215b838
_ZTV19data_ov077_0215b848 kind:data(any) addr:0x0215b848 ambiguous
data_ov077_0215b898 kind:data(any) addr:0x0215b898
data_ov077_0215b8a0 kind:data(any) addr:0x0215b8a0
data_ov077_0215b8a8 kind:data(any) addr:0x0215b8a8
data_ov077_0215b8b0 kind:data(any) addr:0x0215b8b0
data_ov077_0215b8b8 kind:data(any) addr:0x0215b8b8
data_ov077_0215b8c0 kind:data(any) addr:0x0215b8c0
_ZTV19data_ov077_0215b8c8 kind:data(any) addr:0x0215b8c8
_ZTV19data_ov077_0215b8ec kind:data(any) addr:0x0215b8ec
data_ov077_0215b954 kind:data(any) addr:0x0215b954
_ZTV19data_ov077_0215b968 kind:data(any) addr:0x0215b968
data_ov077_0215b98c kind:data(any) addr:0x0215b98c
data_ov077_0215b9a4 kind:data(any) addr:0x0215b9a4 ambiguous
data_ov077_0215b9bc kind:data(any) addr:0x0215b9bc
data_ov077_0215b9ec kind:data(any) addr:0x0215b9ec
data_ov077_0215ba04 kind:data(any) addr:0x0215ba04
data_ov077_0215ba24 kind:data(any) addr:0x0215ba24
data_ov077_0215ba58 kind:data(any) addr:0x0215ba58 ambiguous
_ZTV19data_ov077_0215ba68 kind:data(any) addr:0x0215ba68
_ZTV19data_ov077_0215ba6c kind:data(any) addr:0x0215ba6c ambiguous
_ZTV19data_ov077_0215ba90 kind:data(any) addr:0x0215ba90 ambiguous
data_ov077_0215bac8 kind:data(any) addr:0x0215bac8
data_ov077_0215bacc kind:data(any) addr:0x0215bacc
data_ov077_0215baec kind:data(any) addr:0x0215baec
_ZTV19data_ov077_0215baf0 kind:data(any) addr:0x0215baf0 ambiguous
data_ov077_0215bb10 kind:data(any) addr:0x0215bb10
data_ov077_0215bb34 kind:data(any) addr:0x0215bb34 ambiguous
data_ov077_0215bb3c kind:data(any) addr:0x0215bb3c
_ZTV19data_ov077_0215bb7c kind:data(any) addr:0x0215bb7c
data_ov077_0215bbd8 kind:data(any) addr:0x0215bbd8
data_ov077_0215bbe0 kind:data(any) addr:0x0215bbe0
data_ov077_0215bbe8 kind:data(any) addr:0x0215bbe8
_ZTV19data_ov077_0215bbf0 kind:data(any) addr:0x0215bbf0
_ZTV19data_ov077_0215bc14 kind:data(any) addr:0x0215bc14
_ZTV19data_ov077_0215bc24 kind:data(any) addr:0x0215bc24 ambiguous
_ZTV19data_ov077_0215bc44 kind:data(any) addr:0x0215bc44 ambiguous
data_ov077_0215bc78 kind:data(any) addr:0x0215bc78
data_ov077_0215bc94 kind:data(any) addr:0x0215bc94
data_ov077_0215bcb0 kind:data(any) addr:0x0215bcb0
data_ov077_0215bcd8 kind:data(any) addr:0x0215bcd8
data_ov077_0215bd18 kind:data(any) addr:0x0215bd18
data_ov077_0215bd34 kind:data(any) addr:0x0215bd34
data_ov077_0215bd40 kind:data(any) addr:0x0215bd40 ambiguous
data_ov077_0215bd80 kind:bss addr:0x0215bd80
data_ov077_0215bd84 kind:bss addr:0x0215bd84
data_ov077_0215bd8c kind:bss addr:0x0215bd8c
sActorProfileUnkASYU kind:bss addr:0x0215bd98
data_ov077_0215bda0 kind:bss addr:0x0215bda0 ambiguous
data_ov077_0215be70 kind:bss addr:0x0215be70
data_ov077_0215be74 kind:bss addr:0x0215be74
sActorProfileUnkASBA kind:bss addr:0x0215be80
data_ov077_0215bec4 kind:bss addr:0x0215bec4
data_ov077_0215bec8 kind:bss addr:0x0215bec8
sActorProfileUnkBBLE kind:bss addr:0x0215bed4
data_ov077_0215bf10 kind:bss addr:0x0215bf10
data_ov077_0215bf40 kind:bss addr:0x0215bf40 ambiguous
data_ov077_0215bf6c kind:bss addr:0x0215bf6c ambiguous
data_ov077_0215bf90 kind:bss addr:0x0215bf90 ambiguous
data_ov077_0215bfac kind:bss addr:0x0215bfac
data_ov077_0215bfb0 kind:bss addr:0x0215bfb0
sActorProfileUnkDSFR kind:bss addr:0x0215bfbc
data_ov077_0215c01c kind:bss addr:0x0215c01c ambiguous
data_ov077_0215c068 kind:bss addr:0x0215c068 ambiguous
data_ov077_0215c094 kind:bss addr:0x0215c094
data_ov077_0215c098 kind:bss addr:0x0215c098
sActorProfileUnkGOKI kind:bss addr:0x0215c0a4
data_ov077_0215c140 kind:bss addr:0x0215c140 ambiguous
data_ov077_0215c17c kind:bss addr:0x0215c17c
data_ov077_0215c184 kind:bss addr:0x0215c184
sActorProfileUnkPMST kind:bss addr:0x0215c190
data_ov077_0215c198 kind:bss addr:0x0215c198 ambiguous
data_ov077_0215c1d8 kind:bss addr:0x0215c1d8 ambiguous
data_ov077_0215c268 kind:bss addr:0x0215c268
data_ov077_0215c26c kind:bss addr:0x0215c26c
sActorProfileUnkOFSW kind:bss addr:0x0215c278
data_ov077_0215c298 kind:bss addr:0x0215c298 ambiguous
data_ov077_0215c2b4 kind:bss addr:0x0215c2b4
data_ov077_0215c2b8 kind:bss addr:0x0215c2b8
sMapObjectProfileUnkPLFR kind:bss addr:0x0215c2c4
data_ov077_0215c320 kind:bss addr:0x0215c320 ambiguous
data_ov077_0215c33c kind:bss addr:0x0215c33c ambiguous
data_ov077_0215c398 kind:bss addr:0x0215c398
data_ov077_0215c3bc kind:bss addr:0x0215c3bc
data_ov077_0215c3c0 kind:bss addr:0x0215c3c0
sMapObjectProfileUnkGTRK kind:bss addr:0x0215c3cc
