_ZN19ActorProfileUnkPBSP10GetProfileEv kind:function(arm,size=0xc) addr:0x02157ea0
_ZN19ActorProfileUnkPBSP6CreateEv kind:function(arm,size=0x24) addr:0x02157eac
_ZN19ActorProfileUnkPBSPC1Ev kind:function(arm,size=0x50) addr:0x02157ed0
_ZN12ActorUnkPBSPC1Ev kind:function(arm,size=0x5c) addr:0x02157f20
_ZN12ActorUnkPBSPD1Ev kind:function(arm,size=0x24) addr:0x02157f7c
_ZN12ActorUnkPBSPD0Ev kind:function(arm,size=0x2c) addr:0x02157fa0
_ZN12ActorUnkPBSP19func_ov059_02157fccEv kind:function(arm,size=0x2c) addr:0x02157fcc
_ZN12ActorUnkPBSP19func_ov059_02157ff8Ev kind:function(arm,size=0x44) addr:0x02157ff8
_ZN12ActorUnkPBSP19func_ov059_0215803cEv kind:function(arm,size=0xd4) addr:0x0215803c
_ZN12ActorUnkPBSP19func_ov059_02158110Ev kind:function(arm,size=0x4) addr:0x02158110
_ZN12ActorUnkPBSP19func_ov059_02158114Ev kind:function(arm,size=0x28) addr:0x02158114
_ZN12ActorUnkPBSP19func_ov059_0215813cEv kind:function(arm,size=0xc) addr:0x0215813c
_ZN12ActorUnkPBSP19func_ov059_02158148Ev kind:function(arm,size=0x50) addr:0x02158148
_ZN12ActorUnkPBSP19func_ov059_02158198Ev kind:function(arm,size=0x4) addr:0x02158198
_ZN12ActorUnkPBSP19func_ov059_0215819cEv kind:function(arm,size=0x6c) addr:0x0215819c
_ZN12ActorUnkPBSP19func_ov059_02158208Ev kind:function(arm,size=0x4) addr:0x02158208
_ZN12ActorUnkPBSP19func_ov059_0215820cEv kind:function(arm,size=0x44) addr:0x0215820c
_ZN12ActorUnkPBSP19func_ov059_02158250Ev kind:function(arm,size=0x4) addr:0x02158250
_ZN12ActorUnkPBSP19func_ov059_02158254Ev kind:function(arm,size=0xc0) addr:0x02158254
_ZN12ActorUnkPBSP19func_ov059_02158314Ev kind:function(arm,size=0x28) addr:0x02158314
_ZN12ActorUnkPBSP19func_ov059_0215833cEv kind:function(arm,size=0x94) addr:0x0215833c
_ZN12ActorUnkPBSP19func_ov059_021583d0Ev kind:function(arm,size=0x2c) addr:0x021583d0
_ZN12ActorUnkPBSP19func_ov059_021583fcEv kind:function(arm,size=0xa4) addr:0x021583fc
_ZN12ActorUnkPBSP19func_ov059_021584a0Ev kind:function(arm,size=0xc4) addr:0x021584a0
_ZN12ActorUnkPBSP19func_ov059_02158564Ev kind:function(arm,size=0x70) addr:0x02158564
_ZN12ActorUnkPBSP19func_ov059_021585d4Ev kind:function(arm,size=0x74) addr:0x021585d4
_ZN12ActorUnkPBSP19func_ov059_02158648Ev kind:function(arm,size=0x60) addr:0x02158648
_ZN12ActorUnkPBSP19func_ov059_021586a8Ev kind:function(arm,size=0xb4) addr:0x021586a8
_ZN12ActorUnkPBSP19func_ov059_0215875cEv kind:function(arm,size=0x6c) addr:0x0215875c
_ZN12ActorUnkPBSP19func_ov059_021587c8Ev kind:function(arm,size=0x158) addr:0x021587c8
_ZN12ActorUnkPBSP19func_ov059_02158920Ev kind:function(arm,size=0x8c) addr:0x02158920
_ZN12ActorUnkPBSP19func_ov059_021589acEv kind:function(arm,size=0x8) addr:0x021589ac
_ZN12ActorUnkPBSP19func_ov059_021589b4Ev kind:function(arm,size=0x80) addr:0x021589b4
_ZN12ActorUnkPBSP19func_ov059_02158a34Ev kind:function(arm,size=0x6c) addr:0x02158a34
_ZN12ActorUnkPBSP19func_ov059_02158aa0Ev kind:function(arm,size=0x90) addr:0x02158aa0
_ZN12ActorUnkPBSP19func_ov059_02158b30Ev kind:function(arm,size=0xc) addr:0x02158b30
_ZN19ActorProfileUnkPBSPD1Ev kind:function(arm,size=0x14) addr:0x02158b3c
_ZN19ActorProfileUnkPSEM10GetProfileEv kind:function(arm,size=0xc) addr:0x02158b50
_ZN19ActorProfileUnkPSEM6CreateEv kind:function(arm,size=0x24) addr:0x02158b5c
_ZN19ActorProfileUnkPSEMC1Ev kind:function(arm,size=0x4c) addr:0x02158b80
_ZN12ActorUnkPSEMC1Ev kind:function(arm,size=0x218) addr:0x02158bcc
_ZN12ActorUnkPSEM19func_ov059_02158de4Ev kind:function(arm,size=0x14) addr:0x02158de4
_ZN12ActorUnkPSEM19func_ov059_02158df8Ev kind:function(arm,size=0xa4) addr:0x02158df8
_ZN12ActorUnkPSEM19func_ov059_02158e9cEv kind:function(arm,size=0x3c) addr:0x02158e9c
_ZN12ActorUnkPSEM19func_ov059_02158ed8Ev kind:function(arm,size=0x48) addr:0x02158ed8
_ZN12ActorUnkPSEM19func_ov059_02158f20Ev kind:function(arm,size=0x28c) addr:0x02158f20
_ZN12ActorUnkPSEM19func_ov059_021591acEv kind:function(arm,size=0x140) addr:0x021591ac
_ZN12ActorUnkPSEM19func_ov059_021592ecEv kind:function(arm,size=0x40) addr:0x021592ec
_ZN12ActorUnkPSEM19func_ov059_0215932cEv kind:function(arm,size=0x1d0) addr:0x0215932c
_ZN12ActorUnkPSEM19func_ov059_021594fcEv kind:function(arm,size=0x24) addr:0x021594fc
_ZN12ActorUnkPSEM19func_ov059_02159520Ev kind:function(arm,size=0x134) addr:0x02159520
_ZN12ActorUnkPSEM19func_ov059_02159654Ev kind:function(arm,size=0x29c) addr:0x02159654
_ZN12ActorUnkPSEM19func_ov059_021598f0Ev kind:function(arm,size=0x78) addr:0x021598f0
_ZN12ActorUnkPSEM19func_ov059_02159968Ev kind:function(arm,size=0xc8) addr:0x02159968
_ZN12ActorUnkPSEM19func_ov059_02159a30Ev kind:function(arm,size=0x88) addr:0x02159a30
_ZN12ActorUnkPSEM19func_ov059_02159ab8Ev kind:function(arm,size=0x1fc) addr:0x02159ab8
_ZN12ActorUnkPSEM19func_ov059_02159cb4Ev kind:function(arm,size=0x88) addr:0x02159cb4
_ZN12ActorUnkPSEM19func_ov059_02159d3cEv kind:function(arm,size=0x1cc) addr:0x02159d3c
_ZN12ActorUnkPSEM19func_ov059_02159f08Ev kind:function(arm,size=0xa0) addr:0x02159f08
_ZN12ActorUnkPSEM19func_ov059_02159fa8Ev kind:function(arm,size=0xe0) addr:0x02159fa8
_ZN12ActorUnkPSEM19func_ov059_0215a088Ev kind:function(arm,size=0xac) addr:0x0215a088
_ZN12ActorUnkPSEM19func_ov059_0215a134Ev kind:function(arm,size=0x104) addr:0x0215a134
_ZN12ActorUnkPSEM19func_ov059_0215a238Ev kind:function(arm,size=0x8c) addr:0x0215a238
_ZN12ActorUnkPSEM19func_ov059_0215a2c4Ev kind:function(arm,size=0x268) addr:0x0215a2c4
_ZN12ActorUnkPSEM19func_ov059_0215a52cEv kind:function(arm,size=0xec) addr:0x0215a52c
_ZN12ActorUnkPSEM19func_ov059_0215a618Ev kind:function(arm,size=0x10c) addr:0x0215a618
_ZN12ActorUnkPSEM19func_ov059_0215a724Ev kind:function(arm,size=0x1fc) addr:0x0215a724
_ZN12ActorUnkPSEM19func_ov059_0215a920Ev kind:function(arm,size=0x254) addr:0x0215a920
_ZN12ActorUnkPSEM19func_ov059_0215ab74Ev kind:function(arm,size=0x64) addr:0x0215ab74
_ZN12ActorUnkPSEM19func_ov059_0215abd8Ev kind:function(arm,size=0x280) addr:0x0215abd8
_ZN12ActorUnkPSEM19func_ov059_0215ae58Ev kind:function(arm,size=0x198) addr:0x0215ae58
_ZN12ActorUnkPSEM19func_ov059_0215aff0Ev kind:function(arm,size=0x248) addr:0x0215aff0
_ZN12ActorUnkPSEM19func_ov059_0215b238Ev kind:function(arm,size=0x10) addr:0x0215b238
_ZN12ActorUnkPSEM19func_ov059_0215b248Ev kind:function(arm,size=0x4c) addr:0x0215b248
_ZN12ActorUnkPSEM19func_ov059_0215b294Ev kind:function(arm,size=0xb4) addr:0x0215b294
_ZN12ActorUnkPSEM19func_ov059_0215b348Ev kind:function(arm,size=0x28) addr:0x0215b348
_ZN12ActorUnkPSEM19func_ov059_0215b370Ev kind:function(arm,size=0xb0) addr:0x0215b370
_ZN12ActorUnkPSEM19func_ov059_0215b420Ev kind:function(arm,size=0x64) addr:0x0215b420
_ZN12ActorUnkPSEM19func_ov059_0215b484Ev kind:function(arm,size=0x2c) addr:0x0215b484
_ZN12ActorUnkPSEM19func_ov059_0215b4b0Ev kind:function(arm,size=0x41c) addr:0x0215b4b0
_ZN12ActorUnkPSEM19func_ov059_0215b8ccEv kind:function(arm,size=0x1dc) addr:0x0215b8cc
_ZN12ActorUnkPSEM19func_ov059_0215baa8Ev kind:function(arm,size=0x5c) addr:0x0215baa8
_ZN12ActorUnkPSEM19func_ov059_0215bb04Ev kind:function(arm,size=0x260) addr:0x0215bb04
_ZN12ActorUnkPSEM19func_ov059_0215bd64Ev kind:function(arm,size=0x70) addr:0x0215bd64
_ZN12ActorUnkPSEM19func_ov059_0215bdd4Ev kind:function(arm,size=0xbc) addr:0x0215bdd4
_ZN12ActorUnkPSEM19func_ov059_0215be90Ev kind:function(arm,size=0x124) addr:0x0215be90
_ZN12ActorUnkPSEM19func_ov059_0215bfb4Ev kind:function(arm,size=0x30) addr:0x0215bfb4
_ZN12ActorUnkPSEM19func_ov059_0215bfe4Ev kind:function(arm,size=0x2c) addr:0x0215bfe4
_ZN12ActorUnkPSEM19func_ov059_0215c010Ev kind:function(arm,size=0x64) addr:0x0215c010
_ZN12ActorUnkPSEM19func_ov059_0215c074Ev kind:function(arm,size=0x30) addr:0x0215c074
_ZN12ActorUnkPSEM19func_ov059_0215c0a4Ev kind:function(arm,size=0x110) addr:0x0215c0a4
_ZN12ActorUnkPSEM19func_ov059_0215c1b4Ev kind:function(arm,size=0x38) addr:0x0215c1b4
_ZN12ActorUnkPSEMD1Ev kind:function(arm,size=0x1c) addr:0x0215c1ec
_ZN12ActorUnkPSEMD0Ev kind:function(arm,size=0x24) addr:0x0215c208
_ZN12ActorUnkPSEM19func_ov059_0215c22cEv kind:function(arm,size=0x7c) addr:0x0215c22c
_ZN12ActorUnkPSEM19func_ov059_0215c2a8Ev kind:function(arm,size=0x24) addr:0x0215c2a8
_ZN12ActorUnkPSEM19func_ov059_0215c2ccEv kind:function(arm,size=0x2c) addr:0x0215c2cc
_ZN12ActorUnkPSEM19func_ov059_0215c2f8Ev kind:function(arm,size=0x1c) addr:0x0215c2f8
_ZN12ActorUnkPSEM19func_ov059_0215c314Ev kind:function(arm,size=0x84) addr:0x0215c314
_ZN12ActorUnkPSEM19func_ov059_0215c398Ev kind:function(arm,size=0x8c) addr:0x0215c398
_ZN19ActorProfileUnkPSEMD1Ev kind:function(arm,size=0x14) addr:0x0215c424
_ZN19ActorProfileUnkPSBS10GetProfileEv kind:function(arm,size=0xc) addr:0x0215c438
_ZN19ActorProfileUnkPSBS6CreateEv kind:function(arm,size=0x28) addr:0x0215c444
_ZN19ActorProfileUnkPSBSC1Ev kind:function(arm,size=0x58) addr:0x0215c46c
_ZN12ActorUnkPSBSC1Ev kind:function(arm,size=0x330) addr:0x0215c4c4
_ZN12ActorUnkPSBS19func_ov059_0215c7f4Ev kind:function(arm,size=0x14) addr:0x0215c7f4
_ZN12ActorUnkPSBS19func_ov059_0215c808Ev kind:function(arm,size=0x17c) addr:0x0215c808
_ZN12ActorUnkPSBS19func_ov059_0215c984Ev kind:function(arm,size=0x2c) addr:0x0215c984
_ZN12ActorUnkPSBS19func_ov059_0215c9b0Ev kind:function(arm,size=0x48) addr:0x0215c9b0
_ZN12ActorUnkPSBS19func_ov059_0215c9f8Ev kind:function(arm,size=0x80) addr:0x0215c9f8
_ZN12ActorUnkPSBS19func_ov059_0215ca78Ev kind:function(arm,size=0x21c) addr:0x0215ca78
_ZN12ActorUnkPSBS19func_ov059_0215cc94Ev kind:function(arm,size=0x338) addr:0x0215cc94
_ZN12ActorUnkPSBS19func_ov059_0215cfccEv kind:function(arm,size=0x40) addr:0x0215cfcc
_ZN12ActorUnkPSBS19func_ov059_0215d00cEv kind:function(arm,size=0x18) addr:0x0215d00c
_ZN12ActorUnkPSBS19func_ov059_0215d024Ev kind:function(arm,size=0x2b4) addr:0x0215d024
_ZN12ActorUnkPSBS19func_ov059_0215d2d8Ev kind:function(arm,size=0x80) addr:0x0215d2d8
_ZN12ActorUnkPSBS19func_ov059_0215d358Ev kind:function(arm,size=0x30) addr:0x0215d358
_ZN12ActorUnkPSBS19func_ov059_0215d388Ev kind:function(arm,size=0x8d8) addr:0x0215d388
_ZN12ActorUnkPSBS19func_ov059_0215dc60Ev kind:function(arm,size=0x2c) addr:0x0215dc60
_ZN12ActorUnkPSBS19func_ov059_0215dc8cEv kind:function(arm,size=0x1e8) addr:0x0215dc8c
_ZN12ActorUnkPSBS19func_ov059_0215de74Ev kind:function(arm,size=0x134) addr:0x0215de74
_ZN12ActorUnkPSBS19func_ov059_0215dfa8Ev kind:function(arm,size=0x43c) addr:0x0215dfa8
_ZN12ActorUnkPSBS19func_ov059_0215e3e4Ev kind:function(arm,size=0x6c) addr:0x0215e3e4
_ZN12ActorUnkPSBS19func_ov059_0215e450Ev kind:function(arm,size=0x334) addr:0x0215e450
_ZN12ActorUnkPSBS19func_ov059_0215e784Ev kind:function(arm,size=0x4) addr:0x0215e784
_ZN12ActorUnkPSBS19func_ov059_0215e788Ev kind:function(arm,size=0x4) addr:0x0215e788
_ZN12ActorUnkPSBS19func_ov059_0215e78cEv kind:function(arm,size=0x10) addr:0x0215e78c
_ZN12ActorUnkPSBS19func_ov059_0215e79cEv kind:function(arm,size=0x4) addr:0x0215e79c
_ZN12ActorUnkPSBS19func_ov059_0215e7a0Ev kind:function(arm,size=0x18) addr:0x0215e7a0
_ZN12ActorUnkPSBS19func_ov059_0215e7b8Ev kind:function(arm,size=0x598) addr:0x0215e7b8
_ZN12ActorUnkPSBS19func_ov059_0215ed50Ev kind:function(arm,size=0x1f4) addr:0x0215ed50
_ZN12ActorUnkPSBS19func_ov059_0215ef44Ev kind:function(arm,size=0x48c) addr:0x0215ef44
_ZN12ActorUnkPSBS19func_ov059_0215f3d0Ev kind:function(arm,size=0x5c) addr:0x0215f3d0
_ZN12ActorUnkPSBS19func_ov059_0215f42cEv kind:function(arm,size=0x2ac) addr:0x0215f42c
_ZN12ActorUnkPSBS19func_ov059_0215f6d8Ev kind:function(arm,size=0x68) addr:0x0215f6d8
_ZN12ActorUnkPSBS19func_ov059_0215f740Ev kind:function(arm,size=0x34) addr:0x0215f740
_ZN12ActorUnkPSBS19func_ov059_0215f774Ev kind:function(arm,size=0x378) addr:0x0215f774
_ZN12ActorUnkPSBS19func_ov059_0215faecEv kind:function(arm,size=0xb8) addr:0x0215faec
_ZN12ActorUnkPSBS19func_ov059_0215fba4Ev kind:function(arm,size=0x88) addr:0x0215fba4
_ZN12ActorUnkPSBS19func_ov059_0215fc2cEv kind:function(arm,size=0x6c) addr:0x0215fc2c
_ZN12ActorUnkPSBS19func_ov059_0215fc98Ev kind:function(arm,size=0x248) addr:0x0215fc98
_ZN12ActorUnkPSBS19func_ov059_0215fee0Ev kind:function(arm,size=0x18) addr:0x0215fee0
_ZN12ActorUnkPSBS19func_ov059_0215fef8Ev kind:function(arm,size=0x14c) addr:0x0215fef8
_ZN12ActorUnkPSBS19func_ov059_02160044Ev kind:function(arm,size=0xfc) addr:0x02160044
_ZN12ActorUnkPSBS19func_ov059_02160140Ev kind:function(arm,size=0x6c) addr:0x02160140
_ZN12ActorUnkPSBS19func_ov059_021601acEv kind:function(arm,size=0x128) addr:0x021601ac
_ZN12ActorUnkPSBS19func_ov059_021602d4Ev kind:function(arm,size=0xb0) addr:0x021602d4
_ZN12ActorUnkPSBSD0Ev kind:function(arm,size=0x1c) addr:0x02160384
_ZN12ActorUnkPSBSD1Ev kind:function(arm,size=0x50) addr:0x021603a0
_ZN12ActorUnkPSBS19func_ov059_021603f0Ev kind:function(arm,size=0x58) addr:0x021603f0
_ZN19ActorProfileUnkPSBSD1Ev kind:function(arm,size=0x14) addr:0x02160448
_ZN19ActorProfileUnkPSNP10GetProfileEv kind:function(thumb,size=0x8) addr:0x0216045c
_ZN19ActorProfileUnkPSNP6CreateEv kind:function(thumb,size=0x18) addr:0x02160464
_ZN19ActorProfileUnkPSNPC1Ev kind:function(thumb,size=0x3c) addr:0x0216047c
_ZN12ActorUnkPSNP19func_ov059_021604b8Ev kind:function(thumb,size=0x110) addr:0x021604b8
_ZN12ActorUnkPSNP19func_ov059_021605c8Ev kind:function(thumb,size=0xc) addr:0x021605c8
_ZN12ActorUnkPSNP19func_ov059_021605d4Ev kind:function(thumb,size=0x34) addr:0x021605d4
_ZN12ActorUnkPSNP19func_ov059_02160608Ev kind:function(thumb,size=0x3c) addr:0x02160608
_ZN12ActorUnkPSNP19func_ov059_02160644Ev kind:function(arm,size=0x54) addr:0x02160644
_ZN12ActorUnkPSNP19func_ov059_02160698Ev kind:function(arm,size=0x88) addr:0x02160698
_ZN12ActorUnkPSNP19func_ov059_02160720Ev kind:function(arm,size=0x2c) addr:0x02160720
_ZN12ActorUnkPSNP19func_ov059_0216074cEv kind:function(arm,size=0x50) addr:0x0216074c
_ZN12ActorUnkPSNP19func_ov059_0216079cEv kind:function(arm,size=0x16c) addr:0x0216079c
_ZN12ActorUnkPSNP19func_ov059_02160908Ev kind:function(arm,size=0x14) addr:0x02160908
_ZN12ActorUnkPSNP19func_ov059_0216091cEv kind:function(arm,size=0x30) addr:0x0216091c
_ZN12ActorUnkPSNP19func_ov059_0216094cEv kind:function(arm,size=0x4) addr:0x0216094c
_ZN12ActorUnkPSNP19func_ov059_02160950Ev kind:function(arm,size=0x30) addr:0x02160950
_ZN12ActorUnkPSNP19func_ov059_02160980Ev kind:function(arm,size=0x3c) addr:0x02160980
_ZN12ActorUnkPSNP19func_ov059_021609bcEv kind:function(arm,size=0x30) addr:0x021609bc
_ZN12ActorUnkPSNP19func_ov059_021609ecEv kind:function(arm,size=0x4c) addr:0x021609ec
_ZN12ActorUnkPSNP19func_ov059_02160a38Ev kind:function(arm,size=0x30) addr:0x02160a38
_ZN12ActorUnkPSNP19func_ov059_02160a68Ev kind:function(arm,size=0x10) addr:0x02160a68
_ZN12ActorUnkPSNP19func_ov059_02160a78Ev kind:function(arm,size=0x38) addr:0x02160a78
_ZN12ActorUnkPSNP19func_ov059_02160ab0Ev kind:function(arm,size=0x64) addr:0x02160ab0
_ZN12ActorUnkPSNP19func_ov059_02160b14Ev kind:function(arm,size=0x34) addr:0x02160b14
_ZN12ActorUnkPSNP19func_ov059_02160b48Ev kind:function(arm,size=0x5c) addr:0x02160b48
_ZN12ActorUnkPSNP19func_ov059_02160ba4Ev kind:function(arm,size=0x30) addr:0x02160ba4
_ZN12ActorUnkPSNP19func_ov059_02160bd4Ev kind:function(arm,size=0x44) addr:0x02160bd4
_ZN12ActorUnkPSNP19func_ov059_02160c18Ev kind:function(arm,size=0x18) addr:0x02160c18
_ZN12ActorUnkPSNP19func_ov059_02160c30Ev kind:function(arm,size=0x18) addr:0x02160c30
_ZN12ActorUnkPSNP19func_ov059_02160c48Ev kind:function(arm,size=0x64) addr:0x02160c48
_ZN12ActorUnkPSNP19func_ov059_02160cacEv kind:function(arm,size=0x4) addr:0x02160cac
_ZN12ActorUnkPSNP19func_ov059_02160cb0Ev kind:function(arm,size=0x18) addr:0x02160cb0
_ZN12ActorUnkPSNP19func_ov059_02160cc8Ev kind:function(arm,size=0x40) addr:0x02160cc8
_ZN12ActorUnkPSNP19func_ov059_02160d08Ev kind:function(arm,size=0x90) addr:0x02160d08
_ZN12ActorUnkPSNPD0Ev kind:function(arm,size=0x1c) addr:0x02160d98
_ZN12ActorUnkPSNP19func_ov059_02160db4Ev kind:function(arm,size=0x28) addr:0x02160db4
_ZN12ActorUnkPSNPD2Ev kind:function(arm,size=0x20) addr:0x02160ddc
_ZN19ActorProfileUnkPSNPD1Ev kind:function(arm,size=0x14) addr:0x02160dfc
_ZN19ActorProfileUnkCAGE10GetProfileEv kind:function(arm,size=0xc) addr:0x02160e10
_ZN19ActorProfileUnkCAGE6CreateEv kind:function(arm,size=0x24) addr:0x02160e1c
_ZN19ActorProfileUnkCAGEC1Ev kind:function(arm,size=0x44) addr:0x02160e40
_ZN12ActorUnkCAGEC1Ev kind:function(arm,size=0xe0) addr:0x02160e84
_ZN12ActorUnkCAGE19func_ov059_02160f64Ev kind:function(arm,size=0x30) addr:0x02160f64
_ZN12ActorUnkCAGE19func_ov059_02160f94Ev kind:function(arm,size=0x3c) addr:0x02160f94
_ZN12ActorUnkCAGE19func_ov059_02160fd0Ev kind:function(arm,size=0x64) addr:0x02160fd0
_ZN12ActorUnkCAGE19func_ov059_02161034Ev kind:function(arm,size=0x14) addr:0x02161034
_ZN12ActorUnkCAGE19func_ov059_02161048Ev kind:function(arm,size=0x14) addr:0x02161048
_ZN12ActorUnkCAGE19func_ov059_0216105cEv kind:function(arm,size=0x4) addr:0x0216105c
_ZN12ActorUnkCAGE19func_ov059_02161060Ev kind:function(arm,size=0x20) addr:0x02161060
_ZN12ActorUnkCAGE19func_ov059_02161080Ev kind:function(arm,size=0x64) addr:0x02161080
_ZN12ActorUnkCAGE19func_ov059_021610e4Ev kind:function(arm,size=0x4) addr:0x021610e4
_ZN12ActorUnkCAGE19func_ov059_021610e8Ev kind:function(arm,size=0x4) addr:0x021610e8
_ZN12ActorUnkCAGE19func_ov059_021610ecEv kind:function(arm,size=0x78) addr:0x021610ec
_ZN12ActorUnkCAGE19func_ov059_02161164Ev kind:function(arm,size=0xac) addr:0x02161164
_ZN12ActorUnkCAGE19func_ov059_02161210Ev kind:function(arm,size=0x14) addr:0x02161210
_ZN12ActorUnkCAGE19func_ov059_02161224Ev kind:function(arm,size=0x16c) addr:0x02161224
_ZN12ActorUnkCAGE19func_ov059_02161390Ev kind:function(arm,size=0x2c) addr:0x02161390
_ZN12ActorUnkCAGE19func_ov059_021613bcEv kind:function(arm,size=0x8c) addr:0x021613bc
_ZN12ActorUnkCAGE19func_ov059_02161448Ev kind:function(arm,size=0x28) addr:0x02161448
_ZN12ActorUnkCAGED1Ev kind:function(arm,size=0x28) addr:0x02161470
_ZN12ActorUnkCAGED0Ev kind:function(arm,size=0x30) addr:0x02161498
_ZN19ActorProfileUnkCAGED1Ev kind:function(arm,size=0x14) addr:0x021614c8
func_ov059_021614dc kind:function(arm,size=0x20) addr:0x021614dc
func_ov059_021614fc kind:function(arm,size=0x1c) addr:0x021614fc
func_ov059_02161518 kind:function(arm,size=0x24) addr:0x02161518
_ZN19ActorProfileUnkRMVT10GetProfileEv kind:function(arm,size=0xc) addr:0x0216153c
_ZN19ActorProfileUnkRMVT6CreateEv kind:function(arm,size=0x24) addr:0x02161548
_ZN19ActorProfileUnkRMVTC1Ev kind:function(arm,size=0x40) addr:0x0216156c
_ZN12ActorUnkRMVTC1Ev kind:function(arm,size=0xf0) addr:0x021615ac
_ZN12ActorUnkRMVT19func_ov059_0216169cEv kind:function(arm,size=0x1c) addr:0x0216169c
_ZN12ActorUnkRMVT19func_ov059_021616b8Ev kind:function(arm,size=0x14) addr:0x021616b8
_ZN12ActorUnkRMVT19func_ov059_021616ccEv kind:function(arm,size=0x184) addr:0x021616cc
_ZN12ActorUnkRMVT19func_ov059_02161850Ev kind:function(arm,size=0x4) addr:0x02161850
_ZN12ActorUnkRMVT19func_ov059_02161854Ev kind:function(arm,size=0x14) addr:0x02161854
_ZN12ActorUnkRMVT19func_ov059_02161868Ev kind:function(arm,size=0x84) addr:0x02161868
_ZN12ActorUnkRMVT19func_ov059_021618ecEv kind:function(arm,size=0xf4) addr:0x021618ec
_ZN12ActorUnkRMVT19func_ov059_021619e0Ev kind:function(arm,size=0x18) addr:0x021619e0
_ZN12ActorUnkRMVT19func_ov059_021619f8Ev kind:function(arm,size=0x78) addr:0x021619f8
_ZN12ActorUnkRMVTD1Ev kind:function(arm,size=0x38) addr:0x02161a70
_ZN12ActorUnkRMVTD0Ev kind:function(arm,size=0x40) addr:0x02161aa8
_ZN19ActorProfileUnkRMVTD1Ev kind:function(arm,size=0x14) addr:0x02161ae8
func_ov059_02161afc kind:function(arm,size=0x20) addr:0x02161afc
func_ov059_02161b1c kind:function(arm,size=0x40) addr:0x02161b1c
func_ov059_02161b5c kind:function(arm,size=0x4) addr:0x02161b5c
func_ov059_02161b60 kind:function(arm,size=0x4) addr:0x02161b60
func_ov059_02161b64 kind:function(arm,size=0x14) addr:0x02161b64
func_ov059_02161b78 kind:function(arm,size=0xc) addr:0x02161b78
_ZN19func_ov059_02161b84D1Ev kind:function(arm,size=0x20) addr:0x02161b84
_ZN19func_ov059_02161ba4D0Ev kind:function(arm,size=0x28) addr:0x02161ba4
_ZN19ActorProfileUnkRMVF10GetProfileEv kind:function(arm,size=0xc) addr:0x02161bcc
_ZN19ActorProfileUnkRMVF6CreateEv kind:function(arm,size=0x24) addr:0x02161bd8
_ZN19ActorProfileUnkRMVFC1Ev kind:function(arm,size=0x28) addr:0x02161bfc
_ZN12ActorUnkRMVFC1Ev kind:function(arm,size=0xc0) addr:0x02161c24
_ZN12ActorUnkRMVF19func_ov059_02161ce4Ev kind:function(arm,size=0x14) addr:0x02161ce4
_ZN12ActorUnkRMVF19func_ov059_02161cf8Ev kind:function(arm,size=0xa0) addr:0x02161cf8
_ZN12ActorUnkRMVF19func_ov059_02161d98Ev kind:function(arm,size=0x2c) addr:0x02161d98
_ZN12ActorUnkRMVF19func_ov059_02161dc4Ev kind:function(arm,size=0x50) addr:0x02161dc4
_ZN12ActorUnkRMVF19func_ov059_02161e14Ev kind:function(arm,size=0x8) addr:0x02161e14
_ZN12ActorUnkRMVF19func_ov059_02161e1cEv kind:function(arm,size=0x24) addr:0x02161e1c
_ZN12ActorUnkRMVF19func_ov059_02161e40Ev kind:function(arm,size=0x10) addr:0x02161e40
_ZN12ActorUnkRMVF19func_ov059_02161e50Ev kind:function(arm,size=0x8) addr:0x02161e50
_ZN12ActorUnkRMVFD0Ev kind:function(arm,size=0x1c) addr:0x02161e58
_ZN12ActorUnkRMVFD1Ev kind:function(arm,size=0x30) addr:0x02161e74
_ZN12ActorUnkRMVF19func_ov059_02161ea4Ev kind:function(arm,size=0x38) addr:0x02161ea4
_ZN19ActorProfileUnkRMVFD1Ev kind:function(arm,size=0x14) addr:0x02161edc
_ZN19ActorProfileUnkRMVS10GetProfileEv kind:function(arm,size=0xc) addr:0x02161ef0
_ZN19ActorProfileUnkRMVS6CreateEv kind:function(arm,size=0x24) addr:0x02161efc
_ZN19ActorProfileUnkRMVSC1Ev kind:function(arm,size=0x28) addr:0x02161f20
_ZN12ActorUnkRMVSC1Ev kind:function(arm,size=0xc0) addr:0x02161f48
_ZN12ActorUnkRMVS19func_ov059_02162008Ev kind:function(arm,size=0xa0) addr:0x02162008
_ZN12ActorUnkRMVS19func_ov059_021620a8Ev kind:function(arm,size=0x2c) addr:0x021620a8
_ZN12ActorUnkRMVS19func_ov059_021620d4Ev kind:function(arm,size=0x50) addr:0x021620d4
_ZN12ActorUnkRMVS19func_ov059_02162124Ev kind:function(arm,size=0x8) addr:0x02162124
_ZN12ActorUnkRMVSD1Ev kind:function(arm,size=0x30) addr:0x0216212c
_ZN12ActorUnkRMVSD0Ev kind:function(arm,size=0x38) addr:0x0216215c
_ZN19ActorProfileUnkRMVSD1Ev kind:function(arm,size=0x14) addr:0x02162194
_ZN19ActorProfileUnkRMVW10GetProfileEv kind:function(arm,size=0xc) addr:0x021621a8
_ZN19ActorProfileUnkRMVW6CreateEv kind:function(arm,size=0x24) addr:0x021621b4
_ZN19ActorProfileUnkRMVWC1Ev kind:function(arm,size=0x28) addr:0x021621d8
_ZN12ActorUnkRMVWC1Ev kind:function(arm,size=0xc0) addr:0x02162200
_ZN12ActorUnkRMVW19func_ov059_021622c0Ev kind:function(arm,size=0xa0) addr:0x021622c0
_ZN12ActorUnkRMVW19func_ov059_02162360Ev kind:function(arm,size=0x2c) addr:0x02162360
_ZN12ActorUnkRMVW19func_ov059_0216238cEv kind:function(arm,size=0x50) addr:0x0216238c
_ZN12ActorUnkRMVW19func_ov059_021623dcEv kind:function(arm,size=0x8) addr:0x021623dc
_ZN12ActorUnkRMVWD1Ev kind:function(arm,size=0x30) addr:0x021623e4
_ZN12ActorUnkRMVWD0Ev kind:function(arm,size=0x38) addr:0x02162414
_ZN19ActorProfileUnkRMVWD1Ev kind:function(arm,size=0x14) addr:0x0216244c
_ZN19ActorProfileUnkRMVV10GetProfileEv kind:function(arm,size=0xc) addr:0x02162460
_ZN19ActorProfileUnkRMVV6CreateEv kind:function(arm,size=0x24) addr:0x0216246c
_ZN19ActorProfileUnkRMVVC1Ev kind:function(arm,size=0x28) addr:0x02162490
_ZN12ActorUnkRMVVC1Ev kind:function(arm,size=0xc0) addr:0x021624b8
_ZN12ActorUnkRMVV19func_ov059_02162578Ev kind:function(arm,size=0xa0) addr:0x02162578
_ZN12ActorUnkRMVV19func_ov059_02162618Ev kind:function(arm,size=0x2c) addr:0x02162618
_ZN12ActorUnkRMVV19func_ov059_02162644Ev kind:function(arm,size=0x50) addr:0x02162644
_ZN12ActorUnkRMVV19func_ov059_02162694Ev kind:function(arm,size=0x8) addr:0x02162694
_ZN12ActorUnkRMVVD1Ev kind:function(arm,size=0x30) addr:0x0216269c
_ZN12ActorUnkRMVVD0Ev kind:function(arm,size=0x38) addr:0x021626cc
_ZN19ActorProfileUnkRMVVD1Ev kind:function(arm,size=0x14) addr:0x02162704
_ZN19ActorProfileUnkRMVD10GetProfileEv kind:function(arm,size=0xc) addr:0x02162718
_ZN19ActorProfileUnkRMVD6CreateEv kind:function(arm,size=0x24) addr:0x02162724
_ZN19ActorProfileUnkRMVDC1Ev kind:function(arm,size=0x28) addr:0x02162748
_ZN12ActorUnkRMVDC1Ev kind:function(arm,size=0xc0) addr:0x02162770
_ZN12ActorUnkRMVD19func_ov059_02162830Ev kind:function(arm,size=0xa0) addr:0x02162830
_ZN12ActorUnkRMVD19func_ov059_021628d0Ev kind:function(arm,size=0x2c) addr:0x021628d0
_ZN12ActorUnkRMVD19func_ov059_021628fcEv kind:function(arm,size=0x50) addr:0x021628fc
_ZN12ActorUnkRMVD19func_ov059_0216294cEv kind:function(arm,size=0x8) addr:0x0216294c
_ZN12ActorUnkRMVDD1Ev kind:function(arm,size=0x30) addr:0x02162954
_ZN12ActorUnkRMVDD0Ev kind:function(arm,size=0x38) addr:0x02162984
_ZN19ActorProfileUnkRMVDD1Ev kind:function(arm,size=0x14) addr:0x021629bc
_ZN19ActorProfileUnkRMTR10GetProfileEv kind:function(arm,size=0xc) addr:0x021629d0
_ZN19ActorProfileUnkRMTR6CreateEv kind:function(arm,size=0x24) addr:0x021629dc
_ZN19ActorProfileUnkRMTRC1Ev kind:function(arm,size=0x28) addr:0x02162a00
_ZN12ActorUnkRMTRC1Ev kind:function(arm,size=0x74) addr:0x02162a28
_ZN12ActorUnkRMTR19func_ov059_02162a9cEv kind:function(arm,size=0x38) addr:0x02162a9c
_ZN12ActorUnkRMTR19func_ov059_02162ad4Ev kind:function(arm,size=0x20) addr:0x02162ad4
_ZN12ActorUnkRMTR19func_ov059_02162af4Ev kind:function(arm,size=0x28) addr:0x02162af4
_ZN12ActorUnkRMTRD1Ev kind:function(arm,size=0x20) addr:0x02162b1c
_ZN12ActorUnkRMTRD0Ev kind:function(arm,size=0x28) addr:0x02162b3c
_ZN19ActorProfileUnkRMTRD1Ev kind:function(arm,size=0x14) addr:0x02162b64
_ZN19ActorProfileUnkRMTB10GetProfileEv kind:function(arm,size=0xc) addr:0x02162b78
_ZN19ActorProfileUnkRMTB6CreateEv kind:function(arm,size=0x24) addr:0x02162b84
_ZN19ActorProfileUnkRMTBC1Ev kind:function(arm,size=0x28) addr:0x02162ba8
_ZN12ActorUnkRMTBC1Ev kind:function(arm,size=0x20) addr:0x02162bd0
_ZN12ActorUnkRMTB19func_ov059_02162bf0Ev kind:function(arm,size=0x50) addr:0x02162bf0
_ZN12ActorUnkRMTBD1Ev kind:function(arm,size=0x20) addr:0x02162c40
_ZN12ActorUnkRMTBD0Ev kind:function(arm,size=0x28) addr:0x02162c60
_ZN19ActorProfileUnkRMTBD1Ev kind:function(arm,size=0x14) addr:0x02162c88
_ZN23MapObjectProfileUnkEXTR10GetProfileEv kind:function(arm,size=0xc) addr:0x02162c9c
_ZN23MapObjectProfileUnkEXTR6CreateEv kind:function(arm,size=0x24) addr:0x02162ca8
_ZN23MapObjectProfileUnkEXTRC1Ev kind:function(arm,size=0x44) addr:0x02162ccc
_ZN16MapObjectUnkEXTRC1Ev kind:function(arm,size=0x34) addr:0x02162d10
_ZN16MapObjectUnkEXTR19func_ov059_02162d44Ev kind:function(arm,size=0xc0) addr:0x02162d44
_ZN16MapObjectUnkEXTRD1Ev kind:function(arm,size=0x14) addr:0x02162e04
_ZN16MapObjectUnkEXTRD0Ev kind:function(arm,size=0x1c) addr:0x02162e18
_ZN23MapObjectProfileUnkEXTRD1Ev kind:function(arm,size=0x14) addr:0x02162e34
data_ov059_02162e4c kind:data(any) addr:0x02162e4c
data_ov059_02162e50 kind:data(any) addr:0x02162e50
data_ov059_02162e54 kind:data(any) addr:0x02162e54
data_ov059_02162e58 kind:data(any) addr:0x02162e58
data_ov059_02162e5c kind:data(any) addr:0x02162e5c
data_ov059_02162e6c kind:data(any) addr:0x02162e6c
__sinit_ActorUnkPBSP.cpp kind:function(arm,size=0x50) addr:0x02162eac
__sinit_ActorUnkPSEM.cpp kind:function(arm,size=0x8c) addr:0x02162efc
__sinit_ActorUnkPSBS.cpp kind:function(arm,size=0x78) addr:0x02162f88
__sinit_ActorUnkPSNP.cpp kind:function(arm,size=0x5c) addr:0x02163000
__sinit_ActorUnkCAGE.cpp kind:function(arm,size=0x50) addr:0x0216305c
__sinit_ActorUnkRMVT.cpp kind:function(arm,size=0x68) addr:0x021630ac
__sinit_ActorUnkRMVF.cpp kind:function(arm,size=0x50) addr:0x02163114
__sinit_ActorUnkRMVS.cpp kind:function(arm,size=0x50) addr:0x02163164
__sinit_ActorUnkRMVW.cpp kind:function(arm,size=0x50) addr:0x021631b4
__sinit_ActorUnkRMVV.cpp kind:function(arm,size=0x50) addr:0x02163204
__sinit_ActorUnkRMVD.cpp kind:function(arm,size=0x50) addr:0x02163254
__sinit_ActorUnkRMTR.cpp kind:function(arm,size=0x50) addr:0x021632a4
__sinit_ActorUnkRMTB.cpp kind:function(arm,size=0x50) addr:0x021632f4
__sinit_MapObjectUnkEXTR.cpp kind:function(arm,size=0x50) addr:0x02163344
.p__sinit_ActorUnkPBSP.cpp kind:data(word) addr:0x02163394
.p__sinit_ActorUnkPSEM.cpp kind:data(word) addr:0x02163398
.p__sinit_ActorUnkPSBS.cpp kind:data(word) addr:0x0216339c
.p__sinit_ActorUnkPSNP.cpp kind:data(word) addr:0x021633a0
.p__sinit_ActorUnkCAGE.cpp kind:data(word) addr:0x021633a4
.p__sinit_ActorUnkRMVT.cpp kind:data(word) addr:0x021633a8
.p__sinit_ActorUnkRMVF.cpp kind:data(word) addr:0x021633ac
.p__sinit_ActorUnkRMVS.cpp kind:data(word) addr:0x021633b0
.p__sinit_ActorUnkRMVW.cpp kind:data(word) addr:0x021633b4
.p__sinit_ActorUnkRMVV.cpp kind:data(word) addr:0x021633b8
.p__sinit_ActorUnkRMVD.cpp kind:data(word) addr:0x021633bc
.p__sinit_ActorUnkRMTR.cpp kind:data(word) addr:0x021633c0
.p__sinit_ActorUnkRMTB.cpp kind:data(word) addr:0x021633c4
.p__sinit_MapObjectUnkEXTR.cpp kind:data(word) addr:0x021633c8
_ZTV19data_ov059_021633e0 kind:data(any) addr:0x021633e0
data_ov059_02163404 kind:data(any) addr:0x02163404
data_ov059_0216342c kind:data(any) addr:0x0216342c
_ZTV19data_ov059_02163454 kind:data(any) addr:0x02163454
data_ov059_021634b4 kind:data(any) addr:0x021634b4
data_ov059_021634c0 kind:data(any) addr:0x021634c0
data_ov059_021634d4 kind:data(any) addr:0x021634d4
_ZTV19data_ov059_021634e8 kind:data(any) addr:0x021634e8
data_ov059_02163514 kind:data(any) addr:0x02163514
data_ov059_02163518 kind:data(any) addr:0x02163518 ambiguous
_ZTV19data_ov059_02163558 kind:data(any) addr:0x02163558
data_ov059_021635b8 kind:data(any) addr:0x021635b8
data_ov059_02163628 kind:data(any) addr:0x02163628
data_ov059_02163698 kind:data(any) addr:0x02163698
data_ov059_021636b0 kind:data(any) addr:0x021636b0
data_ov059_021636f8 kind:data(any) addr:0x021636f8
data_ov059_02163710 kind:data(any) addr:0x02163710
data_ov059_02163740 kind:data(any) addr:0x02163740
data_ov059_02163758 kind:data(any) addr:0x02163758
data_ov059_02163770 kind:data(any) addr:0x02163770
_ZTV19data_ov059_0216377c kind:data(any) addr:0x0216377c
data_ov059_021637a8 kind:data(any) addr:0x021637a8
data_ov059_021637cc kind:data(any) addr:0x021637cc
data_ov059_0216380c kind:data(any) addr:0x0216380c
_ZTV19data_ov059_0216384c kind:data(any) addr:0x0216384c
data_ov059_021638ac kind:data(any) addr:0x021638ac
data_ov059_021638c4 kind:data(any) addr:0x021638c4
data_ov059_02163924 kind:data(any) addr:0x02163924
_ZTV19data_ov059_0216399c kind:data(any) addr:0x0216399c
data_ov059_021639c0 kind:data(any) addr:0x021639c0
data_ov059_021639f0 kind:data(any) addr:0x021639f0
_ZTV19data_ov059_02163a20 kind:data(any) addr:0x02163a20
_ZTV19data_ov059_02163a54 kind:data(any) addr:0x02163a54
_ZTV19data_ov059_02163b18 kind:data(any) addr:0x02163b18
_ZTV19data_ov059_02163bdc kind:data(any) addr:0x02163bdc
data_ov059_02163c00 kind:data(any) addr:0x02163c00
data_ov059_02163c28 kind:data(any) addr:0x02163c28
_ZTV19data_ov059_02163c50 kind:data(any) addr:0x02163c50
data_ov059_02163cac kind:data(any) addr:0x02163cac
data_ov059_02163cc0 kind:data(any) addr:0x02163cc0
_ZTV19data_ov059_02163cdc kind:data(any) addr:0x02163cdc
_ZTV19data_ov059_02163d00 kind:data(any) addr:0x02163d00
_ZTV19data_ov059_02163d5c kind:data(any) addr:0x02163d5c
_ZTV19data_ov059_02163dc0 kind:data(any) addr:0x02163dc0
data_ov059_02163de4 kind:data(any) addr:0x02163de4
data_ov059_02163dfc kind:data(any) addr:0x02163dfc
data_ov059_02163e1c kind:data(any) addr:0x02163e1c
_ZTV19data_ov059_02163e5c kind:data(any) addr:0x02163e5c
_ZTV19data_ov059_02163ec0 kind:data(any) addr:0x02163ec0
data_ov059_02163ee4 kind:data(any) addr:0x02163ee4
data_ov059_02163efc kind:data(any) addr:0x02163efc
_ZTV19data_ov059_02163f14 kind:data(any) addr:0x02163f14
_ZTV19data_ov059_02163f78 kind:data(any) addr:0x02163f78
data_ov059_02163f9c kind:data(any) addr:0x02163f9c
data_ov059_02163fb4 kind:data(any) addr:0x02163fb4
_ZTV19data_ov059_02163fcc kind:data(any) addr:0x02163fcc
_ZTV19data_ov059_02163fd8 kind:data(any) addr:0x02163fd8 ambiguous
_ZTV19data_ov059_02163fec kind:data(any) addr:0x02163fec ambiguous
_ZTV19data_ov059_02164030 kind:data(any) addr:0x02164030
data_ov059_02164054 kind:data(any) addr:0x02164054
data_ov059_0216406c kind:data(any) addr:0x0216406c
_ZTV19data_ov059_02164084 kind:data(any) addr:0x02164084
_ZTV19data_ov059_021640e8 kind:data(any) addr:0x021640e8
data_ov059_0216410c kind:data(any) addr:0x0216410c
data_ov059_02164124 kind:data(any) addr:0x02164124
_ZTV19data_ov059_0216413c kind:data(any) addr:0x0216413c
_ZTV19data_ov059_021641a0 kind:data(any) addr:0x021641a0
_ZTV19data_ov059_021641c4 kind:data(any) addr:0x021641c4
data_ov059_021641c8 kind:data(any) addr:0x021641c8 ambiguous
_ZTV19data_ov059_021641c8 kind:data(any) addr:0x021641c8 ambiguous
_ZTV19data_ov059_02164220 kind:data(any) addr:0x02164220
_ZTV19data_ov059_02164244 kind:data(any) addr:0x02164244
data_ov059_021642ac kind:data(any) addr:0x021642ac
data_ov059_021642c8 kind:data(any) addr:0x021642c8
data_ov059_021642f0 kind:data(any) addr:0x021642f0
data_ov059_021642fc kind:data(any) addr:0x021642fc ambiguous
_ZGVN15ProfileInstanceI19ActorProfileUnkPBSPE8sProfileE kind:bss addr:0x02164340
@12194 kind:bss addr:0x02164344
_ZN15ProfileInstanceI19ActorProfileUnkPBSPE8sProfileE kind:bss addr:0x02164350
data_ov059_0216438c kind:bss addr:0x0216438c
_ZGVN15ProfileInstanceI19ActorProfileUnkPSEME8sProfileE kind:bss addr:0x02164390
@12200 kind:bss addr:0x0216439c
_ZN15ProfileInstanceI19ActorProfileUnkPSEME8sProfileE kind:bss addr:0x021643a8
data_ov059_02164480 kind:bss addr:0x02164480
_ZGVN15ProfileInstanceI19ActorProfileUnkPSBSE8sProfileE kind:bss addr:0x02164484
@12206 kind:bss addr:0x02164490
_ZN15ProfileInstanceI19ActorProfileUnkPSBSE8sProfileE kind:bss addr:0x0216449c
data_ov059_02164574 kind:bss addr:0x02164574
_ZGVN15ProfileInstanceI19ActorProfileUnkPSNPE8sProfileE kind:bss addr:0x02164578
@12212 kind:bss addr:0x02164584
_ZN15ProfileInstanceI19ActorProfileUnkPSNPE8sProfileE kind:bss addr:0x02164590
_ZGVN15ProfileInstanceI19ActorProfileUnkCAGEE8sProfileE kind:bss addr:0x02164668
@12218 kind:bss addr:0x0216466c
_ZN15ProfileInstanceI19ActorProfileUnkCAGEE8sProfileE kind:bss addr:0x02164678
data_ov059_02164690 kind:bss addr:0x02164690 ambiguous
_ZGVN15ProfileInstanceI19ActorProfileUnkRMVTE8sProfileE kind:bss addr:0x02164750
@12224 kind:bss addr:0x02164754
_ZN15ProfileInstanceI19ActorProfileUnkRMVTE8sProfileE kind:bss addr:0x02164760
_ZGVN15ProfileInstanceI19ActorProfileUnkRMVFE8sProfileE kind:bss addr:0x02164838
@12230 kind:bss addr:0x0216483c
_ZN15ProfileInstanceI19ActorProfileUnkRMVFE8sProfileE kind:bss addr:0x02164848
_ZGVN15ProfileInstanceI19ActorProfileUnkRMVSE8sProfileE kind:bss addr:0x02164920
@12236 kind:bss addr:0x02164924
_ZN15ProfileInstanceI19ActorProfileUnkRMVSE8sProfileE kind:bss addr:0x02164930
_ZGVN15ProfileInstanceI19ActorProfileUnkRMVWE8sProfileE kind:bss addr:0x02164a08
@12242 kind:bss addr:0x02164a0c
_ZN15ProfileInstanceI19ActorProfileUnkRMVWE8sProfileE kind:bss addr:0x02164a18
_ZGVN15ProfileInstanceI19ActorProfileUnkRMVVE8sProfileE kind:bss addr:0x02164af0
@12248 kind:bss addr:0x02164af4
_ZN15ProfileInstanceI19ActorProfileUnkRMVVE8sProfileE kind:bss addr:0x02164b00
_ZGVN15ProfileInstanceI19ActorProfileUnkRMVDE8sProfileE kind:bss addr:0x02164bd8
@12254 kind:bss addr:0x02164bdc
_ZN15ProfileInstanceI19ActorProfileUnkRMVDE8sProfileE kind:bss addr:0x02164be8
_ZGVN15ProfileInstanceI19ActorProfileUnkRMTRE8sProfileE kind:bss addr:0x02164cc0
@12260 kind:bss addr:0x02164cc4
_ZN15ProfileInstanceI19ActorProfileUnkRMTRE8sProfileE kind:bss addr:0x02164cd0
_ZGVN15ProfileInstanceI19ActorProfileUnkRMTBE8sProfileE kind:bss addr:0x02164da8
@12266 kind:bss addr:0x02164dac
_ZN15ProfileInstanceI19ActorProfileUnkRMTBE8sProfileE kind:bss addr:0x02164db8
data_ov059_02164e90 kind:bss addr:0x02164e90
data_ov059_02164e94 kind:bss addr:0x02164e94
_ZN15ProfileInstanceI23MapObjectProfileUnkEXTRE8sProfileE kind:bss addr:0x02164ea0
