_ZN23MapObjectProfileUnkTMDE10GetProfileEv kind:function(arm,size=0xc) addr:0x02143d60
_ZN23MapObjectProfileUnkTMDE6CreateEv kind:function(arm,size=0x24) addr:0x02143d6c
_ZN23MapObjectProfileUnkTMDEC1Ev kind:function(arm,size=0x38) addr:0x02143d90
_ZN16MapObjectUnkTMDEC1Ev kind:function(arm,size=0xc4) addr:0x02143dc8
_ZN16MapObjectUnkTMDE19func_ov029_02141b0cEv kind:function(arm,size=0x14) addr:0x02143e8c
_ZN16MapObjectUnkTMDE19func_ov029_02141b20Ev kind:function(arm,size=0x1ec) addr:0x02143ea0
_ZN16MapObjectUnkTMDE19func_ov029_02141d0cEv kind:function(arm,size=0xe8) addr:0x0214408c
_ZN16MapObjectUnkTMDE19func_ov029_02141df4Ev kind:function(arm,size=0x8) addr:0x02144174
_ZN16MapObjectUnkTMDE19func_ov029_02141dfcEv kind:function(arm,size=0x8) addr:0x0214417c
_ZN16MapObjectUnkTMDE19func_ov029_02141e04Ev kind:function(arm,size=0x4) addr:0x02144184
_ZN16MapObjectUnkTMDE19func_ov029_02141e08Ev kind:function(arm,size=0x4) addr:0x02144188
_ZN16MapObjectUnkTMDE19func_ov029_02141e0cEv kind:function(arm,size=0x74) addr:0x0214418c
_ZN16MapObjectUnkTMDE19func_ov029_02141e80Ev kind:function(arm,size=0x20) addr:0x02144200
_ZN16MapObjectUnkTMDE19func_ov029_02141ea0Ev kind:function(arm,size=0x20) addr:0x02144220
_ZN16MapObjectUnkTMDE19func_ov029_02141ec0Ev kind:function(arm,size=0x20) addr:0x02144240
_ZN16MapObjectUnkTMDED0Ev kind:function(arm,size=0x1c) addr:0x02144260
_ZN16MapObjectUnkTMDED1Ev kind:function(arm,size=0x28) addr:0x0214427c
_ZN16MapObjectUnkTMDE19func_ov029_02141f24Ev kind:function(arm,size=0x30) addr:0x021442a4
_ZN16MapObjectUnkTMDE19func_ov029_02141f54Ev kind:function(arm,size=0x28) addr:0x021442d4
_ZN16MapObjectUnkTMDED2Ev kind:function(arm,size=0x20) addr:0x021442fc
_ZN23MapObjectProfileUnkTMDED1Ev kind:function(arm,size=0x14) addr:0x0214431c
_ZN23MapObjectProfileUnkTMWT10GetProfileEv kind:function(arm,size=0xc) addr:0x02144330
_ZN23MapObjectProfileUnkTMWT6CreateEv kind:function(arm,size=0x24) addr:0x0214433c
_ZN23MapObjectProfileUnkTMWTC1Ev kind:function(arm,size=0x40) addr:0x02144360
_ZN16MapObjectUnkTMWTC1Ev kind:function(arm,size=0xa0) addr:0x021443a0
_ZN16MapObjectUnkTMWT19func_ov029_021420c0Ev kind:function(arm,size=0xe8) addr:0x02144440
_ZN16MapObjectUnkTMWT19func_ov029_021421a8Ev kind:function(arm,size=0x20) addr:0x02144528
_ZN16MapObjectUnkTMWT19func_ov029_021421c8Ev kind:function(arm,size=0x20) addr:0x02144548
_ZN16MapObjectUnkTMWT19func_ov029_021421e8Ev kind:function(arm,size=0x20) addr:0x02144568
_ZN16MapObjectUnkTMWTD1Ev kind:function(arm,size=0x20) addr:0x02144588
_ZN16MapObjectUnkTMWTD0Ev kind:function(arm,size=0x28) addr:0x021445a8
_ZN23MapObjectProfileUnkTMWTD1Ev kind:function(arm,size=0x14) addr:0x021445d0
_ZN23MapObjectProfileUnkTRWA10GetProfileEv kind:function(arm,size=0xc) addr:0x021445e4
_ZN23MapObjectProfileUnkTRWA6CreateEv kind:function(arm,size=0x24) addr:0x021445f0
_ZN23MapObjectProfileUnkTRWAC1Ev kind:function(arm,size=0x5c) addr:0x02144614
_ZN16MapObjectUnkTRWAC1Ev kind:function(arm,size=0xa0) addr:0x02144670
_ZN16MapObjectUnkTRWA19func_ov029_02142390Ev kind:function(arm,size=0xec) addr:0x02144710
_ZN16MapObjectUnkTRWA19func_ov029_0214247cEv kind:function(arm,size=0x20) addr:0x021447fc
_ZN16MapObjectUnkTRWA19func_ov029_0214249cEv kind:function(arm,size=0x20) addr:0x0214481c
_ZN16MapObjectUnkTRWA19func_ov029_021424bcEv kind:function(arm,size=0x20) addr:0x0214483c
_ZN16MapObjectUnkTRWA19func_ov029_021424dcEv kind:function(arm,size=0x8) addr:0x0214485c
_ZN16MapObjectUnkTRWAD1Ev kind:function(arm,size=0x20) addr:0x02144864
_ZN16MapObjectUnkTRWAD0Ev kind:function(arm,size=0x28) addr:0x02144884
_ZN23MapObjectProfileUnkTRWAD1Ev kind:function(arm,size=0x14) addr:0x021448ac
_ZN23MapObjectProfileUnkTRRW10GetProfileEv kind:function(arm,size=0xc) addr:0x021448c0
_ZN23MapObjectProfileUnkTRRW6CreateEv kind:function(arm,size=0x24) addr:0x021448cc
_ZN23MapObjectProfileUnkTRRWC1Ev kind:function(arm,size=0x40) addr:0x021448f0
_ZN16MapObjectUnkTRRWC1Ev kind:function(arm,size=0xa0) addr:0x02144930
_ZN16MapObjectUnkTRRW19func_ov029_02142648Ev kind:function(arm,size=0xec) addr:0x021449d0
_ZN16MapObjectUnkTRRW19func_ov029_02142734Ev kind:function(arm,size=0x20) addr:0x02144abc
_ZN16MapObjectUnkTRRW19func_ov029_02142754Ev kind:function(arm,size=0x20) addr:0x02144adc
_ZN16MapObjectUnkTRRW19func_ov029_02142774Ev kind:function(arm,size=0x20) addr:0x02144afc
_ZN16MapObjectUnkTRRW19func_ov029_02142794Ev kind:function(arm,size=0x8) addr:0x02144b1c
_ZN16MapObjectUnkTRRWD1Ev kind:function(arm,size=0x20) addr:0x02144b24
_ZN16MapObjectUnkTRRWD0Ev kind:function(arm,size=0x28) addr:0x02144b44
_ZN23MapObjectProfileUnkTRRWD1Ev kind:function(arm,size=0x14) addr:0x02144b6c
_ZN23MapObjectProfileUnkTRSA10GetProfileEv kind:function(arm,size=0xc) addr:0x02144b80
_ZN23MapObjectProfileUnkTRSA6CreateEv kind:function(arm,size=0x24) addr:0x02144b8c
_ZN23MapObjectProfileUnkTRSAC1Ev kind:function(arm,size=0x5c) addr:0x02144bb0
_ZN16MapObjectUnkTRSAC1Ev kind:function(arm,size=0x90) addr:0x02144c0c
_ZN16MapObjectUnkTRSA19func_ov029_02142914Ev kind:function(arm,size=0x23c) addr:0x02144c9c
_ZN16MapObjectUnkTRSA19func_ov029_02142b50Ev kind:function(arm,size=0xe8) addr:0x02144ed8
_ZN16MapObjectUnkTRSA19func_ov029_02142c38Ev kind:function(arm,size=0x8) addr:0x02144fc0
_ZN16MapObjectUnkTRSA19func_ov029_02142c40Ev kind:function(arm,size=0x8) addr:0x02144fc8
_ZN16MapObjectUnkTRSA19func_ov029_02142c48Ev kind:function(arm,size=0x4) addr:0x02144fd0
_ZN16MapObjectUnkTRSA19func_ov029_02142c4cEv kind:function(arm,size=0x174) addr:0x02144fd4
_ZN16MapObjectUnkTRSA19func_ov029_02142dc0Ev kind:function(arm,size=0x198) addr:0x02145148
_ZN16MapObjectUnkTRSA19func_ov029_02142f58Ev kind:function(arm,size=0x4c) addr:0x021452e0
_ZN16MapObjectUnkTRSA19func_ov029_02142fa4Ev kind:function(arm,size=0x8c) addr:0x0214532c
_ZN16MapObjectUnkTRSA19func_ov029_02143030Ev kind:function(arm,size=0x58) addr:0x021453b8
_ZN16MapObjectUnkTRSA19func_ov029_02143088Ev kind:function(arm,size=0x48) addr:0x02145410
_ZN16MapObjectUnkTRSA19func_ov029_021430d0Ev kind:function(arm,size=0x20) addr:0x02145458
_ZN16MapObjectUnkTRSA19func_ov029_021430f0Ev kind:function(arm,size=0x20) addr:0x02145478
_ZN16MapObjectUnkTRSA19func_ov029_02143110Ev kind:function(arm,size=0x20) addr:0x02145498
_ZN16MapObjectUnkTRSA19func_ov029_02143130Ev kind:function(arm,size=0x8) addr:0x021454b8
_ZN16MapObjectUnkTRSAD1Ev kind:function(arm,size=0x40) addr:0x021454c0
_ZN16MapObjectUnkTRSAD0Ev kind:function(arm,size=0x48) addr:0x02145500
_ZN16MapObjectUnkTRSA19func_ov029_021431c0Ev kind:function(arm,size=0x40) addr:0x02145548
_ZN16MapObjectUnkTRSAD2Ev kind:function(arm,size=0x38) addr:0x02145588
_ZN23MapObjectProfileUnkTRSAD1Ev kind:function(arm,size=0x14) addr:0x021455c0
_ZN23MapObjectProfileUnkTRRD10GetProfileEv kind:function(arm,size=0xc) addr:0x021455d4
_ZN23MapObjectProfileUnkTRRD6CreateEv kind:function(arm,size=0x24) addr:0x021455e0
_ZN23MapObjectProfileUnkTRRDC1Ev kind:function(arm,size=0x38) addr:0x02145604
_ZN16MapObjectUnkTRRDC1Ev kind:function(arm,size=0xa0) addr:0x0214563c
_ZN16MapObjectUnkTRRD19func_ov029_02143354Ev kind:function(arm,size=0xec) addr:0x021456dc
_ZN16MapObjectUnkTRRD19func_ov029_02143440Ev kind:function(arm,size=0x20) addr:0x021457c8
_ZN16MapObjectUnkTRRD19func_ov029_02143460Ev kind:function(arm,size=0x20) addr:0x021457e8
_ZN16MapObjectUnkTRRD19func_ov029_02143480Ev kind:function(arm,size=0x20) addr:0x02145808
_ZN16MapObjectUnkTRRD19func_ov029_021434a0Ev kind:function(arm,size=0x8) addr:0x02145828
_ZN16MapObjectUnkTRRDD1Ev kind:function(arm,size=0x20) addr:0x02145830
_ZN16MapObjectUnkTRRDD0Ev kind:function(arm,size=0x28) addr:0x02145850
_ZN23MapObjectProfileUnkTRRDD1Ev kind:function(arm,size=0x14) addr:0x02145878
_ZN23MapObjectProfileUnkTRPI10GetProfileEv kind:function(arm,size=0xc) addr:0x0214588c
_ZN23MapObjectProfileUnkTRPI6CreateEv kind:function(arm,size=0x24) addr:0x02145898
_ZN23MapObjectProfileUnkTRPIC1Ev kind:function(arm,size=0x40) addr:0x021458bc
_ZN16MapObjectUnkTRPIC1Ev kind:function(arm,size=0xa0) addr:0x021458fc
_ZN16MapObjectUnkTRPI19func_ov029_02143614Ev kind:function(arm,size=0xec) addr:0x0214599c
_ZN16MapObjectUnkTRPI19func_ov029_02143700Ev kind:function(arm,size=0x20) addr:0x02145a88
_ZN16MapObjectUnkTRPI19func_ov029_02143720Ev kind:function(arm,size=0x20) addr:0x02145aa8
_ZN16MapObjectUnkTRPI19func_ov029_02143740Ev kind:function(arm,size=0x20) addr:0x02145ac8
_ZN16MapObjectUnkTRPI19func_ov029_02143760Ev kind:function(arm,size=0x8) addr:0x02145ae8
_ZN16MapObjectUnkTRPID1Ev kind:function(arm,size=0x20) addr:0x02145af0
_ZN16MapObjectUnkTRPID0Ev kind:function(arm,size=0x28) addr:0x02145b10
_ZN23MapObjectProfileUnkTRPID1Ev kind:function(arm,size=0x14) addr:0x02145b38
_ZN23MapObjectProfileUnkSBDE10GetProfileEv kind:function(arm,size=0xc) addr:0x02145b4c
_ZN23MapObjectProfileUnkSBDE6CreateEv kind:function(arm,size=0x24) addr:0x02145b58
_ZN23MapObjectProfileUnkSBDEC1Ev kind:function(arm,size=0x2c) addr:0x02145b7c
_ZN16MapObjectUnkSBDEC1Ev kind:function(arm,size=0xac) addr:0x02145ba8
_ZN16MapObjectUnkSBDE19func_ov029_021438ccEv kind:function(arm,size=0xc4) addr:0x02145c54
_ZN16MapObjectUnkSBDE19func_ov029_02143990Ev kind:function(arm,size=0x464) addr:0x02145d18
_ZN16MapObjectUnkSBDE19func_ov029_02143df4Ev kind:function(arm,size=0x14) addr:0x0214617c
_ZN16MapObjectUnkSBDE19func_ov029_02143e08Ev kind:function(arm,size=0x13c) addr:0x02146190
_ZN16MapObjectUnkSBDE19func_ov029_02143f44Ev kind:function(arm,size=0x98) addr:0x021462cc
_ZN16MapObjectUnkSBDE19func_ov029_02143fdcEv kind:function(arm,size=0x8) addr:0x02146364
_ZN16MapObjectUnkSBDED1Ev kind:function(arm,size=0x38) addr:0x0214636c
_ZN16MapObjectUnkSBDED0Ev kind:function(arm,size=0x40) addr:0x021463a4
_ZN23MapObjectProfileUnkSBDED1Ev kind:function(arm,size=0x14) addr:0x021463e4
_ZN23MapObjectProfileUnkSTDE10GetProfileEv kind:function(arm,size=0xc) addr:0x021463f8
_ZN23MapObjectProfileUnkSTDE6CreateEv kind:function(arm,size=0x24) addr:0x02146404
_ZN23MapObjectProfileUnkSTDEC1Ev kind:function(arm,size=0x48) addr:0x02146428
_ZN16MapObjectUnkSTDEC1Ev kind:function(arm,size=0xac) addr:0x02146470
_ZN16MapObjectUnkSTDE19func_ov029_02144194Ev kind:function(arm,size=0x6c) addr:0x0214651c
_ZN16MapObjectUnkSTDE19func_ov029_02144200Ev kind:function(arm,size=0x28) addr:0x02146588
_ZN16MapObjectUnkSTDE19func_ov029_02144228Ev kind:function(arm,size=0x1c) addr:0x021465b0
_ZN16MapObjectUnkSTDE19func_ov029_02144244Ev kind:function(arm,size=0x44) addr:0x021465cc
_ZN16MapObjectUnkSTDE19func_ov029_02144288Ev kind:function(arm,size=0x30) addr:0x02146610
_ZN16MapObjectUnkSTDED1Ev kind:function(arm,size=0x28) addr:0x02146640
_ZN16MapObjectUnkSTDED0Ev kind:function(arm,size=0x30) addr:0x02146668
_ZN23MapObjectProfileUnkSTDED1Ev kind:function(arm,size=0x14) addr:0x02146698
_ZN23MapObjectProfileUnkTCBT10GetProfileEv kind:function(arm,size=0xc) addr:0x021466ac
_ZN23MapObjectProfileUnkTCBT6CreateEv kind:function(arm,size=0x24) addr:0x021466b8
_ZN23MapObjectProfileUnkTCBTC1Ev kind:function(arm,size=0xb8) addr:0x021466dc
_ZN16MapObjectUnkTCBT19func_ov029_0214440cEv kind:function(arm,size=0x3c) addr:0x02146794
_ZN16MapObjectUnkTCBT19func_ov029_02144448Ev kind:function(arm,size=0x38) addr:0x021467d0
_ZN16MapObjectUnkTCBT19func_ov029_02144480Ev kind:function(arm,size=0x3c) addr:0x02146808
_ZN16MapObjectUnkTCBT19func_ov029_021444bcEv kind:function(arm,size=0x78) addr:0x02146844
_ZN16MapObjectUnkTCBTC1Ev kind:function(arm,size=0x108) addr:0x021468bc
_ZN16MapObjectUnkTCBT19func_ov029_0214463cEv kind:function(arm,size=0x14) addr:0x021469c4
_ZN16MapObjectUnkTCBT19func_ov029_02144650Ev kind:function(arm,size=0x140) addr:0x021469d8
_ZN16MapObjectUnkTCBT19func_ov029_02144790Ev kind:function(arm,size=0x70) addr:0x02146b18
_ZN16MapObjectUnkTCBT19func_ov029_02144800Ev kind:function(arm,size=0x4) addr:0x02146b88
_ZN16MapObjectUnkTCBT19func_ov029_02144804Ev kind:function(arm,size=0x174) addr:0x02146b8c
_ZN16MapObjectUnkTCBT19func_ov029_02144978Ev kind:function(arm,size=0x9c) addr:0x02146d00
_ZN16MapObjectUnkTCBT19func_ov029_02144a14Ev kind:function(arm,size=0x9c) addr:0x02146d9c
_ZN16MapObjectUnkTCBT19func_ov029_02144ab0Ev kind:function(arm,size=0x70) addr:0x02146e38
_ZN16MapObjectUnkTCBT19func_ov029_02144b20Ev kind:function(arm,size=0x474) addr:0x02146ea8
_ZN16MapObjectUnkTCBT19func_ov029_02144f94Ev kind:function(arm,size=0x64) addr:0x0214731c
_ZN16MapObjectUnkTCBT19func_ov029_02144ff8Ev kind:function(arm,size=0xfc) addr:0x02147380
_ZN16MapObjectUnkTCBT19func_ov029_021450f4Ev kind:function(arm,size=0x80) addr:0x0214747c
_ZN16MapObjectUnkTCBT19func_ov029_02145174Ev kind:function(arm,size=0x84) addr:0x021474fc
_ZN16MapObjectUnkTCBT19func_ov029_021451f8Ev kind:function(arm,size=0x108) addr:0x02147580
_ZN16MapObjectUnkTCBTD0Ev kind:function(arm,size=0x1c) addr:0x02147688
_ZN16MapObjectUnkTCBTD1Ev kind:function(arm,size=0x28) addr:0x021476a4
_ZN16MapObjectUnkTCBT19func_ov029_02145324Ev kind:function(arm,size=0x30) addr:0x021476cc
_ZN23MapObjectProfileUnkTCBTD1Ev kind:function(arm,size=0x14) addr:0x021476fc
_ZN23MapObjectProfileUnkWHSW10GetProfileEv kind:function(arm,size=0xc) addr:0x02147710
_ZN23MapObjectProfileUnkWHSW6CreateEv kind:function(arm,size=0x24) addr:0x0214771c
_ZN23MapObjectProfileUnkWHSWC1Ev kind:function(arm,size=0xa8) addr:0x02147740
_ZN16MapObjectUnkWHSWC1Ev kind:function(arm,size=0xc0) addr:0x021477e8
_ZN16MapObjectUnkWHSW19func_ov029_02145500Ev kind:function(arm,size=0xb4) addr:0x021478a8
_ZN16MapObjectUnkWHSW19func_ov029_021455b4Ev kind:function(arm,size=0x348) addr:0x0214795c
_ZN16MapObjectUnkWHSW19func_ov029_021458fcEv kind:function(arm,size=0x14) addr:0x02147ca4
_ZN16MapObjectUnkWHSW19func_ov029_02145910Ev kind:function(arm,size=0xfc) addr:0x02147cb8
_ZN16MapObjectUnkWHSW19func_ov029_02145a0cEv kind:function(arm,size=0x70) addr:0x02147db4
_ZN16MapObjectUnkWHSW19func_ov029_02145a7cEv kind:function(arm,size=0x188) addr:0x02147e24
_ZN16MapObjectUnkWHSWD1Ev kind:function(arm,size=0x28) addr:0x02147fac
_ZN16MapObjectUnkWHSWD0Ev kind:function(arm,size=0x30) addr:0x02147fd4
_ZN23MapObjectProfileUnkWHSWD1Ev kind:function(arm,size=0x14) addr:0x02148004
_ZN23MapObjectProfileUnkTRH110GetProfileEv kind:function(arm,size=0xc) addr:0x02148018
_ZN23MapObjectProfileUnkTRH16CreateEv kind:function(arm,size=0x24) addr:0x02148024
_ZN23MapObjectProfileUnkTRH1C1Ev kind:function(arm,size=0x40) addr:0x02148048
_ZN16MapObjectUnkTRH1C1Ev kind:function(arm,size=0x3c) addr:0x02148088
_ZN16MapObjectUnkTRH119func_ov029_02145d1cEv kind:function(arm,size=0x150) addr:0x021480c4
_ZN16MapObjectUnkTRH119func_ov029_02145e6cEv kind:function(arm,size=0xc) addr:0x02148214
_ZN16MapObjectUnkTRH119func_ov029_02145e78Ev kind:function(arm,size=0xc) addr:0x02148220
_ZN16MapObjectUnkTRH119func_ov029_02145e84Ev kind:function(arm,size=0x40) addr:0x0214822c
_ZN16MapObjectUnkTRH119func_ov029_02145ec4Ev kind:function(arm,size=0x20) addr:0x0214826c
_ZN16MapObjectUnkTRH119func_ov029_02145ee4Ev kind:function(arm,size=0x20) addr:0x0214828c
_ZN16MapObjectUnkTRH119func_ov029_02145f04Ev kind:function(arm,size=0x8) addr:0x021482ac
_ZN16MapObjectUnkTRH1D1Ev kind:function(arm,size=0x20) addr:0x021482b4
_ZN16MapObjectUnkTRH1D0Ev kind:function(arm,size=0x28) addr:0x021482d4
_ZN23MapObjectProfileUnkTRH1D1Ev kind:function(arm,size=0x14) addr:0x021482fc
_ZN23MapObjectProfileUnkTBSS10GetProfileEv kind:function(arm,size=0xc) addr:0x02148310
_ZN23MapObjectProfileUnkTBSS6CreateEv kind:function(arm,size=0x24) addr:0x0214831c
_ZN23MapObjectProfileUnkTBSSC1Ev kind:function(arm,size=0xac) addr:0x02148340
_ZN16MapObjectUnkTBSSC1Ev kind:function(arm,size=0x2c) addr:0x021483ec
_ZN16MapObjectUnkTBSS19func_ov029_02146070Ev kind:function(arm,size=0x58) addr:0x02148418
_ZN16MapObjectUnkTBSS19func_ov029_021460c8Ev kind:function(arm,size=0xc) addr:0x02148470
_ZN16MapObjectUnkTBSS19func_ov029_021460d4Ev kind:function(arm,size=0x50) addr:0x0214847c
_ZN16MapObjectUnkTBSS19func_ov029_02146124Ev kind:function(arm,size=0xc) addr:0x021484cc
_ZN16MapObjectUnkTBSS19func_ov029_02146130Ev kind:function(arm,size=0x70) addr:0x021484d8
_ZN16MapObjectUnkTBSSD1Ev kind:function(arm,size=0x20) addr:0x02148548
_ZN16MapObjectUnkTBSSD0Ev kind:function(arm,size=0x28) addr:0x02148568
_ZN23MapObjectProfileUnkTBSSD1Ev kind:function(arm,size=0x14) addr:0x02148590
_ZN23MapObjectProfileUnkTRBL10GetProfileEv kind:function(arm,size=0xc) addr:0x021485a4
_ZN23MapObjectProfileUnkTRBL6CreateEv kind:function(arm,size=0x24) addr:0x021485b0
_ZN23MapObjectProfileUnkTRBLC1Ev kind:function(arm,size=0xb0) addr:0x021485d4
_ZN16MapObjectUnkTRBL19func_ov029_021462dcEv kind:function(arm,size=0xb0) addr:0x02148684
_ZN16MapObjectUnkTRBLC1Ev kind:function(arm,size=0xb0) addr:0x02148734
_ZN16MapObjectUnkTRBL19func_ov029_0214643cEv kind:function(arm,size=0x108) addr:0x021487e4
_ZN16MapObjectUnkTRBL19func_ov029_02146544Ev kind:function(arm,size=0x16c) addr:0x021488ec
_ZN16MapObjectUnkTRBL19func_ov029_021466b0Ev kind:function(arm,size=0x38) addr:0x02148a58
_ZN16MapObjectUnkTRBL19func_ov029_021466e8Ev kind:function(arm,size=0x70) addr:0x02148a90
_ZN16MapObjectUnkTRBL19func_ov029_02146758Ev kind:function(arm,size=0xc0) addr:0x02148b00
_ZN16MapObjectUnkTRBL19func_ov029_02146818Ev kind:function(arm,size=0x80) addr:0x02148bc0
_ZN16MapObjectUnkTRBLD1Ev kind:function(arm,size=0x20) addr:0x02148c40
_ZN16MapObjectUnkTRBLD0Ev kind:function(arm,size=0x28) addr:0x02148c60
_ZN23MapObjectProfileUnkTRBLD1Ev kind:function(arm,size=0x14) addr:0x02148c88
_ZN23MapObjectProfileUnkRBBL10GetProfileEv kind:function(arm,size=0xc) addr:0x02148c9c
_ZN23MapObjectProfileUnkRBBL6CreateEv kind:function(arm,size=0x24) addr:0x02148ca8
_ZN23MapObjectProfileUnkRBBLC1Ev kind:function(arm,size=0xa8) addr:0x02148ccc
_ZN16MapObjectUnkRBBLC1Ev kind:function(arm,size=0x20) addr:0x02148d74
_ZN16MapObjectUnkRBBL19func_ov029_021469ecEv kind:function(arm,size=0x14) addr:0x02148d94
_ZN16MapObjectUnkRBBL19func_ov029_02146a00Ev kind:function(arm,size=0xa8) addr:0x02148da8
_ZN16MapObjectUnkRBBLD1Ev kind:function(arm,size=0x20) addr:0x02148e50
_ZN16MapObjectUnkRBBLD0Ev kind:function(arm,size=0x28) addr:0x02148e70
_ZN23MapObjectProfileUnkRBBLD1Ev kind:function(arm,size=0x14) addr:0x02148e98
_ZN19ActorProfileUnkDLPN10GetProfileEv kind:function(arm,size=0xc) addr:0x02148eac
_ZN19ActorProfileUnkDLPN6CreateEv kind:function(arm,size=0x24) addr:0x02148eb8
_ZN19ActorProfileUnkDLPNC1Ev kind:function(arm,size=0x68) addr:0x02148edc
_ZN12ActorUnkDLPNC1Ev kind:function(arm,size=0x228) addr:0x02148f44
_ZN12ActorUnkDLPN19func_ov029_02146dc4Ev kind:function(arm,size=0x14) addr:0x0214916c
_ZN12ActorUnkDLPN19func_ov029_02146dd8Ev kind:function(arm,size=0x14) addr:0x02149180
_ZN12ActorUnkDLPN19func_ov029_02146decEv kind:function(arm,size=0x184) addr:0x02149194
_ZN12ActorUnkDLPN19func_ov029_02146f70Ev kind:function(arm,size=0x14) addr:0x02149318
_ZN12ActorUnkDLPN19func_ov029_02146f84Ev kind:function(arm,size=0xf4) addr:0x0214932c
_ZN12ActorUnkDLPN19func_ov029_02147078Ev kind:function(arm,size=0xbc) addr:0x02149420
_ZN12ActorUnkDLPND0Ev kind:function(arm,size=0xc4) addr:0x021494dc
_ZN12ActorUnkDLPN19func_ov029_021471f8Ev kind:function(arm,size=0x74) addr:0x021495a0
_ZN12ActorUnkDLPN19func_ov029_0214726cEv kind:function(arm,size=0x120) addr:0x02149614
_ZN12ActorUnkDLPN19func_ov029_0214738cEv kind:function(arm,size=0x58) addr:0x02149734
_ZN12ActorUnkDLPN19func_ov029_021473e4Ev kind:function(arm,size=0x64) addr:0x0214978c
_ZN12ActorUnkDLPN19func_ov029_02147448Ev kind:function(arm,size=0xc) addr:0x021497f0
_ZN12ActorUnkDLPN19func_ov029_02147454Ev kind:function(arm,size=0x1c) addr:0x021497fc
_ZN12ActorUnkDLPN19func_ov029_02147470Ev kind:function(arm,size=0xe4) addr:0x02149818
_ZN12ActorUnkDLPN19func_ov029_02147554Ev kind:function(arm,size=0x114) addr:0x021498fc
_ZN12ActorUnkDLPN19func_ov029_02147668Ev kind:function(arm,size=0xb4) addr:0x02149a10
_ZN12ActorUnkDLPN19func_ov029_0214771cEv kind:function(arm,size=0x940) addr:0x02149ac4
_ZN12ActorUnkDLPN19func_ov029_0214805cEv kind:function(arm,size=0x144) addr:0x0214a404
_ZN12ActorUnkDLPN19func_ov029_021481a0Ev kind:function(arm,size=0x4fc) addr:0x0214a548
_ZN12ActorUnkDLPN19func_ov029_0214869cEv kind:function(arm,size=0xe4) addr:0x0214aa44
_ZN12ActorUnkDLPN19func_ov029_02148780Ev kind:function(arm,size=0x650) addr:0x0214ab28
_ZN12ActorUnkDLPN19func_ov029_02148dd0Ev kind:function(arm,size=0x100) addr:0x0214b178
_ZN12ActorUnkDLPN19func_ov029_02148ed0Ev kind:function(arm,size=0x294) addr:0x0214b278
_ZN12ActorUnkDLPN19func_ov029_02149164Ev kind:function(arm,size=0xd0) addr:0x0214b50c
_ZN12ActorUnkDLPN19func_ov029_02149234Ev kind:function(arm,size=0x418) addr:0x0214b5dc
_ZN12ActorUnkDLPN19func_ov029_0214964cEv kind:function(arm,size=0x44) addr:0x0214b9f4
_ZN12ActorUnkDLPN19func_ov029_02149690Ev kind:function(arm,size=0xec) addr:0x0214ba38
_ZN12ActorUnkDLPN19func_ov029_0214977cEv kind:function(arm,size=0x14) addr:0x0214bb24
_ZN12ActorUnkDLPN19func_ov029_02149790Ev kind:function(arm,size=0x170) addr:0x0214bb38
_ZN12ActorUnkDLPN19func_ov029_02149900Ev kind:function(arm,size=0x108) addr:0x0214bca8
_ZN12ActorUnkDLPN19func_ov029_02149a08Ev kind:function(arm,size=0x64) addr:0x0214bdb0
_ZN12ActorUnkDLPN19func_ov029_02149a6cEv kind:function(arm,size=0x130) addr:0x0214be14
_ZN12ActorUnkDLPN19func_ov029_02149b9cEv kind:function(arm,size=0x60) addr:0x0214bf44
_ZN12ActorUnkDLPN19func_ov029_02149bfcEv kind:function(arm,size=0x38) addr:0x0214bfa4
_ZN12ActorUnkDLPN19func_ov029_02149c34Ev kind:function(arm,size=0x18) addr:0x0214bfdc
_ZN12ActorUnkDLPN19func_ov029_02149c4cEv kind:function(arm,size=0x24) addr:0x0214bff4
_ZN12ActorUnkDLPN19func_ov029_02149c70Ev kind:function(arm,size=0x2c) addr:0x0214c018
_ZN12ActorUnkDLPN19func_ov029_02149c9cEv kind:function(arm,size=0x1c) addr:0x0214c044
_ZN19ActorProfileUnkDLPND1Ev kind:function(arm,size=0x14) addr:0x0214c060
_ZN19ActorProfileUnkBLJF10GetProfileEv kind:function(arm,size=0xc) addr:0x0214c074
_ZN19ActorProfileUnkBLJF6CreateEv kind:function(arm,size=0x24) addr:0x0214c080
_ZN19ActorProfileUnkBLJFC1Ev kind:function(arm,size=0x70) addr:0x0214c0a4
_ZN12ActorUnkBLJF19func_ov029_02149d6cEv kind:function(arm,size=0x64) addr:0x0214c114
_ZN12ActorUnkBLJF19func_ov029_02149dd0Ev kind:function(arm,size=0x12c) addr:0x0214c178
_ZN12ActorUnkBLJF19func_ov029_02149efcEv kind:function(arm,size=0x60) addr:0x0214c2a4
_ZN12ActorUnkBLJF19func_ov029_02149f5cEv kind:function(arm,size=0x38) addr:0x0214c304
_ZN12ActorUnkBLJF19func_ov029_02149f94Ev kind:function(arm,size=0x18) addr:0x0214c33c
_ZN12ActorUnkBLJFC1Ev kind:function(arm,size=0x180) addr:0x0214c354
_ZN12ActorUnkBLJF19func_ov029_0214a12cEv kind:function(arm,size=0x12c) addr:0x0214c4d4
_ZN12ActorUnkBLJF19func_ov029_0214a258Ev kind:function(arm,size=0xf0) addr:0x0214c600
_ZN12ActorUnkBLJF19func_ov029_0214a348Ev kind:function(arm,size=0x10) addr:0x0214c6f0
_ZN12ActorUnkBLJF19func_ov029_0214a358Ev kind:function(arm,size=0x24) addr:0x0214c700
_ZN12ActorUnkBLJF19func_ov029_0214a37cEv kind:function(arm,size=0xb8) addr:0x0214c724
_ZN12ActorUnkBLJF19func_ov029_0214a434Ev kind:function(arm,size=0x154) addr:0x0214c7dc
_ZN12ActorUnkBLJF19func_ov029_0214a588Ev kind:function(arm,size=0x14) addr:0x0214c930
_ZN12ActorUnkBLJF19func_ov029_0214a59cEv kind:function(arm,size=0xa8) addr:0x0214c944
_ZN12ActorUnkBLJF19func_ov029_0214a644Ev kind:function(arm,size=0x174) addr:0x0214c9ec
_ZN12ActorUnkBLJF19func_ov029_0214a7b8Ev kind:function(arm,size=0x28) addr:0x0214cb60
_ZN12ActorUnkBLJF19func_ov029_0214a7e0Ev kind:function(arm,size=0x1c0) addr:0x0214cb88
_ZN12ActorUnkBLJF19func_ov029_0214a9a0Ev kind:function(arm,size=0x14) addr:0x0214cd48
_ZN12ActorUnkBLJF19func_ov029_0214a9b4Ev kind:function(arm,size=0x54) addr:0x0214cd5c
_ZN12ActorUnkBLJF19func_ov029_0214aa08Ev kind:function(arm,size=0x30) addr:0x0214cdb0
_ZN12ActorUnkBLJF19func_ov029_0214aa38Ev kind:function(arm,size=0x44) addr:0x0214cde0
_ZN12ActorUnkBLJF19func_ov029_0214aa7cEv kind:function(arm,size=0x1fc) addr:0x0214ce24
_ZN12ActorUnkBLJF19func_ov029_0214ac78Ev kind:function(arm,size=0xcc) addr:0x0214d020
_ZN12ActorUnkBLJF19func_ov029_0214ad44Ev kind:function(arm,size=0x38) addr:0x0214d0ec
_ZN12ActorUnkBLJF19func_ov029_0214ad7cEv kind:function(arm,size=0x28) addr:0x0214d124
_ZN12ActorUnkBLJF19func_ov029_0214ada4Ev kind:function(arm,size=0x11c) addr:0x0214d14c
_ZN12ActorUnkBLJF19func_ov029_0214aec0Ev kind:function(arm,size=0x4) addr:0x0214d268
_ZN12ActorUnkBLJFD0Ev kind:function(arm,size=0x1c) addr:0x0214d26c
_ZN12ActorUnkBLJFD1Ev kind:function(arm,size=0x40) addr:0x0214d288
_ZN12ActorUnkBLJF19func_ov029_0214af20Ev kind:function(arm,size=0x48) addr:0x0214d2c8
_ZN19ActorProfileUnkBLJFD1Ev kind:function(arm,size=0x14) addr:0x0214d310
_ZN19ActorProfileUnkMDYG10GetProfileEv kind:function(arm,size=0xc) addr:0x0214d324
_ZN19ActorProfileUnkMDYG6CreateEv kind:function(arm,size=0x28) addr:0x0214d330
_ZN19ActorProfileUnkMDYGC1Ev kind:function(arm,size=0x68) addr:0x0214d358
_ZN12ActorUnkMDYGC1Ev kind:function(arm,size=0x248) addr:0x0214d3c0
_ZN12ActorUnkMDYG19func_ov029_0214b260Ev kind:function(arm,size=0x14) addr:0x0214d608
_ZN12ActorUnkMDYGD1Ev kind:function(arm,size=0x68) addr:0x0214d61c
_ZN12ActorUnkMDYGD0Ev kind:function(arm,size=0x70) addr:0x0214d684
_ZN12ActorUnkMDYG19func_ov029_0214b34cEv kind:function(arm,size=0x11c) addr:0x0214d6f4
_ZN12ActorUnkMDYG19func_ov029_0214b468Ev kind:function(arm,size=0x74) addr:0x0214d810
_ZN12ActorUnkMDYG19func_ov029_0214b4dcEv kind:function(arm,size=0x38) addr:0x0214d884
_ZN12ActorUnkMDYG19func_ov029_0214b514Ev kind:function(arm,size=0x1c) addr:0x0214d8bc
_ZN12ActorUnkMDYG19func_ov029_0214b530Ev kind:function(arm,size=0x24) addr:0x0214d8d8
_ZN12ActorUnkMDYG19func_ov029_0214b554Ev kind:function(arm,size=0x64) addr:0x0214d8fc
_ZN12ActorUnkMDYG19func_ov029_0214b5b8Ev kind:function(arm,size=0x184) addr:0x0214d960
_ZN12ActorUnkMDYG19func_ov029_0214b73cEv kind:function(arm,size=0x9c) addr:0x0214dae4
_ZN12ActorUnkMDYG19func_ov029_0214b7d8Ev kind:function(arm,size=0xe0) addr:0x0214db80
_ZN12ActorUnkMDYG19func_ov029_0214b8b8Ev kind:function(arm,size=0xc) addr:0x0214dc60
_ZN12ActorUnkMDYG19func_ov029_0214b8c4Ev kind:function(arm,size=0x140) addr:0x0214dc6c
_ZN12ActorUnkMDYG19func_ov029_0214ba04Ev kind:function(arm,size=0x28) addr:0x0214ddac
_ZN12ActorUnkMDYG19func_ov029_0214ba2cEv kind:function(arm,size=0x9c) addr:0x0214ddd4
_ZN12ActorUnkMDYG19func_ov029_0214bac8Ev kind:function(arm,size=0x180) addr:0x0214de70
_ZN12ActorUnkMDYG19func_ov029_0214bc48Ev kind:function(arm,size=0x20) addr:0x0214dff0
_ZN12ActorUnkMDYG19func_ov029_0214bc68Ev kind:function(arm,size=0x78) addr:0x0214e010
_ZN12ActorUnkMDYG19func_ov029_0214bce0Ev kind:function(arm,size=0x8c) addr:0x0214e088
_ZN12ActorUnkMDYG19func_ov029_0214bd6cEv kind:function(arm,size=0x29c) addr:0x0214e114
_ZN12ActorUnkMDYG19func_ov029_0214c008Ev kind:function(arm,size=0x10) addr:0x0214e3b0
_ZN12ActorUnkMDYG19func_ov029_0214c018Ev kind:function(arm,size=0x178) addr:0x0214e3c0
_ZN12ActorUnkMDYG19func_ov029_0214c190Ev kind:function(arm,size=0xc0) addr:0x0214e538
_ZN12ActorUnkMDYG19func_ov029_0214c250Ev kind:function(arm,size=0xbc) addr:0x0214e5f8
_ZN12ActorUnkMDYG19func_ov029_0214c30cEv kind:function(arm,size=0x74) addr:0x0214e6b4
_ZN12ActorUnkMDYG19func_ov029_0214c380Ev kind:function(arm,size=0x70) addr:0x0214e728
_ZN12ActorUnkMDYG19func_ov029_0214c3f0Ev kind:function(arm,size=0x104) addr:0x0214e798
_ZN12ActorUnkMDYG19func_ov029_0214c4f4Ev kind:function(arm,size=0xe8) addr:0x0214e89c
_ZN12ActorUnkMDYG19func_ov029_0214c5dcEv kind:function(arm,size=0x88) addr:0x0214e984
_ZN12ActorUnkMDYG19func_ov029_0214c664Ev kind:function(arm,size=0x1dc) addr:0x0214ea0c
_ZN12ActorUnkMDYG19func_ov029_0214c840Ev kind:function(arm,size=0x14c) addr:0x0214ebe8
_ZN12ActorUnkMDYG19func_ov029_0214c98cEv kind:function(arm,size=0x60) addr:0x0214ed34
_ZN12ActorUnkMDYG19func_ov029_0214c9ecEv kind:function(arm,size=0x344) addr:0x0214ed94
_ZN12ActorUnkMDYG19func_ov029_0214cd30Ev kind:function(arm,size=0x58) addr:0x0214f0d8
_ZN12ActorUnkMDYG19func_ov029_0214cd88Ev kind:function(arm,size=0x54) addr:0x0214f130
_ZN12ActorUnkMDYG19func_ov029_0214cddcEv kind:function(arm,size=0x28) addr:0x0214f184
_ZN12ActorUnkMDYG19func_ov029_0214ce04Ev kind:function(arm,size=0x14c) addr:0x0214f1ac
_ZN12ActorUnkMDYG19func_ov029_0214cf50Ev kind:function(arm,size=0x160) addr:0x0214f2f8
_ZN12ActorUnkMDYG19func_ov029_0214d0b0Ev kind:function(arm,size=0x30) addr:0x0214f458
_ZN12ActorUnkMDYG19func_ov029_0214d0e0Ev kind:function(arm,size=0x6c) addr:0x0214f488
_ZN12ActorUnkMDYG19func_ov029_0214d14cEv kind:function(arm,size=0x1a8) addr:0x0214f4f4
_ZN12ActorUnkMDYG19func_ov029_0214d2f4Ev kind:function(arm,size=0xc8) addr:0x0214f69c
_ZN12ActorUnkMDYG19func_ov029_0214d3bcEv kind:function(arm,size=0xd4) addr:0x0214f764
_ZN12ActorUnkMDYG19func_ov029_0214d490Ev kind:function(arm,size=0x58) addr:0x0214f838
_ZN12ActorUnkMDYG19func_ov029_0214d4e8Ev kind:function(arm,size=0xa4) addr:0x0214f890
_ZN12ActorUnkMDYG19func_ov029_0214d58cEv kind:function(arm,size=0x54) addr:0x0214f934
_ZN12ActorUnkMDYG19func_ov029_0214d5e0Ev kind:function(arm,size=0xf0) addr:0x0214f988
_ZN12ActorUnkMDYG19func_ov029_0214d6d0Ev kind:function(arm,size=0x50) addr:0x0214fa78
_ZN12ActorUnkMDYG19func_ov029_0214d720Ev kind:function(arm,size=0x30) addr:0x0214fac8
_ZN12ActorUnkMDYG19func_ov029_0214d750Ev kind:function(arm,size=0x18) addr:0x0214faf8
_ZN12ActorUnkMDYG19func_ov029_0214d768Ev kind:function(arm,size=0x38) addr:0x0214fb10
_ZN12ActorUnkMDYG19func_ov029_0214d7a0Ev kind:function(arm,size=0xf4) addr:0x0214fb48
_ZN19ActorProfileUnkMDYGD1Ev kind:function(arm,size=0x14) addr:0x0214fc3c
_ZN19ActorProfileUnkPRSP10GetProfileEv kind:function(arm,size=0xc) addr:0x0214fc50
_ZN19ActorProfileUnkPRSP6CreateEv kind:function(arm,size=0x24) addr:0x0214fc5c
_ZN19ActorProfileUnkPRSPC1Ev kind:function(arm,size=0x7c) addr:0x0214fc80
_ZN12ActorUnkPRSPC1Ev kind:function(arm,size=0x25c) addr:0x0214fcfc
_ZN12ActorUnkPRSP19func_ov029_0214dbacEv kind:function(arm,size=0x14) addr:0x0214ff58
_ZN12ActorUnkPRSP19func_ov029_0214dbc0Ev kind:function(arm,size=0x14) addr:0x0214ff6c
_ZN12ActorUnkPRSP19func_ov029_0214dbd4Ev kind:function(arm,size=0x134) addr:0x0214ff80
_ZN12ActorUnkPRSP19func_ov029_0214dd08Ev kind:function(arm,size=0xc0) addr:0x021500b4
_ZN12ActorUnkPRSP19func_ov029_0214ddc8Ev kind:function(arm,size=0x70) addr:0x02150174
_ZN12ActorUnkPRSP19func_ov029_0214de38Ev kind:function(arm,size=0xb0) addr:0x021501e4
_ZN12ActorUnkPRSP19func_ov029_0214dee8Ev kind:function(arm,size=0x2ec) addr:0x02150294
_ZN12ActorUnkPRSP19func_ov029_0214e1d4Ev kind:function(arm,size=0x6c) addr:0x02150580
_ZN12ActorUnkPRSP19func_ov029_0214e240Ev kind:function(arm,size=0x1ec) addr:0x021505ec
_ZN12ActorUnkPRSP19func_ov029_0214e42cEv kind:function(arm,size=0x28) addr:0x021507d8
_ZN12ActorUnkPRSP19func_ov029_0214e454Ev kind:function(arm,size=0x20) addr:0x02150800
_ZN12ActorUnkPRSP19func_ov029_0214e474Ev kind:function(arm,size=0xd8) addr:0x02150820
_ZN12ActorUnkPRSP19func_ov029_0214e54cEv kind:function(arm,size=0x2c) addr:0x021508f8
_ZN12ActorUnkPRSP19func_ov029_0214e578Ev kind:function(arm,size=0x40) addr:0x02150924
_ZN12ActorUnkPRSP19func_ov029_0214e5b8Ev kind:function(arm,size=0x1c) addr:0x02150964
_ZN12ActorUnkPRSP19func_ov029_0214e5d4Ev kind:function(arm,size=0x550) addr:0x02150980
_ZN12ActorUnkPRSP19func_ov029_0214eb24Ev kind:function(arm,size=0x80) addr:0x02150ed0
_ZN12ActorUnkPRSP19func_ov029_0214eba4Ev kind:function(arm,size=0x314) addr:0x02150f50
_ZN12ActorUnkPRSP19func_ov029_0214eeb8Ev kind:function(arm,size=0x4) addr:0x02151264
_ZN12ActorUnkPRSP19func_ov029_0214eebcEv kind:function(arm,size=0xd8) addr:0x02151268
_ZN12ActorUnkPRSP19func_ov029_0214ef94Ev kind:function(arm,size=0x98) addr:0x02151340
_ZN12ActorUnkPRSP19func_ov029_0214f02cEv kind:function(arm,size=0x3b4) addr:0x021513d8
_ZN12ActorUnkPRSP19func_ov029_0214f3e0Ev kind:function(arm,size=0x2c) addr:0x0215178c
_ZN12ActorUnkPRSP19func_ov029_0214f40cEv kind:function(arm,size=0x184) addr:0x021517b8
_ZN12ActorUnkPRSP19func_ov029_0214f5b8Ev kind:function(arm,size=0xc) addr:0x0215193c
_ZN12ActorUnkPRSP19func_ov029_0214f5c4Ev kind:function(arm,size=0x40) addr:0x02151948
_ZN12ActorUnkPRSP19func_ov029_0214f604Ev kind:function(arm,size=0x4) addr:0x02151988
_ZN12ActorUnkPRSP19func_ov029_0214f608Ev kind:function(arm,size=0x18) addr:0x0215198c
_ZN12ActorUnkPRSP19func_ov029_0214f620Ev kind:function(arm,size=0xa8) addr:0x021519a4
_ZN12ActorUnkPRSP19func_ov029_0214f6c8Ev kind:function(arm,size=0x224) addr:0x02151a4c
_ZN12ActorUnkPRSP19func_ov029_0214f8ecEv kind:function(arm,size=0x70) addr:0x02151c70
_ZN12ActorUnkPRSP19func_ov029_0214f95cEv kind:function(arm,size=0x58c) addr:0x02151ce0
_ZN12ActorUnkPRSP19func_ov029_0214fee8Ev kind:function(arm,size=0x34) addr:0x0215226c
_ZN12ActorUnkPRSP19func_ov029_0214ff1cEv kind:function(arm,size=0xa8) addr:0x021522a0
_ZN12ActorUnkPRSP19func_ov029_0214ffc4Ev kind:function(arm,size=0x14) addr:0x02152348
_ZN12ActorUnkPRSP19func_ov029_0214ffd8Ev kind:function(arm,size=0xec) addr:0x0215235c
_ZN12ActorUnkPRSP19func_ov029_021500c4Ev kind:function(arm,size=0x158) addr:0x02152448
_ZN12ActorUnkPRSP19func_ov029_0215021cEv kind:function(arm,size=0x4c) addr:0x021525a0
_ZN12ActorUnkPRSP19func_ov029_02150268Ev kind:function(arm,size=0xa0) addr:0x021525ec
_ZN12ActorUnkPRSP19func_ov029_02150308Ev kind:function(arm,size=0x164) addr:0x0215268c
_ZN12ActorUnkPRSP19func_ov029_02150464Ev kind:function(arm,size=0x9c) addr:0x021527f0
_ZN12ActorUnkPRSP19func_ov029_02150500Ev kind:function(arm,size=0xa0) addr:0x0215288c
_ZN12ActorUnkPRSP19func_ov029_021505a0Ev kind:function(arm,size=0x88) addr:0x0215292c
_ZN12ActorUnkPRSP19func_ov029_02150628Ev kind:function(arm,size=0x6c) addr:0x021529b4
_ZN12ActorUnkPRSP19func_ov029_02150694Ev kind:function(arm,size=0x6c) addr:0x02152a20
_ZN12ActorUnkPRSP19func_ov029_02150700Ev kind:function(arm,size=0x64) addr:0x02152a8c
_ZN12ActorUnkPRSP19func_ov029_02150764Ev kind:function(arm,size=0x30) addr:0x02152af0
_ZN12ActorUnkPRSP19func_ov029_02150794Ev kind:function(arm,size=0xe0) addr:0x02152b20
_ZN12ActorUnkPRSP19func_ov029_02150874Ev kind:function(arm,size=0x18) addr:0x02152c00
_ZN12ActorUnkPRSP19func_ov029_0215088cEv kind:function(arm,size=0xe4) addr:0x02152c18
_ZN12ActorUnkPRSP19func_ov029_02150970Ev kind:function(arm,size=0x2dc) addr:0x02152cfc
_ZN12ActorUnkPRSP19func_ov029_02150c4cEv kind:function(arm,size=0x64) addr:0x02152fd8
_ZN12ActorUnkPRSP19func_ov029_02150cb0Ev kind:function(arm,size=0x58) addr:0x0215303c
_ZN12ActorUnkPRSP19func_ov029_02150d08Ev kind:function(arm,size=0x28) addr:0x02153094
_ZN12ActorUnkPRSP19func_ov029_02150d30Ev kind:function(arm,size=0x40) addr:0x021530bc
_ZN12ActorUnkPRSP19func_ov029_02150d70Ev kind:function(arm,size=0x24) addr:0x021530fc
_ZN12ActorUnkPRSP19func_ov029_02150d94Ev kind:function(arm,size=0x10) addr:0x02153120
_ZN12ActorUnkPRSP19func_ov029_02150da4Ev kind:function(arm,size=0x8) addr:0x02153130
_ZN12ActorUnkPRSPD0Ev kind:function(arm,size=0x1c) addr:0x02153138
_ZN12ActorUnkPRSP19func_ov029_02150dc8Ev kind:function(arm,size=0x1c) addr:0x02153154
_ZN12ActorUnkPRSPD1Ev kind:function(arm,size=0x48) addr:0x02153170
_ZN12ActorUnkPRSP19func_ov029_02150e2cEv kind:function(arm,size=0x50) addr:0x021531b8
_ZN19ActorProfileUnkPRSPD1Ev kind:function(arm,size=0x14) addr:0x02153208
data_ov029_0215321c kind:data(any) addr:0x0215321c
data_ov029_0215322c kind:data(any) addr:0x0215322c
data_ov029_0215323c kind:data(any) addr:0x0215323c
data_ov029_0215323e kind:data(any) addr:0x0215323e
data_ov029_02153250 kind:data(any) addr:0x02153250
data_ov029_02153260 kind:data(any) addr:0x02153260
data_ov029_02153280 kind:data(any) addr:0x02153280
data_ov029_02153290 kind:data(any) addr:0x02153290
data_ov029_021532a0 kind:data(any) addr:0x021532a0
data_ov029_021532b0 kind:data(any) addr:0x021532b0
data_ov029_021532c0 kind:data(any) addr:0x021532c0
data_ov029_021532d0 kind:data(any) addr:0x021532d0
data_ov029_021532e0 kind:data(any) addr:0x021532e0
data_ov029_021532f0 kind:data(any) addr:0x021532f0
data_ov029_02153300 kind:data(any) addr:0x02153300
__sinit_MapObjectUnkTMDE.cpp kind:function(arm,size=0x70) addr:0x02153310
__sinit_MapObjectUnkTMWT.cpp kind:function(arm,size=0x50) addr:0x02153380
__sinit_MapObjectUnkTRWA.cpp kind:function(arm,size=0x50) addr:0x021533d0
__sinit_MapObjectUnkTRRW.cpp kind:function(arm,size=0x50) addr:0x02153420
__sinit_MapObjectUnkTRSA.cpp kind:function(arm,size=0x50) addr:0x02153470
__sinit_MapObjectUnkTRRD.cpp kind:function(arm,size=0x50) addr:0x021534c0
__sinit_MapObjectUnkTRPI.cpp kind:function(arm,size=0x50) addr:0x02153510
__sinit_MapObjectUnkSBDE.cpp kind:function(arm,size=0x50) addr:0x02153560
__sinit_MapObjectUnkSTDE.cpp kind:function(arm,size=0x50) addr:0x021535b0
__sinit_MapObjectUnkTCBT.cpp kind:function(arm,size=0x50) addr:0x02153600
__sinit_MapObjectUnkWHSW.cpp kind:function(arm,size=0x50) addr:0x02153650
__sinit_MapObjectUnkTRH1.cpp kind:function(arm,size=0x50) addr:0x021536a0
__sinit_MapObjectUnkTBSS.cpp kind:function(arm,size=0x50) addr:0x021536f0
__sinit_MapObjectUnkTRBL.cpp kind:function(arm,size=0x50) addr:0x02153740
__sinit_MapObjectUnkRBBL.cpp kind:function(arm,size=0x50) addr:0x02153790
__sinit_ActorUnkDLPN.cpp kind:function(arm,size=0x90) addr:0x021537e0
__sinit_ActorUnkBLJF.cpp kind:function(arm,size=0x5c) addr:0x02153870
__sinit_ActorUnkMDYG.cpp kind:function(arm,size=0xd0) addr:0x021538cc
__sinit_ActorUnkPRSP.cpp kind:function(arm,size=0x84) addr:0x0215399c
.p__sinit_MapObjectUnkTMDE.cpp kind:data(word) addr:0x02153a20
.p__sinit_MapObjectUnkTMWT.cpp kind:data(word) addr:0x02153a24
.p__sinit_MapObjectUnkTRWA.cpp kind:data(word) addr:0x02153a28
.p__sinit_MapObjectUnkTRRW.cpp kind:data(word) addr:0x02153a2c
.p__sinit_MapObjectUnkTRSA.cpp kind:data(word) addr:0x02153a30
.p__sinit_MapObjectUnkTRRD.cpp kind:data(word) addr:0x02153a34
.p__sinit_MapObjectUnkTRPI.cpp kind:data(word) addr:0x02153a38
.p__sinit_MapObjectUnkSBDE.cpp kind:data(word) addr:0x02153a3c
.p__sinit_MapObjectUnkSTDE.cpp kind:data(word) addr:0x02153a40
.p__sinit_MapObjectUnkTCBT.cpp kind:data(word) addr:0x02153a44
.p__sinit_MapObjectUnkWHSW.cpp kind:data(word) addr:0x02153a48
.p__sinit_MapObjectUnkTRH1.cpp kind:data(word) addr:0x02153a4c
.p__sinit_MapObjectUnkTBSS.cpp kind:data(word) addr:0x02153a50
.p__sinit_MapObjectUnkTRBL.cpp kind:data(word) addr:0x02153a54
.p__sinit_MapObjectUnkRBBL.cpp kind:data(word) addr:0x02153a58
.p__sinit_ActorUnkDLPN.cpp kind:data(word) addr:0x02153a5c
.p__sinit_ActorUnkBLJF.cpp kind:data(word) addr:0x02153a60
.p__sinit_ActorUnkMDYG.cpp kind:data(word) addr:0x02153a64
.p__sinit_ActorUnkPRSP.cpp kind:data(word) addr:0x02153a68
data_ov029_02153a80 kind:data(any) addr:0x02153a80
data_ov029_02153a90 kind:data(any) addr:0x02153a90
data_ov029_02153aa4 kind:data(any) addr:0x02153aa4
data_ov029_02153ac0 kind:data(any) addr:0x02153ac0
data_ov029_02153aec kind:data(any) addr:0x02153aec
data_ov029_02153b34 kind:data(any) addr:0x02153b34 ambiguous
data_ov029_02153b58 kind:data(any) addr:0x02153b58
data_ov029_02153bc4 kind:data(any) addr:0x02153bc4
data_ov029_02153be0 kind:data(any) addr:0x02153be0
data_ov029_02153c4c kind:data(any) addr:0x02153c4c
data_ov029_02153c68 kind:data(any) addr:0x02153c68
data_ov029_02153cd4 kind:data(any) addr:0x02153cd4
data_ov029_02153cf0 kind:data(any) addr:0x02153cf0
data_ov029_02153d54 kind:data(any) addr:0x02153d54
data_ov029_02153d5c kind:data(any) addr:0x02153d5c
data_ov029_02153d68 kind:data(any) addr:0x02153d68
data_ov029_02153d80 kind:data(any) addr:0x02153d80
data_ov029_02153d9c kind:data(any) addr:0x02153d9c
data_ov029_02153e20 kind:data(any) addr:0x02153e20
data_ov029_02153ea4 kind:data(any) addr:0x02153ea4
data_ov029_02153ec0 kind:data(any) addr:0x02153ec0
data_ov029_02153f2c kind:data(any) addr:0x02153f2c
data_ov029_02153f48 kind:data(any) addr:0x02153f48
data_ov029_02153fb4 kind:data(any) addr:0x02153fb4
data_ov029_02153fd0 kind:data(any) addr:0x02153fd0
data_ov029_02154044 kind:data(any) addr:0x02154044
data_ov029_02154060 kind:data(any) addr:0x02154060
data_ov029_02154074 kind:data(any) addr:0x02154074 ambiguous
data_ov029_02154088 kind:data(any) addr:0x02154088
data_ov029_02154094 kind:data(any) addr:0x02154094 ambiguous
data_ov029_021540d8 kind:data(any) addr:0x021540d8
data_ov029_021540f4 kind:data(any) addr:0x021540f4
data_ov029_02154108 kind:data(any) addr:0x02154108 ambiguous
data_ov029_02154110 kind:data(any) addr:0x02154110
data_ov029_02154138 kind:data(any) addr:0x02154138
data_ov029_02154164 kind:data(any) addr:0x02154164
data_ov029_021541b4 kind:data(any) addr:0x021541b4
data_ov029_021541d0 kind:data(any) addr:0x021541d0
data_ov029_02154220 kind:data(any) addr:0x02154220
data_ov029_0215423c kind:data(any) addr:0x0215423c
data_ov029_021542a8 kind:data(any) addr:0x021542a8
data_ov029_021542c4 kind:data(any) addr:0x021542c4
data_ov029_02154324 kind:data(any) addr:0x02154324
data_ov029_02154340 kind:data(any) addr:0x02154340
data_ov029_02154394 kind:data(any) addr:0x02154394
data_ov029_021543b0 kind:data(any) addr:0x021543b0
data_ov029_021543cc kind:data(any) addr:0x021543cc
data_ov029_02154418 kind:data(any) addr:0x02154418
_ZTV19data_ov029_0215442c kind:data(any) addr:0x0215442c
data_ov029_02154450 kind:data(any) addr:0x02154450
data_ov029_02154498 kind:data(any) addr:0x02154498
data_ov029_021544b0 kind:data(any) addr:0x021544b0
data_ov029_021544c8 kind:data(any) addr:0x021544c8
data_ov029_021544e8 kind:data(any) addr:0x021544e8
data_ov029_0215452c kind:data(any) addr:0x0215452c
_ZTV19data_ov029_0215458c kind:data(any) addr:0x0215458c
data_ov029_021545f8 kind:data(any) addr:0x021545f8
_ZTV19data_ov029_0215460c kind:data(any) addr:0x0215460c
data_ov029_02154630 kind:data(any) addr:0x02154630
data_ov029_02154660 kind:data(any) addr:0x02154660
data_ov029_02154678 kind:data(any) addr:0x02154678
data_ov029_02154690 kind:data(any) addr:0x02154690
_ZTV19data_ov029_021546a8 kind:data(any) addr:0x021546a8
data_ov029_02154700 kind:data(any) addr:0x02154700 ambiguous
data_ov029_02154714 kind:data(any) addr:0x02154714
_ZTV19data_ov029_02154728 kind:data(any) addr:0x02154728
data_ov029_0215474c kind:data(any) addr:0x0215474c
data_ov029_02154761 kind:data(any) addr:0x02154761 ambiguous
data_ov029_02154764 kind:data(any) addr:0x02154764
data_ov029_0215477c kind:data(any) addr:0x0215477c
data_ov029_02154794 kind:data(any) addr:0x02154794
_ZTV19data_ov029_021547ac kind:data(any) addr:0x021547ac
data_ov029_02154810 kind:data(any) addr:0x02154810
data_ov029_02154820 kind:data(any) addr:0x02154820
data_ov029_021548e8 kind:data(any) addr:0x021548e8
data_ov029_021548f4 kind:data(any) addr:0x021548f4
data_ov029_021548fc kind:data(any) addr:0x021548fc
_ZTV19data_ov029_02154914 kind:data(any) addr:0x02154914
data_ov029_02154940 kind:data(any) addr:0x02154940
data_ov029_0215496c kind:data(any) addr:0x0215496c
_ZTV19data_ov029_021549ac kind:data(any) addr:0x021549ac
data_ov029_02154a10 kind:data(any) addr:0x02154a10
data_ov029_02154a78 kind:data(any) addr:0x02154a78
data_ov029_02154ae0 kind:bss addr:0x02154ae0
data_ov029_02154ae8 kind:bss addr:0x02154ae8
data_ov029_02154af4 kind:bss addr:0x02154af4
sMapObjectProfileUnkTMDE kind:bss addr:0x02154b00
data_ov029_02154b74 kind:bss addr:0x02154b74 ambiguous
data_ov029_02154bd4 kind:bss addr:0x02154bd4
data_ov029_02154bd8 kind:bss addr:0x02154bd8
data_ov029_02154be0 kind:bss addr:0x02154be0 ambiguous
sMapObjectProfileUnkTMWT kind:bss addr:0x02154be4
data_ov029_02154ca4 kind:bss addr:0x02154ca4 ambiguous
data_ov029_02154cb8 kind:bss addr:0x02154cb8
data_ov029_02154cbc kind:bss addr:0x02154cbc
sMapObjectProfileUnkTRWA kind:bss addr:0x02154cc8
data_ov029_02154d9c kind:bss addr:0x02154d9c
data_ov029_02154da0 kind:bss addr:0x02154da0
sMapObjectProfileUnkTRRW kind:bss addr:0x02154dac
data_ov029_02154e6c kind:bss addr:0x02154e6c ambiguous
data_ov029_02154e80 kind:bss addr:0x02154e80
data_ov029_02154e84 kind:bss addr:0x02154e84
sMapObjectProfileUnkTRSA kind:bss addr:0x02154e90
data_ov029_02154eb0 kind:bss addr:0x02154eb0
data_ov029_02154ec0 kind:bss addr:0x02154ec0 ambiguous
data_ov029_02154f28 kind:bss addr:0x02154f28 ambiguous
data_ov029_02154f64 kind:bss addr:0x02154f64
data_ov029_02154f68 kind:bss addr:0x02154f68
sMapObjectProfileUnkTRRD kind:bss addr:0x02154f74
data_ov029_02154f88 kind:bss addr:0x02154f88 ambiguous
data_ov029_02155048 kind:bss addr:0x02155048
data_ov029_0215504c kind:bss addr:0x0215504c
sMapObjectProfileUnkTRPI kind:bss addr:0x02155058
data_ov029_02155064 kind:bss addr:0x02155064 ambiguous
data_ov029_02155070 kind:bss addr:0x02155070 ambiguous
data_ov029_0215512c kind:bss addr:0x0215512c
data_ov029_02155130 kind:bss addr:0x02155130
sMapObjectProfileUnkSBDE kind:bss addr:0x0215513c
data_ov029_02155190 kind:bss addr:0x02155190 ambiguous
data_ov029_02155200 kind:bss addr:0x02155200 ambiguous
data_ov029_02155210 kind:bss addr:0x02155210
data_ov029_02155214 kind:bss addr:0x02155214
sMapObjectProfileUnkSTDE kind:bss addr:0x02155220
data_ov029_021552f4 kind:bss addr:0x021552f4
data_ov029_021552f8 kind:bss addr:0x021552f8
sMapObjectProfileUnkTCBT kind:bss addr:0x02155304
data_ov029_021553d8 kind:bss addr:0x021553d8
data_ov029_021553f8 kind:bss addr:0x021553f8
data_ov029_021553fc kind:bss addr:0x021553fc
sMapObjectProfileUnkWHSW kind:bss addr:0x02155408
data_ov029_02155428 kind:bss addr:0x02155428
data_ov029_021554dc kind:bss addr:0x021554dc
data_ov029_021554fc kind:bss addr:0x021554fc
data_ov029_02155500 kind:bss addr:0x02155500
sMapObjectProfileUnkTRH1 kind:bss addr:0x0215550c
data_ov029_021555e0 kind:bss addr:0x021555e0
data_ov029_021555e4 kind:bss addr:0x021555e4
sMapObjectProfileUnkTBSS kind:bss addr:0x021555f0
data_ov029_021556c4 kind:bss addr:0x021556c4
data_ov029_021556e4 kind:bss addr:0x021556e4
data_ov029_021556e8 kind:bss addr:0x021556e8
sMapObjectProfileUnkTRBL kind:bss addr:0x021556f4
data_ov029_021557c8 kind:bss addr:0x021557c8
data_ov029_021557e8 kind:bss addr:0x021557e8
data_ov029_021557ec kind:bss addr:0x021557ec
sMapObjectProfileUnkRBBL kind:bss addr:0x021557f8
data_ov029_0215583c kind:bss addr:0x0215583c
data_ov029_02155844 kind:bss addr:0x02155844
data_ov029_02155850 kind:bss addr:0x02155850
data_ov029_0215585c kind:bss addr:0x0215585c
data_ov029_02155868 kind:bss addr:0x02155868
data_ov029_02155874 kind:bss addr:0x02155874
data_ov029_02155880 kind:bss addr:0x02155880
data_ov029_02155890 kind:bss addr:0x02155890
data_ov029_0215589c kind:bss addr:0x0215589c
data_ov029_021558b4 kind:bss addr:0x021558b4
sActorProfileUnkDLPN kind:bss addr:0x021558c4
data_ov029_02155990 kind:bss addr:0x02155990 ambiguous
data_ov029_0215599c kind:bss addr:0x0215599c
data_ov029_021559a0 kind:bss addr:0x021559a0
sActorProfileUnkBLJF kind:bss addr:0x021559b8
data_ov029_02155a90 kind:bss addr:0x02155a90
data_ov029_02155a94 kind:bss addr:0x02155a94
data_ov029_02155aa0 kind:bss addr:0x02155aa0
data_ov029_02155aac kind:bss addr:0x02155aac
sActorProfileUnkMDYG kind:bss addr:0x02155ad0
data_ov029_02155ba8 kind:bss addr:0x02155ba8
data_ov029_02155bac kind:bss addr:0x02155bac
data_ov029_02155bb4 kind:bss addr:0x02155bb4 ambiguous
data_ov029_02155bb8 kind:bss addr:0x02155bb8
sActorProfileUnkPRSP kind:bss addr:0x02155bc4
data_ov029_02155c90 kind:bss addr:0x02155c90 ambiguous
