_ZN19ActorProfileUnkKURI10GetProfileEv kind:function(arm,size=0xc) addr:0x02118fc0
_ZN19ActorProfileUnkKURI6CreateEv kind:function(arm,size=0x24) addr:0x02118fcc
_ZN19ActorProfileUnkKURIC1Ev kind:function(arm,size=0x5c) addr:0x02118ff0
_ZN12ActorUnkKURIC1Ev kind:function(arm,size=0x1fc) addr:0x0211904c
_ZN12ActorUnkKURI19func_ov032_02119248Ev kind:function(arm,size=0x14) addr:0x02119248
_ZN12ActorUnkKURI19func_ov032_0211925cEv kind:function(arm,size=0x14) addr:0x0211925c
_ZN12ActorUnkKURI19func_ov032_02119270Ev kind:function(arm,size=0x8c) addr:0x02119270
_ZN12ActorUnkKURID0Ev kind:function(arm,size=0x94) addr:0x021192fc
_ZN12ActorUnkKURI19func_ov032_02119390Ev kind:function(arm,size=0xc8) addr:0x02119390
_ZN12ActorUnkKURI19func_ov032_02119458Ev kind:function(arm,size=0x84) addr:0x02119458
_ZN12ActorUnkKURI19func_ov032_021194dcEv kind:function(arm,size=0x60) addr:0x021194dc
_ZN12ActorUnkKURI19func_ov032_0211953cEv kind:function(arm,size=0x48) addr:0x0211953c
_ZN12ActorUnkKURI19func_ov032_02119584Ev kind:function(arm,size=0x358) addr:0x02119584
_ZN12ActorUnkKURI19func_ov032_021198dcEv kind:function(arm,size=0xb4) addr:0x021198dc
_ZN12ActorUnkKURI19func_ov032_02119990Ev kind:function(arm,size=0x7c) addr:0x02119990
_ZN12ActorUnkKURI19func_ov032_02119a0cEv kind:function(arm,size=0x1dc) addr:0x02119a0c
_ZN12ActorUnkKURI19func_ov032_02119be8Ev kind:function(arm,size=0x98) addr:0x02119be8
_ZN12ActorUnkKURI19func_ov032_02119c80Ev kind:function(arm,size=0xfc) addr:0x02119c80
_ZN12ActorUnkKURI19func_ov032_02119d7cEv kind:function(arm,size=0x78) addr:0x02119d7c
_ZN12ActorUnkKURI19func_ov032_02119df4Ev kind:function(arm,size=0x9c) addr:0x02119df4
_ZN12ActorUnkKURI19func_ov032_02119e90Ev kind:function(arm,size=0xb0) addr:0x02119e90
_ZN12ActorUnkKURI19func_ov032_02119f40Ev kind:function(arm,size=0x200) addr:0x02119f40
_ZN12ActorUnkKURI19func_ov032_0211a140Ev kind:function(arm,size=0xcc) addr:0x0211a140
_ZN12ActorUnkKURI19func_ov032_0211a20cEv kind:function(arm,size=0x278) addr:0x0211a20c
_ZN12ActorUnkKURI19func_ov032_0211a484Ev kind:function(arm,size=0xa8) addr:0x0211a484
_ZN12ActorUnkKURI19func_ov032_0211a52cEv kind:function(arm,size=0x28c) addr:0x0211a52c
_ZN12ActorUnkKURI19func_ov032_0211a7b8Ev kind:function(arm,size=0xb4) addr:0x0211a7b8
_ZN12ActorUnkKURI19func_ov032_0211a86cEv kind:function(arm,size=0xe4) addr:0x0211a86c
_ZN12ActorUnkKURI19func_ov032_0211a950Ev kind:function(arm,size=0x78) addr:0x0211a950
_ZN12ActorUnkKURI19func_ov032_0211a9c8Ev kind:function(arm,size=0x78) addr:0x0211a9c8
_ZN12ActorUnkKURI19func_ov032_0211aa40Ev kind:function(arm,size=0x88) addr:0x0211aa40
_ZN12ActorUnkKURI19func_ov032_0211aac8Ev kind:function(arm,size=0x58) addr:0x0211aac8
_ZN12ActorUnkKURI19func_ov032_0211ab20Ev kind:function(arm,size=0xa0) addr:0x0211ab20
_ZN12ActorUnkKURI19func_ov032_0211abc0Ev kind:function(arm,size=0x60) addr:0x0211abc0
_ZN12ActorUnkKURI19func_ov032_0211ac20Ev kind:function(arm,size=0x74) addr:0x0211ac20
_ZN12ActorUnkKURI19func_ov032_0211ac94Ev kind:function(arm,size=0xac) addr:0x0211ac94
_ZN12ActorUnkKURI19func_ov032_0211ad40Ev kind:function(arm,size=0xb4) addr:0x0211ad40
_ZN12ActorUnkKURI19func_ov032_0211adf4Ev kind:function(arm,size=0x230) addr:0x0211adf4
_ZN12ActorUnkKURI19func_ov032_0211b024Ev kind:function(arm,size=0x40) addr:0x0211b024
_ZN12ActorUnkKURI19func_ov032_0211b064Ev kind:function(arm,size=0xb0) addr:0x0211b064
_ZN12ActorUnkKURI19func_ov032_0211b114Ev kind:function(arm,size=0x68) addr:0x0211b114
_ZN12ActorUnkKURI19func_ov032_0211b17cEv kind:function(arm,size=0x14) addr:0x0211b17c
_ZN12ActorUnkKURI19func_ov032_0211b190Ev kind:function(arm,size=0x50) addr:0x0211b190
_ZN12ActorUnkKURI19func_ov032_0211b1e0Ev kind:function(arm,size=0xb8) addr:0x0211b1e0
_ZN12ActorUnkKURI19func_ov032_0211b298Ev kind:function(arm,size=0xe4) addr:0x0211b298
_ZN12ActorUnkKURI19func_ov032_0211b37cEv kind:function(arm,size=0x34) addr:0x0211b37c
_ZN12ActorUnkKURI19func_ov032_0211b3b0Ev kind:function(arm,size=0x58) addr:0x0211b3b0
_ZN12ActorUnkKURI19func_ov032_0211b408Ev kind:function(arm,size=0x168) addr:0x0211b408
_ZN12ActorUnkKURI19func_ov032_0211b570Ev kind:function(arm,size=0x30) addr:0x0211b570
_ZN12ActorUnkKURID1Ev kind:function(arm,size=0x14) addr:0x0211b5a0
_ZN12ActorUnkKURI19func_ov032_0211b5b4Ev kind:function(arm,size=0x1c) addr:0x0211b5b4
_ZN12ActorUnkKURI19func_ov032_0211b5d0Ev kind:function(arm,size=0x24) addr:0x0211b5d0
_ZN12ActorUnkKURI19func_ov032_0211b5f4Ev kind:function(arm,size=0x24) addr:0x0211b5f4
_ZN12ActorUnkKURI19func_ov032_0211b618Ev kind:function(arm,size=0x10) addr:0x0211b618
_ZN12ActorUnkKURI19func_ov032_0211b628Ev kind:function(arm,size=0x8) addr:0x0211b628
_ZN12ActorUnkKURI19func_ov032_0211b630Ev kind:function(arm,size=0x24) addr:0x0211b630
_ZN12ActorUnkKURI19func_ov032_0211b654Ev kind:function(arm,size=0x2c) addr:0x0211b654
_ZN12ActorUnkKURI19func_ov032_0211b680Ev kind:function(arm,size=0x1c) addr:0x0211b680
_ZN12ActorUnkKURI19func_ov032_0211b69cEv kind:function(arm,size=0x1c) addr:0x0211b69c
_ZN19ActorProfileUnkKURID1Ev kind:function(arm,size=0x14) addr:0x0211b6b8
_ZN19ActorProfileUnkMKUR10GetProfileEv kind:function(arm,size=0xc) addr:0x0211b6cc
_ZN19ActorProfileUnkMKUR6CreateEv kind:function(arm,size=0x24) addr:0x0211b6d8
_ZN19ActorProfileUnkMKURC1Ev kind:function(arm,size=0x4c) addr:0x0211b6fc
_ZN12ActorUnkMKURC1Ev kind:function(arm,size=0x1d8) addr:0x0211b748
_ZN12ActorUnkMKURD1Ev kind:function(arm,size=0x30) addr:0x0211b920
_ZN12ActorUnkMKURD0Ev kind:function(arm,size=0x38) addr:0x0211b950
_ZN12ActorUnkMKUR19func_ov032_0211b988Ev kind:function(arm,size=0x1c) addr:0x0211b988
_ZN12ActorUnkMKUR19func_ov032_0211b9a4Ev kind:function(arm,size=0x68) addr:0x0211b9a4
_ZN12ActorUnkMKUR19func_ov032_0211ba0cEv kind:function(arm,size=0x268) addr:0x0211ba0c
_ZN12ActorUnkMKUR19func_ov032_0211bc74Ev kind:function(arm,size=0x104) addr:0x0211bc74
_ZN12ActorUnkMKUR19func_ov032_0211bd78Ev kind:function(arm,size=0x8c) addr:0x0211bd78
_ZN12ActorUnkMKUR19func_ov032_0211be04Ev kind:function(arm,size=0x2c) addr:0x0211be04
_ZN12ActorUnkMKUR19func_ov032_0211be30Ev kind:function(arm,size=0x78) addr:0x0211be30
_ZN12ActorUnkMKUR19func_ov032_0211bea8Ev kind:function(arm,size=0xdc) addr:0x0211bea8
_ZN12ActorUnkMKUR19func_ov032_0211bf84Ev kind:function(arm,size=0x78) addr:0x0211bf84
_ZN12ActorUnkMKUR19func_ov032_0211bffcEv kind:function(arm,size=0x80) addr:0x0211bffc
_ZN12ActorUnkMKUR19func_ov032_0211c07cEv kind:function(arm,size=0x8c) addr:0x0211c07c
_ZN12ActorUnkMKUR19func_ov032_0211c108Ev kind:function(arm,size=0x1bc) addr:0x0211c108
_ZN12ActorUnkMKUR19func_ov032_0211c2c4Ev kind:function(arm,size=0x7c) addr:0x0211c2c4
_ZN12ActorUnkMKUR19func_ov032_0211c340Ev kind:function(arm,size=0x104) addr:0x0211c340
_ZN12ActorUnkMKUR19func_ov032_0211c444Ev kind:function(arm,size=0x90) addr:0x0211c444
_ZN12ActorUnkMKUR19func_ov032_0211c4d4Ev kind:function(arm,size=0x68) addr:0x0211c4d4
_ZN12ActorUnkMKUR19func_ov032_0211c53cEv kind:function(arm,size=0x90) addr:0x0211c53c
_ZN12ActorUnkMKUR19func_ov032_0211c5ccEv kind:function(arm,size=0x170) addr:0x0211c5cc
_ZN12ActorUnkMKUR19func_ov032_0211c73cEv kind:function(arm,size=0x80) addr:0x0211c73c
_ZN12ActorUnkMKUR19func_ov032_0211c7bcEv kind:function(arm,size=0x17c) addr:0x0211c7bc
_ZN12ActorUnkMKUR19func_ov032_0211c938Ev kind:function(arm,size=0xa0) addr:0x0211c938
_ZN12ActorUnkMKUR19func_ov032_0211c9d8Ev kind:function(arm,size=0x48) addr:0x0211c9d8
_ZN12ActorUnkMKUR19func_ov032_0211ca20Ev kind:function(arm,size=0x4c) addr:0x0211ca20
_ZN12ActorUnkMKUR19func_ov032_0211ca6cEv kind:function(arm,size=0x4c) addr:0x0211ca6c
_ZN12ActorUnkMKUR19func_ov032_0211cab8Ev kind:function(arm,size=0x74) addr:0x0211cab8
_ZN12ActorUnkMKUR19func_ov032_0211cb2cEv kind:function(arm,size=0xe4) addr:0x0211cb2c
_ZN12ActorUnkMKUR19func_ov032_0211cc10Ev kind:function(arm,size=0x38) addr:0x0211cc10
_ZN12ActorUnkMKUR19func_ov032_0211cc48Ev kind:function(arm,size=0xd8) addr:0x0211cc48
_ZN12ActorUnkMKUR19func_ov032_0211cd20Ev kind:function(arm,size=0x40) addr:0x0211cd20
_ZN12ActorUnkMKUR19func_ov032_0211cd60Ev kind:function(arm,size=0x214) addr:0x0211cd60
_ZN12ActorUnkMKUR19func_ov032_0211cf74Ev kind:function(arm,size=0x38) addr:0x0211cf74
_ZN12ActorUnkMKUR19func_ov032_0211cfacEv kind:function(arm,size=0x7c) addr:0x0211cfac
_ZN12ActorUnkMKUR19func_ov032_0211d028Ev kind:function(arm,size=0x18) addr:0x0211d028
_ZN12ActorUnkMKUR19func_ov032_0211d040Ev kind:function(arm,size=0x4c) addr:0x0211d040
_ZN12ActorUnkMKUR19func_ov032_0211d08cEv kind:function(arm,size=0x258) addr:0x0211d08c
_ZN12ActorUnkMKUR19func_ov032_0211d2e4Ev kind:function(arm,size=0xa0) addr:0x0211d2e4
_ZN12ActorUnkMKUR19func_ov032_0211d384Ev kind:function(arm,size=0x1e4) addr:0x0211d384
_ZN12ActorUnkMKUR19func_ov032_0211d568Ev kind:function(arm,size=0x10c) addr:0x0211d568
_ZN12ActorUnkMKUR19func_ov032_0211d674Ev kind:function(arm,size=0x64) addr:0x0211d674
_ZN12ActorUnkMKUR19func_ov032_0211d6d8Ev kind:function(arm,size=0x110) addr:0x0211d6d8
_ZN12ActorUnkMKUR19func_ov032_0211d7e8Ev kind:function(arm,size=0x24) addr:0x0211d7e8
_ZN12ActorUnkMKUR19func_ov032_0211d80cEv kind:function(arm,size=0x24) addr:0x0211d80c
_ZN12ActorUnkMKUR19func_ov032_0211d830Ev kind:function(arm,size=0x34) addr:0x0211d830
_ZN12ActorUnkMKUR19func_ov032_0211d864Ev kind:function(arm,size=0xac) addr:0x0211d864
_ZN12ActorUnkMKUR19func_ov032_0211d910Ev kind:function(arm,size=0x10) addr:0x0211d910
_ZN12ActorUnkMKUR19func_ov032_0211d920Ev kind:function(arm,size=0xec) addr:0x0211d920
_ZN12ActorUnkMKUR19func_ov032_0211da0cEv kind:function(arm,size=0x120) addr:0x0211da0c
_ZN19ActorProfileUnkMKURD1Ev kind:function(arm,size=0x14) addr:0x0211db2c
_ZN19ActorProfileUnkKETH10GetProfileEv kind:function(arm,size=0xc) addr:0x0211db40
_ZN19ActorProfileUnkKETH6CreateEv kind:function(arm,size=0x24) addr:0x0211db4c
_ZN19ActorProfileUnkKETHC1Ev kind:function(arm,size=0x5c) addr:0x0211db70
_ZN12ActorUnkKETH19func_ov032_0211dbccEv kind:function(arm,size=0x34) addr:0x0211dbcc
_ZN12ActorUnkKETHC1Ev kind:function(arm,size=0x20c) addr:0x0211dc00
_ZN12ActorUnkKETH19func_ov032_0211de0cEv kind:function(arm,size=0x14) addr:0x0211de0c
_ZN12ActorUnkKETH19func_ov032_0211de20Ev kind:function(arm,size=0x14) addr:0x0211de20
_ZN12ActorUnkKETH19func_ov032_0211de34Ev kind:function(arm,size=0x38) addr:0x0211de34
_ZN12ActorUnkKETHD1Ev kind:function(arm,size=0x1c) addr:0x0211de6c
_ZN12ActorUnkKETHD0Ev kind:function(arm,size=0x24) addr:0x0211de88
_ZN12ActorUnkKETH19func_ov032_0211deacEv kind:function(arm,size=0x24) addr:0x0211deac
_ZN12ActorUnkKETH19func_ov032_0211ded0Ev kind:function(arm,size=0x144) addr:0x0211ded0
_ZN12ActorUnkKETH19func_ov032_0211e014Ev kind:function(arm,size=0xac) addr:0x0211e014
_ZN12ActorUnkKETH19func_ov032_0211e0c0Ev kind:function(arm,size=0x14) addr:0x0211e0c0
_ZN12ActorUnkKETH19func_ov032_0211e0d4Ev kind:function(arm,size=0x234) addr:0x0211e0d4
_ZN12ActorUnkKETH19func_ov032_0211e308Ev kind:function(arm,size=0x78) addr:0x0211e308
_ZN12ActorUnkKETH19func_ov032_0211e380Ev kind:function(arm,size=0x8c) addr:0x0211e380
_ZN12ActorUnkKETH19func_ov032_0211e40cEv kind:function(arm,size=0x14) addr:0x0211e40c
_ZN12ActorUnkKETH19func_ov032_0211e420Ev kind:function(arm,size=0x48) addr:0x0211e420
_ZN12ActorUnkKETH19func_ov032_0211e468Ev kind:function(arm,size=0x310) addr:0x0211e468
_ZN12ActorUnkKETH19func_ov032_0211e778Ev kind:function(arm,size=0x1b8) addr:0x0211e778
_ZN12ActorUnkKETH19func_ov032_0211e930Ev kind:function(arm,size=0xbc) addr:0x0211e930
_ZN12ActorUnkKETH19func_ov032_0211e9ecEv kind:function(arm,size=0x174) addr:0x0211e9ec
_ZN12ActorUnkKETH19func_ov032_0211eb60Ev kind:function(arm,size=0x188) addr:0x0211eb60
_ZN12ActorUnkKETH19func_ov032_0211ece8Ev kind:function(arm,size=0x174) addr:0x0211ece8
_ZN12ActorUnkKETH19func_ov032_0211ee5cEv kind:function(arm,size=0x1f8) addr:0x0211ee5c
_ZN12ActorUnkKETH19func_ov032_0211f054Ev kind:function(arm,size=0x54) addr:0x0211f054
_ZN12ActorUnkKETH19func_ov032_0211f0a8Ev kind:function(arm,size=0x148) addr:0x0211f0a8
_ZN12ActorUnkKETH19func_ov032_0211f1f0Ev kind:function(arm,size=0x4) addr:0x0211f1f0
_ZN12ActorUnkKETH19func_ov032_0211f1f4Ev kind:function(arm,size=0x10c) addr:0x0211f1f4
_ZN12ActorUnkKETH19func_ov032_0211f300Ev kind:function(arm,size=0x10) addr:0x0211f300
_ZN12ActorUnkKETH19func_ov032_0211f310Ev kind:function(arm,size=0x9c) addr:0x0211f310
_ZN12ActorUnkKETH19func_ov032_0211f3acEv kind:function(arm,size=0x58) addr:0x0211f3ac
_ZN12ActorUnkKETH19func_ov032_0211f404Ev kind:function(arm,size=0xa0) addr:0x0211f404
_ZN12ActorUnkKETH19func_ov032_0211f4a4Ev kind:function(arm,size=0x68) addr:0x0211f4a4
_ZN12ActorUnkKETH19func_ov032_0211f50cEv kind:function(arm,size=0x54) addr:0x0211f50c
_ZN12ActorUnkKETH19func_ov032_0211f560Ev kind:function(arm,size=0x2c) addr:0x0211f560
_ZN12ActorUnkKETH19func_ov032_0211f58cEv kind:function(arm,size=0x78) addr:0x0211f58c
_ZN12ActorUnkKETH19func_ov032_0211f604Ev kind:function(arm,size=0x10) addr:0x0211f604
_ZN12ActorUnkKETH19func_ov032_0211f614Ev kind:function(arm,size=0xa8) addr:0x0211f614
_ZN12ActorUnkKETH19func_ov032_0211f6bcEv kind:function(arm,size=0x148) addr:0x0211f6bc
_ZN12ActorUnkKETH19func_ov032_0211f804Ev kind:function(arm,size=0x138) addr:0x0211f804
_ZN12ActorUnkKETH19func_ov032_0211f93cEv kind:function(arm,size=0x88) addr:0x0211f93c
_ZN12ActorUnkKETH19func_ov032_0211f9c4Ev kind:function(arm,size=0x88) addr:0x0211f9c4
_ZN12ActorUnkKETH19func_ov032_0211fa4cEv kind:function(arm,size=0xa4) addr:0x0211fa4c
_ZN12ActorUnkKETH19func_ov032_0211faf0Ev kind:function(arm,size=0xac) addr:0x0211faf0
_ZN12ActorUnkKETH19func_ov032_0211fb9cEv kind:function(arm,size=0x18) addr:0x0211fb9c
_ZN12ActorUnkKETH19func_ov032_0211fbb4Ev kind:function(arm,size=0x38) addr:0x0211fbb4
_ZN12ActorUnkKETH19func_ov032_0211fbecEv kind:function(arm,size=0x14) addr:0x0211fbec
_ZN12ActorUnkKETH19func_ov032_0211fc00Ev kind:function(arm,size=0x1c) addr:0x0211fc00
_ZN12ActorUnkKETH19func_ov032_0211fc1cEv kind:function(arm,size=0xa4) addr:0x0211fc1c
_ZN12ActorUnkKETH19func_ov032_0211fcc0Ev kind:function(arm,size=0xac) addr:0x0211fcc0
_ZN19ActorProfileUnkKETHD1Ev kind:function(arm,size=0x14) addr:0x0211fd6c
_ZN19ActorProfileUnkNSSW10GetProfileEv kind:function(arm,size=0xc) addr:0x0211fd80
_ZN19ActorProfileUnkNSSW6CreateEv kind:function(arm,size=0x24) addr:0x0211fd8c
_ZN19ActorProfileUnkNSSWC1Ev kind:function(arm,size=0x44) addr:0x0211fdb0
_ZN12ActorUnkNSSWC1Ev kind:function(arm,size=0x108) addr:0x0211fdf4
_ZN12ActorUnkNSSW19func_ov032_0211fefcEv kind:function(arm,size=0x14) addr:0x0211fefc
_ZN12ActorUnkNSSW19func_ov032_0211ff10Ev kind:function(arm,size=0x28) addr:0x0211ff10
_ZN12ActorUnkNSSW19func_ov032_0211ff38Ev kind:function(arm,size=0x1e0) addr:0x0211ff38
_ZN12ActorUnkNSSW19func_ov032_02120118Ev kind:function(arm,size=0x78) addr:0x02120118
_ZN12ActorUnkNSSW19func_ov032_02120190Ev kind:function(arm,size=0xcc) addr:0x02120190
_ZN12ActorUnkNSSW19func_ov032_0212025cEv kind:function(arm,size=0x7c) addr:0x0212025c
_ZN12ActorUnkNSSW19func_ov032_021202d8Ev kind:function(arm,size=0x124) addr:0x021202d8
_ZN12ActorUnkNSSW19func_ov032_021203fcEv kind:function(arm,size=0x350) addr:0x021203fc
_ZN12ActorUnkNSSW19func_ov032_0212074cEv kind:function(arm,size=0x134) addr:0x0212074c
_ZN12ActorUnkNSSW19func_ov032_02120880Ev kind:function(arm,size=0x14) addr:0x02120880
_ZN12ActorUnkNSSW19func_ov032_02120894Ev kind:function(arm,size=0x2a0) addr:0x02120894
_ZN12ActorUnkNSSW19func_ov032_02120b34Ev kind:function(arm,size=0x38) addr:0x02120b34
_ZN12ActorUnkNSSW19func_ov032_02120b6cEv kind:function(arm,size=0x10) addr:0x02120b6c
_ZN12ActorUnkNSSW19func_ov032_02120b7cEv kind:function(arm,size=0x44) addr:0x02120b7c
_ZN12ActorUnkNSSW19func_ov032_02120bc0Ev kind:function(arm,size=0x3c) addr:0x02120bc0
_ZN12ActorUnkNSSW19func_ov032_02120bfcEv kind:function(arm,size=0x68) addr:0x02120bfc
_ZN12ActorUnkNSSW19func_ov032_02120c64Ev kind:function(arm,size=0x8c) addr:0x02120c64
_ZN12ActorUnkNSSW19func_ov032_02120cf0Ev kind:function(arm,size=0x34) addr:0x02120cf0
_ZN12ActorUnkNSSW19func_ov032_02120d24Ev kind:function(arm,size=0x3c) addr:0x02120d24
_ZN12ActorUnkNSSW19func_ov032_02120d60Ev kind:function(arm,size=0x1c) addr:0x02120d60
_ZN12ActorUnkNSSW19func_ov032_02120d7cEv kind:function(arm,size=0x40) addr:0x02120d7c
_ZN12ActorUnkNSSW19func_ov032_02120dbcEv kind:function(arm,size=0x3c) addr:0x02120dbc
_ZN12ActorUnkNSSW19func_ov032_02120df8Ev kind:function(arm,size=0x10) addr:0x02120df8
_ZN12ActorUnkNSSWD0Ev kind:function(arm,size=0x1c) addr:0x02120e08
_ZN12ActorUnkNSSWD1Ev kind:function(arm,size=0x28) addr:0x02120e24
_ZN12ActorUnkNSSW19func_ov032_02120e4cEv kind:function(arm,size=0x30) addr:0x02120e4c
_ZN19ActorProfileUnkNSSWD1Ev kind:function(arm,size=0x14) addr:0x02120e7c
_ZN23MapObjectProfileUnkSWSW10GetProfileEv kind:function(arm,size=0xc) addr:0x02120e90
_ZN23MapObjectProfileUnkSWSW6CreateEv kind:function(arm,size=0x24) addr:0x02120e9c
_ZN23MapObjectProfileUnkSWSWC1Ev kind:function(arm,size=0xb8) addr:0x02120ec0
_ZN16MapObjectUnkSWSW19func_ov032_02120f78Ev kind:function(arm,size=0x6c) addr:0x02120f78
_ZN16MapObjectUnkSWSW19func_ov032_02120fe4Ev kind:function(arm,size=0xbc) addr:0x02120fe4
_ZN16MapObjectUnkSWSW19func_ov032_021210a0Ev kind:function(arm,size=0x64) addr:0x021210a0
_ZN16MapObjectUnkSWSWC1Ev kind:function(arm,size=0xc4) addr:0x02121104
_ZN16MapObjectUnkSWSW19func_ov032_021211c8Ev kind:function(arm,size=0x14) addr:0x021211c8
_ZN16MapObjectUnkSWSW19func_ov032_021211dcEv kind:function(arm,size=0x240) addr:0x021211dc
_ZN16MapObjectUnkSWSW19func_ov032_0212141cEv kind:function(arm,size=0x4b4) addr:0x0212141c
_ZN16MapObjectUnkSWSW19func_ov032_021218d0Ev kind:function(arm,size=0x278) addr:0x021218d0
_ZN16MapObjectUnkSWSW19func_ov032_02121b48Ev kind:function(arm,size=0x48) addr:0x02121b48
_ZN16MapObjectUnkSWSW19func_ov032_02121b90Ev kind:function(arm,size=0x88) addr:0x02121b90
_ZN16MapObjectUnkSWSW19func_ov032_02121c18Ev kind:function(arm,size=0x158) addr:0x02121c18
_ZN16MapObjectUnkSWSW19func_ov032_02121d70Ev kind:function(arm,size=0x58) addr:0x02121d70
_ZN16MapObjectUnkSWSW19func_ov032_02121dc8Ev kind:function(arm,size=0x90) addr:0x02121dc8
_ZN16MapObjectUnkSWSWD0Ev kind:function(arm,size=0x1c) addr:0x02121e58
_ZN16MapObjectUnkSWSWD1Ev kind:function(arm,size=0x20) addr:0x02121e74
_ZN16MapObjectUnkSWSW19func_ov032_02121e94Ev kind:function(arm,size=0x28) addr:0x02121e94
_ZN23MapObjectProfileUnkSWSWD1Ev kind:function(arm,size=0x14) addr:0x02121ebc
data_ov032_02121ed4 kind:data(any) addr:0x02121ed4
data_ov032_02121ee4 kind:data(any) addr:0x02121ee4
data_ov032_02121ef4 kind:data(any) addr:0x02121ef4
data_ov032_02121f04 kind:data(any) addr:0x02121f04
data_ov032_02121f14 kind:data(any) addr:0x02121f14
data_ov032_02121f24 kind:data(any) addr:0x02121f24
__sinit_ActorUnkKURI.cpp kind:function(arm,size=0x6c) addr:0x02121f34
__sinit_ActorUnkMKUR.cpp kind:function(arm,size=0x80) addr:0x02121fa0
__sinit_ActorUnkKETH.cpp kind:function(arm,size=0x6c) addr:0x02122020
__sinit_ActorUnkNSSW.cpp kind:function(arm,size=0x50) addr:0x0212208c
__sinit_MapObjectUnkSWSW.cpp kind:function(arm,size=0x50) addr:0x021220dc
.p__sinit_ActorUnkKURI.cpp kind:data(word) addr:0x0212212c
.p__sinit_ActorUnkMKUR.cpp kind:data(word) addr:0x02122130
.p__sinit_ActorUnkKETH.cpp kind:data(word) addr:0x02122134
.p__sinit_ActorUnkNSSW.cpp kind:data(word) addr:0x02122138
.p__sinit_MapObjectUnkSWSW.cpp kind:data(word) addr:0x0212213c
data_ov032_02122160 kind:data(any) addr:0x02122160
data_ov032_0212216c kind:data(any) addr:0x0212216c
data_ov032_02122184 kind:data(any) addr:0x02122184
data_ov032_0212219c kind:data(any) addr:0x0212219c
data_ov032_021221bc kind:data(any) addr:0x021221bc
_ZTV19data_ov032_021221d0 kind:data(any) addr:0x021221d0
data_ov032_021221fc kind:data(any) addr:0x021221fc
data_ov032_02122244 kind:data(any) addr:0x02122244
data_ov032_02122288 kind:data(any) addr:0x02122288
_ZTV19data_ov032_021222e8 kind:data(any) addr:0x021222e8
data_ov032_02122348 kind:data(any) addr:0x02122348
data_ov032_021223a8 kind:data(any) addr:0x021223a8
data_ov032_021223b4 kind:data(any) addr:0x021223b4
data_ov032_021223cc kind:data(any) addr:0x021223cc
data_ov032_021223e4 kind:data(any) addr:0x021223e4
data_ov032_021223f1 kind:data(any) addr:0x021223f1 ambiguous
data_ov032_0212241c kind:data(any) addr:0x0212241c
_ZTV19data_ov032_02122454 kind:data(any) addr:0x02122454
_ZTV19data_ov032_02122478 kind:data(any) addr:0x02122478
data_ov032_021224d8 kind:data(any) addr:0x021224d8
data_ov032_021224e4 kind:data(any) addr:0x021224e4
data_ov032_021224fc kind:data(any) addr:0x021224fc
data_ov032_0212251c kind:data(any) addr:0x0212251c
data_ov032_02122528 kind:data(any) addr:0x02122528
_ZTV19data_ov032_0212253c kind:data(any) addr:0x0212253c
data_ov032_02122568 kind:data(any) addr:0x02122568
data_ov032_0212258c kind:data(any) addr:0x0212258c
data_ov032_021225a8 kind:data(any) addr:0x021225a8 ambiguous
data_ov032_021225dc kind:data(any) addr:0x021225dc
_ZTV19data_ov032_0212262c kind:data(any) addr:0x0212262c
data_ov032_02122694 kind:data(any) addr:0x02122694
data_ov032_021226ac kind:data(any) addr:0x021226ac
_ZTV19data_ov032_021226c0 kind:data(any) addr:0x021226c0
_ZTV19data_ov032_021226e4 kind:data(any) addr:0x021226e4
data_ov032_0212274c kind:data(any) addr:0x0212274c
data_ov032_02122768 kind:data(any) addr:0x02122768
data_ov032_02122784 kind:data(any) addr:0x02122784
data_ov032_021227ac kind:data(any) addr:0x021227ac
data_ov032_021227d8 kind:data(any) addr:0x021227d8
data_ov032_02122810 kind:data(any) addr:0x02122810 ambiguous
_ZGVN15ProfileInstanceI19ActorProfileUnkKURIE8sProfileE kind:bss addr:0x02122820
@11136 kind:bss addr:0x02122824
_ZN15ProfileInstanceI19ActorProfileUnkKURIE8sProfileE kind:bss addr:0x02122830
data_ov032_02122908 kind:bss addr:0x02122908
data_ov032_0212290c kind:bss addr:0x0212290c
_ZGVN15ProfileInstanceI19ActorProfileUnkMKURE8sProfileE kind:bss addr:0x02122918
@11142 kind:bss addr:0x02122924
_ZN15ProfileInstanceI19ActorProfileUnkMKURE8sProfileE kind:bss addr:0x02122930
_ZGVN15ProfileInstanceI19ActorProfileUnkKETHE8sProfileE kind:bss addr:0x02122974
@11148 kind:bss addr:0x02122978
_ZN15ProfileInstanceI19ActorProfileUnkKETHE8sProfileE kind:bss addr:0x02122984
_ZGVN15ProfileInstanceI19ActorProfileUnkNSSWE8sProfileE kind:bss addr:0x02122a5c
@11154 kind:bss addr:0x02122a60
_ZN15ProfileInstanceI19ActorProfileUnkNSSWE8sProfileE kind:bss addr:0x02122a6c
_ZGVN15ProfileInstanceI23MapObjectProfileUnkSWSWE8sProfileE kind:bss addr:0x02122aa8
@11149 kind:bss addr:0x02122aac
_ZN15ProfileInstanceI23MapObjectProfileUnkSWSWE8sProfileE kind:bss addr:0x02122ab8
data_ov032_02122ad8 kind:bss addr:0x02122ad8
data_ov032_02122b8c kind:bss addr:0x02122b8c
