func_ov058_0213efc0 kind:function(arm,size=0x110) addr:0x0213efc0
func_ov058_0213f0d0 kind:function(arm,size=0x20) addr:0x0213f0d0
func_ov058_0213f0f0 kind:function(arm,size=0x38) addr:0x0213f0f0
_ZN19func_ov058_0213f128D1Ev kind:function(arm,size=0x14) addr:0x0213f128
_ZN19func_ov058_0213f13cD0Ev kind:function(arm,size=0x1c) addr:0x0213f13c
func_ov058_0213f158 kind:function(arm,size=0x68) addr:0x0213f158
func_ov058_0213f1c0 kind:function(arm,size=0x20) addr:0x0213f1c0
func_ov058_0213f1e0 kind:function(arm,size=0x3c) addr:0x0213f1e0
func_ov058_0213f21c kind:function(arm,size=0x8) addr:0x0213f21c
_ZN19func_ov058_0213f224D1Ev kind:function(arm,size=0x14) addr:0x0213f224
_ZN19func_ov058_0213f238D0Ev kind:function(arm,size=0x1c) addr:0x0213f238
_ZN19ActorProfileUnkKOKO10GetProfileEv kind:function(arm,size=0xc) addr:0x0213f254
_ZN19ActorProfileUnkKOKO6CreateEv kind:function(arm,size=0x24) addr:0x0213f260
_ZN19ActorProfileUnkKOKOC1Ev kind:function(arm,size=0x6c) addr:0x0213f284
_ZN12ActorUnkKOKO19func_ov058_0213f2f0Ev kind:function(arm,size=0x34) addr:0x0213f2f0
_ZN12ActorUnkKOKOC1Ev kind:function(arm,size=0x21c) addr:0x0213f324
_ZN12ActorUnkKOKO19func_ov058_0213f540Ev kind:function(arm,size=0x14) addr:0x0213f540
_ZN12ActorUnkKOKO19func_ov058_0213f554Ev kind:function(arm,size=0x14) addr:0x0213f554
_ZN12ActorUnkKOKO19func_ov058_0213f568Ev kind:function(arm,size=0x14) addr:0x0213f568
_ZN12ActorUnkKOKO19func_ov058_0213f57cEv kind:function(arm,size=0x14) addr:0x0213f57c
_ZN12ActorUnkKOKO19func_ov058_0213f590Ev kind:function(arm,size=0xfc) addr:0x0213f590
_ZN12ActorUnkKOKOD0Ev kind:function(arm,size=0x104) addr:0x0213f68c
_ZN12ActorUnkKOKO19func_ov058_0213f790Ev kind:function(arm,size=0xe4) addr:0x0213f790
_ZN12ActorUnkKOKO19func_ov058_0213f874Ev kind:function(arm,size=0x9c) addr:0x0213f874
_ZN12ActorUnkKOKO19func_ov058_0213f910Ev kind:function(arm,size=0x348) addr:0x0213f910
_ZN12ActorUnkKOKO19func_ov058_0213fc58Ev kind:function(arm,size=0x48) addr:0x0213fc58
_ZN12ActorUnkKOKO19func_ov058_0213fca0Ev kind:function(arm,size=0x98) addr:0x0213fca0
_ZN12ActorUnkKOKO19func_ov058_0213fd38Ev kind:function(arm,size=0x78) addr:0x0213fd38
_ZN12ActorUnkKOKO19func_ov058_0213fdb0Ev kind:function(arm,size=0x68) addr:0x0213fdb0
_ZN12ActorUnkKOKO19func_ov058_0213fe18Ev kind:function(arm,size=0x6c) addr:0x0213fe18
_ZN12ActorUnkKOKO19func_ov058_0213fe84Ev kind:function(arm,size=0x58) addr:0x0213fe84
_ZN12ActorUnkKOKO19func_ov058_0213fedcEv kind:function(arm,size=0xb8) addr:0x0213fedc
_ZN12ActorUnkKOKO19func_ov058_0213ff94Ev kind:function(arm,size=0x90) addr:0x0213ff94
_ZN12ActorUnkKOKO19func_ov058_02140024Ev kind:function(arm,size=0x268) addr:0x02140024
_ZN12ActorUnkKOKO19func_ov058_0214028cEv kind:function(arm,size=0x144) addr:0x0214028c
_ZN12ActorUnkKOKO19func_ov058_021403d0Ev kind:function(arm,size=0x64) addr:0x021403d0
_ZN12ActorUnkKOKO19func_ov058_02140434Ev kind:function(arm,size=0x170) addr:0x02140434
_ZN12ActorUnkKOKO19func_ov058_021405a4Ev kind:function(arm,size=0xa0) addr:0x021405a4
_ZN12ActorUnkKOKO19func_ov058_02140644Ev kind:function(arm,size=0x264) addr:0x02140644
_ZN12ActorUnkKOKO19func_ov058_021408a8Ev kind:function(arm,size=0x11c) addr:0x021408a8
_ZN12ActorUnkKOKO19func_ov058_021409c4Ev kind:function(arm,size=0x70) addr:0x021409c4
_ZN12ActorUnkKOKO19func_ov058_02140a34Ev kind:function(arm,size=0xe4) addr:0x02140a34
_ZN12ActorUnkKOKO19func_ov058_02140b18Ev kind:function(arm,size=0x108) addr:0x02140b18
_ZN12ActorUnkKOKO19func_ov058_02140c20Ev kind:function(arm,size=0x108) addr:0x02140c20
_ZN12ActorUnkKOKO19func_ov058_02140d28Ev kind:function(arm,size=0xac) addr:0x02140d28
_ZN12ActorUnkKOKO19func_ov058_02140dd4Ev kind:function(arm,size=0xe0) addr:0x02140dd4
_ZN12ActorUnkKOKO19func_ov058_02140eb4Ev kind:function(arm,size=0xf0) addr:0x02140eb4
_ZN12ActorUnkKOKO19func_ov058_02140fa4Ev kind:function(arm,size=0x8c) addr:0x02140fa4
_ZN12ActorUnkKOKO19func_ov058_02141030Ev kind:function(arm,size=0x74) addr:0x02141030
_ZN12ActorUnkKOKO19func_ov058_021410a4Ev kind:function(arm,size=0xac) addr:0x021410a4
_ZN12ActorUnkKOKO19func_ov058_02141150Ev kind:function(arm,size=0x8c) addr:0x02141150
_ZN12ActorUnkKOKO19func_ov058_021411dcEv kind:function(arm,size=0x88) addr:0x021411dc
_ZN12ActorUnkKOKO19func_ov058_02141264Ev kind:function(arm,size=0x3a0) addr:0x02141264
_ZN12ActorUnkKOKO19func_ov058_02141604Ev kind:function(arm,size=0x30) addr:0x02141604
_ZN12ActorUnkKOKO19func_ov058_02141634Ev kind:function(arm,size=0x2e0) addr:0x02141634
_ZN12ActorUnkKOKO19func_ov058_02141914Ev kind:function(arm,size=0xa8) addr:0x02141914
_ZN12ActorUnkKOKO19func_ov058_021419bcEv kind:function(arm,size=0x48) addr:0x021419bc
_ZN12ActorUnkKOKO19func_ov058_02141a04Ev kind:function(arm,size=0x38) addr:0x02141a04
_ZN12ActorUnkKOKO19func_ov058_02141a3cEv kind:function(arm,size=0x38) addr:0x02141a3c
_ZN12ActorUnkKOKO19func_ov058_02141a74Ev kind:function(arm,size=0x10) addr:0x02141a74
_ZN12ActorUnkKOKO19func_ov058_02141a84Ev kind:function(arm,size=0x10) addr:0x02141a84
_ZN12ActorUnkKOKO19func_ov058_02141a94Ev kind:function(arm,size=0xbc) addr:0x02141a94
_ZN12ActorUnkKOKO19func_ov058_02141b50Ev kind:function(arm,size=0x34) addr:0x02141b50
_ZN12ActorUnkKOKO19func_ov058_02141b84Ev kind:function(arm,size=0x20) addr:0x02141b84
_ZN12ActorUnkKOKO19func_ov058_02141ba4Ev kind:function(arm,size=0x80) addr:0x02141ba4
_ZN12ActorUnkKOKO19func_ov058_02141c24Ev kind:function(arm,size=0xac) addr:0x02141c24
_ZN12ActorUnkKOKO19func_ov058_02141cd0Ev kind:function(arm,size=0x24) addr:0x02141cd0
_ZN12ActorUnkKOKO19func_ov058_02141cf4Ev kind:function(arm,size=0x10) addr:0x02141cf4
_ZN12ActorUnkKOKO19func_ov058_02141d04Ev kind:function(arm,size=0x8) addr:0x02141d04
_ZN12ActorUnkKOKO19func_ov058_02141d0cEv kind:function(arm,size=0x24) addr:0x02141d0c
_ZN12ActorUnkKOKO19func_ov058_02141d30Ev kind:function(arm,size=0x2c) addr:0x02141d30
_ZN12ActorUnkKOKO19func_ov058_02141d5cEv kind:function(arm,size=0x14) addr:0x02141d5c
_ZN12ActorUnkKOKO19func_ov058_02141d70Ev kind:function(arm,size=0x1c) addr:0x02141d70
_ZN12ActorUnkKOKO19func_ov058_02141d8cEv kind:function(arm,size=0x1c) addr:0x02141d8c
_ZN12ActorUnkKOKO19func_ov058_02141da8Ev kind:function(arm,size=0x1c) addr:0x02141da8
_ZN19ActorProfileUnkKOKOD1Ev kind:function(arm,size=0x14) addr:0x02141dc4
_ZN19ActorProfileUnkKOAT10GetProfileEv kind:function(arm,size=0xc) addr:0x02141dd8
_ZN19ActorProfileUnkKOAT6CreateEv kind:function(arm,size=0x24) addr:0x02141de4
_ZN19ActorProfileUnkKOATC1Ev kind:function(arm,size=0x4c) addr:0x02141e08
_ZN12ActorUnkKOAT19func_ov058_02141e54Ev kind:function(arm,size=0x16c) addr:0x02141e54
_ZN12ActorUnkKOATC1Ev kind:function(arm,size=0xf4) addr:0x02141fc0
_ZN12ActorUnkKOATD1Ev kind:function(arm,size=0x28) addr:0x021420b4
_ZN12ActorUnkKOATD0Ev kind:function(arm,size=0x30) addr:0x021420dc
_ZN12ActorUnkKOAT19func_ov058_0214210cEv kind:function(arm,size=0x11c) addr:0x0214210c
_ZN12ActorUnkKOAT19func_ov058_02142228Ev kind:function(arm,size=0xc8) addr:0x02142228
_ZN12ActorUnkKOAT19func_ov058_021422f0Ev kind:function(arm,size=0x78) addr:0x021422f0
_ZN19ActorProfileUnkKOATD1Ev kind:function(arm,size=0x14) addr:0x02142368
_ZN19ActorProfileUnkKOCH10GetProfileEv kind:function(arm,size=0xc) addr:0x0214237c
_ZN19ActorProfileUnkKOCH6CreateEv kind:function(arm,size=0x28) addr:0x02142388
_ZN19ActorProfileUnkKOCHC1Ev kind:function(arm,size=0x28) addr:0x021423b0
_ZN12ActorUnkKOCHC1Ev kind:function(arm,size=0x68) addr:0x021423d8
_ZN12ActorUnkKOCH19func_ov058_02142440Ev kind:function(arm,size=0x8) addr:0x02142440
_ZN12ActorUnkKOCH19func_ov058_02142448Ev kind:function(arm,size=0x58) addr:0x02142448
_ZN12ActorUnkKOCH19func_ov058_021424a0Ev kind:function(arm,size=0x10c) addr:0x021424a0
_ZN12ActorUnkKOCH19func_ov058_021425acEv kind:function(arm,size=0x30) addr:0x021425ac
_ZN12ActorUnkKOCH19func_ov058_021425dcEv kind:function(arm,size=0x38) addr:0x021425dc
_ZN12ActorUnkKOCH19func_ov058_02142614Ev kind:function(arm,size=0xa4) addr:0x02142614
_ZN12ActorUnkKOCH19func_ov058_021426b8Ev kind:function(arm,size=0x58) addr:0x021426b8
_ZN12ActorUnkKOCH19func_ov058_02142710Ev kind:function(arm,size=0x3c) addr:0x02142710
_ZN12ActorUnkKOCH19func_ov058_0214274cEv kind:function(arm,size=0x40) addr:0x0214274c
_ZN12ActorUnkKOCH19func_ov058_0214278cEv kind:function(arm,size=0x28) addr:0x0214278c
_ZN12ActorUnkKOCH19func_ov058_021427b4Ev kind:function(arm,size=0x10) addr:0x021427b4
_ZN12ActorUnkKOCH19func_ov058_021427c4Ev kind:function(arm,size=0x28) addr:0x021427c4
_ZN12ActorUnkKOCH19func_ov058_021427ecEv kind:function(arm,size=0x50) addr:0x021427ec
_ZN12ActorUnkKOCH19func_ov058_0214283cEv kind:function(arm,size=0x30) addr:0x0214283c
_ZN12ActorUnkKOCH19func_ov058_0214286cEv kind:function(arm,size=0x5c) addr:0x0214286c
_ZN12ActorUnkKOCH19func_ov058_021428c8Ev kind:function(arm,size=0x60) addr:0x021428c8
_ZN12ActorUnkKOCH19func_ov058_02142928Ev kind:function(arm,size=0x4) addr:0x02142928
_ZN12ActorUnkKOCH19func_ov058_0214292cEv kind:function(arm,size=0x8) addr:0x0214292c
_ZN12ActorUnkKOCH19func_ov058_02142934Ev kind:function(arm,size=0x10) addr:0x02142934
_ZN12ActorUnkKOCH19func_ov058_02142944Ev kind:function(arm,size=0x14) addr:0x02142944
_ZN12ActorUnkKOCHD1Ev kind:function(arm,size=0x1c) addr:0x02142958
_ZN12ActorUnkKOCHD0Ev kind:function(arm,size=0x24) addr:0x02142974
_ZN19ActorProfileUnkKOCHD1Ev kind:function(arm,size=0x14) addr:0x02142998
func_ov058_021429ac kind:function(arm,size=0x10) addr:0x021429ac
func_ov058_021429bc kind:function(arm,size=0x10) addr:0x021429bc
_ZN19ActorProfileUnkNSTN10GetProfileEv kind:function(arm,size=0xc) addr:0x021429cc
_ZN19ActorProfileUnkNSTN6CreateEv kind:function(arm,size=0x24) addr:0x021429d8
_ZN19ActorProfileUnkNSTNC1Ev kind:function(arm,size=0x30) addr:0x021429fc
_ZN12ActorUnkNSTNC1Ev kind:function(arm,size=0x90) addr:0x02142a2c
_ZN12ActorUnkNSTN19func_ov058_02142abcEv kind:function(arm,size=0x14) addr:0x02142abc
_ZN12ActorUnkNSTN19func_ov058_02142ad0Ev kind:function(arm,size=0x18) addr:0x02142ad0
_ZN12ActorUnkNSTN19func_ov058_02142ae8Ev kind:function(arm,size=0x8) addr:0x02142ae8
_ZN12ActorUnkNSTN19func_ov058_02142af0Ev kind:function(arm,size=0x54) addr:0x02142af0
_ZN12ActorUnkNSTN19func_ov058_02142b44Ev kind:function(arm,size=0x38) addr:0x02142b44
_ZN12ActorUnkNSTN19func_ov058_02142b7cEv kind:function(arm,size=0x30) addr:0x02142b7c
_ZN12ActorUnkNSTN19func_ov058_02142bacEv kind:function(arm,size=0xc) addr:0x02142bac
_ZN12ActorUnkNSTN19func_ov058_02142bb8Ev kind:function(arm,size=0xc) addr:0x02142bb8
_ZN12ActorUnkNSTN19func_ov058_02142bc4Ev kind:function(arm,size=0xc) addr:0x02142bc4
_ZN12ActorUnkNSTN19func_ov058_02142bd0Ev kind:function(arm,size=0xc) addr:0x02142bd0
_ZN12ActorUnkNSTN19func_ov058_02142bdcEv kind:function(arm,size=0xc) addr:0x02142bdc
_ZN12ActorUnkNSTN19func_ov058_02142be8Ev kind:function(arm,size=0xc) addr:0x02142be8
_ZN12ActorUnkNSTN19func_ov058_02142bf4Ev kind:function(arm,size=0xc) addr:0x02142bf4
_ZN12ActorUnkNSTN19func_ov058_02142c00Ev kind:function(arm,size=0xc) addr:0x02142c00
_ZN12ActorUnkNSTN19func_ov058_02142c0cEv kind:function(arm,size=0x14) addr:0x02142c0c
_ZN12ActorUnkNSTN19func_ov058_02142c20Ev kind:function(arm,size=0x14) addr:0x02142c20
_ZN12ActorUnkNSTN19func_ov058_02142c34Ev kind:function(arm,size=0xd4) addr:0x02142c34
_ZN12ActorUnkNSTN19func_ov058_02142d08Ev kind:function(arm,size=0xc) addr:0x02142d08
_ZN12ActorUnkNSTND1Ev kind:function(arm,size=0x30) addr:0x02142d14
_ZN12ActorUnkNSTND0Ev kind:function(arm,size=0x38) addr:0x02142d44
_ZN19ActorProfileUnkNSTND1Ev kind:function(arm,size=0x14) addr:0x02142d7c
_ZN19ActorProfileUnkSYOS10GetProfileEv kind:function(arm,size=0xc) addr:0x02142d90
_ZN19ActorProfileUnkSYOS6CreateEv kind:function(arm,size=0x8) addr:0x02142d9c
_ZN19ActorProfileUnkSYOSC1Ev kind:function(arm,size=0x2c) addr:0x02142da4
_ZN19ActorProfileUnkSYSS10GetProfileEv kind:function(arm,size=0xc) addr:0x02142dd0
_ZN19ActorProfileUnkSYSS6CreateEv kind:function(arm,size=0x8) addr:0x02142ddc
_ZN19ActorProfileUnkSYSSC1Ev kind:function(arm,size=0x2c) addr:0x02142de4
_ZN19ActorProfileUnkSYWS10GetProfileEv kind:function(arm,size=0xc) addr:0x02142e10
_ZN19ActorProfileUnkSYWS6CreateEv kind:function(arm,size=0x8) addr:0x02142e1c
_ZN19ActorProfileUnkSYWSC1Ev kind:function(arm,size=0x2c) addr:0x02142e24
_ZN19ActorProfileUnkSYIS10GetProfileEv kind:function(arm,size=0xc) addr:0x02142e50
_ZN19ActorProfileUnkSYIS6CreateEv kind:function(arm,size=0x8) addr:0x02142e5c
_ZN19ActorProfileUnkSYISC1Ev kind:function(arm,size=0x2c) addr:0x02142e64
_ZN19ActorProfileUnkSYDS10GetProfileEv kind:function(arm,size=0xc) addr:0x02142e90
_ZN19ActorProfileUnkSYDS6CreateEv kind:function(arm,size=0x8) addr:0x02142e9c
_ZN19ActorProfileUnkSYDSC1Ev kind:function(arm,size=0x2c) addr:0x02142ea4
_ZN19ActorProfileUnkSYOL10GetProfileEv kind:function(arm,size=0xc) addr:0x02142ed0
_ZN19ActorProfileUnkSYOL6CreateEv kind:function(arm,size=0x8) addr:0x02142edc
_ZN19ActorProfileUnkSYOLC1Ev kind:function(arm,size=0x2c) addr:0x02142ee4
_ZN19ActorProfileUnkSYSL10GetProfileEv kind:function(arm,size=0xc) addr:0x02142f10
_ZN19ActorProfileUnkSYSL6CreateEv kind:function(arm,size=0x8) addr:0x02142f1c
_ZN19ActorProfileUnkSYSLC1Ev kind:function(arm,size=0x2c) addr:0x02142f24
_ZN19ActorProfileUnkSYWL10GetProfileEv kind:function(arm,size=0xc) addr:0x02142f50
_ZN19ActorProfileUnkSYWL6CreateEv kind:function(arm,size=0x8) addr:0x02142f5c
_ZN19ActorProfileUnkSYWLC1Ev kind:function(arm,size=0x2c) addr:0x02142f64
_ZN19ActorProfileUnkSYIL10GetProfileEv kind:function(arm,size=0xc) addr:0x02142f90
_ZN19ActorProfileUnkSYIL6CreateEv kind:function(arm,size=0x8) addr:0x02142f9c
_ZN19ActorProfileUnkSYILC1Ev kind:function(arm,size=0x2c) addr:0x02142fa4
_ZN19ActorProfileUnkSYDL10GetProfileEv kind:function(arm,size=0xc) addr:0x02142fd0
_ZN19ActorProfileUnkSYDL6CreateEv kind:function(arm,size=0x8) addr:0x02142fdc
_ZN19ActorProfileUnkSYDLC1Ev kind:function(arm,size=0x2c) addr:0x02142fe4
_ZN19ActorProfileUnkSYFO10GetProfileEv kind:function(arm,size=0xc) addr:0x02143010
_ZN19ActorProfileUnkSYFO6CreateEv kind:function(arm,size=0x28) addr:0x0214301c
_ZN19ActorProfileUnkSYFOC1Ev kind:function(arm,size=0xa4) addr:0x02143044
_ZN19ActorProfileUnkSYSN10GetProfileEv kind:function(arm,size=0xc) addr:0x021430e8
_ZN19ActorProfileUnkSYSN6CreateEv kind:function(arm,size=0x28) addr:0x021430f4
_ZN19ActorProfileUnkSYSNC1Ev kind:function(arm,size=0x9c) addr:0x0214311c
_ZN19ActorProfileUnkSYWA10GetProfileEv kind:function(arm,size=0xc) addr:0x021431b8
_ZN19ActorProfileUnkSYWA6CreateEv kind:function(arm,size=0x28) addr:0x021431c4
_ZN19ActorProfileUnkSYWAC1Ev kind:function(arm,size=0xa0) addr:0x021431ec
_ZN19ActorProfileUnkSYFI10GetProfileEv kind:function(arm,size=0xc) addr:0x0214328c
_ZN19ActorProfileUnkSYFI6CreateEv kind:function(arm,size=0x28) addr:0x02143298
_ZN19ActorProfileUnkSYFIC1Ev kind:function(arm,size=0xa4) addr:0x021432c0
_ZN19ActorProfileUnkSYDE10GetProfileEv kind:function(arm,size=0xc) addr:0x02143364
_ZN19ActorProfileUnkSYDE6CreateEv kind:function(arm,size=0x28) addr:0x02143370
_ZN19ActorProfileUnkSYDEC1Ev kind:function(arm,size=0xa0) addr:0x02143398
func_ov058_02143438 kind:function(arm,size=0x1a8) addr:0x02143438
func_ov058_021435e0 kind:function(arm,size=0xf6c) addr:0x021435e0
func_ov058_0214454c kind:function(arm,size=0x14) addr:0x0214454c
_ZN19func_ov058_02144560D1Ev kind:function(arm,size=0xa8) addr:0x02144560
_ZN19func_ov058_02144608D0Ev kind:function(arm,size=0xb0) addr:0x02144608
func_ov058_021446b8 kind:function(arm,size=0x4e8) addr:0x021446b8
func_ov058_02144ba0 kind:function(arm,size=0x580) addr:0x02144ba0
func_ov058_02145120 kind:function(arm,size=0x584) addr:0x02145120
func_ov058_021456a4 kind:function(arm,size=0x34) addr:0x021456a4
func_ov058_021456d8 kind:function(arm,size=0x74) addr:0x021456d8
func_ov058_0214574c kind:function(arm,size=0x148) addr:0x0214574c
func_ov058_02145894 kind:function(arm,size=0xd0) addr:0x02145894
func_ov058_02145964 kind:function(arm,size=0x54) addr:0x02145964
func_ov058_021459b8 kind:function(arm,size=0x2c) addr:0x021459b8
func_ov058_021459e4 kind:function(arm,size=0x1f0) addr:0x021459e4
func_ov058_02145bd4 kind:function(arm,size=0x94) addr:0x02145bd4
func_ov058_02145c68 kind:function(arm,size=0x140) addr:0x02145c68
func_ov058_02145da8 kind:function(arm,size=0xec) addr:0x02145da8
func_ov058_02145e94 kind:function(arm,size=0x5c) addr:0x02145e94
func_ov058_02145ef0 kind:function(arm,size=0x180) addr:0x02145ef0
func_ov058_02146070 kind:function(arm,size=0xdc) addr:0x02146070
func_ov058_0214614c kind:function(arm,size=0x174) addr:0x0214614c
func_ov058_021462c0 kind:function(arm,size=0x54) addr:0x021462c0
func_ov058_02146314 kind:function(arm,size=0x28) addr:0x02146314
func_ov058_0214633c kind:function(arm,size=0x28) addr:0x0214633c
func_ov058_02146364 kind:function(arm,size=0x28) addr:0x02146364
func_ov058_0214638c kind:function(arm,size=0x20) addr:0x0214638c
func_ov058_021463ac kind:function(arm,size=0x28) addr:0x021463ac
func_ov058_021463d4 kind:function(arm,size=0x2c) addr:0x021463d4
func_ov058_02146400 kind:function(arm,size=0x2c) addr:0x02146400
func_ov058_0214642c kind:function(arm,size=0x2c) addr:0x0214642c
func_ov058_02146458 kind:function(arm,size=0x28) addr:0x02146458
func_ov058_02146480 kind:function(arm,size=0x68) addr:0x02146480
func_ov058_021464e8 kind:function(arm,size=0x4) addr:0x021464e8
func_ov058_021464ec kind:function(arm,size=0x4) addr:0x021464ec
func_ov058_021464f0 kind:function(arm,size=0x4) addr:0x021464f0
func_ov058_021464f4 kind:function(arm,size=0x2c) addr:0x021464f4
func_ov058_02146520 kind:function(arm,size=0x2c) addr:0x02146520
func_ov058_0214654c kind:function(arm,size=0xc) addr:0x0214654c
func_ov058_02146558 kind:function(arm,size=0x2f0) addr:0x02146558
func_ov058_02146848 kind:function(arm,size=0x90) addr:0x02146848
func_ov058_021468d8 kind:function(arm,size=0xa0) addr:0x021468d8
func_ov058_02146978 kind:function(arm,size=0x4) addr:0x02146978
func_ov058_0214697c kind:function(arm,size=0x4) addr:0x0214697c
func_ov058_02146980 kind:function(arm,size=0x4) addr:0x02146980
func_ov058_02146984 kind:function(arm,size=0x60) addr:0x02146984
func_ov058_021469e4 kind:function(arm,size=0x158) addr:0x021469e4
func_ov058_02146b3c kind:function(arm,size=0x130) addr:0x02146b3c
func_ov058_02146c6c kind:function(arm,size=0x60) addr:0x02146c6c
func_ov058_02146ccc kind:function(arm,size=0x20) addr:0x02146ccc
func_ov058_02146cec kind:function(arm,size=0x44) addr:0x02146cec
func_ov058_02146d30 kind:function(arm,size=0x44) addr:0x02146d30
func_ov058_02146d74 kind:function(arm,size=0x364) addr:0x02146d74
func_ov058_021470d8 kind:function(arm,size=0x70) addr:0x021470d8
func_ov058_02147148 kind:function(arm,size=0x74) addr:0x02147148
func_ov058_021471bc kind:function(arm,size=0x38) addr:0x021471bc
func_ov058_021471f4 kind:function(arm,size=0x54c) addr:0x021471f4
func_ov058_02147740 kind:function(arm,size=0x20) addr:0x02147740
func_ov058_02147760 kind:function(arm,size=0x100) addr:0x02147760
func_ov058_02147860 kind:function(arm,size=0x1b0) addr:0x02147860
func_ov058_02147a10 kind:function(arm,size=0x4c) addr:0x02147a10
func_ov058_02147a5c kind:function(arm,size=0x28) addr:0x02147a5c
func_ov058_02147a84 kind:function(arm,size=0x68) addr:0x02147a84
func_ov058_02147aec kind:function(arm,size=0x80) addr:0x02147aec
func_ov058_02147b6c kind:function(arm,size=0x2c) addr:0x02147b6c
func_ov058_02147b98 kind:function(arm,size=0x2c) addr:0x02147b98
func_ov058_02147bc4 kind:function(arm,size=0x30) addr:0x02147bc4
func_ov058_02147bf4 kind:function(arm,size=0x3c) addr:0x02147bf4
func_ov058_02147c30 kind:function(arm,size=0x3c) addr:0x02147c30
func_ov058_02147c6c kind:function(arm,size=0x3c) addr:0x02147c6c
func_ov058_02147ca8 kind:function(arm,size=0x3c) addr:0x02147ca8
func_ov058_02147ce4 kind:function(arm,size=0x3c) addr:0x02147ce4
func_ov058_02147d20 kind:function(arm,size=0x3c) addr:0x02147d20
func_ov058_02147d5c kind:function(arm,size=0x4) addr:0x02147d5c
_ZN19func_ov058_02147d60D0Ev kind:function(arm,size=0x1c) addr:0x02147d60
_ZN19func_ov058_02147d7cD0Ev kind:function(arm,size=0x28) addr:0x02147d7c
_ZN19func_ov058_02147da4D2Ev kind:function(arm,size=0x20) addr:0x02147da4
_ZN19ActorProfileUnkSYOSD1Ev kind:function(arm,size=0x14) addr:0x02147dc4
_ZN19ActorProfileUnkSYSSD1Ev kind:function(arm,size=0x14) addr:0x02147dd8
_ZN19ActorProfileUnkSYWSD1Ev kind:function(arm,size=0x14) addr:0x02147dec
_ZN19ActorProfileUnkSYISD1Ev kind:function(arm,size=0x14) addr:0x02147e00
_ZN19ActorProfileUnkSYDSD1Ev kind:function(arm,size=0x14) addr:0x02147e14
_ZN19ActorProfileUnkSYOLD1Ev kind:function(arm,size=0x14) addr:0x02147e28
_ZN19ActorProfileUnkSYSLD1Ev kind:function(arm,size=0x14) addr:0x02147e3c
_ZN19ActorProfileUnkSYWLD1Ev kind:function(arm,size=0x14) addr:0x02147e50
_ZN19ActorProfileUnkSYILD1Ev kind:function(arm,size=0x14) addr:0x02147e64
_ZN19ActorProfileUnkSYDLD1Ev kind:function(arm,size=0x14) addr:0x02147e78
_ZN19ActorProfileUnkSYFOD1Ev kind:function(arm,size=0x14) addr:0x02147e8c
_ZN19ActorProfileUnkSYSND1Ev kind:function(arm,size=0x14) addr:0x02147ea0
_ZN19ActorProfileUnkSYWAD1Ev kind:function(arm,size=0x14) addr:0x02147eb4
_ZN19ActorProfileUnkSYFID1Ev kind:function(arm,size=0x14) addr:0x02147ec8
_ZN19ActorProfileUnkSYDED1Ev kind:function(arm,size=0x14) addr:0x02147edc
_ZN19ActorProfileUnkCRFT10GetProfileEv kind:function(arm,size=0xc) addr:0x02147ef0
_ZN19ActorProfileUnkCRFT6CreateEv kind:function(arm,size=0x24) addr:0x02147efc
_ZN19ActorProfileUnkCRFTC1Ev kind:function(arm,size=0x70) addr:0x02147f20
_ZN12ActorUnkCRFTC1Ev kind:function(arm,size=0x1b8) addr:0x02147f90
_ZN12ActorUnkCRFT19func_ov058_02148148Ev kind:function(arm,size=0x30) addr:0x02148148
_ZN12ActorUnkCRFT19func_ov058_02148178Ev kind:function(arm,size=0x54) addr:0x02148178
_ZN12ActorUnkCRFT19func_ov058_021481ccEv kind:function(arm,size=0xb0) addr:0x021481cc
_ZN12ActorUnkCRFT19func_ov058_0214827cEv kind:function(arm,size=0x7c) addr:0x0214827c
_ZN12ActorUnkCRFT19func_ov058_021482f8Ev kind:function(arm,size=0x104) addr:0x021482f8
_ZN12ActorUnkCRFT19func_ov058_021483fcEv kind:function(arm,size=0x4c) addr:0x021483fc
_ZN12ActorUnkCRFT19func_ov058_02148448Ev kind:function(arm,size=0x34) addr:0x02148448
_ZN12ActorUnkCRFT19func_ov058_0214847cEv kind:function(arm,size=0x64) addr:0x0214847c
_ZN12ActorUnkCRFT19func_ov058_021484e0Ev kind:function(arm,size=0x34) addr:0x021484e0
_ZN12ActorUnkCRFT19func_ov058_02148514Ev kind:function(arm,size=0x7c) addr:0x02148514
_ZN12ActorUnkCRFT19func_ov058_02148590Ev kind:function(arm,size=0x7c) addr:0x02148590
_ZN12ActorUnkCRFT19func_ov058_0214860cEv kind:function(arm,size=0x90) addr:0x0214860c
_ZN12ActorUnkCRFT19func_ov058_0214869cEv kind:function(arm,size=0x74) addr:0x0214869c
_ZN12ActorUnkCRFT19func_ov058_02148710Ev kind:function(arm,size=0x14) addr:0x02148710
_ZN12ActorUnkCRFT19func_ov058_02148724Ev kind:function(arm,size=0x3c) addr:0x02148724
_ZN12ActorUnkCRFT19func_ov058_02148760Ev kind:function(arm,size=0x68) addr:0x02148760
_ZN12ActorUnkCRFT19func_ov058_021487c8Ev kind:function(arm,size=0x1c) addr:0x021487c8
_ZN12ActorUnkCRFT19func_ov058_021487e4Ev kind:function(arm,size=0x8) addr:0x021487e4
_ZN12ActorUnkCRFT19func_ov058_021487ecEv kind:function(arm,size=0x30) addr:0x021487ec
_ZN12ActorUnkCRFT19func_ov058_0214881cEv kind:function(arm,size=0x40) addr:0x0214881c
_ZN12ActorUnkCRFT19func_ov058_0214885cEv kind:function(arm,size=0x7c) addr:0x0214885c
_ZN12ActorUnkCRFT19func_ov058_021488d8Ev kind:function(arm,size=0x2c) addr:0x021488d8
_ZN12ActorUnkCRFT19func_ov058_02148904Ev kind:function(arm,size=0xa4) addr:0x02148904
_ZN12ActorUnkCRFT19func_ov058_021489a8Ev kind:function(arm,size=0xc4) addr:0x021489a8
_ZN12ActorUnkCRFT19func_ov058_02148a6cEv kind:function(arm,size=0x2c) addr:0x02148a6c
_ZN12ActorUnkCRFT19func_ov058_02148a98Ev kind:function(arm,size=0x6c) addr:0x02148a98
_ZN12ActorUnkCRFT19func_ov058_02148b04Ev kind:function(arm,size=0x6c) addr:0x02148b04
_ZN12ActorUnkCRFTD1Ev kind:function(arm,size=0x30) addr:0x02148b70
_ZN12ActorUnkCRFTD0Ev kind:function(arm,size=0x38) addr:0x02148ba0
_ZN19ActorProfileUnkCRFTD1Ev kind:function(arm,size=0x14) addr:0x02148bd8
_ZN19ActorProfileUnkFBRD10GetProfileEv kind:function(arm,size=0xc) addr:0x02148bec
_ZN19ActorProfileUnkFBRD6CreateEv kind:function(arm,size=0x24) addr:0x02148bf8
_ZN19ActorProfileUnkFBRDC1Ev kind:function(arm,size=0x44) addr:0x02148c1c
_ZN12ActorUnkFBRD19func_ov058_02148c60Ev kind:function(arm,size=0x28) addr:0x02148c60
_ZN12ActorUnkFBRD19func_ov058_02148c88Ev kind:function(arm,size=0x20) addr:0x02148c88
_ZN12ActorUnkFBRD19func_ov058_02148ca8Ev kind:function(arm,size=0x50) addr:0x02148ca8
_ZN12ActorUnkFBRD19func_ov058_02148cf8Ev kind:function(arm,size=0x1d8) addr:0x02148cf8
_ZN12ActorUnkFBRDC1Ev kind:function(arm,size=0x1b0) addr:0x02148ed0
_ZN12ActorUnkFBRD19func_ov058_02149080Ev kind:function(arm,size=0x14) addr:0x02149080
_ZN12ActorUnkFBRD19func_ov058_02149094Ev kind:function(arm,size=0xbc) addr:0x02149094
_ZN12ActorUnkFBRDD0Ev kind:function(arm,size=0xc4) addr:0x02149150
_ZN12ActorUnkFBRD19func_ov058_02149214Ev kind:function(arm,size=0x9c) addr:0x02149214
_ZN12ActorUnkFBRD19func_ov058_021492b0Ev kind:function(arm,size=0x64) addr:0x021492b0
_ZN12ActorUnkFBRD19func_ov058_02149314Ev kind:function(arm,size=0x40) addr:0x02149314
_ZN12ActorUnkFBRD19func_ov058_02149354Ev kind:function(arm,size=0x38) addr:0x02149354
_ZN12ActorUnkFBRD19func_ov058_0214938cEv kind:function(arm,size=0x134) addr:0x0214938c
_ZN12ActorUnkFBRD19func_ov058_021494c0Ev kind:function(arm,size=0x5c) addr:0x021494c0
_ZN12ActorUnkFBRD19func_ov058_0214951cEv kind:function(arm,size=0x58) addr:0x0214951c
_ZN12ActorUnkFBRD19func_ov058_02149574Ev kind:function(arm,size=0x88) addr:0x02149574
_ZN12ActorUnkFBRD19func_ov058_021495fcEv kind:function(arm,size=0x80) addr:0x021495fc
_ZN12ActorUnkFBRD19func_ov058_0214967cEv kind:function(arm,size=0x14) addr:0x0214967c
_ZN12ActorUnkFBRD19func_ov058_02149690Ev kind:function(arm,size=0x54) addr:0x02149690
_ZN12ActorUnkFBRD19func_ov058_021496e4Ev kind:function(arm,size=0x1d0) addr:0x021496e4
_ZN12ActorUnkFBRD19func_ov058_021498b4Ev kind:function(arm,size=0x318) addr:0x021498b4
_ZN12ActorUnkFBRD19func_ov058_02149bccEv kind:function(arm,size=0x90) addr:0x02149bcc
_ZN12ActorUnkFBRD19func_ov058_02149c5cEv kind:function(arm,size=0x128) addr:0x02149c5c
_ZN12ActorUnkFBRD19func_ov058_02149d84Ev kind:function(arm,size=0x14) addr:0x02149d84
_ZN12ActorUnkFBRD19func_ov058_02149d98Ev kind:function(arm,size=0x5d4) addr:0x02149d98
_ZN12ActorUnkFBRD19func_ov058_0214a36cEv kind:function(arm,size=0x18) addr:0x0214a36c
_ZN12ActorUnkFBRD19func_ov058_0214a384Ev kind:function(arm,size=0x28c) addr:0x0214a384
_ZN12ActorUnkFBRD19func_ov058_0214a610Ev kind:function(arm,size=0x1d0) addr:0x0214a610
_ZN12ActorUnkFBRD19func_ov058_0214a7e0Ev kind:function(arm,size=0x60) addr:0x0214a7e0
_ZN12ActorUnkFBRD19func_ov058_0214a840Ev kind:function(arm,size=0x90) addr:0x0214a840
_ZN12ActorUnkFBRD19func_ov058_0214a8d0Ev kind:function(arm,size=0x14) addr:0x0214a8d0
_ZN12ActorUnkFBRD19func_ov058_0214a8e4Ev kind:function(arm,size=0x74) addr:0x0214a8e4
_ZN12ActorUnkFBRD19func_ov058_0214a958Ev kind:function(arm,size=0x1c) addr:0x0214a958
_ZN19ActorProfileUnkFBRDD1Ev kind:function(arm,size=0x14) addr:0x0214a974
_ZN19ActorProfileUnkFBSC10GetProfileEv kind:function(arm,size=0xc) addr:0x0214a988
_ZN19ActorProfileUnkFBSC6CreateEv kind:function(arm,size=0x24) addr:0x0214a994
_ZN19ActorProfileUnkFBSCC1Ev kind:function(arm,size=0x28) addr:0x0214a9b8
_ZN12ActorUnkFBSCC1Ev kind:function(arm,size=0x58) addr:0x0214a9e0
_ZN12ActorUnkFBSCD1Ev kind:function(arm,size=0x3c) addr:0x0214aa38
_ZN12ActorUnkFBSCD0Ev kind:function(arm,size=0x44) addr:0x0214aa74
_ZN12ActorUnkFBSC19func_ov058_0214aab8Ev kind:function(arm,size=0x14) addr:0x0214aab8
_ZN12ActorUnkFBSC19func_ov058_0214aaccEv kind:function(arm,size=0x38) addr:0x0214aacc
_ZN12ActorUnkFBSC19func_ov058_0214ab04Ev kind:function(arm,size=0x30) addr:0x0214ab04
_ZN12ActorUnkFBSC19func_ov058_0214ab34Ev kind:function(arm,size=0x34) addr:0x0214ab34
_ZN12ActorUnkFBSC19func_ov058_0214ab68Ev kind:function(arm,size=0x10) addr:0x0214ab68
_ZN12ActorUnkFBSC19func_ov058_0214ab78Ev kind:function(arm,size=0x14) addr:0x0214ab78
_ZN19ActorProfileUnkFBSCD1Ev kind:function(arm,size=0x14) addr:0x0214ab8c
func_ov058_0214aba0 kind:function(arm,size=0x10) addr:0x0214aba0
func_ov058_0214abb0 kind:function(arm,size=0x10) addr:0x0214abb0
_ZN19ActorProfileUnkWPBD10GetProfileEv kind:function(arm,size=0xc) addr:0x0214abc0
_ZN19ActorProfileUnkWPBD6CreateEv kind:function(arm,size=0x24) addr:0x0214abcc
_ZN19ActorProfileUnkWPBDC1Ev kind:function(arm,size=0x44) addr:0x0214abf0
_ZN12ActorUnkWPBD19func_ov058_0214ac34Ev kind:function(arm,size=0x54) addr:0x0214ac34
_ZN12ActorUnkWPBD19func_ov058_0214ac88Ev kind:function(arm,size=0x38) addr:0x0214ac88
_ZN12ActorUnkWPBD19func_ov058_0214acc0Ev kind:function(arm,size=0x34) addr:0x0214acc0
_ZN12ActorUnkWPBDC1Ev kind:function(arm,size=0x238) addr:0x0214acf4
_ZN12ActorUnkWPBD19func_ov058_0214af2cEv kind:function(arm,size=0x14) addr:0x0214af2c
_ZN12ActorUnkWPBD19func_ov058_0214af40Ev kind:function(arm,size=0x14) addr:0x0214af40
_ZN12ActorUnkWPBD19func_ov058_0214af54Ev kind:function(arm,size=0x174) addr:0x0214af54
_ZN12ActorUnkWPBD19func_ov058_0214b0c8Ev kind:function(arm,size=0xb0) addr:0x0214b0c8
_ZN12ActorUnkWPBD19func_ov058_0214b178Ev kind:function(arm,size=0x4c) addr:0x0214b178
_ZN12ActorUnkWPBD19func_ov058_0214b1c4Ev kind:function(arm,size=0x74) addr:0x0214b1c4
_ZN12ActorUnkWPBD19func_ov058_0214b238Ev kind:function(arm,size=0x270) addr:0x0214b238
_ZN12ActorUnkWPBD19func_ov058_0214b4a8Ev kind:function(arm,size=0x174) addr:0x0214b4a8
_ZN12ActorUnkWPBD19func_ov058_0214b61cEv kind:function(arm,size=0x4) addr:0x0214b61c
_ZN12ActorUnkWPBD19func_ov058_0214b620Ev kind:function(arm,size=0x200) addr:0x0214b620
_ZN12ActorUnkWPBD19func_ov058_0214b820Ev kind:function(arm,size=0xbc) addr:0x0214b820
_ZN12ActorUnkWPBD19func_ov058_0214b8dcEv kind:function(arm,size=0x2f0) addr:0x0214b8dc
_ZN12ActorUnkWPBD19func_ov058_0214bbccEv kind:function(arm,size=0x1cc) addr:0x0214bbcc
_ZN12ActorUnkWPBD19func_ov058_0214bd98Ev kind:function(arm,size=0x20c) addr:0x0214bd98
_ZN12ActorUnkWPBD19func_ov058_0214bfa4Ev kind:function(arm,size=0xd4) addr:0x0214bfa4
_ZN12ActorUnkWPBD19func_ov058_0214c078Ev kind:function(arm,size=0x3c) addr:0x0214c078
_ZN12ActorUnkWPBD19func_ov058_0214c0b4Ev kind:function(arm,size=0x280) addr:0x0214c0b4
_ZN12ActorUnkWPBD19func_ov058_0214c334Ev kind:function(arm,size=0x60) addr:0x0214c334
_ZN12ActorUnkWPBD19func_ov058_0214c394Ev kind:function(arm,size=0x344) addr:0x0214c394
_ZN12ActorUnkWPBD19func_ov058_0214c6d8Ev kind:function(arm,size=0x14c) addr:0x0214c6d8
_ZN12ActorUnkWPBD19func_ov058_0214c824Ev kind:function(arm,size=0x108) addr:0x0214c824
_ZN12ActorUnkWPBD19func_ov058_0214c92cEv kind:function(arm,size=0x114) addr:0x0214c92c
_ZN12ActorUnkWPBD19func_ov058_0214ca40Ev kind:function(arm,size=0x78) addr:0x0214ca40
_ZN12ActorUnkWPBD19func_ov058_0214cab8Ev kind:function(arm,size=0x14) addr:0x0214cab8
_ZN12ActorUnkWPBD19func_ov058_0214caccEv kind:function(arm,size=0x98) addr:0x0214cacc
_ZN12ActorUnkWPBD19func_ov058_0214cb64Ev kind:function(arm,size=0x84) addr:0x0214cb64
_ZN12ActorUnkWPBD19func_ov058_0214cbe8Ev kind:function(arm,size=0x98) addr:0x0214cbe8
_ZN12ActorUnkWPBD19func_ov058_0214cc80Ev kind:function(arm,size=0x50) addr:0x0214cc80
_ZN12ActorUnkWPBD19func_ov058_0214ccd0Ev kind:function(arm,size=0xc4) addr:0x0214ccd0
_ZN12ActorUnkWPBD19func_ov058_0214cd94Ev kind:function(arm,size=0x210) addr:0x0214cd94
_ZN12ActorUnkWPBD19func_ov058_0214cfa4Ev kind:function(arm,size=0xd4) addr:0x0214cfa4
_ZN12ActorUnkWPBD19func_ov058_0214d078Ev kind:function(arm,size=0x1d8) addr:0x0214d078
_ZN12ActorUnkWPBD19func_ov058_0214d250Ev kind:function(arm,size=0x64) addr:0x0214d250
_ZN12ActorUnkWPBD19func_ov058_0214d2b4Ev kind:function(arm,size=0x10) addr:0x0214d2b4
_ZN12ActorUnkWPBD19func_ov058_0214d2c4Ev kind:function(arm,size=0xe0) addr:0x0214d2c4
_ZN12ActorUnkWPBDD0Ev kind:function(arm,size=0x1c) addr:0x0214d3a4
_ZN12ActorUnkWPBD19func_ov058_0214d3c0Ev kind:function(arm,size=0x1c) addr:0x0214d3c0
_ZN12ActorUnkWPBDD1Ev kind:function(arm,size=0x38) addr:0x0214d3dc
_ZN12ActorUnkWPBD19func_ov058_0214d414Ev kind:function(arm,size=0x40) addr:0x0214d414
_ZN19ActorProfileUnkWPBDD1Ev kind:function(arm,size=0x14) addr:0x0214d454
_ZN19ActorProfileUnkWPCH10GetProfileEv kind:function(arm,size=0xc) addr:0x0214d468
_ZN19ActorProfileUnkWPCH6CreateEv kind:function(arm,size=0x24) addr:0x0214d474
_ZN19ActorProfileUnkWPCHC1Ev kind:function(arm,size=0x28) addr:0x0214d498
_ZN12ActorUnkWPCHC1Ev kind:function(arm,size=0x40) addr:0x0214d4c0
_ZN12ActorUnkWPCH19func_ov058_0214d500Ev kind:function(arm,size=0x8) addr:0x0214d500
_ZN12ActorUnkWPCH19func_ov058_0214d508Ev kind:function(arm,size=0x38) addr:0x0214d508
_ZN12ActorUnkWPCH19func_ov058_0214d540Ev kind:function(arm,size=0x18) addr:0x0214d540
_ZN12ActorUnkWPCH19func_ov058_0214d558Ev kind:function(arm,size=0x18) addr:0x0214d558
_ZN12ActorUnkWPCH19func_ov058_0214d570Ev kind:function(arm,size=0x114) addr:0x0214d570
_ZN12ActorUnkWPCH19func_ov058_0214d684Ev kind:function(arm,size=0x10) addr:0x0214d684
_ZN12ActorUnkWPCH19func_ov058_0214d694Ev kind:function(arm,size=0x14) addr:0x0214d694
_ZN12ActorUnkWPCHD1Ev kind:function(arm,size=0x1c) addr:0x0214d6a8
_ZN12ActorUnkWPCHD0Ev kind:function(arm,size=0x24) addr:0x0214d6c4
_ZN19ActorProfileUnkWPCHD1Ev kind:function(arm,size=0x14) addr:0x0214d6e8
func_ov058_0214d6fc kind:function(arm,size=0x10) addr:0x0214d6fc
func_ov058_0214d70c kind:function(arm,size=0x10) addr:0x0214d70c
_ZN19ActorProfileUnkBSTG10GetProfileEv kind:function(arm,size=0xc) addr:0x0214d71c
_ZN19ActorProfileUnkBSTG6CreateEv kind:function(arm,size=0x24) addr:0x0214d728
_ZN19ActorProfileUnkBSTGC1Ev kind:function(arm,size=0x28) addr:0x0214d74c
_ZN12ActorUnkBSTGC1Ev kind:function(arm,size=0x20) addr:0x0214d774
_ZN12ActorUnkBSTG19func_ov058_0214d794Ev kind:function(arm,size=0x8) addr:0x0214d794
_ZN12ActorUnkBSTG19func_ov058_0214d79cEv kind:function(arm,size=0x34) addr:0x0214d79c
_ZN12ActorUnkBSTGD1Ev kind:function(arm,size=0x14) addr:0x0214d7d0
_ZN12ActorUnkBSTGD0Ev kind:function(arm,size=0x1c) addr:0x0214d7e4
_ZN19ActorProfileUnkBSTGD1Ev kind:function(arm,size=0x14) addr:0x0214d800
_ZN19ActorProfileUnkTMNA10GetProfileEv kind:function(arm,size=0xc) addr:0x0214d814
_ZN19ActorProfileUnkTMNA6CreateEv kind:function(arm,size=0x24) addr:0x0214d820
_ZN19ActorProfileUnkTMNAC1Ev kind:function(arm,size=0x68) addr:0x0214d844
_ZN12ActorUnkTMNAC1Ev kind:function(arm,size=0x140) addr:0x0214d8ac
_ZN12ActorUnkTMNA19func_ov058_0214d9ecEv kind:function(arm,size=0xbc) addr:0x0214d9ec
_ZN12ActorUnkTMNA19func_ov058_0214daa8Ev kind:function(arm,size=0xc) addr:0x0214daa8
_ZN12ActorUnkTMNA19func_ov058_0214dab4Ev kind:function(arm,size=0x20) addr:0x0214dab4
_ZN12ActorUnkTMNA19func_ov058_0214dad4Ev kind:function(arm,size=0x94) addr:0x0214dad4
_ZN12ActorUnkTMNA19func_ov058_0214db68Ev kind:function(arm,size=0x60) addr:0x0214db68
_ZN12ActorUnkTMNA19func_ov058_0214dbc8Ev kind:function(arm,size=0x1c) addr:0x0214dbc8
_ZN12ActorUnkTMNA19func_ov058_0214dbe4Ev kind:function(arm,size=0x4c) addr:0x0214dbe4
_ZN12ActorUnkTMNAD1Ev kind:function(arm,size=0x28) addr:0x0214dc30
_ZN12ActorUnkTMNAD0Ev kind:function(arm,size=0x30) addr:0x0214dc58
_ZN12ActorUnkTMNA19func_ov058_0214dc88Ev kind:function(arm,size=0x20) addr:0x0214dc88
_ZN12ActorUnkTMNA19func_ov058_0214dca8Ev kind:function(arm,size=0x14) addr:0x0214dca8
_ZN19ActorProfileUnkTMNAD1Ev kind:function(arm,size=0x14) addr:0x0214dcbc
_ZN19ActorProfileUnkTMNC10GetProfileEv kind:function(arm,size=0xc) addr:0x0214dcd0
_ZN19ActorProfileUnkTMNC6CreateEv kind:function(arm,size=0x24) addr:0x0214dcdc
_ZN19ActorProfileUnkTMNCC1Ev kind:function(arm,size=0x44) addr:0x0214dd00
_ZN12ActorUnkTMNCC1Ev kind:function(arm,size=0x9c) addr:0x0214dd44
_ZN12ActorUnkTMNC19func_ov058_0214dde0Ev kind:function(arm,size=0x90) addr:0x0214dde0
_ZN12ActorUnkTMNC19func_ov058_0214de70Ev kind:function(arm,size=0x80) addr:0x0214de70
_ZN12ActorUnkTMNCD1Ev kind:function(arm,size=0x28) addr:0x0214def0
_ZN12ActorUnkTMNCD0Ev kind:function(arm,size=0x30) addr:0x0214df18
_ZN19ActorProfileUnkTMNCD1Ev kind:function(arm,size=0x14) addr:0x0214df48
_ZN23MapObjectProfileUnkTREE10GetProfileEv kind:function(arm,size=0xc) addr:0x0214df5c
_ZN23MapObjectProfileUnkTREE6CreateEv kind:function(arm,size=0x24) addr:0x0214df68
_ZN23MapObjectProfileUnkTREEC1Ev kind:function(arm,size=0xc4) addr:0x0214df8c
_ZN16MapObjectUnkTREEC1Ev kind:function(arm,size=0x4c) addr:0x0214e050
_ZN16MapObjectUnkTREE19func_ov058_0214e09cEv kind:function(arm,size=0x1a0) addr:0x0214e09c
_ZN16MapObjectUnkTREE19func_ov058_0214e23cEv kind:function(arm,size=0xac) addr:0x0214e23c
_ZN16MapObjectUnkTREE19func_ov058_0214e2e8Ev kind:function(arm,size=0x48) addr:0x0214e2e8
_ZN16MapObjectUnkTREE19func_ov058_0214e330Ev kind:function(arm,size=0x8) addr:0x0214e330
_ZN16MapObjectUnkTREE19func_ov058_0214e338Ev kind:function(arm,size=0xb0) addr:0x0214e338
_ZN16MapObjectUnkTREE19func_ov058_0214e3e8Ev kind:function(arm,size=0x78) addr:0x0214e3e8
_ZN16MapObjectUnkTREED1Ev kind:function(arm,size=0x20) addr:0x0214e460
_ZN16MapObjectUnkTREED0Ev kind:function(arm,size=0x28) addr:0x0214e480
_ZN23MapObjectProfileUnkTREED1Ev kind:function(arm,size=0x14) addr:0x0214e4a8
_ZN19func_ov058_0214e4bcD0Ev kind:function(arm,size=0x1c) addr:0x0214e4bc
_ZN19func_ov058_0214e4d8D0Ev kind:function(arm,size=0x1c) addr:0x0214e4d8
func_ov058_0214e4f4 kind:function(arm,size=0x14) addr:0x0214e4f4
_ZN23MapObjectProfileUnkLEVS10GetProfileEv kind:function(arm,size=0xc) addr:0x0214e508
_ZN23MapObjectProfileUnkLEVS6CreateEv kind:function(arm,size=0x24) addr:0x0214e514
_ZN23MapObjectProfileUnkLEVSC1Ev kind:function(arm,size=0xa4) addr:0x0214e538
_ZN16MapObjectUnkLEVS19func_ov058_0214e5dcEv kind:function(arm,size=0x98) addr:0x0214e5dc
_ZN16MapObjectUnkLEVSC1Ev kind:function(arm,size=0x98) addr:0x0214e674
_ZN16MapObjectUnkLEVS19func_ov058_0214e70cEv kind:function(arm,size=0x18) addr:0x0214e70c
_ZN16MapObjectUnkLEVS19func_ov058_0214e724Ev kind:function(arm,size=0x3c) addr:0x0214e724
_ZN16MapObjectUnkLEVS19func_ov058_0214e760Ev kind:function(arm,size=0x44) addr:0x0214e760
_ZN16MapObjectUnkLEVS19func_ov058_0214e7a4Ev kind:function(arm,size=0xb4) addr:0x0214e7a4
_ZN16MapObjectUnkLEVS19func_ov058_0214e858Ev kind:function(arm,size=0x38) addr:0x0214e858
_ZN16MapObjectUnkLEVS19func_ov058_0214e890Ev kind:function(arm,size=0x184) addr:0x0214e890
_ZN16MapObjectUnkLEVSD1Ev kind:function(arm,size=0x20) addr:0x0214ea14
_ZN16MapObjectUnkLEVSD0Ev kind:function(arm,size=0x28) addr:0x0214ea34
_ZN23MapObjectProfileUnkLEVSD1Ev kind:function(arm,size=0x14) addr:0x0214ea5c
_ZN23MapObjectProfileUnkSTNE10GetProfileEv kind:function(arm,size=0xc) addr:0x0214ea70
_ZN23MapObjectProfileUnkSTNE6CreateEv kind:function(arm,size=0x24) addr:0x0214ea7c
_ZN23MapObjectProfileUnkSTNEC1Ev kind:function(arm,size=0x8c) addr:0x0214eaa0
_ZN16MapObjectUnkSTNEC1Ev kind:function(arm,size=0xb4) addr:0x0214eb2c
_ZN16MapObjectUnkSTNE19func_ov058_0214ebe0Ev kind:function(arm,size=0xb0) addr:0x0214ebe0
_ZN16MapObjectUnkSTNE19func_ov058_0214ec90Ev kind:function(arm,size=0xc4) addr:0x0214ec90
_ZN16MapObjectUnkSTNE19func_ov058_0214ed54Ev kind:function(arm,size=0x50) addr:0x0214ed54
_ZN16MapObjectUnkSTNE19func_ov058_0214eda4Ev kind:function(arm,size=0x1c0) addr:0x0214eda4
_ZN16MapObjectUnkSTNE19func_ov058_0214ef64Ev kind:function(arm,size=0x54) addr:0x0214ef64
_ZN16MapObjectUnkSTNE19func_ov058_0214efb8Ev kind:function(arm,size=0x14) addr:0x0214efb8
_ZN16MapObjectUnkSTNE19func_ov058_0214efccEv kind:function(arm,size=0x34) addr:0x0214efcc
_ZN16MapObjectUnkSTNE19func_ov058_0214f000Ev kind:function(arm,size=0x8) addr:0x0214f000
_ZN16MapObjectUnkSTNED1Ev kind:function(arm,size=0x20) addr:0x0214f008
_ZN16MapObjectUnkSTNED0Ev kind:function(arm,size=0x28) addr:0x0214f028
_ZN23MapObjectProfileUnkSTNED1Ev kind:function(arm,size=0x14) addr:0x0214f050
_ZN23MapObjectProfileUnkHOUS10GetProfileEv kind:function(arm,size=0xc) addr:0x0214f064
_ZN23MapObjectProfileUnkHOUS6CreateEv kind:function(arm,size=0x24) addr:0x0214f070
_ZN23MapObjectProfileUnkHOUSC1Ev kind:function(arm,size=0x54) addr:0x0214f094
_ZN16MapObjectUnkHOUSC1Ev kind:function(arm,size=0x78) addr:0x0214f0e8
_ZN16MapObjectUnkHOUS19func_ov058_0214f160Ev kind:function(arm,size=0x3cc) addr:0x0214f160
_ZN16MapObjectUnkHOUS19func_ov058_0214f52cEv kind:function(arm,size=0x60) addr:0x0214f52c
_ZN16MapObjectUnkHOUSD1Ev kind:function(arm,size=0x28) addr:0x0214f58c
_ZN16MapObjectUnkHOUSD0Ev kind:function(arm,size=0x30) addr:0x0214f5b4
_ZN23MapObjectProfileUnkHOUSD1Ev kind:function(arm,size=0x14) addr:0x0214f5e4
_ZN19func_ov058_0214f5f8D0Ev kind:function(arm,size=0x1c) addr:0x0214f5f8
func_ov058_0214f614 kind:function(arm,size=0x2c) addr:0x0214f614
func_ov058_0214f640 kind:function(arm,size=0x80) addr:0x0214f640
func_ov058_0214f6c0 kind:function(arm,size=0x80) addr:0x0214f6c0
func_ov058_0214f740 kind:function(arm,size=0x8) addr:0x0214f740
func_ov058_0214f748 kind:function(arm,size=0x8) addr:0x0214f748
func_ov058_0214f750 kind:function(arm,size=0x8) addr:0x0214f750
_ZN19func_ov058_0214f758D1Ev kind:function(arm,size=0x20) addr:0x0214f758
_ZN19func_ov058_0214f778D0Ev kind:function(arm,size=0x28) addr:0x0214f778
_ZN23MapObjectProfileUnkHOST10GetProfileEv kind:function(arm,size=0xc) addr:0x0214f7a0
_ZN23MapObjectProfileUnkHOST6CreateEv kind:function(arm,size=0x24) addr:0x0214f7ac
_ZN23MapObjectProfileUnkHOSTC1Ev kind:function(arm,size=0x48) addr:0x0214f7d0
_ZN16MapObjectUnkHOSTC1Ev kind:function(arm,size=0x20) addr:0x0214f818
_ZN16MapObjectUnkHOST19func_ov058_0214f838Ev kind:function(arm,size=0x50) addr:0x0214f838
_ZN16MapObjectUnkHOST19func_ov058_0214f888Ev kind:function(arm,size=0x8) addr:0x0214f888
_ZN16MapObjectUnkHOSTD1Ev kind:function(arm,size=0x20) addr:0x0214f890
_ZN16MapObjectUnkHOSTD0Ev kind:function(arm,size=0x28) addr:0x0214f8b0
_ZN23MapObjectProfileUnkHOSTD1Ev kind:function(arm,size=0x14) addr:0x0214f8d8
_ZN23MapObjectProfileUnkDRHS10GetProfileEv kind:function(arm,size=0xc) addr:0x0214f8ec
_ZN23MapObjectProfileUnkDRHS6CreateEv kind:function(arm,size=0x24) addr:0x0214f8f8
_ZN23MapObjectProfileUnkDRHSC1Ev kind:function(arm,size=0x48) addr:0x0214f91c
_ZN16MapObjectUnkDRHS19func_ov058_0214f964Ev kind:function(arm,size=0x48) addr:0x0214f964
_ZN16MapObjectUnkDRHSC1Ev kind:function(arm,size=0x48) addr:0x0214f9ac
_ZN16MapObjectUnkDRHS19func_ov058_0214f9f4Ev kind:function(arm,size=0x230) addr:0x0214f9f4
_ZN16MapObjectUnkDRHS19func_ov058_0214fc24Ev kind:function(arm,size=0x58) addr:0x0214fc24
_ZN16MapObjectUnkDRHS19func_ov058_0214fc7cEv kind:function(arm,size=0x14) addr:0x0214fc7c
_ZN16MapObjectUnkDRHS19func_ov058_0214fc90Ev kind:function(arm,size=0x2c) addr:0x0214fc90
_ZN16MapObjectUnkDRHSD1Ev kind:function(arm,size=0x20) addr:0x0214fcbc
_ZN16MapObjectUnkDRHSD0Ev kind:function(arm,size=0x28) addr:0x0214fcdc
_ZN23MapObjectProfileUnkDRHSD1Ev kind:function(arm,size=0x14) addr:0x0214fd04
_ZN23MapObjectProfileUnkEXHS10GetProfileEv kind:function(arm,size=0xc) addr:0x0214fd18
_ZN23MapObjectProfileUnkEXHS6CreateEv kind:function(arm,size=0x24) addr:0x0214fd24
_ZN23MapObjectProfileUnkEXHSC1Ev kind:function(arm,size=0x44) addr:0x0214fd48
_ZN16MapObjectUnkEXHSC1Ev kind:function(arm,size=0x34) addr:0x0214fd8c
_ZN16MapObjectUnkEXHS19func_ov058_0214fdc0Ev kind:function(arm,size=0xcc) addr:0x0214fdc0
_ZN16MapObjectUnkEXHSD1Ev kind:function(arm,size=0x14) addr:0x0214fe8c
_ZN16MapObjectUnkEXHSD0Ev kind:function(arm,size=0x1c) addr:0x0214fea0
_ZN23MapObjectProfileUnkEXHSD1Ev kind:function(arm,size=0x14) addr:0x0214febc
_ZN23MapObjectProfileUnkBBFL10GetProfileEv kind:function(arm,size=0xc) addr:0x0214fed0
_ZN23MapObjectProfileUnkBBFL6CreateEv kind:function(arm,size=0x24) addr:0x0214fedc
_ZN23MapObjectProfileUnkBBFLC1Ev kind:function(arm,size=0x48) addr:0x0214ff00
_ZN16MapObjectUnkBBFLC1Ev kind:function(arm,size=0xac) addr:0x0214ff48
_ZN16MapObjectUnkBBFL19func_ov058_0214fff4Ev kind:function(arm,size=0x1f8) addr:0x0214fff4
_ZN16MapObjectUnkBBFL19func_ov058_021501ecEv kind:function(arm,size=0x80) addr:0x021501ec
_ZN16MapObjectUnkBBFL19func_ov058_0215026cEv kind:function(arm,size=0x230) addr:0x0215026c
_ZN16MapObjectUnkBBFL19func_ov058_0215049cEv kind:function(arm,size=0x74) addr:0x0215049c
_ZN16MapObjectUnkBBFL19func_ov058_02150510Ev kind:function(arm,size=0x298) addr:0x02150510
_ZN16MapObjectUnkBBFL19func_ov058_021507a8Ev kind:function(arm,size=0x180) addr:0x021507a8
_ZN16MapObjectUnkBBFLD1Ev kind:function(arm,size=0x30) addr:0x02150928
_ZN16MapObjectUnkBBFLD0Ev kind:function(arm,size=0x38) addr:0x02150958
_ZN23MapObjectProfileUnkBBFLD1Ev kind:function(arm,size=0x14) addr:0x02150990
_ZN23MapObjectProfileUnkKNBN10GetProfileEv kind:function(arm,size=0xc) addr:0x021509a4
_ZN23MapObjectProfileUnkKNBN6CreateEv kind:function(arm,size=0x24) addr:0x021509b0
_ZN23MapObjectProfileUnkKNBNC1Ev kind:function(arm,size=0x90) addr:0x021509d4
_ZN16MapObjectUnkKNBN19func_ov058_02150a64Ev kind:function(arm,size=0x60) addr:0x02150a64
_ZN16MapObjectUnkKNBN19func_ov058_02150ac4Ev kind:function(arm,size=0x74) addr:0x02150ac4
_ZN16MapObjectUnkKNBN19func_ov058_02150b38Ev kind:function(arm,size=0x98) addr:0x02150b38
_ZN16MapObjectUnkKNBN19func_ov058_02150bd0Ev kind:function(arm,size=0x12c) addr:0x02150bd0
_ZN16MapObjectUnkKNBN19func_ov058_02150cfcEv kind:function(arm,size=0x88) addr:0x02150cfc
_ZN16MapObjectUnkKNBN19func_ov058_02150d84Ev kind:function(arm,size=0x28) addr:0x02150d84
_ZN16MapObjectUnkKNBN19func_ov058_02150dacEv kind:function(arm,size=0x18) addr:0x02150dac
_ZN16MapObjectUnkKNBN19func_ov058_02150dc4Ev kind:function(arm,size=0x18) addr:0x02150dc4
_ZN16MapObjectUnkKNBN19func_ov058_02150ddcEv kind:function(arm,size=0x18) addr:0x02150ddc
_ZN16MapObjectUnkKNBNC1Ev kind:function(arm,size=0x80) addr:0x02150df4
_ZN16MapObjectUnkKNBN19func_ov058_02150e74Ev kind:function(arm,size=0x14) addr:0x02150e74
_ZN16MapObjectUnkKNBN19func_ov058_02150e88Ev kind:function(arm,size=0x2c) addr:0x02150e88
_ZN16MapObjectUnkKNBN19func_ov058_02150eb4Ev kind:function(arm,size=0x38) addr:0x02150eb4
_ZN16MapObjectUnkKNBN19func_ov058_02150eecEv kind:function(arm,size=0xd0) addr:0x02150eec
_ZN16MapObjectUnkKNBN19func_ov058_02150fbcEv kind:function(arm,size=0xbc) addr:0x02150fbc
_ZN16MapObjectUnkKNBN19func_ov058_02151078Ev kind:function(arm,size=0x20) addr:0x02151078
_ZN16MapObjectUnkKNBN19func_ov058_02151098Ev kind:function(arm,size=0x8c) addr:0x02151098
_ZN16MapObjectUnkKNBND0Ev kind:function(arm,size=0x1c) addr:0x02151124
_ZN16MapObjectUnkKNBND1Ev kind:function(arm,size=0x20) addr:0x02151140
_ZN16MapObjectUnkKNBN19func_ov058_02151160Ev kind:function(arm,size=0x28) addr:0x02151160
_ZN23MapObjectProfileUnkKNBND1Ev kind:function(arm,size=0x14) addr:0x02151188
_ZN23MapObjectProfileUnkMSCL10GetProfileEv kind:function(arm,size=0xc) addr:0x0215119c
_ZN23MapObjectProfileUnkMSCL6CreateEv kind:function(arm,size=0x24) addr:0x021511a8
_ZN23MapObjectProfileUnkMSCLC1Ev kind:function(arm,size=0xa8) addr:0x021511cc
_ZN16MapObjectUnkMSCLC1Ev kind:function(arm,size=0x4c) addr:0x02151274
_ZN16MapObjectUnkMSCL19func_ov058_021512c0Ev kind:function(arm,size=0x90) addr:0x021512c0
_ZN16MapObjectUnkMSCL19func_ov058_02151350Ev kind:function(arm,size=0x1c) addr:0x02151350
_ZN16MapObjectUnkMSCL19func_ov058_0215136cEv kind:function(arm,size=0xb4) addr:0x0215136c
_ZN16MapObjectUnkMSCL19func_ov058_02151420Ev kind:function(arm,size=0x1c) addr:0x02151420
_ZN16MapObjectUnkMSCLD1Ev kind:function(arm,size=0x14) addr:0x0215143c
_ZN16MapObjectUnkMSCLD0Ev kind:function(arm,size=0x1c) addr:0x02151450
_ZN23MapObjectProfileUnkMSCLD1Ev kind:function(arm,size=0x14) addr:0x0215146c
_ZN23MapObjectProfileUnkGRSV10GetProfileEv kind:function(arm,size=0xc) addr:0x02151480
_ZN23MapObjectProfileUnkGRSV6CreateEv kind:function(arm,size=0x24) addr:0x0215148c
_ZN23MapObjectProfileUnkGRSVC1Ev kind:function(arm,size=0x88) addr:0x021514b0
_ZN16MapObjectUnkGRSVC1Ev kind:function(arm,size=0x20) addr:0x02151538
_ZN16MapObjectUnkGRSV19func_ov058_02151558Ev kind:function(arm,size=0x31c) addr:0x02151558
_ZN16MapObjectUnkGRSV19func_ov058_02151874Ev kind:function(arm,size=0x74) addr:0x02151874
_ZN16MapObjectUnkGRSV19func_ov058_021518e8Ev kind:function(arm,size=0x3c) addr:0x021518e8
_ZN16MapObjectUnkGRSVD1Ev kind:function(arm,size=0x14) addr:0x02151924
_ZN16MapObjectUnkGRSVD0Ev kind:function(arm,size=0x1c) addr:0x02151938
_ZN23MapObjectProfileUnkGRSVD1Ev kind:function(arm,size=0x14) addr:0x02151954
func_ov058_02151968 kind:function(arm,size=0x14) addr:0x02151968
func_ov058_0215197c kind:function(arm,size=0x24) addr:0x0215197c
_ZN23MapObjectProfileUnkSWCB10GetProfileEv kind:function(arm,size=0xc) addr:0x021519a0
_ZN23MapObjectProfileUnkSWCB6CreateEv kind:function(arm,size=0x24) addr:0x021519ac
_ZN23MapObjectProfileUnkSWCBC1Ev kind:function(arm,size=0x98) addr:0x021519d0
_ZN16MapObjectUnkSWCB19func_ov058_02151a68Ev kind:function(arm,size=0x14) addr:0x02151a68
_ZN16MapObjectUnkSWCB19func_ov058_02151a7cEv kind:function(arm,size=0x10) addr:0x02151a7c
_ZN16MapObjectUnkSWCB19func_ov058_02151a8cEv kind:function(arm,size=0x10) addr:0x02151a8c
_ZN16MapObjectUnkSWCB19func_ov058_02151a9cEv kind:function(arm,size=0x10) addr:0x02151a9c
_ZN16MapObjectUnkSWCB19func_ov058_02151aacEv kind:function(arm,size=0xdc) addr:0x02151aac
_ZN16MapObjectUnkSWCB19func_ov058_02151b88Ev kind:function(arm,size=0xd0) addr:0x02151b88
_ZN16MapObjectUnkSWCB19func_ov058_02151c58Ev kind:function(arm,size=0x4) addr:0x02151c58
_ZN16MapObjectUnkSWCBC1Ev kind:function(arm,size=0xc8) addr:0x02151c5c
_ZN16MapObjectUnkSWCB19func_ov058_02151d24Ev kind:function(arm,size=0x164) addr:0x02151d24
_ZN16MapObjectUnkSWCB19func_ov058_02151e88Ev kind:function(arm,size=0x50) addr:0x02151e88
_ZN16MapObjectUnkSWCB19func_ov058_02151ed8Ev kind:function(arm,size=0x1a0) addr:0x02151ed8
_ZN16MapObjectUnkSWCB19func_ov058_02152078Ev kind:function(arm,size=0x14) addr:0x02152078
_ZN16MapObjectUnkSWCB19func_ov058_0215208cEv kind:function(arm,size=0x4) addr:0x0215208c
_ZN16MapObjectUnkSWCB19func_ov058_02152090Ev kind:function(arm,size=0x11c) addr:0x02152090
_ZN16MapObjectUnkSWCB19func_ov058_021521acEv kind:function(arm,size=0x360) addr:0x021521ac
_ZN16MapObjectUnkSWCB19func_ov058_0215250cEv kind:function(arm,size=0x58) addr:0x0215250c
_ZN16MapObjectUnkSWCB19func_ov058_02152564Ev kind:function(arm,size=0x10) addr:0x02152564
_ZN16MapObjectUnkSWCB19func_ov058_02152574Ev kind:function(arm,size=0xf8) addr:0x02152574
_ZN16MapObjectUnkSWCB19func_ov058_0215266cEv kind:function(arm,size=0x280) addr:0x0215266c
_ZN16MapObjectUnkSWCBD1Ev kind:function(arm,size=0x30) addr:0x021528ec
_ZN16MapObjectUnkSWCBD0Ev kind:function(arm,size=0x38) addr:0x0215291c
_ZN23MapObjectProfileUnkSWCBD1Ev kind:function(arm,size=0x14) addr:0x02152954
func_ov058_02152968 kind:function(thumb,size=0x5a) addr:0x02152968
func_ov058_021529c4 kind:function(arm,size=0x60) addr:0x021529c4
_ZN27UnkStruct_ov000_0208f820_2819func_ov058_02152a24Ev kind:function(thumb,size=0x64) addr:0x02152a24
func_ov058_02152a88 kind:function(arm,size=0x60) addr:0x02152a88
_ZN19func_ov058_02152ae8D1Ev kind:function(arm,size=0x20) addr:0x02152ae8
_ZN19func_ov058_02152b08D0Ev kind:function(arm,size=0x28) addr:0x02152b08
func_ov058_02152b30 kind:function(arm,size=0x14) addr:0x02152b30
func_ov058_02152b44 kind:function(arm,size=0x24) addr:0x02152b44
func_ov058_02152b68 kind:function(arm,size=0x20) addr:0x02152b68
func_ov058_02152b88 kind:function(arm,size=0x18) addr:0x02152b88
func_ov058_02152ba0 kind:function(arm,size=0x18) addr:0x02152ba0
func_ov058_02152bb8 kind:function(arm,size=0x5c) addr:0x02152bb8
func_ov058_02152c14 kind:function(arm,size=0x30) addr:0x02152c14
func_ov058_02152c44 kind:function(arm,size=0x1c) addr:0x02152c44
func_ov058_02152c60 kind:function(arm,size=0x2c) addr:0x02152c60
func_ov058_02152c8c kind:function(arm,size=0x6c) addr:0x02152c8c
func_ov058_02152cf8 kind:function(arm,size=0x48) addr:0x02152cf8
func_ov058_02152d40 kind:function(arm,size=0x34) addr:0x02152d40
func_ov058_02152d74 kind:function(arm,size=0x30) addr:0x02152d74
func_ov058_02152da4 kind:function(arm,size=0x14) addr:0x02152da4
func_ov058_02152db8 kind:function(arm,size=0x70) addr:0x02152db8
func_ov058_02152e28 kind:function(arm,size=0xc) addr:0x02152e28
func_ov058_02152e34 kind:function(arm,size=0x40) addr:0x02152e34
_ZN19func_ov058_02152e74D0Ev kind:function(arm,size=0x1c) addr:0x02152e74
_ZN19func_ov058_02152e90D0Ev kind:function(arm,size=0x28) addr:0x02152e90
data_ov058_02152eb8 kind:data(any) addr:0x02152eb8
data_ov058_02152f08 kind:data(any) addr:0x02152f08 ambiguous
data_ov058_02152f10 kind:data(any) addr:0x02152f10
data_ov058_02152f4c kind:data(any) addr:0x02152f4c
data_ov058_02152f68 kind:data(any) addr:0x02152f68 ambiguous
data_ov058_02152f7c kind:data(any) addr:0x02152f7c
data_ov058_02152f80 kind:data(any) addr:0x02152f80 ambiguous
data_ov058_02152f8c kind:data(any) addr:0x02152f8c ambiguous
data_ov058_02152f98 kind:data(any) addr:0x02152f98 ambiguous
data_ov058_02152fac kind:data(any) addr:0x02152fac
data_ov058_02153010 kind:data(any) addr:0x02153010
data_ov058_021530b8 kind:data(any) addr:0x021530b8 ambiguous
data_ov058_02153100 kind:data(any) addr:0x02153100
data_ov058_02153150 kind:data(any) addr:0x02153150
data_ov058_02153151 kind:data(any) addr:0x02153151
data_ov058_02153152 kind:data(any) addr:0x02153152
data_ov058_02153153 kind:data(any) addr:0x02153153
data_ov058_021531b4 kind:data(any) addr:0x021531b4 ambiguous
data_ov058_02153300 kind:data(any) addr:0x02153300
data_ov058_02153308 kind:data(any) addr:0x02153308
data_ov058_02153318 kind:data(any) addr:0x02153318
data_ov058_02153328 kind:data(any) addr:0x02153328
data_ov058_02153330 kind:data(any) addr:0x02153330
data_ov058_02153348 kind:data(any) addr:0x02153348
data_ov058_02153350 kind:data(any) addr:0x02153350
data_ov058_0215335c kind:data(any) addr:0x0215335c
data_ov058_0215337c kind:data(any) addr:0x0215337c
data_ov058_021533b0 kind:data(any) addr:0x021533b0
data_ov058_021533d0 kind:data(any) addr:0x021533d0
data_ov058_021533f0 kind:data(any) addr:0x021533f0
data_ov058_02153400 kind:data(any) addr:0x02153400
data_ov058_02153414 kind:data(any) addr:0x02153414
data_ov058_02153428 kind:data(any) addr:0x02153428
data_ov058_02153478 kind:data(any) addr:0x02153478
data_ov058_02153488 kind:data(any) addr:0x02153488
__sinit_ActorUnkKOKO.cpp kind:function(arm,size=0x50) addr:0x02153498
__sinit_ActorUnkKOAT.cpp kind:function(arm,size=0x50) addr:0x021534e8
__sinit_ActorUnkKOCH.cpp kind:function(arm,size=0x50) addr:0x02153538
__sinit_ActorUnkNSTN.cpp kind:function(arm,size=0x50) addr:0x02153588
__sinit_ActorUnkSYDE_SYDL_SYDS_SYFI_SYFO_SYIL_SYIS_SYOL_SYOS_SYSL_SYSN_SYSS_SYWA_SYWL_SYWS.cpp kind:function(arm,size=0x3d0) addr:0x021535d8
__sinit_ActorUnkCRFT.cpp kind:function(arm,size=0x50) addr:0x021539a8
__sinit_ActorUnkFBRD.cpp kind:function(arm,size=0x7c) addr:0x021539f8
__sinit_ActorUnkFBSC.cpp kind:function(arm,size=0x50) addr:0x02153a74
__sinit_ActorUnkWPBD.cpp kind:function(arm,size=0x80) addr:0x02153ac4
__sinit_ActorUnkWPCH.cpp kind:function(arm,size=0x50) addr:0x02153b44
__sinit_ActorUnkBSTG.cpp kind:function(arm,size=0x50) addr:0x02153b94
__sinit_ActorUnkTMNA.cpp kind:function(arm,size=0x78) addr:0x02153be4
__sinit_ActorUnkTMNC.cpp kind:function(arm,size=0x50) addr:0x02153c5c
__sinit_MapObjectUnkTREE.cpp kind:function(arm,size=0x7c) addr:0x02153cac
__sinit_MapObjectUnkLEVS.cpp kind:function(arm,size=0x50) addr:0x02153d28
__sinit_MapObjectUnkSTNE.cpp kind:function(arm,size=0x50) addr:0x02153d78
__sinit_MapObjectUnkHOUS.cpp kind:function(arm,size=0x50) addr:0x02153dc8
__sinit_MapObjectUnkHOST.cpp kind:function(arm,size=0x50) addr:0x02153e18
__sinit_MapObjectUnkDRHS.cpp kind:function(arm,size=0x50) addr:0x02153e68
__sinit_MapObjectUnkEXHS.cpp kind:function(arm,size=0x50) addr:0x02153eb8
__sinit_MapObjectUnkBBFL.cpp kind:function(arm,size=0x50) addr:0x02153f08
__sinit_MapObjectUnkKNBN.cpp kind:function(arm,size=0x74) addr:0x02153f58
__sinit_MapObjectUnkMSCL.cpp kind:function(arm,size=0x74) addr:0x02153fcc
__sinit_MapObjectUnkGRSV.cpp kind:function(arm,size=0x90) addr:0x02154040
__sinit_MapObjectUnkSWCB.cpp kind:function(arm,size=0x50) addr:0x021540d0
.p__sinit_ActorUnkKOKO.cpp kind:data(word) addr:0x02154120
.p__sinit_ActorUnkKOAT.cpp kind:data(word) addr:0x02154124
.p__sinit_ActorUnkKOCH.cpp kind:data(word) addr:0x02154128
.p__sinit_ActorUnkNSTN.cpp kind:data(word) addr:0x0215412c
.p__sinit_ActorUnkSYDE_SYDL_SYDS_SYFI_SYFO_SYIL_SYIS_SYOL_SYOS_SYSL_SYSN_SYSS_SYWA_SYWL_SYWS.cpp kind:data(word) addr:0x02154130
.p__sinit_ActorUnkCRFT.cpp kind:data(word) addr:0x02154134
.p__sinit_ActorUnkFBRD.cpp kind:data(word) addr:0x02154138
.p__sinit_ActorUnkFBSC.cpp kind:data(word) addr:0x0215413c
.p__sinit_ActorUnkWPBD.cpp kind:data(word) addr:0x02154140
.p__sinit_ActorUnkWPCH.cpp kind:data(word) addr:0x02154144
.p__sinit_ActorUnkBSTG.cpp kind:data(word) addr:0x02154148
.p__sinit_ActorUnkTMNA.cpp kind:data(word) addr:0x0215414c
.p__sinit_ActorUnkTMNC.cpp kind:data(word) addr:0x02154150
.p__sinit_MapObjectUnkTREE.cpp kind:data(word) addr:0x02154154
.p__sinit_MapObjectUnkLEVS.cpp kind:data(word) addr:0x02154158
.p__sinit_MapObjectUnkSTNE.cpp kind:data(word) addr:0x0215415c
.p__sinit_MapObjectUnkHOUS.cpp kind:data(word) addr:0x02154160
.p__sinit_MapObjectUnkHOST.cpp kind:data(word) addr:0x02154164
.p__sinit_MapObjectUnkDRHS.cpp kind:data(word) addr:0x02154168
.p__sinit_MapObjectUnkEXHS.cpp kind:data(word) addr:0x0215416c
.p__sinit_MapObjectUnkBBFL.cpp kind:data(word) addr:0x02154170
.p__sinit_MapObjectUnkKNBN.cpp kind:data(word) addr:0x02154174
.p__sinit_MapObjectUnkMSCL.cpp kind:data(word) addr:0x02154178
.p__sinit_MapObjectUnkGRSV.cpp kind:data(word) addr:0x0215417c
.p__sinit_MapObjectUnkSWCB.cpp kind:data(word) addr:0x02154180
data_ov058_021541a8 kind:data(any) addr:0x021541a8
data_ov058_021541b0 kind:data(any) addr:0x021541b0 ambiguous
data_ov058_021541c4 kind:data(any) addr:0x021541c4
data_ov058_021541d8 kind:data(any) addr:0x021541d8
data_ov058_021541e0 kind:data(any) addr:0x021541e0 ambiguous
data_ov058_021541e4 kind:data(any) addr:0x021541e4
_ZTV19data_ov058_021541fc kind:data(any) addr:0x021541fc
data_ov058_02154228 kind:data(any) addr:0x02154228
data_ov058_02154254 kind:data(any) addr:0x02154254
data_ov058_0215429c kind:data(any) addr:0x0215429c
data_ov058_021542e0 kind:data(any) addr:0x021542e0
data_ov058_021542f8 kind:data(any) addr:0x021542f8
data_ov058_02154310 kind:data(any) addr:0x02154310
data_ov058_02154328 kind:data(any) addr:0x02154328
_ZTV19data_ov058_02154340 kind:data(any) addr:0x02154340
data_ov058_021543a0 kind:data(any) addr:0x021543a0
data_ov058_02154408 kind:data(any) addr:0x02154408
data_ov058_0215442c kind:data(any) addr:0x0215442c ambiguous
data_ov058_02154440 kind:data(any) addr:0x02154440 ambiguous
data_ov058_02154470 kind:data(any) addr:0x02154470
_ZTV19data_ov058_02154488 kind:data(any) addr:0x02154488
_ZTV19data_ov058_021544ac kind:data(any) addr:0x021544ac
_ZTV19data_ov058_021544e0 kind:data(any) addr:0x021544e0 ambiguous
data_ov058_02154514 kind:data(any) addr:0x02154514
_ZTV19data_ov058_02154520 kind:data(any) addr:0x02154520
_ZTV19data_ov058_02154544 kind:data(any) addr:0x02154544
_ZTV19data_ov058_0215455c kind:data(any) addr:0x0215455c ambiguous
data_ov058_021545b0 kind:data(any) addr:0x021545b0
_ZTV19data_ov058_021545bc kind:data(any) addr:0x021545bc
data_ov058_021545e0 kind:data(any) addr:0x021545e0
data_ov058_02154620 kind:data(any) addr:0x02154620
_ZTV19data_ov058_02154660 kind:data(any) addr:0x02154660
data_ov058_021546bc kind:data(any) addr:0x021546bc ambiguous
data_ov058_021546d8 kind:data(any) addr:0x021546d8
data_ov058_021546e8 kind:data(any) addr:0x021546e8
_ZTV19data_ov058_02154700 kind:data(any) addr:0x02154700
data_ov058_02154724 kind:data(any) addr:0x02154724 ambiguous
_ZTV19data_ov058_02154724 kind:data(any) addr:0x02154724
_ZTV19data_ov058_02154748 kind:data(any) addr:0x02154748
_ZTV19data_ov058_0215476c kind:data(any) addr:0x0215476c
_ZTV19data_ov058_02154790 kind:data(any) addr:0x02154790
_ZTV19data_ov058_021547b4 kind:data(any) addr:0x021547b4
_ZTV19data_ov058_021547d8 kind:data(any) addr:0x021547d8
_ZTV19data_ov058_021547fc kind:data(any) addr:0x021547fc
_ZTV19data_ov058_02154820 kind:data(any) addr:0x02154820
_ZTV19data_ov058_02154844 kind:data(any) addr:0x02154844
_ZTV19data_ov058_02154868 kind:data(any) addr:0x02154868
_ZTV19data_ov058_0215488c kind:data(any) addr:0x0215488c
data_ov058_02154890 kind:data(any) addr:0x02154890 ambiguous
_ZTV19data_ov058_021548b0 kind:data(any) addr:0x021548b0
_ZTV19data_ov058_021548d4 kind:data(any) addr:0x021548d4
_ZTV19data_ov058_021548f8 kind:data(any) addr:0x021548f8
data_ov058_0215491c kind:data(any) addr:0x0215491c
data_ov058_02154934 kind:data(any) addr:0x02154934
data_ov058_02154948 kind:data(any) addr:0x02154948 ambiguous
data_ov058_0215496c kind:data(any) addr:0x0215496c
data_ov058_021549b0 kind:data(any) addr:0x021549b0
data_ov058_021549dc kind:data(any) addr:0x021549dc ambiguous
data_ov058_02154a18 kind:data(any) addr:0x02154a18
_ZTV19data_ov058_02154a80 kind:data(any) addr:0x02154a80
_ZTV19data_ov058_02154a98 kind:data(any) addr:0x02154a98 ambiguous
_ZTV19data_ov058_02154ab4 kind:data(any) addr:0x02154ab4 ambiguous
data_ov058_02154b6c kind:data(any) addr:0x02154b6c ambiguous
_ZTV19data_ov058_02154b9c kind:data(any) addr:0x02154b9c
data_ov058_02154cdc kind:data(any) addr:0x02154cdc
data_ov058_02154e5c kind:data(any) addr:0x02154e5c
data_ov058_02154e8c kind:data(any) addr:0x02154e8c ambiguous
_ZTV19data_ov058_02154ebc kind:data(any) addr:0x02154ebc
data_ov058_02154ee0 kind:data(any) addr:0x02154ee0
data_ov058_02154f38 kind:data(any) addr:0x02154f38
data_ov058_02154f3c kind:data(any) addr:0x02154f3c ambiguous
data_ov058_02154f90 kind:data(any) addr:0x02154f90
_ZTV19data_ov058_02155008 kind:data(any) addr:0x02155008
data_ov058_021550d8 kind:data(any) addr:0x021550d8 ambiguous
data_ov058_0215513c kind:data(any) addr:0x0215513c
data_ov058_02155148 kind:data(any) addr:0x02155148
data_ov058_02155160 kind:data(any) addr:0x02155160
data_ov058_02155180 kind:data(any) addr:0x02155180
data_ov058_02155190 kind:data(any) addr:0x02155190
_ZTV19data_ov058_021551a4 kind:data(any) addr:0x021551a4
data_ov058_021551c8 kind:data(any) addr:0x021551c8
_ZTV19data_ov058_02155208 kind:data(any) addr:0x02155208
_ZTV19data_ov058_02155210 kind:data(any) addr:0x02155210 ambiguous
_ZTV19data_ov058_02155264 kind:data(any) addr:0x02155264
_ZTV19data_ov058_02155288 kind:data(any) addr:0x02155288
_ZTV19data_ov058_021552bc kind:data(any) addr:0x021552bc ambiguous
data_ov058_021552f4 kind:data(any) addr:0x021552f4
data_ov058_02155300 kind:data(any) addr:0x02155300
data_ov058_02155308 kind:data(any) addr:0x02155308
data_ov058_0215530c kind:data(any) addr:0x0215530c
data_ov058_02155318 kind:data(any) addr:0x02155318
data_ov058_02155324 kind:data(any) addr:0x02155324
data_ov058_0215534c kind:data(any) addr:0x0215534c
data_ov058_02155374 kind:data(any) addr:0x02155374
data_ov058_0215538c kind:data(any) addr:0x0215538c
data_ov058_021553ac kind:data(any) addr:0x021553ac
data_ov058_021553c4 kind:data(any) addr:0x021553c4
_ZTV19data_ov058_021553d8 kind:data(any) addr:0x021553d8
_ZTV19data_ov058_021553f4 kind:data(any) addr:0x021553f4
_ZTV19data_ov058_02155418 kind:data(any) addr:0x02155418
_ZTV19data_ov058_02155474 kind:data(any) addr:0x02155474
_ZTV19data_ov058_02155498 kind:data(any) addr:0x02155498
data_ov058_02155504 kind:data(any) addr:0x02155504
_ZTV19data_ov058_02155510 kind:data(any) addr:0x02155510
_ZTV19data_ov058_02155534 kind:data(any) addr:0x02155534
_ZTV19data_ov058_02155590 kind:data(any) addr:0x02155590
data_ov058_021555b4 kind:data(any) addr:0x021555b4
data_ov058_021555fc kind:data(any) addr:0x021555fc
_ZTV19data_ov058_02155644 kind:data(any) addr:0x02155644
_ZTV19data_ov058_02155658 kind:data(any) addr:0x02155658 ambiguous
_ZTV19data_ov058_021556d4 kind:data(any) addr:0x021556d4 ambiguous
_ZTV19data_ov058_021556e4 kind:data(any) addr:0x021556e4 ambiguous
data_ov058_02155750 kind:data(any) addr:0x02155750 ambiguous
_ZTV19data_ov058_02155760 kind:data(any) addr:0x02155760
_ZTV19data_ov058_02155784 kind:data(any) addr:0x02155784
data_ov058_021557e8 kind:data(any) addr:0x021557e8
data_ov058_02155810 kind:data(any) addr:0x02155810
data_ov058_02155818 kind:data(any) addr:0x02155818 ambiguous
data_ov058_02155838 kind:data(any) addr:0x02155838
data_ov058_02155860 kind:data(any) addr:0x02155860
data_ov058_021558a0 kind:data(any) addr:0x021558a0
data_ov058_021558bc kind:data(any) addr:0x021558bc
data_ov058_021558d8 kind:data(any) addr:0x021558d8
data_ov058_0215591c kind:data(any) addr:0x0215591c
data_ov058_02155938 kind:data(any) addr:0x02155938
data_ov058_0215596c kind:data(any) addr:0x0215596c ambiguous
data_ov058_02155990 kind:data(any) addr:0x02155990
data_ov058_021559a8 kind:data(any) addr:0x021559a8
data_ov058_021559d0 kind:data(any) addr:0x021559d0
data_ov058_021559f8 kind:data(any) addr:0x021559f8
data_ov058_021559fc kind:data(any) addr:0x021559fc ambiguous
data_ov058_02155a38 kind:data(any) addr:0x02155a38
data_ov058_02155a84 kind:data(any) addr:0x02155a84
data_ov058_02155a90 kind:data(any) addr:0x02155a90 ambiguous
data_ov058_02155aa0 kind:data(any) addr:0x02155aa0
data_ov058_02155aec kind:data(any) addr:0x02155aec
data_ov058_02155b08 kind:data(any) addr:0x02155b08
data_ov058_02155b14 kind:data(any) addr:0x02155b14 ambiguous
data_ov058_02155b48 kind:data(any) addr:0x02155b48
data_ov058_02155b64 kind:data(any) addr:0x02155b64
data_ov058_02155b8c kind:data(any) addr:0x02155b8c ambiguous
data_ov058_02155ba4 kind:data(any) addr:0x02155ba4
data_ov058_02155bc0 kind:data(any) addr:0x02155bc0
data_ov058_02155bf8 kind:data(any) addr:0x02155bf8
data_ov058_02155c0c kind:data(any) addr:0x02155c0c
data_ov058_02155c24 kind:data(any) addr:0x02155c24 ambiguous
data_ov058_02155c28 kind:data(any) addr:0x02155c28
data_ov058_02155c44 kind:data(any) addr:0x02155c44
data_ov058_02155c70 kind:data(any) addr:0x02155c70
data_ov058_02155ca8 kind:data(any) addr:0x02155ca8
data_ov058_02155cbc kind:data(any) addr:0x02155cbc
data_ov058_02155cd8 kind:data(any) addr:0x02155cd8
data_ov058_02155cec kind:data(any) addr:0x02155cec ambiguous
data_ov058_02155cf4 kind:data(any) addr:0x02155cf4
data_ov058_02155d34 kind:data(any) addr:0x02155d34
data_ov058_02155d50 kind:data(any) addr:0x02155d50
data_ov058_02155d98 kind:data(any) addr:0x02155d98
data_ov058_02155d9c kind:data(any) addr:0x02155d9c ambiguous
data_ov058_02155dac kind:data(any) addr:0x02155dac
data_ov058_02155dc8 kind:data(any) addr:0x02155dc8
data_ov058_02155dec kind:data(any) addr:0x02155dec ambiguous
_ZTV19data_ov058_02155e00 kind:data(any) addr:0x02155e00
data_ov058_02155e38 kind:data(any) addr:0x02155e38
_ZTV19data_ov058_02155e48 kind:data(any) addr:0x02155e48
_ZTV19data_ov058_02155e64 kind:data(any) addr:0x02155e64
_ZGVN15ProfileInstanceI19ActorProfileUnkKOKOE8sProfileE kind:bss addr:0x02155ea0
@12038 kind:bss addr:0x02155ea4
_ZN15ProfileInstanceI19ActorProfileUnkKOKOE8sProfileE kind:bss addr:0x02155eb0
data_ov058_02155f88 kind:bss addr:0x02155f88
_ZGVN15ProfileInstanceI19ActorProfileUnkKOATE8sProfileE kind:bss addr:0x02155f8c
@12044 kind:bss addr:0x02155f94
_ZN15ProfileInstanceI19ActorProfileUnkKOATE8sProfileE kind:bss addr:0x02155fa0
_ZGVN15ProfileInstanceI19ActorProfileUnkKOCHE8sProfileE kind:bss addr:0x02155fe4
@12050 kind:bss addr:0x02155fe8
_ZN15ProfileInstanceI19ActorProfileUnkKOCHE8sProfileE kind:bss addr:0x02155ff4
_ZGVN15ProfileInstanceI19ActorProfileUnkNSTNE8sProfileE kind:bss addr:0x02156030
@12056 kind:bss addr:0x02156034
_ZN15ProfileInstanceI19ActorProfileUnkNSTNE8sProfileE kind:bss addr:0x02156040
data_ov058_0215607c kind:bss addr:0x0215607c
data_ov058_021560b8 kind:bss addr:0x021560b8
data_ov058_021560c4 kind:bss addr:0x021560c4
data_ov058_021560d0 kind:bss addr:0x021560d0
data_ov058_021560dc kind:bss addr:0x021560dc
data_ov058_021560e8 kind:bss addr:0x021560e8
data_ov058_021560f4 kind:bss addr:0x021560f4
data_ov058_02156100 kind:bss addr:0x02156100
data_ov058_0215610c kind:bss addr:0x0215610c
data_ov058_02156118 kind:bss addr:0x02156118
data_ov058_02156124 kind:bss addr:0x02156124
data_ov058_02156130 kind:bss addr:0x02156130
data_ov058_0215613c kind:bss addr:0x0215613c
data_ov058_02156148 kind:bss addr:0x02156148
data_ov058_02156154 kind:bss addr:0x02156154
data_ov058_02156160 kind:bss addr:0x02156160
data_ov058_0215616c kind:bss addr:0x0215616c
data_ov058_02156170 kind:bss addr:0x02156170
data_ov058_02156174 kind:bss addr:0x02156174
data_ov058_02156178 kind:bss addr:0x02156178
data_ov058_0215617c kind:bss addr:0x0215617c
data_ov058_02156180 kind:bss addr:0x02156180
data_ov058_02156184 kind:bss addr:0x02156184
data_ov058_02156188 kind:bss addr:0x02156188
data_ov058_0215618c kind:bss addr:0x0215618c
data_ov058_02156190 kind:bss addr:0x02156190
data_ov058_02156194 kind:bss addr:0x02156194
data_ov058_02156198 kind:bss addr:0x02156198
data_ov058_0215619c kind:bss addr:0x0215619c
_ZGVN15ProfileInstanceI19ActorProfileUnkSYDLE8sProfileE kind:bss addr:0x021561a0
@12062 kind:bss addr:0x021561a4
_ZN15ProfileInstanceI19ActorProfileUnkSYDLE8sProfileE kind:bss addr:0x02156220
_ZN15ProfileInstanceI19ActorProfileUnkSYFOE8sProfileE kind:bss addr:0x021562f8
data_ov058_021563c8 kind:bss addr:0x021563c8 ambiguous
_ZN15ProfileInstanceI19ActorProfileUnkSYSNE8sProfileE kind:bss addr:0x021563d0
data_ov058_02156468 kind:bss addr:0x02156468 ambiguous
_ZN15ProfileInstanceI19ActorProfileUnkSYWAE8sProfileE kind:bss addr:0x021564a8
_ZN15ProfileInstanceI19ActorProfileUnkSYFIE8sProfileE kind:bss addr:0x02156580
data_ov058_021565d8 kind:bss addr:0x021565d8 ambiguous
_ZN15ProfileInstanceI19ActorProfileUnkSYDEE8sProfileE kind:bss addr:0x02156658
_ZN15ProfileInstanceI19ActorProfileUnkSYOSE8sProfileE kind:bss addr:0x02156730
_ZN15ProfileInstanceI19ActorProfileUnkSYSSE8sProfileE kind:bss addr:0x02156808
data_ov058_021568d8 kind:bss addr:0x021568d8 ambiguous
_ZN15ProfileInstanceI19ActorProfileUnkSYWSE8sProfileE kind:bss addr:0x021568e0
data_ov058_021568e8 kind:bss addr:0x021568e8 ambiguous
data_ov058_0215697c kind:bss addr:0x0215697c ambiguous
_ZN15ProfileInstanceI19ActorProfileUnkSYISE8sProfileE kind:bss addr:0x021569b8
_ZN15ProfileInstanceI19ActorProfileUnkSYDSE8sProfileE kind:bss addr:0x02156a90
_ZN15ProfileInstanceI19ActorProfileUnkSYOLE8sProfileE kind:bss addr:0x02156b68
data_ov058_02156b88 kind:bss addr:0x02156b88 ambiguous
_ZN15ProfileInstanceI19ActorProfileUnkSYSLE8sProfileE kind:bss addr:0x02156c40
data_ov058_02156c78 kind:bss addr:0x02156c78 ambiguous
data_ov058_02156cf8 kind:bss addr:0x02156cf8 ambiguous
data_ov058_02156d00 kind:bss addr:0x02156d00 ambiguous
_ZN15ProfileInstanceI19ActorProfileUnkSYWLE8sProfileE kind:bss addr:0x02156d18
_ZN15ProfileInstanceI19ActorProfileUnkSYILE8sProfileE kind:bss addr:0x02156df0
_ZGVN15ProfileInstanceI19ActorProfileUnkCRFTE8sProfileE kind:bss addr:0x02156ec8
@12068 kind:bss addr:0x02156ecc
_ZN15ProfileInstanceI19ActorProfileUnkCRFTE8sProfileE kind:bss addr:0x02156ed8
data_ov058_02156f38 kind:bss addr:0x02156f38 ambiguous
data_ov058_02156f7c kind:bss addr:0x02156f7c ambiguous
data_ov058_02156fa8 kind:bss addr:0x02156fa8 ambiguous
data_ov058_02156fb0 kind:bss addr:0x02156fb0
data_ov058_02156fb8 kind:bss addr:0x02156fb8
_ZGVN15ProfileInstanceI19ActorProfileUnkFBRDE8sProfileE kind:bss addr:0x02156fbc ambiguous
@12074 kind:bss addr:0x02156fc4
_ZN15ProfileInstanceI19ActorProfileUnkFBRDE8sProfileE kind:bss addr:0x02156fec
data_ov058_02157064 kind:bss addr:0x02157064 ambiguous
_ZGVN15ProfileInstanceI19ActorProfileUnkFBSCE8sProfileE kind:bss addr:0x021570c4
@12080 kind:bss addr:0x021570c8
_ZN15ProfileInstanceI19ActorProfileUnkFBSCE8sProfileE kind:bss addr:0x021570d4
_ZGVN15ProfileInstanceI19ActorProfileUnkWPBDE8sProfileE kind:bss addr:0x02157110
@12086 kind:bss addr:0x02157118
_ZN15ProfileInstanceI19ActorProfileUnkWPBDE8sProfileE kind:bss addr:0x02157124
_ZGVN15ProfileInstanceI19ActorProfileUnkWPCHE8sProfileE kind:bss addr:0x021571fc
@12092 kind:bss addr:0x02157200
_ZN15ProfileInstanceI19ActorProfileUnkWPCHE8sProfileE kind:bss addr:0x0215720c
_ZGVN15ProfileInstanceI19ActorProfileUnkBSTGE8sProfileE kind:bss addr:0x02157248
@12098 kind:bss addr:0x0215724c
_ZN15ProfileInstanceI19ActorProfileUnkBSTGE8sProfileE kind:bss addr:0x02157258
data_ov058_02157294 kind:bss addr:0x02157294
data_ov058_02157298 kind:bss addr:0x02157298
_ZGVN15ProfileInstanceI19ActorProfileUnkTMNAE8sProfileE kind:bss addr:0x021572a4
@12104 kind:bss addr:0x021572b0
_ZN15ProfileInstanceI19ActorProfileUnkTMNAE8sProfileE kind:bss addr:0x021572fc
_ZGVN15ProfileInstanceI19ActorProfileUnkTMNCE8sProfileE kind:bss addr:0x021573d4
@12110 kind:bss addr:0x021573d8
_ZN15ProfileInstanceI19ActorProfileUnkTMNCE8sProfileE kind:bss addr:0x021573e4
data_ov058_0215741c kind:bss addr:0x0215741c ambiguous
data_ov058_021574bc kind:bss addr:0x021574bc
data_ov058_021574c0 kind:bss addr:0x021574c0
_ZGVN15ProfileInstanceI23MapObjectProfileUnkTREEE8sProfileE kind:bss addr:0x021574cc
@11713 kind:bss addr:0x021574e8 ambiguous
_ZN15ProfileInstanceI23MapObjectProfileUnkTREEE8sProfileE kind:bss addr:0x021574ec
data_ov058_02157554 kind:bss addr:0x02157554
_ZGVN15ProfileInstanceI23MapObjectProfileUnkLEVSE8sProfileE kind:bss addr:0x02157574
@11719 kind:bss addr:0x02157578
_ZN15ProfileInstanceI23MapObjectProfileUnkLEVSE8sProfileE kind:bss addr:0x02157584
data_ov058_02157658 kind:bss addr:0x02157658
_ZGVN15ProfileInstanceI23MapObjectProfileUnkSTNEE8sProfileE kind:bss addr:0x02157678
@11725 kind:bss addr:0x0215767c
_ZN15ProfileInstanceI23MapObjectProfileUnkSTNEE8sProfileE kind:bss addr:0x02157688
data_ov058_021576a4 kind:bss addr:0x021576a4 ambiguous
data_ov058_021576dc kind:bss addr:0x021576dc ambiguous
data_ov058_02157710 kind:bss addr:0x02157710 ambiguous
data_ov058_0215775c kind:bss addr:0x0215775c
_ZGVN15ProfileInstanceI23MapObjectProfileUnkHOUSE8sProfileE kind:bss addr:0x0215777c
@11731 kind:bss addr:0x02157788
_ZN15ProfileInstanceI23MapObjectProfileUnkHOUSE8sProfileE kind:bss addr:0x02157794
data_ov058_021577b4 kind:bss addr:0x021577b4
_ZGVN15ProfileInstanceI23MapObjectProfileUnkHOSTE8sProfileE kind:bss addr:0x021577fc
@11737 kind:bss addr:0x02157800
_ZN15ProfileInstanceI23MapObjectProfileUnkHOSTE8sProfileE kind:bss addr:0x0215780c
data_ov058_02157878 kind:bss addr:0x02157878 ambiguous
_ZGVN15ProfileInstanceI23MapObjectProfileUnkDRHSE8sProfileE kind:bss addr:0x021578e0
@11743 kind:bss addr:0x021578e4
_ZN15ProfileInstanceI23MapObjectProfileUnkDRHSE8sProfileE kind:bss addr:0x021578f0
data_ov058_02157908 kind:bss addr:0x02157908 ambiguous
_ZGVN15ProfileInstanceI23MapObjectProfileUnkEXHSE8sProfileE kind:bss addr:0x021579c4
@11749 kind:bss addr:0x021579c8
_ZN15ProfileInstanceI23MapObjectProfileUnkEXHSE8sProfileE kind:bss addr:0x021579d4
_ZGVN15ProfileInstanceI23MapObjectProfileUnkBBFLE8sProfileE kind:bss addr:0x021579f4
@11755 kind:bss addr:0x021579f8
_ZN15ProfileInstanceI23MapObjectProfileUnkBBFLE8sProfileE kind:bss addr:0x02157a04
_ZGVN15ProfileInstanceI23MapObjectProfileUnkKNBNE8sProfileE kind:bss addr:0x02157ad8
@11761 kind:bss addr:0x02157adc
_ZN15ProfileInstanceI23MapObjectProfileUnkKNBNE8sProfileE kind:bss addr:0x02157ae8
data_ov058_02157bac kind:bss addr:0x02157bac ambiguous
data_ov058_02157bbc kind:bss addr:0x02157bbc
_ZGVN15ProfileInstanceI23MapObjectProfileUnkMSCLE8sProfileE kind:bss addr:0x02157be0
@11767 kind:bss addr:0x02157be4
_ZN15ProfileInstanceI23MapObjectProfileUnkMSCLE8sProfileE kind:bss addr:0x02157bf0
data_ov058_02157c10 kind:bss addr:0x02157c10
data_ov058_02157c34 kind:bss addr:0x02157c34
data_ov058_02157c38 kind:bss addr:0x02157c38
_ZGVN15ProfileInstanceI23MapObjectProfileUnkGRSVE8sProfileE kind:bss addr:0x02157c44
@11773 kind:bss addr:0x02157c50
_ZN15ProfileInstanceI23MapObjectProfileUnkGRSVE8sProfileE kind:bss addr:0x02157ca0
data_ov058_02157ca4 kind:bss addr:0x02157ca4 ambiguous
data_ov058_02157d74 kind:bss addr:0x02157d74
_ZGVN15ProfileInstanceI23MapObjectProfileUnkSWCBE8sProfileE kind:bss addr:0x02157d94
@11779 kind:bss addr:0x02157d98
_ZN15ProfileInstanceI23MapObjectProfileUnkSWCBE8sProfileE kind:bss addr:0x02157da4
data_ov058_02157dc4 kind:bss addr:0x02157dc4
data_ov058_02157e78 kind:bss addr:0x02157e78
data_ov058_02157e98 kind:bss addr:0x02157e98 ambiguous
