func_ov054_021384e0 kind:function(arm,size=0x84) addr:0x021384e0
_ZN19ActorProfileUnkFBBH10GetProfileEv kind:function(arm,size=0xc) addr:0x02138564
_ZN19ActorProfileUnkFBBH6CreateEv kind:function(arm,size=0x24) addr:0x02138570
_ZN19ActorProfileUnkFBBHC1Ev kind:function(arm,size=0x44) addr:0x02138594
_ZN12ActorUnkFBBHC1Ev kind:function(arm,size=0x1dc) addr:0x021385d8
_ZN12ActorUnkFBBH19func_ov054_021387b4Ev kind:function(arm,size=0x14) addr:0x021387b4
_ZN12ActorUnkFBBH19func_ov054_021387c8Ev kind:function(arm,size=0x34) addr:0x021387c8
_ZN12ActorUnkFBBH19func_ov054_021387fcEv kind:function(arm,size=0x58) addr:0x021387fc
_ZN12ActorUnkFBBH19func_ov054_02138854Ev kind:function(arm,size=0x24) addr:0x02138854
_ZN12ActorUnkFBBH19func_ov054_02138878Ev kind:function(arm,size=0x4c) addr:0x02138878
_ZN12ActorUnkFBBH19func_ov054_021388c4Ev kind:function(arm,size=0x1c) addr:0x021388c4
_ZN12ActorUnkFBBH19func_ov054_021388e0Ev kind:function(arm,size=0xe8) addr:0x021388e0
_ZN12ActorUnkFBBH19func_ov054_021389c8Ev kind:function(arm,size=0x114) addr:0x021389c8
_ZN12ActorUnkFBBH19func_ov054_02138adcEv kind:function(arm,size=0x38) addr:0x02138adc
_ZN12ActorUnkFBBH19func_ov054_02138b14Ev kind:function(arm,size=0x60) addr:0x02138b14
_ZN12ActorUnkFBBH19func_ov054_02138b74Ev kind:function(arm,size=0x98) addr:0x02138b74
_ZN12ActorUnkFBBH19func_ov054_02138c0cEv kind:function(arm,size=0x98) addr:0x02138c0c
_ZN12ActorUnkFBBH19func_ov054_02138ca4Ev kind:function(arm,size=0x1b8) addr:0x02138ca4
_ZN12ActorUnkFBBH19func_ov054_02138e5cEv kind:function(arm,size=0x18) addr:0x02138e5c
_ZN12ActorUnkFBBH19func_ov054_02138e74Ev kind:function(arm,size=0x14c) addr:0x02138e74
_ZN12ActorUnkFBBH19func_ov054_02138fc0Ev kind:function(arm,size=0x1dc) addr:0x02138fc0
_ZN12ActorUnkFBBH19func_ov054_0213919cEv kind:function(arm,size=0x100) addr:0x0213919c
_ZN12ActorUnkFBBH19func_ov054_0213929cEv kind:function(arm,size=0x50) addr:0x0213929c
_ZN12ActorUnkFBBH19func_ov054_021392ecEv kind:function(arm,size=0x19c) addr:0x021392ec
_ZN12ActorUnkFBBH19func_ov054_02139488Ev kind:function(arm,size=0x6c) addr:0x02139488
_ZN12ActorUnkFBBH19func_ov054_021394f4Ev kind:function(arm,size=0x134) addr:0x021394f4
_ZN12ActorUnkFBBH19func_ov054_02139628Ev kind:function(arm,size=0x30) addr:0x02139628
_ZN12ActorUnkFBBH19func_ov054_02139658Ev kind:function(arm,size=0x84) addr:0x02139658
_ZN12ActorUnkFBBH19func_ov054_021396dcEv kind:function(arm,size=0x30) addr:0x021396dc
_ZN12ActorUnkFBBH19func_ov054_0213970cEv kind:function(arm,size=0x70) addr:0x0213970c
_ZN12ActorUnkFBBH19func_ov054_0213977cEv kind:function(arm,size=0x74) addr:0x0213977c
_ZN12ActorUnkFBBH19func_ov054_021397f0Ev kind:function(arm,size=0x150) addr:0x021397f0
_ZN12ActorUnkFBBH19func_ov054_02139940Ev kind:function(arm,size=0x70) addr:0x02139940
_ZN12ActorUnkFBBH19func_ov054_021399b0Ev kind:function(arm,size=0x50) addr:0x021399b0
_ZN12ActorUnkFBBH19func_ov054_02139a00Ev kind:function(arm,size=0x70) addr:0x02139a00
_ZN12ActorUnkFBBH19func_ov054_02139a70Ev kind:function(arm,size=0x50) addr:0x02139a70
_ZN12ActorUnkFBBH19func_ov054_02139ac0Ev kind:function(arm,size=0x7c) addr:0x02139ac0
_ZN12ActorUnkFBBH19func_ov054_02139b3cEv kind:function(arm,size=0x2c) addr:0x02139b3c
_ZN12ActorUnkFBBH19func_ov054_02139b68Ev kind:function(arm,size=0x6c) addr:0x02139b68
_ZN12ActorUnkFBBH19func_ov054_02139bd4Ev kind:function(arm,size=0x38) addr:0x02139bd4
_ZN12ActorUnkFBBH19func_ov054_02139c0cEv kind:function(arm,size=0x70) addr:0x02139c0c
_ZN12ActorUnkFBBH19func_ov054_02139c7cEv kind:function(arm,size=0x188) addr:0x02139c7c
_ZN12ActorUnkFBBH19func_ov054_02139e04Ev kind:function(arm,size=0x74) addr:0x02139e04
_ZN12ActorUnkFBBH19func_ov054_02139e78Ev kind:function(arm,size=0xb0) addr:0x02139e78
_ZN12ActorUnkFBBH19func_ov054_02139f28Ev kind:function(arm,size=0x74) addr:0x02139f28
_ZN12ActorUnkFBBH19func_ov054_02139f9cEv kind:function(arm,size=0x1fc) addr:0x02139f9c
_ZN12ActorUnkFBBH19func_ov054_0213a198Ev kind:function(arm,size=0x78) addr:0x0213a198
_ZN12ActorUnkFBBH19func_ov054_0213a210Ev kind:function(arm,size=0x50) addr:0x0213a210
_ZN12ActorUnkFBBH19func_ov054_0213a260Ev kind:function(arm,size=0x84) addr:0x0213a260
_ZN12ActorUnkFBBH19func_ov054_0213a2e4Ev kind:function(arm,size=0x1b8) addr:0x0213a2e4
_ZN12ActorUnkFBBH19func_ov054_0213a49cEv kind:function(arm,size=0x20) addr:0x0213a49c
_ZN12ActorUnkFBBH19func_ov054_0213a4bcEv kind:function(arm,size=0xb0) addr:0x0213a4bc
_ZN12ActorUnkFBBH19func_ov054_0213a56cEv kind:function(arm,size=0xd4) addr:0x0213a56c
_ZN12ActorUnkFBBH19func_ov054_0213a640Ev kind:function(arm,size=0x44) addr:0x0213a640
_ZN12ActorUnkFBBH19func_ov054_0213a684Ev kind:function(arm,size=0x88) addr:0x0213a684
_ZN12ActorUnkFBBH19func_ov054_0213a70cEv kind:function(arm,size=0xf4) addr:0x0213a70c
_ZN12ActorUnkFBBH19func_ov054_0213a800Ev kind:function(arm,size=0x7c) addr:0x0213a800
_ZN12ActorUnkFBBH19func_ov054_0213a87cEv kind:function(arm,size=0x3ec) addr:0x0213a87c
_ZN12ActorUnkFBBH19func_ov054_0213ac68Ev kind:function(arm,size=0x90) addr:0x0213ac68
_ZN12ActorUnkFBBH19func_ov054_0213acf8Ev kind:function(arm,size=0x1b8) addr:0x0213acf8
_ZN12ActorUnkFBBH19func_ov054_0213aeb0Ev kind:function(arm,size=0x240) addr:0x0213aeb0
_ZN12ActorUnkFBBH19func_ov054_0213b0f0Ev kind:function(arm,size=0x80) addr:0x0213b0f0
_ZN12ActorUnkFBBH19func_ov054_0213b170Ev kind:function(arm,size=0x84) addr:0x0213b170
_ZN12ActorUnkFBBH19func_ov054_0213b1f4Ev kind:function(arm,size=0x214) addr:0x0213b1f4
_ZN12ActorUnkFBBH19func_ov054_0213b408Ev kind:function(arm,size=0x20) addr:0x0213b408
_ZN12ActorUnkFBBH19func_ov054_0213b428Ev kind:function(arm,size=0x70) addr:0x0213b428
_ZN12ActorUnkFBBH19func_ov054_0213b498Ev kind:function(arm,size=0x3c) addr:0x0213b498
_ZN12ActorUnkFBBH19func_ov054_0213b4d4Ev kind:function(arm,size=0x88) addr:0x0213b4d4
_ZN12ActorUnkFBBH19func_ov054_0213b55cEv kind:function(arm,size=0x6d4) addr:0x0213b55c
_ZN12ActorUnkFBBH19func_ov054_0213bc30Ev kind:function(arm,size=0x98) addr:0x0213bc30
_ZN12ActorUnkFBBH19func_ov054_0213bcc8Ev kind:function(arm,size=0xdc) addr:0x0213bcc8
_ZN12ActorUnkFBBH19func_ov054_0213bda4Ev kind:function(arm,size=0x88) addr:0x0213bda4
_ZN12ActorUnkFBBH19func_ov054_0213be2cEv kind:function(arm,size=0xe0) addr:0x0213be2c
_ZN12ActorUnkFBBH19func_ov054_0213bf0cEv kind:function(arm,size=0x18) addr:0x0213bf0c
_ZN12ActorUnkFBBH19func_ov054_0213bf24Ev kind:function(arm,size=0x98) addr:0x0213bf24
_ZN12ActorUnkFBBH19func_ov054_0213bfbcEv kind:function(arm,size=0xe0) addr:0x0213bfbc
_ZN12ActorUnkFBBH19func_ov054_0213c09cEv kind:function(arm,size=0x24) addr:0x0213c09c
_ZN12ActorUnkFBBH19func_ov054_0213c0c0Ev kind:function(arm,size=0x2c) addr:0x0213c0c0
_ZN12ActorUnkFBBHD0Ev kind:function(arm,size=0x1c) addr:0x0213c0ec
_ZN12ActorUnkFBBH19func_ov054_0213c108Ev kind:function(arm,size=0x7c) addr:0x0213c108
_ZN12ActorUnkFBBH19func_ov054_0213c184Ev kind:function(arm,size=0x84) addr:0x0213c184
_ZN19ActorProfileUnkFBBHD1Ev kind:function(arm,size=0x14) addr:0x0213c208
_ZN19ActorProfileUnkFIBB10GetProfileEv kind:function(arm,size=0xc) addr:0x0213c21c
_ZN19ActorProfileUnkFIBB6CreateEv kind:function(arm,size=0x24) addr:0x0213c228
_ZN19ActorProfileUnkFIBBC1Ev kind:function(arm,size=0x54) addr:0x0213c24c
_ZN12ActorUnkFIBBC1Ev kind:function(arm,size=0x174) addr:0x0213c2a0
_ZN12ActorUnkFIBB19func_ov054_0213c414Ev kind:function(arm,size=0x154) addr:0x0213c414
_ZN12ActorUnkFIBB19func_ov054_0213c568Ev kind:function(arm,size=0x50) addr:0x0213c568
_ZN12ActorUnkFIBB19func_ov054_0213c5b8Ev kind:function(arm,size=0x90) addr:0x0213c5b8
_ZN12ActorUnkFIBB19func_ov054_0213c648Ev kind:function(arm,size=0x7c) addr:0x0213c648
_ZN12ActorUnkFIBB19func_ov054_0213c6c4Ev kind:function(arm,size=0x34) addr:0x0213c6c4
_ZN12ActorUnkFIBB19func_ov054_0213c6f8Ev kind:function(arm,size=0x70) addr:0x0213c6f8
_ZN12ActorUnkFIBB19func_ov054_0213c768Ev kind:function(arm,size=0x90) addr:0x0213c768
_ZN12ActorUnkFIBB19func_ov054_0213c7f8Ev kind:function(arm,size=0x70) addr:0x0213c7f8
_ZN12ActorUnkFIBB19func_ov054_0213c868Ev kind:function(arm,size=0xb0) addr:0x0213c868
_ZN12ActorUnkFIBB19func_ov054_0213c918Ev kind:function(arm,size=0xb4) addr:0x0213c918
_ZN12ActorUnkFIBB19func_ov054_0213c9ccEv kind:function(arm,size=0xe8) addr:0x0213c9cc
_ZN12ActorUnkFIBB19func_ov054_0213cab4Ev kind:function(arm,size=0x70) addr:0x0213cab4
_ZN12ActorUnkFIBB19func_ov054_0213cb24Ev kind:function(arm,size=0x70) addr:0x0213cb24
_ZN12ActorUnkFIBB19func_ov054_0213cb94Ev kind:function(arm,size=0x70) addr:0x0213cb94
_ZN12ActorUnkFIBB19func_ov054_0213cc04Ev kind:function(arm,size=0x124) addr:0x0213cc04
_ZN12ActorUnkFIBB19func_ov054_0213cd28Ev kind:function(arm,size=0x14) addr:0x0213cd28
_ZN12ActorUnkFIBB19func_ov054_0213cd3cEv kind:function(arm,size=0x64) addr:0x0213cd3c
_ZN12ActorUnkFIBB19func_ov054_0213cda0Ev kind:function(arm,size=0x4) addr:0x0213cda0
_ZN12ActorUnkFIBB19func_ov054_0213cda4Ev kind:function(arm,size=0x64) addr:0x0213cda4
_ZN12ActorUnkFIBB19func_ov054_0213ce08Ev kind:function(arm,size=0x4) addr:0x0213ce08
_ZN12ActorUnkFIBB19func_ov054_0213ce0cEv kind:function(arm,size=0x64) addr:0x0213ce0c
_ZN12ActorUnkFIBB19func_ov054_0213ce70Ev kind:function(arm,size=0xc) addr:0x0213ce70
_ZN12ActorUnkFIBB19func_ov054_0213ce7cEv kind:function(arm,size=0x64) addr:0x0213ce7c
_ZN12ActorUnkFIBB19func_ov054_0213cee0Ev kind:function(arm,size=0x2c) addr:0x0213cee0
_ZN12ActorUnkFIBB19func_ov054_0213cf0cEv kind:function(arm,size=0x64) addr:0x0213cf0c
_ZN12ActorUnkFIBB19func_ov054_0213cf70Ev kind:function(arm,size=0xc) addr:0x0213cf70
_ZN12ActorUnkFIBB19func_ov054_0213cf7cEv kind:function(arm,size=0x64) addr:0x0213cf7c
_ZN12ActorUnkFIBB19func_ov054_0213cfe0Ev kind:function(arm,size=0xf0) addr:0x0213cfe0
_ZN12ActorUnkFIBB19func_ov054_0213d0d0Ev kind:function(arm,size=0xc) addr:0x0213d0d0
_ZN12ActorUnkFIBB19func_ov054_0213d0dcEv kind:function(arm,size=0x64) addr:0x0213d0dc
_ZN12ActorUnkFIBB19func_ov054_0213d140Ev kind:function(arm,size=0x44) addr:0x0213d140
_ZN12ActorUnkFIBB19func_ov054_0213d184Ev kind:function(arm,size=0x64) addr:0x0213d184
_ZN12ActorUnkFIBB19func_ov054_0213d1e8Ev kind:function(arm,size=0x38) addr:0x0213d1e8
_ZN12ActorUnkFIBB19func_ov054_0213d220Ev kind:function(arm,size=0x110) addr:0x0213d220
_ZN12ActorUnkFIBB19func_ov054_0213d330Ev kind:function(arm,size=0x84) addr:0x0213d330
_ZN12ActorUnkFIBB19func_ov054_0213d3b4Ev kind:function(arm,size=0x128) addr:0x0213d3b4
_ZN12ActorUnkFIBB19func_ov054_0213d4dcEv kind:function(arm,size=0x34) addr:0x0213d4dc
_ZN12ActorUnkFIBB19func_ov054_0213d510Ev kind:function(arm,size=0x24) addr:0x0213d510
_ZN12ActorUnkFIBB19func_ov054_0213d534Ev kind:function(arm,size=0x50) addr:0x0213d534
_ZN12ActorUnkFIBBD1Ev kind:function(arm,size=0x30) addr:0x0213d584
_ZN12ActorUnkFIBBD0Ev kind:function(arm,size=0x38) addr:0x0213d5b4
_ZN19ActorProfileUnkFIBBD1Ev kind:function(arm,size=0x14) addr:0x0213d5ec
_ZN19ActorProfileUnkFBBF10GetProfileEv kind:function(arm,size=0xc) addr:0x0213d600
_ZN19ActorProfileUnkFBBF6CreateEv kind:function(arm,size=0x24) addr:0x0213d60c
_ZN19ActorProfileUnkFBBFC1Ev kind:function(arm,size=0x44) addr:0x0213d630
_ZN12ActorUnkFBBFC1Ev kind:function(arm,size=0x3c) addr:0x0213d674
_ZN12ActorUnkFBBFD1Ev kind:function(arm,size=0x34) addr:0x0213d6b0
_ZN12ActorUnkFBBFD0Ev kind:function(arm,size=0x3c) addr:0x0213d6e4
_ZN12ActorUnkFBBF19func_ov054_0213d720Ev kind:function(arm,size=0x78) addr:0x0213d720
_ZN12ActorUnkFBBF19func_ov054_0213d798Ev kind:function(arm,size=0x148) addr:0x0213d798
_ZN12ActorUnkFBBF19func_ov054_0213d8e0Ev kind:function(arm,size=0x54) addr:0x0213d8e0
_ZN12ActorUnkFBBF19func_ov054_0213d934Ev kind:function(arm,size=0x78) addr:0x0213d934
_ZN12ActorUnkFBBF19func_ov054_0213d9acEv kind:function(arm,size=0x58) addr:0x0213d9ac
_ZN19ActorProfileUnkFBBFD1Ev kind:function(arm,size=0x14) addr:0x0213da04
__sinit_ActorUnkFBBH.cpp kind:function(arm,size=0x130) addr:0x0213da18
__sinit_ActorUnkFIBB.cpp kind:function(arm,size=0xd8) addr:0x0213db48
__sinit_ActorUnkFBBF.cpp kind:function(arm,size=0x50) addr:0x0213dc20
.p__sinit_ActorUnkFBBH.cpp kind:data(word) addr:0x0213dc70
.p__sinit_ActorUnkFIBB.cpp kind:data(word) addr:0x0213dc74
.p__sinit_ActorUnkFBBF.cpp kind:data(word) addr:0x0213dc78
data_ov054_0213dc80 kind:data(any) addr:0x0213dc80
data_ov054_0213dca0 kind:data(any) addr:0x0213dca0
data_ov054_0213dcb0 kind:data(any) addr:0x0213dcb0
_ZTV19data_ov054_0213dcc0 kind:data(any) addr:0x0213dcc0
data_ov054_0213dcec kind:data(any) addr:0x0213dcec
_ZTV19data_ov054_0213dd30 kind:data(any) addr:0x0213dd30
data_ov054_0213dd90 kind:data(any) addr:0x0213dd90
data_ov054_0213dda0 kind:data(any) addr:0x0213dda0
data_ov054_0213df70 kind:data(any) addr:0x0213df70
data_ov054_0213df88 kind:data(any) addr:0x0213df88
data_ov054_0213dfa0 kind:data(any) addr:0x0213dfa0
data_ov054_0213dfb8 kind:data(any) addr:0x0213dfb8
data_ov054_0213dfd0 kind:data(any) addr:0x0213dfd0
data_ov054_0213dfe8 kind:data(any) addr:0x0213dfe8
data_ov054_0213e000 kind:data(any) addr:0x0213e000
data_ov054_0213e018 kind:data(any) addr:0x0213e018
data_ov054_0213e030 kind:data(any) addr:0x0213e030
data_ov054_0213e048 kind:data(any) addr:0x0213e048
data_ov054_0213e050 kind:data(any) addr:0x0213e050 ambiguous
data_ov054_0213e060 kind:data(any) addr:0x0213e060
data_ov054_0213e078 kind:data(any) addr:0x0213e078
data_ov054_0213e0a8 kind:data(any) addr:0x0213e0a8
data_ov054_0213e0c0 kind:data(any) addr:0x0213e0c0
data_ov054_0213e0d8 kind:data(any) addr:0x0213e0d8
data_ov054_0213e0f0 kind:data(any) addr:0x0213e0f0
data_ov054_0213e108 kind:data(any) addr:0x0213e108
data_ov054_0213e120 kind:data(any) addr:0x0213e120
_ZTV19data_ov054_0213e150 kind:data(any) addr:0x0213e150
_ZTV19data_ov054_0213e174 kind:data(any) addr:0x0213e174
data_ov054_0213e1d0 kind:data(any) addr:0x0213e1d0
data_ov054_0213e1e0 kind:data(any) addr:0x0213e1e0
data_ov054_0213e320 kind:data(any) addr:0x0213e320
data_ov054_0213e338 kind:data(any) addr:0x0213e338
data_ov054_0213e350 kind:data(any) addr:0x0213e350
data_ov054_0213e368 kind:data(any) addr:0x0213e368
data_ov054_0213e380 kind:data(any) addr:0x0213e380
data_ov054_0213e398 kind:data(any) addr:0x0213e398
data_ov054_0213e3b0 kind:data(any) addr:0x0213e3b0
data_ov054_0213e3c8 kind:data(any) addr:0x0213e3c8
data_ov054_0213e3e0 kind:data(any) addr:0x0213e3e0
data_ov054_0213e3f8 kind:data(any) addr:0x0213e3f8
data_ov054_0213e410 kind:data(any) addr:0x0213e410
data_ov054_0213e428 kind:data(any) addr:0x0213e428
data_ov054_0213e458 kind:data(any) addr:0x0213e458
data_ov054_0213e470 kind:data(any) addr:0x0213e470
_ZTV19data_ov054_0213e488 kind:data(any) addr:0x0213e488
_ZTV19data_ov054_0213e4ac kind:data(any) addr:0x0213e4ac
data_ov054_0213e520 kind:bss addr:0x0213e520
data_ov054_0213e524 kind:bss addr:0x0213e524
sActorProfileUnkFBBH kind:bss addr:0x0213e530
data_ov054_0213e608 kind:bss addr:0x0213e608
data_ov054_0213e60c kind:bss addr:0x0213e60c
sActorProfileUnkFIBB kind:bss addr:0x0213e618
data_ov054_0213e6f0 kind:bss addr:0x0213e6f0
data_ov054_0213e6f4 kind:bss addr:0x0213e6f4
sActorProfileUnkFBBF kind:bss addr:0x0213e700
