func_ov083_02152ca0 kind:function(arm,size=0x58) addr:0x02152ca0
func_ov083_02152cf8 kind:function(arm,size=0x6c) addr:0x02152cf8
_ZN19ActorProfileUnkWTBS10GetProfileEv kind:function(arm,size=0xc) addr:0x02152d64
_ZN19ActorProfileUnkWTBS6CreateEv kind:function(arm,size=0x28) addr:0x02152d70
_ZN19ActorProfileUnkWTBSC1Ev kind:function(arm,size=0x68) addr:0x02152d98
_ZN12ActorUnkWTBS19func_ov083_02152e00Ev kind:function(arm,size=0x1c) addr:0x02152e00
_ZN12ActorUnkWTBSC1Ev kind:function(arm,size=0x464) addr:0x02152e1c
_ZN12ActorUnkWTBS19func_ov083_02153280Ev kind:function(arm,size=0x14) addr:0x02153280
_ZN12ActorUnkWTBS19func_ov083_02153294Ev kind:function(arm,size=0xf8) addr:0x02153294
_ZN12ActorUnkWTBSD0Ev kind:function(arm,size=0x100) addr:0x0215338c
_ZN12ActorUnkWTBS19func_ov083_0215348cEv kind:function(arm,size=0x38) addr:0x0215348c
_ZN12ActorUnkWTBS19func_ov083_021534c4Ev kind:function(arm,size=0x90) addr:0x021534c4
_ZN12ActorUnkWTBS19func_ov083_02153554Ev kind:function(arm,size=0xe8) addr:0x02153554
_ZN12ActorUnkWTBS19func_ov083_0215363cEv kind:function(arm,size=0x28) addr:0x0215363c
_ZN12ActorUnkWTBS19func_ov083_02153664Ev kind:function(arm,size=0x464) addr:0x02153664
_ZN12ActorUnkWTBS19func_ov083_02153ac8Ev kind:function(arm,size=0xf0) addr:0x02153ac8
_ZN12ActorUnkWTBS19func_ov083_02153bb8Ev kind:function(arm,size=0xcc) addr:0x02153bb8
_ZN12ActorUnkWTBS19func_ov083_02153c84Ev kind:function(arm,size=0x10) addr:0x02153c84
_ZN12ActorUnkWTBS19func_ov083_02153c94Ev kind:function(arm,size=0xf8) addr:0x02153c94
_ZN12ActorUnkWTBS19func_ov083_02153d8cEv kind:function(arm,size=0x1e0) addr:0x02153d8c
_ZN12ActorUnkWTBS19func_ov083_02153f6cEv kind:function(arm,size=0x38) addr:0x02153f6c
_ZN12ActorUnkWTBS19func_ov083_02153fa4Ev kind:function(arm,size=0x18) addr:0x02153fa4
_ZN12ActorUnkWTBS19func_ov083_02153fbcEv kind:function(arm,size=0x3bc) addr:0x02153fbc
_ZN12ActorUnkWTBS19func_ov083_02154378Ev kind:function(arm,size=0x1d0) addr:0x02154378
_ZN12ActorUnkWTBS19func_ov083_02154548Ev kind:function(arm,size=0xac) addr:0x02154548
_ZN12ActorUnkWTBS19func_ov083_021545f4Ev kind:function(arm,size=0x1e8) addr:0x021545f4
_ZN12ActorUnkWTBS19func_ov083_021547dcEv kind:function(arm,size=0x10) addr:0x021547dc
_ZN12ActorUnkWTBS19func_ov083_021547ecEv kind:function(arm,size=0x200) addr:0x021547ec
_ZN12ActorUnkWTBS19func_ov083_021549ecEv kind:function(arm,size=0x40) addr:0x021549ec
_ZN12ActorUnkWTBS19func_ov083_02154a2cEv kind:function(arm,size=0x118) addr:0x02154a2c
_ZN12ActorUnkWTBS19func_ov083_02154b44Ev kind:function(arm,size=0x1c) addr:0x02154b44
_ZN12ActorUnkWTBS19func_ov083_02154b60Ev kind:function(arm,size=0xa8) addr:0x02154b60
_ZN12ActorUnkWTBS19func_ov083_02154c08Ev kind:function(arm,size=0x5c) addr:0x02154c08
_ZN12ActorUnkWTBS19func_ov083_02154c64Ev kind:function(arm,size=0x5c) addr:0x02154c64
_ZN12ActorUnkWTBS19func_ov083_02154cc0Ev kind:function(arm,size=0xd8) addr:0x02154cc0
_ZN12ActorUnkWTBS19func_ov083_02154d98Ev kind:function(arm,size=0x3c) addr:0x02154d98
_ZN12ActorUnkWTBS19func_ov083_02154dd4Ev kind:function(arm,size=0x1d4) addr:0x02154dd4
_ZN12ActorUnkWTBS19func_ov083_02154fa8Ev kind:function(arm,size=0x28) addr:0x02154fa8
_ZN12ActorUnkWTBS19func_ov083_02154fd0Ev kind:function(arm,size=0x60) addr:0x02154fd0
_ZN12ActorUnkWTBS19func_ov083_02155030Ev kind:function(arm,size=0x5c) addr:0x02155030
_ZN12ActorUnkWTBS19func_ov083_0215508cEv kind:function(arm,size=0x104) addr:0x0215508c
_ZN12ActorUnkWTBS19func_ov083_02155190Ev kind:function(arm,size=0x2c) addr:0x02155190
_ZN12ActorUnkWTBS19func_ov083_021551bcEv kind:function(arm,size=0x30) addr:0x021551bc
_ZN12ActorUnkWTBS19func_ov083_021551ecEv kind:function(arm,size=0x1d0) addr:0x021551ec
_ZN12ActorUnkWTBS19func_ov083_021553bcEv kind:function(arm,size=0x1d0) addr:0x021553bc
_ZN12ActorUnkWTBS19func_ov083_0215558cEv kind:function(arm,size=0x40) addr:0x0215558c
_ZN12ActorUnkWTBS19func_ov083_021555ccEv kind:function(arm,size=0xb0) addr:0x021555cc
_ZN12ActorUnkWTBS19func_ov083_0215567cEv kind:function(arm,size=0x108) addr:0x0215567c
_ZN12ActorUnkWTBS19func_ov083_02155784Ev kind:function(arm,size=0x28) addr:0x02155784
_ZN12ActorUnkWTBS19func_ov083_021557acEv kind:function(arm,size=0x6c) addr:0x021557ac
_ZN12ActorUnkWTBS19func_ov083_02155818Ev kind:function(arm,size=0xdc) addr:0x02155818
_ZN12ActorUnkWTBS19func_ov083_021558f4Ev kind:function(arm,size=0x64) addr:0x021558f4
_ZN12ActorUnkWTBS19func_ov083_02155958Ev kind:function(arm,size=0x34) addr:0x02155958
_ZN12ActorUnkWTBS19func_ov083_0215598cEv kind:function(arm,size=0x14c) addr:0x0215598c
_ZN12ActorUnkWTBS19func_ov083_02155ad8Ev kind:function(arm,size=0xa30) addr:0x02155ad8
_ZN12ActorUnkWTBS19func_ov083_02156508Ev kind:function(arm,size=0x28) addr:0x02156508
_ZN12ActorUnkWTBS19func_ov083_02156530Ev kind:function(arm,size=0x100) addr:0x02156530
_ZN12ActorUnkWTBS19func_ov083_02156630Ev kind:function(arm,size=0x670) addr:0x02156630
_ZN12ActorUnkWTBS19func_ov083_02156ca0Ev kind:function(arm,size=0x28) addr:0x02156ca0
_ZN12ActorUnkWTBS19func_ov083_02156cc8Ev kind:function(arm,size=0x158) addr:0x02156cc8
_ZN12ActorUnkWTBS19func_ov083_02156e20Ev kind:function(arm,size=0x7c) addr:0x02156e20
_ZN12ActorUnkWTBS19func_ov083_02156e9cEv kind:function(arm,size=0x148) addr:0x02156e9c
_ZN12ActorUnkWTBS19func_ov083_02156fe4Ev kind:function(arm,size=0xfc) addr:0x02156fe4
_ZN12ActorUnkWTBS19func_ov083_021570e0Ev kind:function(arm,size=0x4) addr:0x021570e0
_ZN12ActorUnkWTBS19func_ov083_021570e4Ev kind:function(arm,size=0x58) addr:0x021570e4
_ZN12ActorUnkWTBS19func_ov083_0215713cEv kind:function(arm,size=0x24) addr:0x0215713c
_ZN12ActorUnkWTBS19func_ov083_02157160Ev kind:function(arm,size=0xb4) addr:0x02157160
_ZN12ActorUnkWTBS19func_ov083_02157214Ev kind:function(arm,size=0xe4) addr:0x02157214
_ZN12ActorUnkWTBS19func_ov083_021572f8Ev kind:function(arm,size=0x320) addr:0x021572f8
_ZN12ActorUnkWTBS19func_ov083_02157618Ev kind:function(arm,size=0xd4) addr:0x02157618
_ZN12ActorUnkWTBS19func_ov083_021576ecEv kind:function(arm,size=0x1e0) addr:0x021576ec
_ZN12ActorUnkWTBS19func_ov083_021578ccEv kind:function(arm,size=0x1c4) addr:0x021578cc
_ZN12ActorUnkWTBS19func_ov083_02157a90Ev kind:function(arm,size=0x1b4) addr:0x02157a90
_ZN12ActorUnkWTBS19func_ov083_02157c44Ev kind:function(arm,size=0xd8) addr:0x02157c44
_ZN12ActorUnkWTBS19func_ov083_02157d1cEv kind:function(arm,size=0x120) addr:0x02157d1c
_ZN12ActorUnkWTBS19func_ov083_02157e3cEv kind:function(arm,size=0xfc) addr:0x02157e3c
_ZN12ActorUnkWTBS19func_ov083_02157f38Ev kind:function(arm,size=0x2a4) addr:0x02157f38
_ZN12ActorUnkWTBS19func_ov083_021581dcEv kind:function(arm,size=0x168) addr:0x021581dc
_ZN12ActorUnkWTBS19func_ov083_02158344Ev kind:function(arm,size=0xd8) addr:0x02158344
_ZN12ActorUnkWTBS19func_ov083_0215841cEv kind:function(arm,size=0x110) addr:0x0215841c
_ZN12ActorUnkWTBS19func_ov083_0215852cEv kind:function(arm,size=0x244) addr:0x0215852c
_ZN12ActorUnkWTBS19func_ov083_02158770Ev kind:function(arm,size=0x90) addr:0x02158770
_ZN12ActorUnkWTBS19func_ov083_02158800Ev kind:function(arm,size=0x194) addr:0x02158800
_ZN12ActorUnkWTBS19func_ov083_02158994Ev kind:function(arm,size=0xc4) addr:0x02158994
_ZN12ActorUnkWTBS19func_ov083_02158a58Ev kind:function(arm,size=0x264) addr:0x02158a58
_ZN12ActorUnkWTBS19func_ov083_02158cbcEv kind:function(arm,size=0xc4) addr:0x02158cbc
_ZN12ActorUnkWTBS19func_ov083_02158d80Ev kind:function(arm,size=0x3c8) addr:0x02158d80
_ZN12ActorUnkWTBS19func_ov083_02159148Ev kind:function(arm,size=0x120) addr:0x02159148
_ZN12ActorUnkWTBS19func_ov083_02159268Ev kind:function(arm,size=0x684) addr:0x02159268
_ZN12ActorUnkWTBS19func_ov083_021598ecEv kind:function(arm,size=0x90) addr:0x021598ec
_ZN12ActorUnkWTBS19func_ov083_0215997cEv kind:function(arm,size=0x94) addr:0x0215997c
_ZN12ActorUnkWTBS19func_ov083_02159a10Ev kind:function(arm,size=0x3ac) addr:0x02159a10
_ZN12ActorUnkWTBS19func_ov083_02159dbcEv kind:function(arm,size=0x60) addr:0x02159dbc
_ZN12ActorUnkWTBS19func_ov083_02159e1cEv kind:function(arm,size=0x44) addr:0x02159e1c
_ZN12ActorUnkWTBS19func_ov083_02159e60Ev kind:function(arm,size=0x270) addr:0x02159e60
_ZN12ActorUnkWTBS19func_ov083_0215a0d0Ev kind:function(arm,size=0x28) addr:0x0215a0d0
_ZN12ActorUnkWTBS19func_ov083_0215a0f8Ev kind:function(arm,size=0xa8) addr:0x0215a0f8
_ZN12ActorUnkWTBS19func_ov083_0215a1a0Ev kind:function(arm,size=0x70) addr:0x0215a1a0
_ZN12ActorUnkWTBS19func_ov083_0215a210Ev kind:function(arm,size=0x70) addr:0x0215a210
_ZN12ActorUnkWTBS19func_ov083_0215a280Ev kind:function(arm,size=0x28) addr:0x0215a280
_ZN12ActorUnkWTBS19func_ov083_0215a2a8Ev kind:function(arm,size=0x10) addr:0x0215a2a8
_ZN12ActorUnkWTBS19func_ov083_0215a2b8Ev kind:function(arm,size=0x118) addr:0x0215a2b8
_ZN12ActorUnkWTBS19func_ov083_0215a3d0Ev kind:function(arm,size=0x120) addr:0x0215a3d0
_ZN12ActorUnkWTBS19func_ov083_0215a4f0Ev kind:function(arm,size=0x24) addr:0x0215a4f0
_ZN12ActorUnkWTBS19func_ov083_0215a514Ev kind:function(arm,size=0x2c) addr:0x0215a514
_ZN12ActorUnkWTBS19func_ov083_0215a540Ev kind:function(arm,size=0x1c) addr:0x0215a540
_ZN19ActorProfileUnkWTBSD1Ev kind:function(arm,size=0x14) addr:0x0215a55c
_ZN19ActorProfileUnkWBPS10GetProfileEv kind:function(arm,size=0xc) addr:0x0215a570
_ZN19ActorProfileUnkWBPS6CreateEv kind:function(arm,size=0x24) addr:0x0215a57c
_ZN19ActorProfileUnkWBPSC1Ev kind:function(arm,size=0x4c) addr:0x0215a5a0
_ZN12ActorUnkWBPSC1Ev kind:function(arm,size=0x1e8) addr:0x0215a5ec
_ZN12ActorUnkWBPS19func_ov083_0215a7d4Ev kind:function(arm,size=0x24) addr:0x0215a7d4
_ZN12ActorUnkWBPS19func_ov083_0215a7f8Ev kind:function(arm,size=0x1b4) addr:0x0215a7f8
_ZN12ActorUnkWBPS19func_ov083_0215a9acEv kind:function(arm,size=0x1c) addr:0x0215a9ac
_ZN12ActorUnkWBPS19func_ov083_0215a9c8Ev kind:function(arm,size=0x130) addr:0x0215a9c8
_ZN12ActorUnkWBPS19func_ov083_0215aaf8Ev kind:function(arm,size=0x78) addr:0x0215aaf8
_ZN12ActorUnkWBPS19func_ov083_0215ab70Ev kind:function(arm,size=0x170) addr:0x0215ab70
_ZN12ActorUnkWBPS19func_ov083_0215ace0Ev kind:function(arm,size=0x90) addr:0x0215ace0
_ZN12ActorUnkWBPS19func_ov083_0215ad70Ev kind:function(arm,size=0x3c) addr:0x0215ad70
_ZN12ActorUnkWBPS19func_ov083_0215adacEv kind:function(arm,size=0xc) addr:0x0215adac
_ZN12ActorUnkWBPS19func_ov083_0215adb8Ev kind:function(arm,size=0x11c) addr:0x0215adb8
_ZN12ActorUnkWBPS19func_ov083_0215aed4Ev kind:function(arm,size=0xa4) addr:0x0215aed4
_ZN12ActorUnkWBPS19func_ov083_0215af78Ev kind:function(arm,size=0xb4) addr:0x0215af78
_ZN12ActorUnkWBPSD1Ev kind:function(arm,size=0x28) addr:0x0215b02c
_ZN12ActorUnkWBPSD0Ev kind:function(arm,size=0x30) addr:0x0215b054
_ZN19ActorProfileUnkWBPSD1Ev kind:function(arm,size=0x14) addr:0x0215b084
_ZN19ActorProfileUnkWBEF10GetProfileEv kind:function(arm,size=0xc) addr:0x0215b098
_ZN19ActorProfileUnkWBEF6CreateEv kind:function(arm,size=0x24) addr:0x0215b0a4
_ZN19ActorProfileUnkWBEFC1Ev kind:function(arm,size=0x40) addr:0x0215b0c8
_ZN12ActorUnkWBEFC1Ev kind:function(arm,size=0x108) addr:0x0215b108
_ZN12ActorUnkWBEF19func_ov083_0215b210Ev kind:function(arm,size=0x4c) addr:0x0215b210
_ZN12ActorUnkWBEF19func_ov083_0215b25cEv kind:function(arm,size=0x24) addr:0x0215b25c
_ZN12ActorUnkWBEF19func_ov083_0215b280Ev kind:function(arm,size=0x4c) addr:0x0215b280
_ZN12ActorUnkWBEF19func_ov083_0215b2ccEv kind:function(arm,size=0x24) addr:0x0215b2cc
_ZN12ActorUnkWBEF19func_ov083_0215b2f0Ev kind:function(arm,size=0x40) addr:0x0215b2f0
_ZN12ActorUnkWBEF19func_ov083_0215b330Ev kind:function(arm,size=0x38) addr:0x0215b330
_ZN12ActorUnkWBEF19func_ov083_0215b368Ev kind:function(arm,size=0x130) addr:0x0215b368
_ZN12ActorUnkWBEF19func_ov083_0215b498Ev kind:function(arm,size=0x28) addr:0x0215b498
_ZN12ActorUnkWBEF19func_ov083_0215b4c0Ev kind:function(arm,size=0x5c) addr:0x0215b4c0
_ZN12ActorUnkWBEF19func_ov083_0215b51cEv kind:function(arm,size=0x24) addr:0x0215b51c
_ZN12ActorUnkWBEF19func_ov083_0215b540Ev kind:function(arm,size=0x4c) addr:0x0215b540
_ZN12ActorUnkWBEF19func_ov083_0215b58cEv kind:function(arm,size=0x10) addr:0x0215b58c
_ZN12ActorUnkWBEF19func_ov083_0215b59cEv kind:function(arm,size=0x78) addr:0x0215b59c
_ZN12ActorUnkWBEF19func_ov083_0215b614Ev kind:function(arm,size=0x7c) addr:0x0215b614
_ZN12ActorUnkWBEFD1Ev kind:function(arm,size=0x20) addr:0x0215b690
_ZN12ActorUnkWBEFD0Ev kind:function(arm,size=0x28) addr:0x0215b6b0
_ZN19ActorProfileUnkWBEFD1Ev kind:function(arm,size=0x14) addr:0x0215b6d8
_ZN19ActorProfileUnkRBWT10GetProfileEv kind:function(arm,size=0xc) addr:0x0215b6ec
_ZN19ActorProfileUnkRBWT6CreateEv kind:function(arm,size=0x24) addr:0x0215b6f8
_ZN19ActorProfileUnkRBWTC1Ev kind:function(arm,size=0x44) addr:0x0215b71c
_ZN12ActorUnkRBWTC1Ev kind:function(arm,size=0x160) addr:0x0215b760
_ZN12ActorUnkRBWT19func_ov083_0215b8c0Ev kind:function(arm,size=0x14) addr:0x0215b8c0
_ZN12ActorUnkRBWTD1Ev kind:function(arm,size=0x68) addr:0x0215b8d4
_ZN12ActorUnkRBWTD0Ev kind:function(arm,size=0x70) addr:0x0215b93c
_ZN12ActorUnkRBWT19func_ov083_0215b9acEv kind:function(arm,size=0x30c) addr:0x0215b9ac
_ZN12ActorUnkRBWT19func_ov083_0215bcb8Ev kind:function(arm,size=0x38) addr:0x0215bcb8
_ZN12ActorUnkRBWT19func_ov083_0215bcf0Ev kind:function(arm,size=0x74) addr:0x0215bcf0
_ZN12ActorUnkRBWT19func_ov083_0215bd64Ev kind:function(arm,size=0x14) addr:0x0215bd64
_ZN12ActorUnkRBWT19func_ov083_0215bd78Ev kind:function(arm,size=0x34) addr:0x0215bd78
_ZN12ActorUnkRBWT19func_ov083_0215bdacEv kind:function(arm,size=0x40) addr:0x0215bdac
_ZN12ActorUnkRBWT19func_ov083_0215bdecEv kind:function(arm,size=0x10) addr:0x0215bdec
_ZN12ActorUnkRBWT19func_ov083_0215bdfcEv kind:function(arm,size=0xc8) addr:0x0215bdfc
_ZN12ActorUnkRBWT19func_ov083_0215bec4Ev kind:function(arm,size=0x14) addr:0x0215bec4
_ZN12ActorUnkRBWT19func_ov083_0215bed8Ev kind:function(arm,size=0xec) addr:0x0215bed8
_ZN12ActorUnkRBWT19func_ov083_0215bfc4Ev kind:function(arm,size=0x130) addr:0x0215bfc4
_ZN12ActorUnkRBWT19func_ov083_0215c0f4Ev kind:function(arm,size=0x20) addr:0x0215c0f4
_ZN12ActorUnkRBWT19func_ov083_0215c114Ev kind:function(arm,size=0xc) addr:0x0215c114
_ZN12ActorUnkRBWT19func_ov083_0215c120Ev kind:function(arm,size=0x24) addr:0x0215c120
_ZN12ActorUnkRBWT19func_ov083_0215c144Ev kind:function(arm,size=0x10) addr:0x0215c144
_ZN12ActorUnkRBWT19func_ov083_0215c154Ev kind:function(arm,size=0x8) addr:0x0215c154
_ZN12ActorUnkRBWT19func_ov083_0215c15cEv kind:function(arm,size=0x1c) addr:0x0215c15c
_ZN19ActorProfileUnkRBWTD1Ev kind:function(arm,size=0x20) addr:0x0215c178
_ZN19ActorProfileUnkRBWS10GetProfileEv kind:function(arm,size=0xc) addr:0x0215c198
_ZN19ActorProfileUnkRBWS6CreateEv kind:function(arm,size=0x24) addr:0x0215c1a4
_ZN19ActorProfileUnkRBWSC1Ev kind:function(arm,size=0x28) addr:0x0215c1c8
_ZN12ActorUnkRBWSC1Ev kind:function(arm,size=0x74) addr:0x0215c1f0
_ZN12ActorUnkRBWS19func_ov083_0215c264Ev kind:function(arm,size=0x3c) addr:0x0215c264
_ZN12ActorUnkRBWS19func_ov083_0215c2a0Ev kind:function(arm,size=0x4) addr:0x0215c2a0
_ZN12ActorUnkRBWS19func_ov083_0215c2a4Ev kind:function(arm,size=0x20) addr:0x0215c2a4
_ZN12ActorUnkRBWSD1Ev kind:function(arm,size=0x20) addr:0x0215c2c4
_ZN12ActorUnkRBWSD0Ev kind:function(arm,size=0x28) addr:0x0215c2e4
_ZN19ActorProfileUnkRBWSD1Ev kind:function(arm,size=0x14) addr:0x0215c30c
_ZN19ActorProfileUnkNPWC10GetProfileEv kind:function(arm,size=0xc) addr:0x0215c320
_ZN19ActorProfileUnkNPWC6CreateEv kind:function(arm,size=0x24) addr:0x0215c32c
_ZN19ActorProfileUnkNPWCC1Ev kind:function(arm,size=0x28) addr:0x0215c350
_ZN12ActorUnkNPWCC1Ev kind:function(arm,size=0x3c) addr:0x0215c378
_ZN12ActorUnkNPWC19func_ov083_0215c3b4Ev kind:function(arm,size=0xa4) addr:0x0215c3b4
_ZN12ActorUnkNPWCD1Ev kind:function(arm,size=0x20) addr:0x0215c458
_ZN12ActorUnkNPWCD0Ev kind:function(arm,size=0x28) addr:0x0215c478
_ZN19ActorProfileUnkNPWCD1Ev kind:function(arm,size=0x14) addr:0x0215c4a0
_ZN19ActorProfileUnkEFR310GetProfileEv kind:function(arm,size=0xc) addr:0x0215c4b4
_ZN19ActorProfileUnkEFR36CreateEv kind:function(arm,size=0x24) addr:0x0215c4c0
_ZN19ActorProfileUnkEFR3C1Ev kind:function(arm,size=0x30) addr:0x0215c4e4
_ZN12ActorUnkEFR3C1Ev kind:function(arm,size=0x20) addr:0x0215c514
_ZN12ActorUnkEFR319func_ov083_0215c534Ev kind:function(arm,size=0x9c) addr:0x0215c534
_ZN12ActorUnkEFR319func_ov083_0215c5d0Ev kind:function(arm,size=0x1c) addr:0x0215c5d0
_ZN12ActorUnkEFR3D1Ev kind:function(arm,size=0x30) addr:0x0215c5ec
_ZN12ActorUnkEFR3D0Ev kind:function(arm,size=0x38) addr:0x0215c61c
_ZN19ActorProfileUnkEFR3D1Ev kind:function(arm,size=0x14) addr:0x0215c654
_ZN19ActorProfileUnkEFW310GetProfileEv kind:function(arm,size=0xc) addr:0x0215c668
_ZN19ActorProfileUnkEFW36CreateEv kind:function(arm,size=0x24) addr:0x0215c674
_ZN19ActorProfileUnkEFW3C1Ev kind:function(arm,size=0x30) addr:0x0215c698
_ZN12ActorUnkEFW3C1Ev kind:function(arm,size=0x20) addr:0x0215c6c8
_ZN12ActorUnkEFW319func_ov083_0215c6e8Ev kind:function(arm,size=0x9c) addr:0x0215c6e8
_ZN12ActorUnkEFW319func_ov083_0215c784Ev kind:function(arm,size=0x1c) addr:0x0215c784
_ZN12ActorUnkEFW3D1Ev kind:function(arm,size=0x30) addr:0x0215c7a0
_ZN12ActorUnkEFW3D0Ev kind:function(arm,size=0x38) addr:0x0215c7d0
_ZN19ActorProfileUnkEFW3D1Ev kind:function(arm,size=0x14) addr:0x0215c808
_ZN23MapObjectProfileUnkSHWB10GetProfileEv kind:function(arm,size=0xc) addr:0x0215c81c
_ZN23MapObjectProfileUnkSHWB6CreateEv kind:function(arm,size=0x24) addr:0x0215c828
_ZN23MapObjectProfileUnkSHWBC1Ev kind:function(arm,size=0x48) addr:0x0215c84c
_ZN16MapObjectUnkSHWBC1Ev kind:function(arm,size=0x34) addr:0x0215c894
_ZN16MapObjectUnkSHWB19func_ov083_0215c8c8Ev kind:function(arm,size=0x1a0) addr:0x0215c8c8
_ZN16MapObjectUnkSHWB19func_ov083_0215ca68Ev kind:function(arm,size=0xc) addr:0x0215ca68
_ZN16MapObjectUnkSHWB19func_ov083_0215ca74Ev kind:function(arm,size=0xc) addr:0x0215ca74
_ZN16MapObjectUnkSHWB19func_ov083_0215ca80Ev kind:function(arm,size=0x88) addr:0x0215ca80
_ZN16MapObjectUnkSHWB19func_ov083_0215cb08Ev kind:function(arm,size=0x18) addr:0x0215cb08
_ZN16MapObjectUnkSHWB19func_ov083_0215cb20Ev kind:function(arm,size=0x14) addr:0x0215cb20
_ZN16MapObjectUnkSHWB19func_ov083_0215cb34Ev kind:function(arm,size=0xd0) addr:0x0215cb34
_ZN16MapObjectUnkSHWB19func_ov083_0215cc04Ev kind:function(arm,size=0xc) addr:0x0215cc04
_ZN16MapObjectUnkSHWBD1Ev kind:function(arm,size=0x30) addr:0x0215cc10
_ZN16MapObjectUnkSHWBD0Ev kind:function(arm,size=0x38) addr:0x0215cc40
_ZN23MapObjectProfileUnkSHWBD1Ev kind:function(arm,size=0x14) addr:0x0215cc78
func_ov083_0215cc8c kind:function(arm,size=0x10) addr:0x0215cc8c
func_ov083_0215cc9c kind:function(arm,size=0x304) addr:0x0215cc9c
func_ov083_0215cfa0 kind:function(arm,size=0x114) addr:0x0215cfa0
func_ov083_0215d0b4 kind:function(arm,size=0x10) addr:0x0215d0b4
func_ov083_0215d0c4 kind:function(arm,size=0x10) addr:0x0215d0c4
func_ov083_0215d0d4 kind:function(arm,size=0x10) addr:0x0215d0d4
func_ov083_0215d0e4 kind:function(arm,size=0x28) addr:0x0215d0e4
func_ov083_0215d10c kind:function(arm,size=0x24) addr:0x0215d10c
func_ov083_0215d130 kind:function(arm,size=0x24) addr:0x0215d130
data_ov083_0215d170 kind:data(any) addr:0x0215d170
data_ov083_0215d172 kind:data(any) addr:0x0215d172
data_ov083_0215d178 kind:data(any) addr:0x0215d178
data_ov083_0215d180 kind:data(any) addr:0x0215d180
data_ov083_0215d188 kind:data(any) addr:0x0215d188
data_ov083_0215d18a kind:data(any) addr:0x0215d18a
data_ov083_0215d190 kind:data(any) addr:0x0215d190
data_ov083_0215d1a0 kind:data(any) addr:0x0215d1a0
data_ov083_0215d1a4 kind:data(any) addr:0x0215d1a4
data_ov083_0215d1a8 kind:data(any) addr:0x0215d1a8
data_ov083_0215d1b8 kind:data(any) addr:0x0215d1b8
data_ov083_0215d1e8 kind:data(any) addr:0x0215d1e8
data_ov083_0215d218 kind:data(any) addr:0x0215d218
data_ov083_0215d21c kind:data(any) addr:0x0215d21c
data_ov083_0215d220 kind:data(any) addr:0x0215d220
data_ov083_0215d240 kind:data(any) addr:0x0215d240
data_ov083_0215d260 kind:data(any) addr:0x0215d260
data_ov083_0215d2b4 kind:data(any) addr:0x0215d2b4
data_ov083_0215d2d4 kind:data(any) addr:0x0215d2d4
data_ov083_0215d2f4 kind:data(any) addr:0x0215d2f4
data_ov083_0215d304 kind:data(any) addr:0x0215d304
data_ov083_0215d314 kind:data(any) addr:0x0215d314
data_ov083_0215d334 kind:data(any) addr:0x0215d334
__sinit_ActorUnkWTBS.cpp kind:function(arm,size=0x114) addr:0x0215d354
__sinit_ActorUnkWBPS.cpp kind:function(arm,size=0x90) addr:0x0215d468
__sinit_ActorUnkWBEF.cpp kind:function(arm,size=0x50) addr:0x0215d4f8
__sinit_ActorUnkRBWT.cpp kind:function(arm,size=0x50) addr:0x0215d548
__sinit_ActorUnkRBWS.cpp kind:function(arm,size=0x50) addr:0x0215d598
__sinit_ActorUnkNPWC.cpp kind:function(arm,size=0x50) addr:0x0215d5e8
__sinit_ActorUnkEFR3.cpp kind:function(arm,size=0x50) addr:0x0215d638
__sinit_ActorUnkEFW3.cpp kind:function(arm,size=0x50) addr:0x0215d688
__sinit_MapObjectUnkSHWB.cpp kind:function(arm,size=0xc4) addr:0x0215d6d8
.p__sinit_ActorUnkWTBS.cpp kind:data(word) addr:0x0215d79c
.p__sinit_ActorUnkWBPS.cpp kind:data(word) addr:0x0215d7a0
.p__sinit_ActorUnkWBEF.cpp kind:data(word) addr:0x0215d7a4
.p__sinit_ActorUnkRBWT.cpp kind:data(word) addr:0x0215d7a8
.p__sinit_ActorUnkRBWS.cpp kind:data(word) addr:0x0215d7ac
.p__sinit_ActorUnkNPWC.cpp kind:data(word) addr:0x0215d7b0
.p__sinit_ActorUnkEFR3.cpp kind:data(word) addr:0x0215d7b4
.p__sinit_ActorUnkEFW3.cpp kind:data(word) addr:0x0215d7b8
.p__sinit_MapObjectUnkSHWB.cpp kind:data(word) addr:0x0215d7bc
data_ov083_0215d7e0 kind:data(any) addr:0x0215d7e0
data_ov083_0215d7f4 kind:data(any) addr:0x0215d7f4
data_ov083_0215d800 kind:data(any) addr:0x0215d800
_ZTV19data_ov083_0215d808 kind:data(any) addr:0x0215d808
data_ov083_0215d834 kind:data(any) addr:0x0215d834
_ZTV19data_ov083_0215d878 kind:data(any) addr:0x0215d878
_ZTV19data_ov083_0215d880 kind:data(any) addr:0x0215d880 ambiguous
data_ov083_0215d8d8 kind:data(any) addr:0x0215d8d8
data_ov083_0215d8f0 kind:data(any) addr:0x0215d8f0
data_ov083_0215d908 kind:data(any) addr:0x0215d908
data_ov083_0215d998 kind:data(any) addr:0x0215d998
data_ov083_0215d9dc kind:data(any) addr:0x0215d9dc ambiguous
data_ov083_0215d9e0 kind:data(any) addr:0x0215d9e0
data_ov083_0215da58 kind:data(any) addr:0x0215da58
data_ov083_0215da70 kind:data(any) addr:0x0215da70
data_ov083_0215da78 kind:data(any) addr:0x0215da78 ambiguous
data_ov083_0215da88 kind:data(any) addr:0x0215da88
data_ov083_0215da98 kind:data(any) addr:0x0215da98
data_ov083_0215db78 kind:data(any) addr:0x0215db78 ambiguous
data_ov083_0215dc68 kind:data(any) addr:0x0215dc68
data_ov083_0215dc78 kind:data(any) addr:0x0215dc78
data_ov083_0215dc8c kind:data(any) addr:0x0215dc8c
data_ov083_0215dca0 kind:data(any) addr:0x0215dca0
data_ov083_0215dca4 kind:data(any) addr:0x0215dca4 ambiguous
data_ov083_0215dcb8 kind:data(any) addr:0x0215dcb8
data_ov083_0215dccc kind:data(any) addr:0x0215dccc
data_ov083_0215dce0 kind:data(any) addr:0x0215dce0
data_ov083_0215dcf4 kind:data(any) addr:0x0215dcf4
data_ov083_0215dd04 kind:data(any) addr:0x0215dd04
_ZTV19data_ov083_0215dd14 kind:data(any) addr:0x0215dd14
data_ov083_0215dd38 kind:data(any) addr:0x0215dd38
data_ov083_0215dd48 kind:data(any) addr:0x0215dd48
_ZTV19data_ov083_0215dd80 kind:data(any) addr:0x0215dd80
data_ov083_0215dde4 kind:data(any) addr:0x0215dde4
data_ov083_0215dde8 kind:data(any) addr:0x0215dde8
_ZTV19data_ov083_0215de08 kind:data(any) addr:0x0215de08
_ZTV19data_ov083_0215de2c kind:data(any) addr:0x0215de2c
data_ov083_0215de88 kind:data(any) addr:0x0215de88
data_ov083_0215de90 kind:data(any) addr:0x0215de90
_ZTV19data_ov083_0215de98 kind:data(any) addr:0x0215de98
data_ov083_0215dec4 kind:data(any) addr:0x0215dec4
data_ov083_0215dee0 kind:data(any) addr:0x0215dee0
data_ov083_0215def8 kind:data(any) addr:0x0215def8
data_ov083_0215df10 kind:data(any) addr:0x0215df10
data_ov083_0215df24 kind:data(any) addr:0x0215df24 ambiguous
data_ov083_0215df30 kind:data(any) addr:0x0215df30
data_ov083_0215df38 kind:data(any) addr:0x0215df38 ambiguous
data_ov083_0215df6c kind:data(any) addr:0x0215df6c ambiguous
_ZTV19data_ov083_0215df70 kind:data(any) addr:0x0215df70
_ZTV19data_ov083_0215dfd0 kind:data(any) addr:0x0215dfd0
_ZTV19data_ov083_0215dff4 kind:data(any) addr:0x0215dff4
_ZTV19data_ov083_0215e050 kind:data(any) addr:0x0215e050
data_ov083_0215e07c kind:data(any) addr:0x0215e07c
data_ov083_0215e08c kind:data(any) addr:0x0215e08c ambiguous
_ZTV19data_ov083_0215e09c kind:data(any) addr:0x0215e09c
_ZTV19data_ov083_0215e0f8 kind:data(any) addr:0x0215e0f8
data_ov083_0215e110 kind:data(any) addr:0x0215e110 ambiguous
data_ov083_0215e11c kind:data(any) addr:0x0215e11c
data_ov083_0215e134 kind:data(any) addr:0x0215e134
_ZTV19data_ov083_0215e14c kind:data(any) addr:0x0215e14c
_ZTV19data_ov083_0215e1ac kind:data(any) addr:0x0215e1ac
data_ov083_0215e1d0 kind:data(any) addr:0x0215e1d0
data_ov083_0215e1e8 kind:data(any) addr:0x0215e1e8
_ZTV19data_ov083_0215e200 kind:data(any) addr:0x0215e200
data_ov083_0215e260 kind:data(any) addr:0x0215e260
data_ov083_0215e26c kind:data(any) addr:0x0215e26c
data_ov083_0215e278 kind:data(any) addr:0x0215e278
data_ov083_0215e284 kind:data(any) addr:0x0215e284
data_ov083_0215e290 kind:data(any) addr:0x0215e290
data_ov083_0215e29c kind:data(any) addr:0x0215e29c
data_ov083_0215e2b0 kind:data(any) addr:0x0215e2b0
data_ov083_0215e2cc kind:data(any) addr:0x0215e2cc
data_ov083_0215e33c kind:data(any) addr:0x0215e33c
data_ov083_0215e360 kind:bss addr:0x0215e360
_ZGVN15ProfileInstanceI19ActorProfileUnkWTBSE8sProfileE kind:bss addr:0x0215e364
@13673 kind:bss addr:0x0215e36c
_ZN15ProfileInstanceI19ActorProfileUnkWTBSE8sProfileE kind:bss addr:0x0215e378
data_ov083_0215e450 kind:bss addr:0x0215e450
_ZGVN15ProfileInstanceI19ActorProfileUnkWBPSE8sProfileE kind:bss addr:0x0215e454
@13679 kind:bss addr:0x0215e460
_ZN15ProfileInstanceI19ActorProfileUnkWBPSE8sProfileE kind:bss addr:0x0215e46c
data_ov083_0215e518 kind:bss addr:0x0215e518 ambiguous
_ZGVN15ProfileInstanceI19ActorProfileUnkWBEFE8sProfileE kind:bss addr:0x0215e544
@13685 kind:bss addr:0x0215e548
_ZN15ProfileInstanceI19ActorProfileUnkWBEFE8sProfileE kind:bss addr:0x0215e554
data_ov083_0215e608 kind:bss addr:0x0215e608 ambiguous
_ZGVN15ProfileInstanceI19ActorProfileUnkRBWTE8sProfileE kind:bss addr:0x0215e62c
@13691 kind:bss addr:0x0215e630
_ZN15ProfileInstanceI19ActorProfileUnkRBWTE8sProfileE kind:bss addr:0x0215e63c
data_ov083_0215e658 kind:bss addr:0x0215e658 ambiguous
data_ov083_0215e688 kind:bss addr:0x0215e688 ambiguous
data_ov083_0215e714 kind:bss addr:0x0215e714
data_ov083_0215e728 kind:bss addr:0x0215e728
_ZGVN15ProfileInstanceI19ActorProfileUnkRBWSE8sProfileE kind:bss addr:0x0215e72c
@13697 kind:bss addr:0x0215e730 ambiguous
_ZN15ProfileInstanceI19ActorProfileUnkRBWSE8sProfileE kind:bss addr:0x0215e738
data_ov083_0215e740 kind:bss addr:0x0215e740 ambiguous
_ZGVN15ProfileInstanceI19ActorProfileUnkNPWCE8sProfileE kind:bss addr:0x0215e810
@13703 kind:bss addr:0x0215e814
_ZN15ProfileInstanceI19ActorProfileUnkNPWCE8sProfileE kind:bss addr:0x0215e820
_ZGVN15ProfileInstanceI19ActorProfileUnkEFR3E8sProfileE kind:bss addr:0x0215e85c
@13709 kind:bss addr:0x0215e860
_ZN15ProfileInstanceI19ActorProfileUnkEFR3E8sProfileE kind:bss addr:0x0215e86c
data_ov083_0215e90c kind:bss addr:0x0215e90c ambiguous
_ZGVN15ProfileInstanceI19ActorProfileUnkEFW3E8sProfileE kind:bss addr:0x0215e944
@13715 kind:bss addr:0x0215e948
_ZN15ProfileInstanceI19ActorProfileUnkEFW3E8sProfileE kind:bss addr:0x0215e954
data_ov083_0215e974 kind:bss addr:0x0215e974 ambiguous
data_ov083_0215ea0c kind:bss addr:0x0215ea0c ambiguous
data_ov083_0215ea2c kind:bss addr:0x0215ea2c
data_ov083_0215ea30 kind:bss addr:0x0215ea30
_ZN15ProfileInstanceI23MapObjectProfileUnkSHWBE8sProfileE kind:bss addr:0x0215ea3c
