func_ov094_02167b00 kind:function(arm,size=0x98) addr:0x02167b00
_ZN19func_ov094_02167b98D1Ev kind:function(arm,size=0x28) addr:0x02167b98
_ZN19func_ov094_02167bc0D0Ev kind:function(arm,size=0x30) addr:0x02167bc0
func_ov094_02167bf0 kind:function(arm,size=0x170) addr:0x02167bf0
func_ov094_02167d60 kind:function(arm,size=0x98) addr:0x02167d60
func_ov094_02167df8 kind:function(arm,size=0x18) addr:0x02167df8
func_ov094_02167e10 kind:function(arm,size=0x20) addr:0x02167e10
func_ov094_02167e30 kind:function(arm,size=0x8) addr:0x02167e30
func_ov094_02167e38 kind:function(arm,size=0x2c) addr:0x02167e38
func_ov094_02167e64 kind:function(arm,size=0x3c) addr:0x02167e64
func_ov094_02167ea0 kind:function(arm,size=0x34) addr:0x02167ea0
func_ov094_02167ed4 kind:function(arm,size=0xe0) addr:0x02167ed4
func_ov094_02167fb4 kind:function(arm,size=0x74) addr:0x02167fb4
func_ov094_02168028 kind:function(arm,size=0x20) addr:0x02168028
func_ov094_02168048 kind:function(arm,size=0x240) addr:0x02168048
func_ov094_02168288 kind:function(arm,size=0x8) addr:0x02168288
func_ov094_02168290 kind:function(arm,size=0x8) addr:0x02168290
_ZN19ActorProfileUnkLOCK10GetProfileEv kind:function(arm,size=0xc) addr:0x02168298
_ZN19ActorProfileUnkLOCK6CreateEv kind:function(arm,size=0x24) addr:0x021682a4
_ZN19ActorProfileUnkLOCKC1Ev kind:function(arm,size=0x40) addr:0x021682c8
_ZN12ActorUnkLOCKC1Ev kind:function(arm,size=0x80) addr:0x02168308
_ZN12ActorUnkLOCK19func_ov094_02168388Ev kind:function(arm,size=0x14) addr:0x02168388
_ZN12ActorUnkLOCK19func_ov094_0216839cEv kind:function(arm,size=0x8) addr:0x0216839c
_ZN12ActorUnkLOCK19func_ov094_021683a4Ev kind:function(arm,size=0xc) addr:0x021683a4
_ZN12ActorUnkLOCK19func_ov094_021683b0Ev kind:function(arm,size=0x4) addr:0x021683b0
_ZN12ActorUnkLOCK19func_ov094_021683b4Ev kind:function(arm,size=0x130) addr:0x021683b4
_ZN12ActorUnkLOCKD1Ev kind:function(arm,size=0x14) addr:0x021684e4
_ZN12ActorUnkLOCKD0Ev kind:function(arm,size=0x1c) addr:0x021684f8
_ZN19ActorProfileUnkLOCKD1Ev kind:function(arm,size=0x14) addr:0x02168514
_ZN19ActorProfileUnkPSWB10GetProfileEv kind:function(arm,size=0xc) addr:0x02168528
_ZN19ActorProfileUnkPSWB6CreateEv kind:function(arm,size=0x24) addr:0x02168534
_ZN19ActorProfileUnkPSWBC1Ev kind:function(arm,size=0x12c) addr:0x02168558
_ZN12ActorUnkPSWBD1Ev kind:function(arm,size=0x14) addr:0x02168684
_ZN12ActorUnkPSWBD0Ev kind:function(arm,size=0x1c) addr:0x02168698
_ZN12ActorUnkPSWB19func_ov094_021686b4Ev kind:function(arm,size=0x128) addr:0x021686b4
_ZN12ActorUnkPSWBC1Ev kind:function(arm,size=0x104) addr:0x021687dc
_ZN12ActorUnkPSWB19func_ov094_021688e0Ev kind:function(arm,size=0x14) addr:0x021688e0
_ZN12ActorUnkPSWB19func_ov094_021688f4Ev kind:function(arm,size=0x58) addr:0x021688f4
_ZN12ActorUnkPSWB19func_ov094_0216894cEv kind:function(arm,size=0x60) addr:0x0216894c
_ZN12ActorUnkPSWB19func_ov094_021689acEv kind:function(arm,size=0x144) addr:0x021689ac
_ZN12ActorUnkPSWB19func_ov094_02168af0Ev kind:function(arm,size=0x3c) addr:0x02168af0
_ZN12ActorUnkPSWB19func_ov094_02168b2cEv kind:function(arm,size=0x14) addr:0x02168b2c
_ZN12ActorUnkPSWB19func_ov094_02168b40Ev kind:function(arm,size=0x44) addr:0x02168b40
_ZN12ActorUnkPSWB19func_ov094_02168b84Ev kind:function(arm,size=0x290) addr:0x02168b84
_ZN12ActorUnkPSWB19func_ov094_02168e14Ev kind:function(arm,size=0x18) addr:0x02168e14
_ZN12ActorUnkPSWB19func_ov094_02168e2cEv kind:function(arm,size=0x44) addr:0x02168e2c
_ZN12ActorUnkPSWB19func_ov094_02168e70Ev kind:function(arm,size=0x1c) addr:0x02168e70
_ZN12ActorUnkPSWB19func_ov094_02168e8cEv kind:function(arm,size=0x5c) addr:0x02168e8c
_ZN12ActorUnkPSWB19func_ov094_02168ee8Ev kind:function(arm,size=0x188) addr:0x02168ee8
_ZN12ActorUnkPSWB19func_ov094_02169070Ev kind:function(arm,size=0x50) addr:0x02169070
_ZN12ActorUnkPSWB19func_ov094_021690c0Ev kind:function(arm,size=0x134) addr:0x021690c0
_ZN12ActorUnkPSWB19func_ov094_021691f4Ev kind:function(arm,size=0x90) addr:0x021691f4
_ZN12ActorUnkPSWB19func_ov094_02169284Ev kind:function(arm,size=0x200) addr:0x02169284
_ZN12ActorUnkPSWB19func_ov094_02169484Ev kind:function(arm,size=0x18) addr:0x02169484
_ZN12ActorUnkPSWB19func_ov094_0216949cEv kind:function(arm,size=0x2dc) addr:0x0216949c
_ZN12ActorUnkPSWB19func_ov094_02169778Ev kind:function(arm,size=0x94) addr:0x02169778
_ZN12ActorUnkPSWB19func_ov094_0216980cEv kind:function(arm,size=0x68) addr:0x0216980c
_ZN12ActorUnkPSWB19func_ov094_02169874Ev kind:function(arm,size=0x74) addr:0x02169874
_ZN12ActorUnkPSWB19func_ov094_021698e8Ev kind:function(arm,size=0x68) addr:0x021698e8
_ZN12ActorUnkPSWB19func_ov094_02169950Ev kind:function(arm,size=0x4) addr:0x02169950
_ZN12ActorUnkPSWB19func_ov094_02169954Ev kind:function(arm,size=0xa0) addr:0x02169954
_ZN12ActorUnkPSWB19func_ov094_021699f4Ev kind:function(arm,size=0x88) addr:0x021699f4
_ZN12ActorUnkPSWB19func_ov094_02169a7cEv kind:function(arm,size=0x20) addr:0x02169a7c
_ZN12ActorUnkPSWB19func_ov094_02169a9cEv kind:function(arm,size=0x8) addr:0x02169a9c
_ZN12ActorUnkPSWB19func_ov094_02169aa4Ev kind:function(arm,size=0x8) addr:0x02169aa4
_ZN12ActorUnkPSWB19func_ov094_02169aacEv kind:function(arm,size=0x260) addr:0x02169aac
_ZN12ActorUnkPSWB19func_ov094_02169d0cEv kind:function(arm,size=0xc) addr:0x02169d0c
_ZN12ActorUnkPSWB19func_ov094_02169d18Ev kind:function(arm,size=0x6c) addr:0x02169d18
_ZN12ActorUnkPSWB19func_ov094_02169d84Ev kind:function(arm,size=0x40) addr:0x02169d84
_ZN12ActorUnkPSWB19func_ov094_02169dc4Ev kind:function(arm,size=0x8c) addr:0x02169dc4
_ZN12ActorUnkPSWB19func_ov094_02169e50Ev kind:function(arm,size=0x64) addr:0x02169e50
_ZN12ActorUnkPSWB19func_ov094_02169eb4Ev kind:function(arm,size=0xcc) addr:0x02169eb4
_ZN12ActorUnkPSWB19func_ov094_02169f80Ev kind:function(arm,size=0x9c) addr:0x02169f80
_ZN12ActorUnkPSWB19func_ov094_0216a01cEv kind:function(arm,size=0x9c) addr:0x0216a01c
_ZN12ActorUnkPSWB19func_ov094_0216a0b8Ev kind:function(arm,size=0x364) addr:0x0216a0b8
_ZN12ActorUnkPSWB19func_ov094_0216a41cEv kind:function(arm,size=0xa0) addr:0x0216a41c
_ZN12ActorUnkPSWB19func_ov094_0216a4bcEv kind:function(arm,size=0xb4) addr:0x0216a4bc
_ZN12ActorUnkPSWB19func_ov094_0216a570Ev kind:function(arm,size=0x38) addr:0x0216a570
_ZN12ActorUnkPSWB19func_ov094_0216a5a8Ev kind:function(arm,size=0x1c) addr:0x0216a5a8
_ZN12ActorUnkPSWB19func_ov094_0216a5c4Ev kind:function(arm,size=0x24) addr:0x0216a5c4
_ZN12ActorUnkPSWB19func_ov094_0216a5e8Ev kind:function(arm,size=0x3c) addr:0x0216a5e8
_ZN19ActorProfileUnkPSWBD1Ev kind:function(arm,size=0x14) addr:0x0216a624
_ZN19ActorProfileUnkVRGN10GetProfileEv kind:function(arm,size=0xc) addr:0x0216a638
_ZN19ActorProfileUnkVRGN6CreateEv kind:function(arm,size=0x24) addr:0x0216a644
_ZN19ActorProfileUnkVRGNC1Ev kind:function(arm,size=0x34) addr:0x0216a668
_ZN12ActorUnkVRGNC1Ev kind:function(arm,size=0x2c) addr:0x0216a69c
_ZN12ActorUnkVRGN19func_ov094_0216a6c8Ev kind:function(arm,size=0x34) addr:0x0216a6c8
_ZN12ActorUnkVRGN19func_ov094_0216a6fcEv kind:function(arm,size=0xec) addr:0x0216a6fc
_ZN12ActorUnkVRGN19func_ov094_0216a7e8Ev kind:function(arm,size=0x34) addr:0x0216a7e8
_ZN12ActorUnkVRGN19func_ov094_0216a81cEv kind:function(arm,size=0x68) addr:0x0216a81c
_ZN12ActorUnkVRGN19func_ov094_0216a884Ev kind:function(arm,size=0x358) addr:0x0216a884
_ZN12ActorUnkVRGND1Ev kind:function(arm,size=0x14) addr:0x0216abdc
_ZN12ActorUnkVRGND0Ev kind:function(arm,size=0x1c) addr:0x0216abf0
_ZN19ActorProfileUnkVRGND1Ev kind:function(arm,size=0x14) addr:0x0216ac0c
_ZN19ActorProfileUnkVLCR10GetProfileEv kind:function(arm,size=0xc) addr:0x0216ac20
_ZN19ActorProfileUnkVLCR6CreateEv kind:function(arm,size=0x24) addr:0x0216ac2c
_ZN19ActorProfileUnkVLCRC1Ev kind:function(arm,size=0x40) addr:0x0216ac50
_ZN12ActorUnkVLCRC1Ev kind:function(arm,size=0x180) addr:0x0216ac90
_ZN12ActorUnkVLCR19func_ov094_0216ae10Ev kind:function(arm,size=0x1b4) addr:0x0216ae10
_ZN12ActorUnkVLCR19func_ov094_0216afc4Ev kind:function(arm,size=0x10) addr:0x0216afc4
_ZN12ActorUnkVLCR19func_ov094_0216afd4Ev kind:function(arm,size=0x3c) addr:0x0216afd4
_ZN12ActorUnkVLCR19func_ov094_0216b010Ev kind:function(arm,size=0xb0) addr:0x0216b010
_ZN12ActorUnkVLCR19func_ov094_0216b0c0Ev kind:function(arm,size=0x204) addr:0x0216b0c0
_ZN12ActorUnkVLCR19func_ov094_0216b2c4Ev kind:function(arm,size=0x128) addr:0x0216b2c4
_ZN12ActorUnkVLCR19func_ov094_0216b3ecEv kind:function(arm,size=0x4c) addr:0x0216b3ec
_ZN12ActorUnkVLCR19func_ov094_0216b438Ev kind:function(arm,size=0x16c) addr:0x0216b438
_ZN12ActorUnkVLCR19func_ov094_0216b5a4Ev kind:function(arm,size=0x40) addr:0x0216b5a4
_ZN12ActorUnkVLCR19func_ov094_0216b5e4Ev kind:function(arm,size=0x38) addr:0x0216b5e4
_ZN12ActorUnkVLCR19func_ov094_0216b61cEv kind:function(arm,size=0xc) addr:0x0216b61c
_ZN12ActorUnkVLCR19func_ov094_0216b628Ev kind:function(arm,size=0x18) addr:0x0216b628
_ZN12ActorUnkVLCR19func_ov094_0216b640Ev kind:function(arm,size=0xcc) addr:0x0216b640
_ZN12ActorUnkVLCR19func_ov094_0216b70cEv kind:function(arm,size=0xc) addr:0x0216b70c
_ZN12ActorUnkVLCRD1Ev kind:function(arm,size=0x40) addr:0x0216b718
_ZN12ActorUnkVLCRD0Ev kind:function(arm,size=0x48) addr:0x0216b758
_ZN19ActorProfileUnkVLCRD1Ev kind:function(arm,size=0x14) addr:0x0216b7a0
_ZN19ActorProfileUnkSYRN10GetProfileEv kind:function(arm,size=0xc) addr:0x0216b7b4
_ZN19ActorProfileUnkSYRN6CreateEv kind:function(arm,size=0x28) addr:0x0216b7c0
_ZN19ActorProfileUnkSYRNC1Ev kind:function(arm,size=0x78) addr:0x0216b7e8
_ZN12ActorUnkSYRNC1Ev kind:function(arm,size=0x26c) addr:0x0216b860
_ZN12ActorUnkSYRN19func_ov094_0216baccEv kind:function(arm,size=0x14) addr:0x0216bacc
_ZN12ActorUnkSYRN19func_ov094_0216bae0Ev kind:function(arm,size=0x14) addr:0x0216bae0
_ZN12ActorUnkSYRND1Ev kind:function(arm,size=0x64) addr:0x0216baf4
_ZN12ActorUnkSYRND0Ev kind:function(arm,size=0x6c) addr:0x0216bb58
_ZN12ActorUnkSYRN19func_ov094_0216bbc4Ev kind:function(arm,size=0xa0) addr:0x0216bbc4
_ZN12ActorUnkSYRN19func_ov094_0216bc64Ev kind:function(arm,size=0x138) addr:0x0216bc64
_ZN12ActorUnkSYRN19func_ov094_0216bd9cEv kind:function(arm,size=0x100) addr:0x0216bd9c
_ZN12ActorUnkSYRN19func_ov094_0216be9cEv kind:function(arm,size=0x8) addr:0x0216be9c
_ZN12ActorUnkSYRN19func_ov094_0216bea4Ev kind:function(arm,size=0x18) addr:0x0216bea4
_ZN12ActorUnkSYRN19func_ov094_0216bebcEv kind:function(arm,size=0xb8) addr:0x0216bebc
_ZN12ActorUnkSYRN19func_ov094_0216bf74Ev kind:function(arm,size=0xd4) addr:0x0216bf74
_ZN12ActorUnkSYRN19func_ov094_0216c048Ev kind:function(arm,size=0xe4) addr:0x0216c048
_ZN12ActorUnkSYRN19func_ov094_0216c12cEv kind:function(arm,size=0xa0) addr:0x0216c12c
_ZN12ActorUnkSYRN19func_ov094_0216c1ccEv kind:function(arm,size=0xa8) addr:0x0216c1cc
_ZN12ActorUnkSYRN19func_ov094_0216c274Ev kind:function(arm,size=0x24) addr:0x0216c274
_ZN12ActorUnkSYRN19func_ov094_0216c298Ev kind:function(arm,size=0x10) addr:0x0216c298
_ZN12ActorUnkSYRN19func_ov094_0216c2a8Ev kind:function(arm,size=0x1c) addr:0x0216c2a8
_ZN12ActorUnkSYRN19func_ov094_0216c2c4Ev kind:function(arm,size=0x24) addr:0x0216c2c4
_ZN12ActorUnkSYRN19func_ov094_0216c2e8Ev kind:function(arm,size=0x2c) addr:0x0216c2e8
_ZN12ActorUnkSYRN19func_ov094_0216c314Ev kind:function(arm,size=0x1c) addr:0x0216c314
_ZN12ActorUnkSYRN19func_ov094_0216c330Ev kind:function(arm,size=0x28) addr:0x0216c330
_ZN12ActorUnkSYRND2Ev kind:function(arm,size=0x20) addr:0x0216c358
_ZN19ActorProfileUnkSYRND1Ev kind:function(arm,size=0x14) addr:0x0216c378
func_ov094_0216c38c kind:function(arm,size=0x38) addr:0x0216c38c
func_ov094_0216c3c4 kind:function(arm,size=0x1d4) addr:0x0216c3c4
_ZN19ActorProfileUnkSTTG10GetProfileEv kind:function(arm,size=0xc) addr:0x0216c598
_ZN19ActorProfileUnkSTTG6CreateEv kind:function(arm,size=0x24) addr:0x0216c5a4
_ZN19ActorProfileUnkSTTGC1Ev kind:function(arm,size=0x4c) addr:0x0216c5c8
_ZN12ActorUnkSTTGC1Ev kind:function(arm,size=0x104) addr:0x0216c614
_ZN12ActorUnkSTTG19func_ov094_0216c718Ev kind:function(arm,size=0x14) addr:0x0216c718
_ZN12ActorUnkSTTGD1Ev kind:function(arm,size=0x20) addr:0x0216c72c
_ZN12ActorUnkSTTGD0Ev kind:function(arm,size=0x28) addr:0x0216c74c
_ZN12ActorUnkSTTG19func_ov094_0216c774Ev kind:function(arm,size=0xd8) addr:0x0216c774
_ZN12ActorUnkSTTG19func_ov094_0216c84cEv kind:function(arm,size=0x2c) addr:0x0216c84c
_ZN12ActorUnkSTTG19func_ov094_0216c878Ev kind:function(arm,size=0x14c) addr:0x0216c878
_ZN12ActorUnkSTTG19func_ov094_0216c9c4Ev kind:function(arm,size=0x14) addr:0x0216c9c4
_ZN12ActorUnkSTTG19func_ov094_0216c9d8Ev kind:function(arm,size=0x8) addr:0x0216c9d8
_ZN12ActorUnkSTTG19func_ov094_0216c9e0Ev kind:function(arm,size=0x20) addr:0x0216c9e0
_ZN12ActorUnkSTTG19func_ov094_0216ca00Ev kind:function(arm,size=0xc4) addr:0x0216ca00
_ZN12ActorUnkSTTG19func_ov094_0216cac4Ev kind:function(arm,size=0x24) addr:0x0216cac4
_ZN12ActorUnkSTTG19func_ov094_0216cae8Ev kind:function(arm,size=0xb8) addr:0x0216cae8
_ZN12ActorUnkSTTG19func_ov094_0216cba0Ev kind:function(arm,size=0x150) addr:0x0216cba0
_ZN12ActorUnkSTTG19func_ov094_0216ccf0Ev kind:function(arm,size=0x6c) addr:0x0216ccf0
_ZN12ActorUnkSTTG19func_ov094_0216cd5cEv kind:function(arm,size=0x50) addr:0x0216cd5c
_ZN12ActorUnkSTTG19func_ov094_0216cdacEv kind:function(arm,size=0x274) addr:0x0216cdac
_ZN12ActorUnkSTTG19func_ov094_0216d020Ev kind:function(arm,size=0x118) addr:0x0216d020
_ZN12ActorUnkSTTG19func_ov094_0216d138Ev kind:function(arm,size=0x28) addr:0x0216d138
_ZN12ActorUnkSTTG19func_ov094_0216d160Ev kind:function(arm,size=0x268) addr:0x0216d160
_ZN12ActorUnkSTTG19func_ov094_0216d3c8Ev kind:function(arm,size=0x38) addr:0x0216d3c8
_ZN12ActorUnkSTTG19func_ov094_0216d400Ev kind:function(arm,size=0x1c) addr:0x0216d400
_ZN12ActorUnkSTTG19func_ov094_0216d41cEv kind:function(arm,size=0x1c) addr:0x0216d41c
_ZN19ActorProfileUnkSTTGD1Ev kind:function(arm,size=0x14) addr:0x0216d438
func_ov094_0216d44c kind:function(arm,size=0xb0) addr:0x0216d44c
_ZN19ActorProfileUnkPCTG10GetProfileEv kind:function(arm,size=0xc) addr:0x0216d4fc
_ZN19ActorProfileUnkPCTG6CreateEv kind:function(arm,size=0x24) addr:0x0216d508
_ZN19ActorProfileUnkPCTGC1Ev kind:function(arm,size=0xd0) addr:0x0216d52c
_ZN12ActorUnkPCTGC1Ev kind:function(arm,size=0xb8) addr:0x0216d5fc
_ZN12ActorUnkPCTGD1Ev kind:function(arm,size=0x20) addr:0x0216d6b4
_ZN12ActorUnkPCTGD0Ev kind:function(arm,size=0x28) addr:0x0216d6d4
_ZN12ActorUnkPCTG19func_ov094_0216d6fcEv kind:function(arm,size=0x218) addr:0x0216d6fc
_ZN12ActorUnkPCTG19func_ov094_0216d914Ev kind:function(arm,size=0x40) addr:0x0216d914
_ZN12ActorUnkPCTG19func_ov094_0216d954Ev kind:function(arm,size=0x38) addr:0x0216d954
_ZN12ActorUnkPCTG19func_ov094_0216d98cEv kind:function(arm,size=0x4) addr:0x0216d98c
_ZN12ActorUnkPCTG19func_ov094_0216d990Ev kind:function(arm,size=0x140) addr:0x0216d990
_ZN12ActorUnkPCTG19func_ov094_0216dad0Ev kind:function(arm,size=0x38) addr:0x0216dad0
_ZN12ActorUnkPCTG19func_ov094_0216db08Ev kind:function(arm,size=0x5a8) addr:0x0216db08
_ZN12ActorUnkPCTG19func_ov094_0216e0b0Ev kind:function(arm,size=0x120) addr:0x0216e0b0
_ZN12ActorUnkPCTG19func_ov094_0216e1d0Ev kind:function(arm,size=0x4c) addr:0x0216e1d0
_ZN12ActorUnkPCTG19func_ov094_0216e21cEv kind:function(arm,size=0x224) addr:0x0216e21c
_ZN12ActorUnkPCTG19func_ov094_0216e440Ev kind:function(arm,size=0x184) addr:0x0216e440
_ZN12ActorUnkPCTG19func_ov094_0216e5c4Ev kind:function(arm,size=0x20) addr:0x0216e5c4
_ZN12ActorUnkPCTG19func_ov094_0216e5e4Ev kind:function(arm,size=0x2c) addr:0x0216e5e4
_ZN19ActorProfileUnkPCTGD1Ev kind:function(arm,size=0x14) addr:0x0216e610
func_ov094_0216e624 kind:function(arm,size=0x38) addr:0x0216e624
func_ov094_0216e65c kind:function(arm,size=0x248) addr:0x0216e65c
_ZN19ActorProfileUnkSPTG10GetProfileEv kind:function(arm,size=0xc) addr:0x0216e8a4
_ZN19ActorProfileUnkSPTG6CreateEv kind:function(arm,size=0x24) addr:0x0216e8b0
_ZN19ActorProfileUnkSPTGC1Ev kind:function(arm,size=0x50) addr:0x0216e8d4
_ZN12ActorUnkSPTGC1Ev kind:function(arm,size=0x120) addr:0x0216e924
_ZN12ActorUnkSPTG19func_ov094_0216ea44Ev kind:function(arm,size=0x14) addr:0x0216ea44
_ZN12ActorUnkSPTGD1Ev kind:function(arm,size=0x20) addr:0x0216ea58
_ZN12ActorUnkSPTGD0Ev kind:function(arm,size=0x28) addr:0x0216ea78
_ZN12ActorUnkSPTG19func_ov094_0216eaa0Ev kind:function(arm,size=0xd8) addr:0x0216eaa0
_ZN12ActorUnkSPTG19func_ov094_0216eb78Ev kind:function(arm,size=0x2c) addr:0x0216eb78
_ZN12ActorUnkSPTG19func_ov094_0216eba4Ev kind:function(arm,size=0x518) addr:0x0216eba4
_ZN12ActorUnkSPTG19func_ov094_0216f0bcEv kind:function(arm,size=0x14) addr:0x0216f0bc
_ZN12ActorUnkSPTG19func_ov094_0216f0d0Ev kind:function(arm,size=0x40) addr:0x0216f0d0
_ZN12ActorUnkSPTG19func_ov094_0216f110Ev kind:function(arm,size=0x20) addr:0x0216f110
_ZN12ActorUnkSPTG19func_ov094_0216f130Ev kind:function(arm,size=0xf8) addr:0x0216f130
_ZN12ActorUnkSPTG19func_ov094_0216f228Ev kind:function(arm,size=0x4) addr:0x0216f228
_ZN12ActorUnkSPTG19func_ov094_0216f22cEv kind:function(arm,size=0x24) addr:0x0216f22c
_ZN12ActorUnkSPTG19func_ov094_0216f250Ev kind:function(arm,size=0x4) addr:0x0216f250
_ZN12ActorUnkSPTG19func_ov094_0216f254Ev kind:function(arm,size=0x50) addr:0x0216f254
_ZN12ActorUnkSPTG19func_ov094_0216f2a4Ev kind:function(arm,size=0x88) addr:0x0216f2a4
_ZN12ActorUnkSPTG19func_ov094_0216f32cEv kind:function(arm,size=0x25c) addr:0x0216f32c
_ZN12ActorUnkSPTG19func_ov094_0216f588Ev kind:function(arm,size=0x4) addr:0x0216f588
_ZN12ActorUnkSPTG19func_ov094_0216f58cEv kind:function(arm,size=0x74) addr:0x0216f58c
_ZN12ActorUnkSPTG19func_ov094_0216f600Ev kind:function(arm,size=0x50) addr:0x0216f600
_ZN12ActorUnkSPTG19func_ov094_0216f650Ev kind:function(arm,size=0x29c) addr:0x0216f650
_ZN12ActorUnkSPTG19func_ov094_0216f8ecEv kind:function(arm,size=0xe8) addr:0x0216f8ec
_ZN12ActorUnkSPTG19func_ov094_0216f9d4Ev kind:function(arm,size=0x28) addr:0x0216f9d4
_ZN12ActorUnkSPTG19func_ov094_0216f9fcEv kind:function(arm,size=0x2b8) addr:0x0216f9fc
_ZN12ActorUnkSPTG19func_ov094_0216fcb4Ev kind:function(arm,size=0x38) addr:0x0216fcb4
_ZN12ActorUnkSPTG19func_ov094_0216fcecEv kind:function(arm,size=0x1c) addr:0x0216fcec
_ZN12ActorUnkSPTG19func_ov094_0216fd08Ev kind:function(arm,size=0x1c) addr:0x0216fd08
_ZN19ActorProfileUnkSPTGD1Ev kind:function(arm,size=0x14) addr:0x0216fd24
_ZN19ActorProfileUnkSNOW10GetProfileEv kind:function(arm,size=0xc) addr:0x0216fd38
_ZN19ActorProfileUnkSNOW6CreateEv kind:function(arm,size=0x24) addr:0x0216fd44
_ZN19ActorProfileUnkSNOWC1Ev kind:function(arm,size=0x28) addr:0x0216fd68
_ZN12ActorUnkSNOWC1Ev kind:function(arm,size=0x54) addr:0x0216fd90
_ZN12ActorUnkSNOW19func_ov094_0216fde4Ev kind:function(arm,size=0xb0) addr:0x0216fde4
_ZN12ActorUnkSNOW19func_ov094_0216fe94Ev kind:function(arm,size=0x30) addr:0x0216fe94
_ZN12ActorUnkSNOW19func_ov094_0216fec4Ev kind:function(arm,size=0xbc) addr:0x0216fec4
_ZN12ActorUnkSNOW19func_ov094_0216ff80Ev kind:function(arm,size=0x14) addr:0x0216ff80
_ZN12ActorUnkSNOW19func_ov094_0216ff94Ev kind:function(arm,size=0x14) addr:0x0216ff94
_ZN12ActorUnkSNOW19func_ov094_0216ffa8Ev kind:function(arm,size=0x68) addr:0x0216ffa8
_ZN12ActorUnkSNOW19func_ov094_02170010Ev kind:function(arm,size=0x10) addr:0x02170010
_ZN12ActorUnkSNOW19func_ov094_02170020Ev kind:function(arm,size=0x64) addr:0x02170020
_ZN12ActorUnkSNOWD1Ev kind:function(arm,size=0x20) addr:0x02170084
_ZN12ActorUnkSNOWD0Ev kind:function(arm,size=0x28) addr:0x021700a4
_ZN19ActorProfileUnkSNOWD1Ev kind:function(arm,size=0x14) addr:0x021700cc
_ZN19ActorProfileUnkFBRG10GetProfileEv kind:function(arm,size=0xc) addr:0x021700e0
_ZN19ActorProfileUnkFBRG6CreateEv kind:function(arm,size=0x24) addr:0x021700ec
_ZN19ActorProfileUnkFBRGC1Ev kind:function(arm,size=0x3c) addr:0x02170110
_ZN12ActorUnkFBRGC1Ev kind:function(arm,size=0xc0) addr:0x0217014c
_ZN12ActorUnkFBRG19func_ov094_0217020cEv kind:function(arm,size=0x14) addr:0x0217020c
_ZN12ActorUnkFBRG19func_ov094_02170220Ev kind:function(arm,size=0x2e8) addr:0x02170220
_ZN12ActorUnkFBRG19func_ov094_02170508Ev kind:function(arm,size=0x14) addr:0x02170508
_ZN12ActorUnkFBRG19func_ov094_0217051cEv kind:function(arm,size=0x8) addr:0x0217051c
_ZN12ActorUnkFBRG19func_ov094_02170524Ev kind:function(arm,size=0x28) addr:0x02170524
_ZN12ActorUnkFBRG19func_ov094_0217054cEv kind:function(arm,size=0x20) addr:0x0217054c
_ZN12ActorUnkFBRG19func_ov094_0217056cEv kind:function(arm,size=0xc) addr:0x0217056c
_ZN12ActorUnkFBRGD0Ev kind:function(arm,size=0x1c) addr:0x02170578
_ZN12ActorUnkFBRGD1Ev kind:function(arm,size=0x30) addr:0x02170594
_ZN12ActorUnkFBRG19func_ov094_021705c4Ev kind:function(arm,size=0x38) addr:0x021705c4
_ZN19ActorProfileUnkFBRGD1Ev kind:function(arm,size=0x20) addr:0x021705fc
_ZN19ActorProfileUnkKOTA10GetProfileEv kind:function(arm,size=0xc) addr:0x0217061c
_ZN19ActorProfileUnkKOTA6CreateEv kind:function(arm,size=0x24) addr:0x02170628
_ZN19ActorProfileUnkKOTAC1Ev kind:function(arm,size=0x34) addr:0x0217064c
_ZN12ActorUnkKOTAC1Ev kind:function(arm,size=0x34) addr:0x02170680
_ZN12ActorUnkKOTA19func_ov094_021706b4Ev kind:function(arm,size=0x8) addr:0x021706b4
_ZN12ActorUnkKOTA19func_ov094_021706bcEv kind:function(arm,size=0x4c) addr:0x021706bc
_ZN12ActorUnkKOTA19func_ov094_02170708Ev kind:function(arm,size=0x14) addr:0x02170708
_ZN12ActorUnkKOTA19func_ov094_0217071cEv kind:function(arm,size=0x4c) addr:0x0217071c
_ZN12ActorUnkKOTA19func_ov094_02170768Ev kind:function(arm,size=0xb4) addr:0x02170768
_ZN12ActorUnkKOTA19func_ov094_0217081cEv kind:function(arm,size=0x458) addr:0x0217081c
_ZN12ActorUnkKOTA19func_ov094_02170c74Ev kind:function(arm,size=0x398) addr:0x02170c74
_ZN12ActorUnkKOTA19func_ov094_0217100cEv kind:function(arm,size=0x3c) addr:0x0217100c
_ZN12ActorUnkKOTAD1Ev kind:function(arm,size=0x14) addr:0x02171048
_ZN12ActorUnkKOTAD0Ev kind:function(arm,size=0x1c) addr:0x0217105c
_ZN19ActorProfileUnkKOTAD1Ev kind:function(arm,size=0x14) addr:0x02171078
_ZN19ActorProfileUnkEFOC10GetProfileEv kind:function(arm,size=0xc) addr:0x0217108c
_ZN19ActorProfileUnkEFOC6CreateEv kind:function(arm,size=0x24) addr:0x02171098
_ZN19ActorProfileUnkEFOCC1Ev kind:function(arm,size=0x54) addr:0x021710bc
_ZN12ActorUnkEFOC19func_ov094_02171110Ev kind:function(arm,size=0x74) addr:0x02171110
_ZN12ActorUnkEFOC19func_ov094_02171184Ev kind:function(arm,size=0x64) addr:0x02171184
_ZN12ActorUnkEFOCC1Ev kind:function(arm,size=0xc0) addr:0x021711e8
_ZN12ActorUnkEFOC19func_ov094_021712a8Ev kind:function(arm,size=0x78) addr:0x021712a8
_ZN12ActorUnkEFOCD0Ev kind:function(arm,size=0x80) addr:0x02171320
_ZN12ActorUnkEFOC19func_ov094_021713a0Ev kind:function(arm,size=0x14) addr:0x021713a0
_ZN12ActorUnkEFOC19func_ov094_021713b4Ev kind:function(arm,size=0xbc) addr:0x021713b4
_ZN12ActorUnkEFOC19func_ov094_02171470Ev kind:function(arm,size=0x14) addr:0x02171470
_ZN12ActorUnkEFOC19func_ov094_02171484Ev kind:function(arm,size=0x44) addr:0x02171484
_ZN12ActorUnkEFOC19func_ov094_021714c8Ev kind:function(arm,size=0x3c) addr:0x021714c8
_ZN12ActorUnkEFOC19func_ov094_02171504Ev kind:function(arm,size=0x134) addr:0x02171504
_ZN12ActorUnkEFOC19func_ov094_02171638Ev kind:function(arm,size=0x24) addr:0x02171638
_ZN12ActorUnkEFOC19func_ov094_0217165cEv kind:function(arm,size=0x14) addr:0x0217165c
_ZN12ActorUnkEFOC19func_ov094_02171670Ev kind:function(arm,size=0x48) addr:0x02171670
_ZN12ActorUnkEFOC19func_ov094_021716b8Ev kind:function(arm,size=0x6c) addr:0x021716b8
_ZN12ActorUnkEFOC19func_ov094_02171724Ev kind:function(arm,size=0x5c) addr:0x02171724
_ZN12ActorUnkEFOC19func_ov094_02171780Ev kind:function(arm,size=0x24) addr:0x02171780
_ZN12ActorUnkEFOC19func_ov094_021717a4Ev kind:function(arm,size=0x4) addr:0x021717a4
_ZN19ActorProfileUnkEFOCD1Ev kind:function(arm,size=0x14) addr:0x021717a8
func_ov094_021717bc kind:function(arm,size=0x24) addr:0x021717bc
func_ov094_021717e0 kind:function(arm,size=0x34) addr:0x021717e0
func_ov094_02171814 kind:function(arm,size=0x1c) addr:0x02171814
func_ov094_02171830 kind:function(arm,size=0x168) addr:0x02171830
func_ov094_02171998 kind:function(arm,size=0x28) addr:0x02171998
func_ov094_021719c0 kind:function(arm,size=0xb0) addr:0x021719c0
func_ov094_02171a70 kind:function(arm,size=0x54) addr:0x02171a70
func_ov094_02171ac4 kind:function(arm,size=0x100) addr:0x02171ac4
func_ov094_02171bc4 kind:function(arm,size=0x20) addr:0x02171bc4
func_ov094_02171be4 kind:function(arm,size=0xa4) addr:0x02171be4
func_ov094_02171c88 kind:function(arm,size=0x34) addr:0x02171c88
_ZN19func_ov094_02171cbcD1Ev kind:function(arm,size=0x20) addr:0x02171cbc
_ZN19func_ov094_02171cdcD0Ev kind:function(arm,size=0x28) addr:0x02171cdc
_ZN19ActorProfileUnkMNCB10GetProfileEv kind:function(arm,size=0xc) addr:0x02171d04
_ZN19ActorProfileUnkMNCB6CreateEv kind:function(arm,size=0x24) addr:0x02171d10
_ZN19ActorProfileUnkMNCBC1Ev kind:function(arm,size=0x44) addr:0x02171d34
_ZN12ActorUnkMNCBC1Ev kind:function(arm,size=0xc0) addr:0x02171d78
_ZN12ActorUnkMNCB19func_ov094_02171e38Ev kind:function(arm,size=0x14) addr:0x02171e38
_ZN12ActorUnkMNCB19func_ov094_02171e4cEv kind:function(arm,size=0x8) addr:0x02171e4c
_ZN12ActorUnkMNCB19func_ov094_02171e54Ev kind:function(arm,size=0x98) addr:0x02171e54
_ZN12ActorUnkMNCB19func_ov094_02171eecEv kind:function(arm,size=0x8) addr:0x02171eec
_ZN12ActorUnkMNCB19func_ov094_02171ef4Ev kind:function(arm,size=0xdc) addr:0x02171ef4
_ZN12ActorUnkMNCB19func_ov094_02171fd0Ev kind:function(arm,size=0xdc) addr:0x02171fd0
_ZN12ActorUnkMNCB19func_ov094_021720acEv kind:function(arm,size=0x3c) addr:0x021720ac
_ZN12ActorUnkMNCB19func_ov094_021720e8Ev kind:function(arm,size=0x178) addr:0x021720e8
_ZN12ActorUnkMNCB19func_ov094_02172260Ev kind:function(arm,size=0x38c) addr:0x02172260
_ZN12ActorUnkMNCB19func_ov094_021725ecEv kind:function(arm,size=0x210) addr:0x021725ec
_ZN12ActorUnkMNCB19func_ov094_021727fcEv kind:function(arm,size=0x50) addr:0x021727fc
_ZN12ActorUnkMNCBD1Ev kind:function(arm,size=0x84) addr:0x0217284c
_ZN12ActorUnkMNCBD0Ev kind:function(arm,size=0x8c) addr:0x021728d0
_ZN19ActorProfileUnkMNCBD1Ev kind:function(arm,size=0x14) addr:0x0217295c
_ZN19ActorProfileUnkEFR210GetProfileEv kind:function(arm,size=0xc) addr:0x02172970
_ZN19ActorProfileUnkEFR26CreateEv kind:function(arm,size=0x24) addr:0x0217297c
_ZN19ActorProfileUnkEFR2C1Ev kind:function(arm,size=0x30) addr:0x021729a0
_ZN12ActorUnkEFR2C1Ev kind:function(arm,size=0x20) addr:0x021729d0
_ZN12ActorUnkEFR219func_ov094_021729f0Ev kind:function(arm,size=0x9c) addr:0x021729f0
_ZN12ActorUnkEFR219func_ov094_02172a8cEv kind:function(arm,size=0x1c) addr:0x02172a8c
_ZN12ActorUnkEFR2D1Ev kind:function(arm,size=0x30) addr:0x02172aa8
_ZN12ActorUnkEFR2D0Ev kind:function(arm,size=0x38) addr:0x02172ad8
_ZN19ActorProfileUnkEFR2D1Ev kind:function(arm,size=0x14) addr:0x02172b10
_ZN19ActorProfileUnkEFW210GetProfileEv kind:function(arm,size=0xc) addr:0x02172b24
_ZN19ActorProfileUnkEFW26CreateEv kind:function(arm,size=0x24) addr:0x02172b30
_ZN19ActorProfileUnkEFW2C1Ev kind:function(arm,size=0x30) addr:0x02172b54
_ZN12ActorUnkEFW2C1Ev kind:function(arm,size=0x20) addr:0x02172b84
_ZN12ActorUnkEFW219func_ov094_02172ba4Ev kind:function(arm,size=0x9c) addr:0x02172ba4
_ZN12ActorUnkEFW219func_ov094_02172c40Ev kind:function(arm,size=0x1c) addr:0x02172c40
_ZN12ActorUnkEFW2D1Ev kind:function(arm,size=0x30) addr:0x02172c5c
_ZN12ActorUnkEFW2D0Ev kind:function(arm,size=0x38) addr:0x02172c8c
_ZN19ActorProfileUnkEFW2D1Ev kind:function(arm,size=0x14) addr:0x02172cc4
_ZN23MapObjectProfileUnkFNCE10GetProfileEv kind:function(arm,size=0xc) addr:0x02172cd8
_ZN23MapObjectProfileUnkFNCE6CreateEv kind:function(arm,size=0x24) addr:0x02172ce4
_ZN23MapObjectProfileUnkFNCEC1Ev kind:function(arm,size=0x48) addr:0x02172d08
_ZN16MapObjectUnkFNCEC1Ev kind:function(arm,size=0x3c) addr:0x02172d50
_ZN16MapObjectUnkFNCE19func_ov094_02172d8cEv kind:function(arm,size=0x44) addr:0x02172d8c
_ZN16MapObjectUnkFNCE19func_ov094_02172dd0Ev kind:function(arm,size=0x1fc) addr:0x02172dd0
_ZN16MapObjectUnkFNCE19func_ov094_02172fccEv kind:function(arm,size=0x60) addr:0x02172fcc
_ZN16MapObjectUnkFNCE19func_ov094_0217302cEv kind:function(arm,size=0x5c) addr:0x0217302c
_ZN16MapObjectUnkFNCED1Ev kind:function(arm,size=0x20) addr:0x02173088
_ZN16MapObjectUnkFNCED0Ev kind:function(arm,size=0x28) addr:0x021730a8
_ZN23MapObjectProfileUnkFNCED1Ev kind:function(arm,size=0x14) addr:0x021730d0
func_ov094_021730e4 kind:function(arm,size=0xcc) addr:0x021730e4
func_ov094_021731b0 kind:function(arm,size=0x40) addr:0x021731b0
func_ov094_021731f0 kind:function(arm,size=0x4) addr:0x021731f0
func_ov094_021731f4 kind:function(arm,size=0x24) addr:0x021731f4
func_ov094_02173218 kind:function(arm,size=0x34) addr:0x02173218
func_ov094_0217324c kind:function(arm,size=0x20) addr:0x0217324c
_ZN19func_ov094_0217326cD0Ev kind:function(arm,size=0x38) addr:0x0217326c
_ZN19func_ov094_021732a4D2Ev kind:function(arm,size=0x30) addr:0x021732a4
func_ov094_021732d4 kind:function(arm,size=0x10) addr:0x021732d4
func_ov094_021732e4 kind:function(arm,size=0x10) addr:0x021732e4
_ZN23MapObjectProfileUnkWLMP10GetProfileEv kind:function(arm,size=0xc) addr:0x021732f4
_ZN23MapObjectProfileUnkWLMP6CreateEv kind:function(arm,size=0x24) addr:0x02173300
_ZN23MapObjectProfileUnkWLMPC1Ev kind:function(arm,size=0xa4) addr:0x02173324
_ZN16MapObjectUnkWLMP19func_ov094_021733c8Ev kind:function(arm,size=0x4c) addr:0x021733c8
_ZN16MapObjectUnkWLMPC1Ev kind:function(arm,size=0x4c) addr:0x02173414
_ZN16MapObjectUnkWLMP19func_ov094_02173460Ev kind:function(arm,size=0x148) addr:0x02173460
_ZN16MapObjectUnkWLMP19func_ov094_021735a8Ev kind:function(arm,size=0x34) addr:0x021735a8
_ZN16MapObjectUnkWLMP19func_ov094_021735dcEv kind:function(arm,size=0x17c) addr:0x021735dc
_ZN16MapObjectUnkWLMP19func_ov094_02173758Ev kind:function(arm,size=0xd4) addr:0x02173758
_ZN16MapObjectUnkWLMP19func_ov094_0217382cEv kind:function(arm,size=0x2c) addr:0x0217382c
_ZN16MapObjectUnkWLMP19func_ov094_02173858Ev kind:function(arm,size=0x6c) addr:0x02173858
_ZN16MapObjectUnkWLMP19func_ov094_021738c4Ev kind:function(arm,size=0x70) addr:0x021738c4
_ZN16MapObjectUnkWLMP19func_ov094_02173934Ev kind:function(arm,size=0x20) addr:0x02173934
_ZN16MapObjectUnkWLMP19func_ov094_02173954Ev kind:function(arm,size=0x4c) addr:0x02173954
_ZN16MapObjectUnkWLMPD0Ev kind:function(arm,size=0x40) addr:0x021739a0
_ZN16MapObjectUnkWLMPD2Ev kind:function(arm,size=0x38) addr:0x021739e0
_ZN23MapObjectProfileUnkWLMPD1Ev kind:function(arm,size=0x14) addr:0x02173a18
_ZN19func_ov094_02173a2cD0Ev kind:function(arm,size=0x1c) addr:0x02173a2c
_ZN19func_ov094_02173a48D0Ev kind:function(arm,size=0x1c) addr:0x02173a48
_ZN19func_ov094_02173a64D2Ev kind:function(arm,size=0x14) addr:0x02173a64
func_ov094_02173a78 kind:function(arm,size=0x10) addr:0x02173a78
func_ov094_02173a88 kind:function(arm,size=0x10) addr:0x02173a88
func_ov094_02173a98 kind:function(arm,size=0x10) addr:0x02173a98
func_ov094_02173aa8 kind:function(arm,size=0x10) addr:0x02173aa8
func_ov094_02173ab8 kind:function(arm,size=0x10) addr:0x02173ab8
_ZN23MapObjectProfileUnkCLMN10GetProfileEv kind:function(arm,size=0xc) addr:0x02173ac8
_ZN23MapObjectProfileUnkCLMN6CreateEv kind:function(arm,size=0x24) addr:0x02173ad4
_ZN23MapObjectProfileUnkCLMNC1Ev kind:function(arm,size=0x94) addr:0x02173af8
_ZN16MapObjectUnkCLMNC1Ev kind:function(arm,size=0x90) addr:0x02173b8c
_ZN16MapObjectUnkCLMN19func_ov094_02173c1cEv kind:function(arm,size=0x20) addr:0x02173c1c
_ZN16MapObjectUnkCLMND1Ev kind:function(arm,size=0x20) addr:0x02173c3c
_ZN16MapObjectUnkCLMND0Ev kind:function(arm,size=0x28) addr:0x02173c5c
_ZN23MapObjectProfileUnkCLMND1Ev kind:function(arm,size=0x14) addr:0x02173c84
_ZN23MapObjectProfileUnkWDST10GetProfileEv kind:function(arm,size=0xc) addr:0x02173c98
_ZN23MapObjectProfileUnkWDST6CreateEv kind:function(arm,size=0x24) addr:0x02173ca4
_ZN23MapObjectProfileUnkWDSTC1Ev kind:function(arm,size=0x8c) addr:0x02173cc8
_ZN16MapObjectUnkWDSTC1Ev kind:function(arm,size=0x178) addr:0x02173d54
_ZN16MapObjectUnkWDSTD1Ev kind:function(arm,size=0x9c) addr:0x02173ecc
_ZN16MapObjectUnkWDSTD0Ev kind:function(arm,size=0xa4) addr:0x02173f68
_ZN16MapObjectUnkWDST19func_ov094_0217400cEv kind:function(arm,size=0x10c) addr:0x0217400c
_ZN16MapObjectUnkWDST19func_ov094_02174118Ev kind:function(arm,size=0x44) addr:0x02174118
_ZN16MapObjectUnkWDST19func_ov094_0217415cEv kind:function(arm,size=0x120) addr:0x0217415c
_ZN16MapObjectUnkWDST19func_ov094_0217427cEv kind:function(arm,size=0x74) addr:0x0217427c
_ZN16MapObjectUnkWDST19func_ov094_021742f0Ev kind:function(arm,size=0x260) addr:0x021742f0
_ZN16MapObjectUnkWDST19func_ov094_02174550Ev kind:function(arm,size=0x50) addr:0x02174550
_ZN16MapObjectUnkWDST19func_ov094_021745a0Ev kind:function(arm,size=0x14) addr:0x021745a0
_ZN16MapObjectUnkWDST19func_ov094_021745b4Ev kind:function(arm,size=0x3ac) addr:0x021745b4
_ZN16MapObjectUnkWDST19func_ov094_02174960Ev kind:function(arm,size=0xc) addr:0x02174960
_ZN16MapObjectUnkWDST19func_ov094_0217496cEv kind:function(arm,size=0x128) addr:0x0217496c
_ZN16MapObjectUnkWDST19func_ov094_02174a94Ev kind:function(arm,size=0xd0) addr:0x02174a94
_ZN16MapObjectUnkWDST19func_ov094_02174b64Ev kind:function(arm,size=0x8c) addr:0x02174b64
_ZN16MapObjectUnkWDST19func_ov094_02174bf0Ev kind:function(arm,size=0xe8) addr:0x02174bf0
_ZN16MapObjectUnkWDST19func_ov094_02174cd8Ev kind:function(arm,size=0x2c) addr:0x02174cd8
_ZN16MapObjectUnkWDST19func_ov094_02174d04Ev kind:function(arm,size=0x9c) addr:0x02174d04
_ZN16MapObjectUnkWDST19func_ov094_02174da0Ev kind:function(arm,size=0x14) addr:0x02174da0
_ZN16MapObjectUnkWDST19func_ov094_02174db4Ev kind:function(arm,size=0x108) addr:0x02174db4
_ZN16MapObjectUnkWDST19func_ov094_02174ebcEv kind:function(arm,size=0x98) addr:0x02174ebc
_ZN16MapObjectUnkWDST19func_ov094_02174f54Ev kind:function(arm,size=0x478) addr:0x02174f54
_ZN16MapObjectUnkWDST19func_ov094_021753ccEv kind:function(arm,size=0xd8) addr:0x021753cc
_ZN16MapObjectUnkWDST19func_ov094_021754a4Ev kind:function(arm,size=0x280) addr:0x021754a4
_ZN16MapObjectUnkWDST19func_ov094_02175724Ev kind:function(arm,size=0x30) addr:0x02175724
_ZN16MapObjectUnkWDST19func_ov094_02175754Ev kind:function(arm,size=0x40) addr:0x02175754
_ZN16MapObjectUnkWDST19func_ov094_02175794Ev kind:function(arm,size=0x28) addr:0x02175794
_ZN16MapObjectUnkWDST19func_ov094_021757bcEv kind:function(arm,size=0x18) addr:0x021757bc
_ZN16MapObjectUnkWDST19func_ov094_021757d4Ev kind:function(arm,size=0xc) addr:0x021757d4
_ZN16MapObjectUnkWDST19func_ov094_021757e0Ev kind:function(arm,size=0x54) addr:0x021757e0
_ZN16MapObjectUnkWDST19func_ov094_02175834Ev kind:function(arm,size=0x4) addr:0x02175834
_ZN16MapObjectUnkWDST19func_ov094_02175838Ev kind:function(arm,size=0xc) addr:0x02175838
_ZN16MapObjectUnkWDST19func_ov094_02175844Ev kind:function(arm,size=0x94) addr:0x02175844
_ZN16MapObjectUnkWDST19func_ov094_021758d8Ev kind:function(arm,size=0x8) addr:0x021758d8
_ZN16MapObjectUnkWDST19func_ov094_021758e0Ev kind:function(arm,size=0x60) addr:0x021758e0
_ZN16MapObjectUnkWDST19func_ov094_02175940Ev kind:function(arm,size=0x240) addr:0x02175940
_ZN16MapObjectUnkWDST19func_ov094_02175b80Ev kind:function(arm,size=0x4) addr:0x02175b80
_ZN23MapObjectProfileUnkWDSTD1Ev kind:function(arm,size=0x14) addr:0x02175b84
func_ov094_02175b98 kind:function(arm,size=0x10) addr:0x02175b98
func_ov094_02175ba8 kind:function(arm,size=0x10) addr:0x02175ba8
func_ov094_02175bb8 kind:function(arm,size=0x10) addr:0x02175bb8
func_ov094_02175bc8 kind:function(arm,size=0x10) addr:0x02175bc8
func_ov094_02175bd8 kind:function(arm,size=0x10) addr:0x02175bd8
func_ov094_02175be8 kind:function(arm,size=0x10) addr:0x02175be8
func_ov094_02175bf8 kind:function(arm,size=0x10) addr:0x02175bf8
func_ov094_02175c08 kind:function(arm,size=0x10) addr:0x02175c08
func_ov094_02175c18 kind:function(arm,size=0x10) addr:0x02175c18
_ZN23MapObjectProfileUnkICEB10GetProfileEv kind:function(arm,size=0xc) addr:0x02175c28
_ZN23MapObjectProfileUnkICEB6CreateEv kind:function(arm,size=0x24) addr:0x02175c34
_ZN23MapObjectProfileUnkICEBC1Ev kind:function(arm,size=0x170) addr:0x02175c58
_ZN16MapObjectUnkICEBC1Ev kind:function(arm,size=0x108) addr:0x02175dc8
_ZN16MapObjectUnkICEB19func_ov094_02175ed0Ev kind:function(arm,size=0x30) addr:0x02175ed0
_ZN16MapObjectUnkICEB19func_ov094_02175f00Ev kind:function(arm,size=0xf4) addr:0x02175f00
_ZN16MapObjectUnkICEB19func_ov094_02175ff4Ev kind:function(arm,size=0x528) addr:0x02175ff4
_ZN16MapObjectUnkICEB19func_ov094_0217651cEv kind:function(arm,size=0x7c) addr:0x0217651c
_ZN16MapObjectUnkICEB19func_ov094_02176598Ev kind:function(arm,size=0x88) addr:0x02176598
_ZN16MapObjectUnkICEB19func_ov094_02176620Ev kind:function(arm,size=0x12c) addr:0x02176620
_ZN16MapObjectUnkICEB19func_ov094_0217674cEv kind:function(arm,size=0x180) addr:0x0217674c
_ZN16MapObjectUnkICEB19func_ov094_021768ccEv kind:function(arm,size=0x88) addr:0x021768cc
_ZN16MapObjectUnkICEB19func_ov094_02176954Ev kind:function(arm,size=0x18) addr:0x02176954
_ZN16MapObjectUnkICEB19func_ov094_0217696cEv kind:function(arm,size=0x20) addr:0x0217696c
_ZN16MapObjectUnkICEB19func_ov094_0217698cEv kind:function(arm,size=0x1a4) addr:0x0217698c
_ZN16MapObjectUnkICEB19func_ov094_02176b30Ev kind:function(arm,size=0x18) addr:0x02176b30
_ZN16MapObjectUnkICEB19func_ov094_02176b48Ev kind:function(arm,size=0x50) addr:0x02176b48
_ZN16MapObjectUnkICEBD1Ev kind:function(arm,size=0x20) addr:0x02176b98
_ZN16MapObjectUnkICEBD0Ev kind:function(arm,size=0x28) addr:0x02176bb8
_ZN23MapObjectProfileUnkICEBD1Ev kind:function(arm,size=0x14) addr:0x02176be0
_ZN23MapObjectProfileUnkBRGW10GetProfileEv kind:function(arm,size=0xc) addr:0x02176bf4
_ZN23MapObjectProfileUnkBRGW6CreateEv kind:function(arm,size=0x24) addr:0x02176c00
_ZN23MapObjectProfileUnkBRGWC1Ev kind:function(arm,size=0x50) addr:0x02176c24
_ZN16MapObjectUnkBRGWC1Ev kind:function(arm,size=0x50) addr:0x02176c74
_ZN16MapObjectUnkBRGW19func_ov094_02176cc4Ev kind:function(arm,size=0x284) addr:0x02176cc4
_ZN16MapObjectUnkBRGW19func_ov094_02176f48Ev kind:function(arm,size=0x4) addr:0x02176f48
_ZN16MapObjectUnkBRGW19func_ov094_02176f4cEv kind:function(arm,size=0x1a0) addr:0x02176f4c
_ZN16MapObjectUnkBRGW19func_ov094_021770ecEv kind:function(arm,size=0x44) addr:0x021770ec
_ZN16MapObjectUnkBRGWD1Ev kind:function(arm,size=0x20) addr:0x02177130
_ZN16MapObjectUnkBRGWD0Ev kind:function(arm,size=0x28) addr:0x02177150
_ZN23MapObjectProfileUnkBRGWD1Ev kind:function(arm,size=0x14) addr:0x02177178
_ZN23MapObjectProfileUnkMBBS10GetProfileEv kind:function(arm,size=0xc) addr:0x0217718c
_ZN23MapObjectProfileUnkMBBS6CreateEv kind:function(arm,size=0x24) addr:0x02177198
_ZN23MapObjectProfileUnkMBBSC1Ev kind:function(arm,size=0x9c) addr:0x021771bc
_ZN16MapObjectUnkMBBSC1Ev kind:function(arm,size=0xa8) addr:0x02177258
_ZN16MapObjectUnkMBBS19func_ov094_02177300Ev kind:function(arm,size=0x2c) addr:0x02177300
_ZN16MapObjectUnkMBBS19func_ov094_0217732cEv kind:function(arm,size=0x1c) addr:0x0217732c
_ZN16MapObjectUnkMBBS19func_ov094_02177348Ev kind:function(arm,size=0x14) addr:0x02177348
_ZN16MapObjectUnkMBBS19func_ov094_0217735cEv kind:function(arm,size=0xd8) addr:0x0217735c
_ZN16MapObjectUnkMBBS19func_ov094_02177434Ev kind:function(arm,size=0x1c) addr:0x02177434
_ZN16MapObjectUnkMBBS19func_ov094_02177450Ev kind:function(arm,size=0x4c) addr:0x02177450
_ZN16MapObjectUnkMBBS19func_ov094_0217749cEv kind:function(arm,size=0x20) addr:0x0217749c
_ZN16MapObjectUnkMBBS19func_ov094_021774bcEv kind:function(arm,size=0x1c) addr:0x021774bc
_ZN16MapObjectUnkMBBS19func_ov094_021774d8Ev kind:function(arm,size=0x40) addr:0x021774d8
_ZN16MapObjectUnkMBBS19func_ov094_02177518Ev kind:function(arm,size=0x9c) addr:0x02177518
_ZN16MapObjectUnkMBBS19func_ov094_021775b4Ev kind:function(arm,size=0x118) addr:0x021775b4
_ZN16MapObjectUnkMBBSD1Ev kind:function(arm,size=0x20) addr:0x021776cc
_ZN16MapObjectUnkMBBSD0Ev kind:function(arm,size=0x28) addr:0x021776ec
_ZN23MapObjectProfileUnkMBBSD1Ev kind:function(arm,size=0x14) addr:0x02177714
_ZN23MapObjectProfileUnkTHAW10GetProfileEv kind:function(arm,size=0xc) addr:0x02177728
_ZN23MapObjectProfileUnkTHAW6CreateEv kind:function(arm,size=0x24) addr:0x02177734
_ZN23MapObjectProfileUnkTHAWC1Ev kind:function(arm,size=0xdc) addr:0x02177758
_ZN16MapObjectUnkTHAWC1Ev kind:function(arm,size=0x78) addr:0x02177834
_ZN16MapObjectUnkTHAW19func_ov094_021778acEv kind:function(arm,size=0xc0) addr:0x021778ac
_ZN16MapObjectUnkTHAW19func_ov094_0217796cEv kind:function(arm,size=0xf4) addr:0x0217796c
_ZN16MapObjectUnkTHAW19func_ov094_02177a60Ev kind:function(arm,size=0xc) addr:0x02177a60
_ZN16MapObjectUnkTHAW19func_ov094_02177a6cEv kind:function(arm,size=0x60) addr:0x02177a6c
_ZN16MapObjectUnkTHAW19func_ov094_02177accEv kind:function(arm,size=0x28) addr:0x02177acc
_ZN16MapObjectUnkTHAW19func_ov094_02177af4Ev kind:function(arm,size=0x7c) addr:0x02177af4
_ZN16MapObjectUnkTHAW19func_ov094_02177b70Ev kind:function(arm,size=0x60) addr:0x02177b70
_ZN16MapObjectUnkTHAW19func_ov094_02177bd0Ev kind:function(arm,size=0x28) addr:0x02177bd0
_ZN16MapObjectUnkTHAW19func_ov094_02177bf8Ev kind:function(arm,size=0x1a4) addr:0x02177bf8
_ZN16MapObjectUnkTHAWD1Ev kind:function(arm,size=0x28) addr:0x02177d9c
_ZN16MapObjectUnkTHAWD0Ev kind:function(arm,size=0x30) addr:0x02177dc4
_ZN23MapObjectProfileUnkTHAWD1Ev kind:function(arm,size=0x14) addr:0x02177df4
_ZN23MapObjectProfileUnkMTWD10GetProfileEv kind:function(arm,size=0xc) addr:0x02177e08
_ZN23MapObjectProfileUnkMTWD6CreateEv kind:function(arm,size=0x24) addr:0x02177e14
_ZN23MapObjectProfileUnkMTWDC1Ev kind:function(arm,size=0x90) addr:0x02177e38
_ZN16MapObjectUnkMTWDC1Ev kind:function(arm,size=0x88) addr:0x02177ec8
_ZN16MapObjectUnkMTWD19func_ov094_02177f50Ev kind:function(arm,size=0x8c) addr:0x02177f50
_ZN16MapObjectUnkMTWD19func_ov094_02177fdcEv kind:function(arm,size=0x188) addr:0x02177fdc
_ZN16MapObjectUnkMTWD19func_ov094_02178164Ev kind:function(arm,size=0x14) addr:0x02178164
_ZN16MapObjectUnkMTWD19func_ov094_02178178Ev kind:function(arm,size=0x2c) addr:0x02178178
_ZN16MapObjectUnkMTWDD1Ev kind:function(arm,size=0x20) addr:0x021781a4
_ZN16MapObjectUnkMTWDD0Ev kind:function(arm,size=0x28) addr:0x021781c4
_ZN23MapObjectProfileUnkMTWDD1Ev kind:function(arm,size=0x14) addr:0x021781ec
data_ov094_02178200 kind:data(any) addr:0x02178200
data_ov094_02178204 kind:data(any) addr:0x02178204
data_ov094_02178218 kind:data(any) addr:0x02178218
data_ov094_02178228 kind:data(any) addr:0x02178228
data_ov094_02178238 kind:data(any) addr:0x02178238
data_ov094_02178244 kind:data(any) addr:0x02178244
data_ov094_02178274 kind:data(any) addr:0x02178274
data_ov094_0217827c kind:data(any) addr:0x0217827c
data_ov094_02178288 kind:data(any) addr:0x02178288
data_ov094_021782b8 kind:data(any) addr:0x021782b8
data_ov094_021782f8 kind:data(any) addr:0x021782f8
data_ov094_02178328 kind:data(any) addr:0x02178328 ambiguous
data_ov094_02178348 kind:data(any) addr:0x02178348
data_ov094_0217834e kind:data(any) addr:0x0217834e
data_ov094_02178354 kind:data(any) addr:0x02178354
data_ov094_02178360 kind:data(any) addr:0x02178360
data_ov094_02178370 kind:data(any) addr:0x02178370
data_ov094_0217838c kind:data(any) addr:0x0217838c
data_ov094_021783dc kind:data(any) addr:0x021783dc
data_ov094_021783ec kind:data(any) addr:0x021783ec
data_ov094_021783fc kind:data(any) addr:0x021783fc
data_ov094_02178410 kind:data(any) addr:0x02178410
data_ov094_02178430 kind:data(any) addr:0x02178430
data_ov094_02178450 kind:data(any) addr:0x02178450
data_ov094_0217845a kind:data(any) addr:0x0217845a
data_ov094_02178464 kind:data(any) addr:0x02178464
data_ov094_02178478 kind:data(any) addr:0x02178478
data_ov094_021784a8 kind:data(any) addr:0x021784a8
data_ov094_02178508 kind:data(any) addr:0x02178508
data_ov094_02178510 kind:data(any) addr:0x02178510
data_ov094_021785c8 kind:data(any) addr:0x021785c8
data_ov094_021785f8 kind:data(any) addr:0x021785f8
data_ov094_02178610 kind:data(any) addr:0x02178610
data_ov094_02178640 kind:data(any) addr:0x02178640
data_ov094_021786b8 kind:data(any) addr:0x021786b8
data_ov094_02178708 kind:data(any) addr:0x02178708
data_ov094_02178718 kind:data(any) addr:0x02178718
data_ov094_02178788 kind:data(any) addr:0x02178788
data_ov094_02178790 kind:data(any) addr:0x02178790
__sinit_ov094_02178848 kind:function(arm,size=0x50) addr:0x02178848
__sinit_ActorUnkLOCK.cpp kind:function(arm,size=0x50) addr:0x02178898
__sinit_ActorUnkPSWB.cpp kind:function(arm,size=0x78) addr:0x021788e8
__sinit_ActorUnkVRGN.cpp kind:function(arm,size=0x50) addr:0x02178960
__sinit_ActorUnkVLCR.cpp kind:function(arm,size=0x50) addr:0x021789b0
__sinit_ActorUnkSYRN.cpp kind:function(arm,size=0x50) addr:0x02178a00
__sinit_ActorUnkSTTG.cpp kind:function(arm,size=0x50) addr:0x02178a50
__sinit_ActorUnkPCTG.cpp kind:function(arm,size=0x5c) addr:0x02178aa0
__sinit_ActorUnkSPTG.cpp kind:function(arm,size=0x50) addr:0x02178afc
__sinit_ActorUnkSNOW.cpp kind:function(arm,size=0x50) addr:0x02178b4c
__sinit_ActorUnkFBRG.cpp kind:function(arm,size=0x50) addr:0x02178b9c
__sinit_ActorUnkKOTA.cpp kind:function(arm,size=0x50) addr:0x02178bec
__sinit_ActorUnkEFOC.cpp kind:function(arm,size=0x60) addr:0x02178c3c
__sinit_ActorUnkMNCB.cpp kind:function(arm,size=0x50) addr:0x02178c9c
__sinit_ActorUnkEFR2.cpp kind:function(arm,size=0x50) addr:0x02178cec
__sinit_ActorUnkEFW2.cpp kind:function(arm,size=0x50) addr:0x02178d3c
__sinit_MapObjectUnkFNCE.cpp kind:function(arm,size=0x50) addr:0x02178d8c
__sinit_MapObjectUnkWLMP.cpp kind:function(arm,size=0x50) addr:0x02178ddc
__sinit_MapObjectUnkCLMN.cpp kind:function(arm,size=0x50) addr:0x02178e2c
__sinit_MapObjectUnkWDST.cpp kind:function(arm,size=0x88) addr:0x02178e7c
__sinit_MapObjectUnkICEB.cpp kind:function(arm,size=0xcc) addr:0x02178f04
__sinit_MapObjectUnkBRGW.cpp kind:function(arm,size=0x50) addr:0x02178fd0
__sinit_MapObjectUnkMBBS.cpp kind:function(arm,size=0x74) addr:0x02179020
__sinit_MapObjectUnkTHAW.cpp kind:function(arm,size=0x50) addr:0x02179094
__sinit_MapObjectUnkMTWD.cpp kind:function(arm,size=0x50) addr:0x021790e4
.p__sinit_ov094_02178848 kind:data(word) addr:0x02179134
.p__sinit_ActorUnkLOCK.cpp kind:data(word) addr:0x02179138
.p__sinit_ActorUnkPSWB.cpp kind:data(word) addr:0x0217913c
.p__sinit_ActorUnkVRGN.cpp kind:data(word) addr:0x02179140
.p__sinit_ActorUnkVLCR.cpp kind:data(word) addr:0x02179144
.p__sinit_ActorUnkSYRN.cpp kind:data(word) addr:0x02179148
.p__sinit_ActorUnkSTTG.cpp kind:data(word) addr:0x0217914c
.p__sinit_ActorUnkPCTG.cpp kind:data(word) addr:0x02179150
.p__sinit_ActorUnkSPTG.cpp kind:data(word) addr:0x02179154
.p__sinit_ActorUnkSNOW.cpp kind:data(word) addr:0x02179158
.p__sinit_ActorUnkFBRG.cpp kind:data(word) addr:0x0217915c
.p__sinit_ActorUnkKOTA.cpp kind:data(word) addr:0x02179160
.p__sinit_ActorUnkEFOC.cpp kind:data(word) addr:0x02179164
.p__sinit_ActorUnkMNCB.cpp kind:data(word) addr:0x02179168
.p__sinit_ActorUnkEFR2.cpp kind:data(word) addr:0x0217916c
.p__sinit_ActorUnkEFW2.cpp kind:data(word) addr:0x02179170
.p__sinit_MapObjectUnkFNCE.cpp kind:data(word) addr:0x02179174
.p__sinit_MapObjectUnkWLMP.cpp kind:data(word) addr:0x02179178
.p__sinit_MapObjectUnkCLMN.cpp kind:data(word) addr:0x0217917c
.p__sinit_MapObjectUnkWDST.cpp kind:data(word) addr:0x02179180
.p__sinit_MapObjectUnkICEB.cpp kind:data(word) addr:0x02179184
.p__sinit_MapObjectUnkBRGW.cpp kind:data(word) addr:0x02179188
.p__sinit_MapObjectUnkMBBS.cpp kind:data(word) addr:0x0217918c
.p__sinit_MapObjectUnkTHAW.cpp kind:data(word) addr:0x02179190
.p__sinit_MapObjectUnkMTWD.cpp kind:data(word) addr:0x02179194
data_ov094_021791a8 kind:data(any) addr:0x021791a8
_ZTV19data_ov094_021791d8 kind:data(any) addr:0x021791d8
_ZTV19data_ov094_021791fc kind:data(any) addr:0x021791fc
data_ov094_02179264 kind:data(any) addr:0x02179264
data_ov094_02179278 kind:data(any) addr:0x02179278
_ZTV19data_ov094_0217928c kind:data(any) addr:0x0217928c
data_ov094_021792b8 kind:data(any) addr:0x021792b8
data_ov094_021792dc kind:data(any) addr:0x021792dc
data_ov094_021792fc kind:data(any) addr:0x021792fc
data_ov094_02179324 kind:data(any) addr:0x02179324
_ZTV19data_ov094_0217934c kind:data(any) addr:0x0217934c
data_ov094_021793d4 kind:data(any) addr:0x021793d4
_ZTV19data_ov094_021793d8 kind:data(any) addr:0x021793d8
_ZTV19data_ov094_021793fc kind:data(any) addr:0x021793fc
_ZTV19data_ov094_02179458 kind:data(any) addr:0x02179458
data_ov094_02179478 kind:data(any) addr:0x02179478 ambiguous
data_ov094_0217947c kind:data(any) addr:0x0217947c
data_ov094_021794a0 kind:data(any) addr:0x021794a0 ambiguous
_ZTV19data_ov094_021794ac kind:data(any) addr:0x021794ac
_ZTV19data_ov094_021794d4 kind:data(any) addr:0x021794d4 ambiguous
data_ov094_02179508 kind:data(any) addr:0x02179508
_ZTV19data_ov094_02179520 kind:data(any) addr:0x02179520
data_ov094_0217954c kind:data(any) addr:0x0217954c
data_ov094_0217958c kind:data(any) addr:0x0217958c
data_ov094_021795dc kind:data(any) addr:0x021795dc
data_ov094_02179620 kind:data(any) addr:0x02179620
data_ov094_02179668 kind:data(any) addr:0x02179668
_ZTV19data_ov094_02179680 kind:data(any) addr:0x02179680
_ZTV19data_ov094_0217979c kind:data(any) addr:0x0217979c
data_ov094_021798c0 kind:data(any) addr:0x021798c0
data_ov094_021798d0 kind:data(any) addr:0x021798d0
data_ov094_021798e4 kind:data(any) addr:0x021798e4
_ZTV19data_ov094_02179904 kind:data(any) addr:0x02179904
data_ov094_02179930 kind:data(any) addr:0x02179930
_ZTV19data_ov094_02179954 kind:data(any) addr:0x02179954
data_ov094_021799b8 kind:data(any) addr:0x021799b8
data_ov094_021799c4 kind:data(any) addr:0x021799c4
data_ov094_021799cc kind:data(any) addr:0x021799cc
_ZTV19data_ov094_021799ec kind:data(any) addr:0x021799ec
_ZTV19data_ov094_02179a10 kind:data(any) addr:0x02179a10
data_ov094_02179a74 kind:data(any) addr:0x02179a74
data_ov094_02179a84 kind:data(any) addr:0x02179a84
_ZTV19data_ov094_02179a98 kind:data(any) addr:0x02179a98
data_ov094_02179ac4 kind:data(any) addr:0x02179ac4
data_ov094_02179ae8 kind:data(any) addr:0x02179ae8
_ZTV19data_ov094_02179b28 kind:data(any) addr:0x02179b28
_ZTV19data_ov094_02179b84 kind:data(any) addr:0x02179b84
_ZTV19data_ov094_02179ba8 kind:data(any) addr:0x02179ba8
data_ov094_02179c08 kind:data(any) addr:0x02179c08
data_ov094_02179c10 kind:data(any) addr:0x02179c10
_ZTV19data_ov094_02179c18 kind:data(any) addr:0x02179c18
data_ov094_02179c44 kind:data(any) addr:0x02179c44
data_ov094_02179c5c kind:data(any) addr:0x02179c5c ambiguous
data_ov094_02179c60 kind:data(any) addr:0x02179c60
data_ov094_02179c78 kind:data(any) addr:0x02179c78
data_ov094_02179c98 kind:data(any) addr:0x02179c98
_ZTV19data_ov094_02179cd8 kind:data(any) addr:0x02179cd8
_ZTV19data_ov094_02179d38 kind:data(any) addr:0x02179d38
_ZTV19data_ov094_02179d5c kind:data(any) addr:0x02179d5c
data_ov094_02179db8 kind:data(any) addr:0x02179db8
data_ov094_02179dbc kind:data(any) addr:0x02179dbc
data_ov094_02179ddc kind:data(any) addr:0x02179ddc
_ZTV19data_ov094_02179dfc kind:data(any) addr:0x02179dfc
_ZTV19data_ov094_02179e20 kind:data(any) addr:0x02179e20
data_ov094_02179e7c kind:data(any) addr:0x02179e7c
data_ov094_02179ecc kind:data(any) addr:0x02179ecc
_ZTV19data_ov094_02179f1c kind:data(any) addr:0x02179f1c
_ZTV19data_ov094_02179f98 kind:data(any) addr:0x02179f98 ambiguous
data_ov094_0217a040 kind:data(any) addr:0x0217a040
_ZTV19data_ov094_0217a060 kind:data(any) addr:0x0217a060
_ZTV19data_ov094_0217a084 kind:data(any) addr:0x0217a084
_ZTV19data_ov094_0217a0e8 kind:data(any) addr:0x0217a0e8
data_ov094_0217a10c kind:data(any) addr:0x0217a10c
data_ov094_0217a124 kind:data(any) addr:0x0217a124
_ZTV19data_ov094_0217a13c kind:data(any) addr:0x0217a13c
_ZTV19data_ov094_0217a160 kind:data(any) addr:0x0217a160 ambiguous
_ZTV19data_ov094_0217a19c kind:data(any) addr:0x0217a19c
data_ov094_0217a1c0 kind:data(any) addr:0x0217a1c0
data_ov094_0217a1d8 kind:data(any) addr:0x0217a1d8
_ZTV19data_ov094_0217a1f0 kind:data(any) addr:0x0217a1f0
data_ov094_0217a258 kind:data(any) addr:0x0217a258
data_ov094_0217a274 kind:data(any) addr:0x0217a274
data_ov094_0217a2b8 kind:data(any) addr:0x0217a2b8
_ZTV19data_ov094_0217a2f4 kind:data(any) addr:0x0217a2f4
data_ov094_0217a324 kind:data(any) addr:0x0217a324
data_ov094_0217a330 kind:data(any) addr:0x0217a330 ambiguous
data_ov094_0217a344 kind:data(any) addr:0x0217a344
data_ov094_0217a370 kind:data(any) addr:0x0217a370
data_ov094_0217a37c kind:data(any) addr:0x0217a37c ambiguous
data_ov094_0217a398 kind:data(any) addr:0x0217a398
data_ov094_0217a3c0 kind:data(any) addr:0x0217a3c0
data_ov094_0217a3e8 kind:data(any) addr:0x0217a3e8
_ZTV19data_ov094_0217a424 kind:data(any) addr:0x0217a424
data_ov094_0217a428 kind:data(any) addr:0x0217a428 ambiguous
data_ov094_0217a468 kind:data(any) addr:0x0217a468
data_ov094_0217a484 kind:data(any) addr:0x0217a484
data_ov094_0217a4a0 kind:data(any) addr:0x0217a4a0
data_ov094_0217a4d4 kind:data(any) addr:0x0217a4d4 ambiguous
data_ov094_0217a4d8 kind:data(any) addr:0x0217a4d8
data_ov094_0217a4f8 kind:data(any) addr:0x0217a4f8
data_ov094_0217a504 kind:data(any) addr:0x0217a504
data_ov094_0217a520 kind:data(any) addr:0x0217a520
data_ov094_0217a57c kind:data(any) addr:0x0217a57c
_ZTV19data_ov094_0217a580 kind:data(any) addr:0x0217a580
data_ov094_0217a5b8 kind:data(any) addr:0x0217a5b8
data_ov094_0217a5cc kind:data(any) addr:0x0217a5cc
data_ov094_0217a5e8 kind:data(any) addr:0x0217a5e8
data_ov094_0217a604 kind:data(any) addr:0x0217a604
data_ov094_0217a648 kind:data(any) addr:0x0217a648
data_ov094_0217a664 kind:data(any) addr:0x0217a664
data_ov094_0217a6a0 kind:data(any) addr:0x0217a6a0
data_ov094_0217a6b4 kind:data(any) addr:0x0217a6b4
data_ov094_0217a6d0 kind:data(any) addr:0x0217a6d0
data_ov094_0217a708 kind:data(any) addr:0x0217a708
data_ov094_0217a718 kind:data(any) addr:0x0217a718
data_ov094_0217a734 kind:data(any) addr:0x0217a734
data_ov094_0217a738 kind:data(any) addr:0x0217a738 ambiguous
data_ov094_0217a740 kind:data(any) addr:0x0217a740 ambiguous
data_ov094_0217a748 kind:data(any) addr:0x0217a748 ambiguous
data_ov094_0217a75c kind:data(any) addr:0x0217a75c ambiguous
data_ov094_0217a764 kind:data(any) addr:0x0217a764 ambiguous
data_ov094_0217a768 kind:data(any) addr:0x0217a768 ambiguous
data_ov094_0217a76c kind:data(any) addr:0x0217a76c ambiguous
data_ov094_0217a778 kind:data(any) addr:0x0217a778
data_ov094_0217a794 kind:data(any) addr:0x0217a794
data_ov094_0217a7e0 kind:bss addr:0x0217a7e0
data_ov094_0217a7e4 kind:bss addr:0x0217a7e4
data_ov094_0217a7f0 kind:bss addr:0x0217a7f0
_ZGVN15ProfileInstanceI19ActorProfileUnkLOCKE8sProfileE kind:bss addr:0x0217a818
@34532 kind:bss addr:0x0217a81c
_ZN15ProfileInstanceI19ActorProfileUnkLOCKE8sProfileE kind:bss addr:0x0217a828
data_ov094_0217a864 kind:bss addr:0x0217a864
data_ov094_0217a868 kind:bss addr:0x0217a868
_ZGVN15ProfileInstanceI19ActorProfileUnkPSWBE8sProfileE kind:bss addr:0x0217a874
@34538 kind:bss addr:0x0217a880
_ZN15ProfileInstanceI19ActorProfileUnkPSWBE8sProfileE kind:bss addr:0x0217a898
data_ov094_0217a904 kind:bss addr:0x0217a904 ambiguous
data_ov094_0217a970 kind:bss addr:0x0217a970
_ZGVN15ProfileInstanceI19ActorProfileUnkVRGNE8sProfileE kind:bss addr:0x0217aa4c
@34544 kind:bss addr:0x0217aa50
_ZN15ProfileInstanceI19ActorProfileUnkVRGNE8sProfileE kind:bss addr:0x0217aa5c
_ZGVN15ProfileInstanceI19ActorProfileUnkVLCRE8sProfileE kind:bss addr:0x0217aa98
@34550 kind:bss addr:0x0217aa9c
_ZN15ProfileInstanceI19ActorProfileUnkVLCRE8sProfileE kind:bss addr:0x0217aaa8
_ZGVN15ProfileInstanceI19ActorProfileUnkSYRNE8sProfileE kind:bss addr:0x0217ab80
@34556 kind:bss addr:0x0217ab84
_ZN15ProfileInstanceI19ActorProfileUnkSYRNE8sProfileE kind:bss addr:0x0217ab90
_ZGVN15ProfileInstanceI19ActorProfileUnkSTTGE8sProfileE kind:bss addr:0x0217ac68
@34562 kind:bss addr:0x0217ac6c
_ZN15ProfileInstanceI19ActorProfileUnkSTTGE8sProfileE kind:bss addr:0x0217ac78
data_ov094_0217ad50 kind:bss addr:0x0217ad50
_ZGVN15ProfileInstanceI19ActorProfileUnkPCTGE8sProfileE kind:bss addr:0x0217ad54
@34568 kind:bss addr:0x0217ad60
_ZN15ProfileInstanceI19ActorProfileUnkPCTGE8sProfileE kind:bss addr:0x0217ada4
_ZGVN15ProfileInstanceI19ActorProfileUnkSPTGE8sProfileE kind:bss addr:0x0217ae7c
@34574 kind:bss addr:0x0217ae80
_ZN15ProfileInstanceI19ActorProfileUnkSPTGE8sProfileE kind:bss addr:0x0217ae8c
_ZGVN15ProfileInstanceI19ActorProfileUnkSNOWE8sProfileE kind:bss addr:0x0217af64
@34580 kind:bss addr:0x0217af68
_ZN15ProfileInstanceI19ActorProfileUnkSNOWE8sProfileE kind:bss addr:0x0217af74
_ZGVN15ProfileInstanceI19ActorProfileUnkFBRGE8sProfileE kind:bss addr:0x0217afb0
@34586 kind:bss addr:0x0217afb4
_ZN15ProfileInstanceI19ActorProfileUnkFBRGE8sProfileE kind:bss addr:0x0217afc0
data_ov094_0217b084 kind:bss addr:0x0217b084 ambiguous
data_ov094_0217b098 kind:bss addr:0x0217b098
_ZGVN15ProfileInstanceI19ActorProfileUnkKOTAE8sProfileE kind:bss addr:0x0217b0ac
@34592 kind:bss addr:0x0217b0b0
_ZN15ProfileInstanceI19ActorProfileUnkKOTAE8sProfileE kind:bss addr:0x0217b0bc
_ZGVN15ProfileInstanceI19ActorProfileUnkEFOCE8sProfileE kind:bss addr:0x0217b0f8
@34598 kind:bss addr:0x0217b0fc
_ZN15ProfileInstanceI19ActorProfileUnkEFOCE8sProfileE kind:bss addr:0x0217b108
data_ov094_0217b1e0 kind:bss addr:0x0217b1e0
data_ov094_0217b1e4 kind:bss addr:0x0217b1e4
_ZGVN15ProfileInstanceI19ActorProfileUnkMNCBE8sProfileE kind:bss addr:0x0217b1e8
@34604 kind:bss addr:0x0217b1ec
_ZN15ProfileInstanceI19ActorProfileUnkMNCBE8sProfileE kind:bss addr:0x0217b1f8
data_ov094_0217b234 kind:bss addr:0x0217b234
data_ov094_0217b244 kind:bss addr:0x0217b244
_ZGVN15ProfileInstanceI19ActorProfileUnkEFR2E8sProfileE kind:bss addr:0x0217b254
@34610 kind:bss addr:0x0217b258
_ZN15ProfileInstanceI19ActorProfileUnkEFR2E8sProfileE kind:bss addr:0x0217b264
_ZGVN15ProfileInstanceI19ActorProfileUnkEFW2E8sProfileE kind:bss addr:0x0217b33c
@34616 kind:bss addr:0x0217b340
_ZN15ProfileInstanceI19ActorProfileUnkEFW2E8sProfileE kind:bss addr:0x0217b34c
_ZGVN15ProfileInstanceI23MapObjectProfileUnkFNCEE8sProfileE kind:bss addr:0x0217b424
@33893 kind:bss addr:0x0217b428
_ZN15ProfileInstanceI23MapObjectProfileUnkFNCEE8sProfileE kind:bss addr:0x0217b434
_ZGVN15ProfileInstanceI23MapObjectProfileUnkWLMPE8sProfileE kind:bss addr:0x0217b508
@33899 kind:bss addr:0x0217b50c
_ZN15ProfileInstanceI23MapObjectProfileUnkWLMPE8sProfileE kind:bss addr:0x0217b518
data_ov094_0217b538 kind:bss addr:0x0217b538
data_ov094_0217b580 kind:bss addr:0x0217b580
_ZGVN15ProfileInstanceI23MapObjectProfileUnkCLMNE8sProfileE kind:bss addr:0x0217b5a0
@33905 kind:bss addr:0x0217b5a4
_ZN15ProfileInstanceI23MapObjectProfileUnkCLMNE8sProfileE kind:bss addr:0x0217b5b0
data_ov094_0217b684 kind:bss addr:0x0217b684
_ZGVN15ProfileInstanceI23MapObjectProfileUnkWDSTE8sProfileE kind:bss addr:0x0217b6a4
@33911 kind:bss addr:0x0217b6ac
_ZN15ProfileInstanceI23MapObjectProfileUnkWDSTE8sProfileE kind:bss addr:0x0217b6b8
data_ov094_0217b78c kind:bss addr:0x0217b78c
data_ov094_0217b7ac kind:bss addr:0x0217b7ac
data_ov094_0217b7b0 kind:bss addr:0x0217b7b0
data_ov094_0217b7bc kind:bss addr:0x0217b7bc
data_ov094_0217b7c8 kind:bss addr:0x0217b7c8
data_ov094_0217b7d4 kind:bss addr:0x0217b7d4
data_ov094_0217b7e0 kind:bss addr:0x0217b7e0
_ZGVN15ProfileInstanceI23MapObjectProfileUnkICEBE8sProfileE kind:bss addr:0x0217b7f8
@33917 kind:bss addr:0x0217b81c
_ZN15ProfileInstanceI23MapObjectProfileUnkICEBE8sProfileE kind:bss addr:0x0217b8d4
data_ov094_0217b9a8 kind:bss addr:0x0217b9a8
_ZGVN15ProfileInstanceI23MapObjectProfileUnkBRGWE8sProfileE kind:bss addr:0x0217b9cc
@33923 kind:bss addr:0x0217b9d0
_ZN15ProfileInstanceI23MapObjectProfileUnkBRGWE8sProfileE kind:bss addr:0x0217b9dc
_ZGVN15ProfileInstanceI23MapObjectProfileUnkMBBSE8sProfileE kind:bss addr:0x0217bab0
@33929 kind:bss addr:0x0217bab4
_ZN15ProfileInstanceI23MapObjectProfileUnkMBBSE8sProfileE kind:bss addr:0x0217bac0
data_ov094_0217bb94 kind:bss addr:0x0217bb94
_ZGVN15ProfileInstanceI23MapObjectProfileUnkTHAWE8sProfileE kind:bss addr:0x0217bbb8
@33935 kind:bss addr:0x0217bbbc
_ZN15ProfileInstanceI23MapObjectProfileUnkTHAWE8sProfileE kind:bss addr:0x0217bbc8
data_ov094_0217bc9c kind:bss addr:0x0217bc9c
_ZGVN15ProfileInstanceI23MapObjectProfileUnkMTWDE8sProfileE kind:bss addr:0x0217bcbc
@33941 kind:bss addr:0x0217bcc0
_ZN15ProfileInstanceI23MapObjectProfileUnkMTWDE8sProfileE kind:bss addr:0x0217bccc
data_ov094_0217bda0 kind:bss addr:0x0217bda0
