func_ov058_02140ba0 kind:function(arm,size=0x110) addr:0x02140ba0
func_ov058_02140cb0 kind:function(arm,size=0x20) addr:0x02140cb0
func_ov058_02140cd0 kind:function(arm,size=0x38) addr:0x02140cd0
_ZN19func_ov058_02140d08D1Ev kind:function(arm,size=0x14) addr:0x02140d08
_ZN19func_ov058_02140d1cD0Ev kind:function(arm,size=0x1c) addr:0x02140d1c
func_ov058_02140d38 kind:function(arm,size=0x68) addr:0x02140d38
func_ov058_02140da0 kind:function(arm,size=0x20) addr:0x02140da0
func_ov058_02140dc0 kind:function(arm,size=0x3c) addr:0x02140dc0
func_ov058_02140dfc kind:function(arm,size=0x8) addr:0x02140dfc
_ZN19func_ov058_02140e04D1Ev kind:function(arm,size=0x14) addr:0x02140e04
_ZN19func_ov058_02140e18D0Ev kind:function(arm,size=0x1c) addr:0x02140e18
_ZN19ActorProfileUnkKOKO10GetProfileEv kind:function(arm,size=0xc) addr:0x02140e34
_ZN19ActorProfileUnkKOKO6CreateEv kind:function(arm,size=0x24) addr:0x02140e40
_ZN19ActorProfileUnkKOKOC1Ev kind:function(arm,size=0x6c) addr:0x02140e64
_ZN12ActorUnkKOKO19func_ov058_02140ed0Ev kind:function(arm,size=0x34) addr:0x02140ed0
_ZN12ActorUnkKOKOC1Ev kind:function(arm,size=0x21c) addr:0x02140f04
_ZN12ActorUnkKOKO19func_ov058_02141120Ev kind:function(arm,size=0x14) addr:0x02141120
_ZN12ActorUnkKOKO19func_ov058_02141134Ev kind:function(arm,size=0x14) addr:0x02141134
_ZN12ActorUnkKOKO19func_ov058_02141148Ev kind:function(arm,size=0x14) addr:0x02141148
_ZN12ActorUnkKOKO19func_ov058_0214115cEv kind:function(arm,size=0x14) addr:0x0214115c
_ZN12ActorUnkKOKO19func_ov058_02141170Ev kind:function(arm,size=0xfc) addr:0x02141170
_ZN12ActorUnkKOKOD0Ev kind:function(arm,size=0x104) addr:0x0214126c
_ZN12ActorUnkKOKO19func_ov058_02141370Ev kind:function(arm,size=0xe4) addr:0x02141370
_ZN12ActorUnkKOKO19func_ov058_02141454Ev kind:function(arm,size=0x9c) addr:0x02141454
_ZN12ActorUnkKOKO19func_ov058_021414f0Ev kind:function(arm,size=0x348) addr:0x021414f0
_ZN12ActorUnkKOKO19func_ov058_02141838Ev kind:function(arm,size=0x48) addr:0x02141838
_ZN12ActorUnkKOKO19func_ov058_02141880Ev kind:function(arm,size=0x98) addr:0x02141880
_ZN12ActorUnkKOKO19func_ov058_02141918Ev kind:function(arm,size=0x78) addr:0x02141918
_ZN12ActorUnkKOKO19func_ov058_02141990Ev kind:function(arm,size=0x68) addr:0x02141990
_ZN12ActorUnkKOKO19func_ov058_021419f8Ev kind:function(arm,size=0x6c) addr:0x021419f8
_ZN12ActorUnkKOKO19func_ov058_02141a64Ev kind:function(arm,size=0x58) addr:0x02141a64
_ZN12ActorUnkKOKO19func_ov058_02141abcEv kind:function(arm,size=0xb8) addr:0x02141abc
_ZN12ActorUnkKOKO19func_ov058_02141b74Ev kind:function(arm,size=0x90) addr:0x02141b74
_ZN12ActorUnkKOKO19func_ov058_02141c04Ev kind:function(arm,size=0x268) addr:0x02141c04
_ZN12ActorUnkKOKO19func_ov058_02141e6cEv kind:function(arm,size=0x144) addr:0x02141e6c
_ZN12ActorUnkKOKO19func_ov058_02141fb0Ev kind:function(arm,size=0x64) addr:0x02141fb0
_ZN12ActorUnkKOKO19func_ov058_02142014Ev kind:function(arm,size=0x170) addr:0x02142014
_ZN12ActorUnkKOKO19func_ov058_02142184Ev kind:function(arm,size=0xa0) addr:0x02142184
_ZN12ActorUnkKOKO19func_ov058_02142224Ev kind:function(arm,size=0x264) addr:0x02142224
_ZN12ActorUnkKOKO19func_ov058_02142488Ev kind:function(arm,size=0x11c) addr:0x02142488
_ZN12ActorUnkKOKO19func_ov058_021425a4Ev kind:function(arm,size=0x70) addr:0x021425a4
_ZN12ActorUnkKOKO19func_ov058_02142614Ev kind:function(arm,size=0xe4) addr:0x02142614
_ZN12ActorUnkKOKO19func_ov058_021426f8Ev kind:function(arm,size=0x108) addr:0x021426f8
_ZN12ActorUnkKOKO19func_ov058_02142800Ev kind:function(arm,size=0x108) addr:0x02142800
_ZN12ActorUnkKOKO19func_ov058_02142908Ev kind:function(arm,size=0xac) addr:0x02142908
_ZN12ActorUnkKOKO19func_ov058_021429b4Ev kind:function(arm,size=0xe0) addr:0x021429b4
_ZN12ActorUnkKOKO19func_ov058_02142a94Ev kind:function(arm,size=0xf0) addr:0x02142a94
_ZN12ActorUnkKOKO19func_ov058_02142b84Ev kind:function(arm,size=0x8c) addr:0x02142b84
_ZN12ActorUnkKOKO19func_ov058_02142c10Ev kind:function(arm,size=0x74) addr:0x02142c10
_ZN12ActorUnkKOKO19func_ov058_02142c84Ev kind:function(arm,size=0xac) addr:0x02142c84
_ZN12ActorUnkKOKO19func_ov058_02142d30Ev kind:function(arm,size=0x8c) addr:0x02142d30
_ZN12ActorUnkKOKO19func_ov058_02142dbcEv kind:function(arm,size=0x88) addr:0x02142dbc
_ZN12ActorUnkKOKO19func_ov058_02142e44Ev kind:function(arm,size=0x3a0) addr:0x02142e44
_ZN12ActorUnkKOKO19func_ov058_021431e4Ev kind:function(arm,size=0x30) addr:0x021431e4
_ZN12ActorUnkKOKO19func_ov058_02143214Ev kind:function(arm,size=0x2e0) addr:0x02143214
_ZN12ActorUnkKOKO19func_ov058_021434f4Ev kind:function(arm,size=0xa8) addr:0x021434f4
_ZN12ActorUnkKOKO19func_ov058_0214359cEv kind:function(arm,size=0x48) addr:0x0214359c
_ZN12ActorUnkKOKO19func_ov058_021435e4Ev kind:function(arm,size=0x38) addr:0x021435e4
_ZN12ActorUnkKOKO19func_ov058_0214361cEv kind:function(arm,size=0x38) addr:0x0214361c
_ZN12ActorUnkKOKO19func_ov058_02143654Ev kind:function(arm,size=0x10) addr:0x02143654
_ZN12ActorUnkKOKO19func_ov058_02143664Ev kind:function(arm,size=0x10) addr:0x02143664
_ZN12ActorUnkKOKO19func_ov058_02143674Ev kind:function(arm,size=0xbc) addr:0x02143674
_ZN12ActorUnkKOKO19func_ov058_02143730Ev kind:function(arm,size=0x34) addr:0x02143730
_ZN12ActorUnkKOKO19func_ov058_02143764Ev kind:function(arm,size=0x20) addr:0x02143764
_ZN12ActorUnkKOKO19func_ov058_02143784Ev kind:function(arm,size=0x80) addr:0x02143784
_ZN12ActorUnkKOKO19func_ov058_02143804Ev kind:function(arm,size=0xac) addr:0x02143804
_ZN12ActorUnkKOKO19func_ov058_021438b0Ev kind:function(arm,size=0x24) addr:0x021438b0
_ZN12ActorUnkKOKO19func_ov058_021438d4Ev kind:function(arm,size=0x10) addr:0x021438d4
_ZN12ActorUnkKOKO19func_ov058_021438e4Ev kind:function(arm,size=0x8) addr:0x021438e4
_ZN12ActorUnkKOKO19func_ov058_021438ecEv kind:function(arm,size=0x24) addr:0x021438ec
_ZN12ActorUnkKOKO19func_ov058_02143910Ev kind:function(arm,size=0x2c) addr:0x02143910
_ZN12ActorUnkKOKO19func_ov058_0214393cEv kind:function(arm,size=0x14) addr:0x0214393c
_ZN12ActorUnkKOKO19func_ov058_02143950Ev kind:function(arm,size=0x1c) addr:0x02143950
_ZN12ActorUnkKOKO19func_ov058_0214396cEv kind:function(arm,size=0x1c) addr:0x0214396c
_ZN12ActorUnkKOKO19func_ov058_02143988Ev kind:function(arm,size=0x1c) addr:0x02143988
_ZN19ActorProfileUnkKOKOD1Ev kind:function(arm,size=0x14) addr:0x021439a4
_ZN19ActorProfileUnkKOAT10GetProfileEv kind:function(arm,size=0xc) addr:0x021439b8
_ZN19ActorProfileUnkKOAT6CreateEv kind:function(arm,size=0x24) addr:0x021439c4
_ZN19ActorProfileUnkKOATC1Ev kind:function(arm,size=0x4c) addr:0x021439e8
_ZN12ActorUnkKOAT19func_ov058_02143a34Ev kind:function(arm,size=0x16c) addr:0x02143a34
_ZN12ActorUnkKOATC1Ev kind:function(arm,size=0xf4) addr:0x02143ba0
_ZN12ActorUnkKOATD1Ev kind:function(arm,size=0x28) addr:0x02143c94
_ZN12ActorUnkKOATD0Ev kind:function(arm,size=0x30) addr:0x02143cbc
_ZN12ActorUnkKOAT19func_ov058_02143cecEv kind:function(arm,size=0x11c) addr:0x02143cec
_ZN12ActorUnkKOAT19func_ov058_02143e08Ev kind:function(arm,size=0xc8) addr:0x02143e08
_ZN12ActorUnkKOAT19func_ov058_02143ed0Ev kind:function(arm,size=0x78) addr:0x02143ed0
_ZN19ActorProfileUnkKOATD1Ev kind:function(arm,size=0x14) addr:0x02143f48
_ZN19ActorProfileUnkKOCH10GetProfileEv kind:function(arm,size=0xc) addr:0x02143f5c
_ZN19ActorProfileUnkKOCH6CreateEv kind:function(arm,size=0x28) addr:0x02143f68
_ZN19ActorProfileUnkKOCHC1Ev kind:function(arm,size=0x28) addr:0x02143f90
_ZN12ActorUnkKOCHC1Ev kind:function(arm,size=0x68) addr:0x02143fb8
_ZN12ActorUnkKOCH19func_ov058_02144020Ev kind:function(arm,size=0x8) addr:0x02144020
_ZN12ActorUnkKOCH19func_ov058_02144028Ev kind:function(arm,size=0x58) addr:0x02144028
_ZN12ActorUnkKOCH19func_ov058_02144080Ev kind:function(arm,size=0x10c) addr:0x02144080
_ZN12ActorUnkKOCH19func_ov058_0214418cEv kind:function(arm,size=0x30) addr:0x0214418c
_ZN12ActorUnkKOCH19func_ov058_021441bcEv kind:function(arm,size=0x38) addr:0x021441bc
_ZN12ActorUnkKOCH19func_ov058_021441f4Ev kind:function(arm,size=0xa4) addr:0x021441f4
_ZN12ActorUnkKOCH19func_ov058_02144298Ev kind:function(arm,size=0x58) addr:0x02144298
_ZN12ActorUnkKOCH19func_ov058_021442f0Ev kind:function(arm,size=0x3c) addr:0x021442f0
_ZN12ActorUnkKOCH19func_ov058_0214432cEv kind:function(arm,size=0x40) addr:0x0214432c
_ZN12ActorUnkKOCH19func_ov058_0214436cEv kind:function(arm,size=0x28) addr:0x0214436c
_ZN12ActorUnkKOCH19func_ov058_02144394Ev kind:function(arm,size=0x10) addr:0x02144394
_ZN12ActorUnkKOCH19func_ov058_021443a4Ev kind:function(arm,size=0x28) addr:0x021443a4
_ZN12ActorUnkKOCH19func_ov058_021443ccEv kind:function(arm,size=0x50) addr:0x021443cc
_ZN12ActorUnkKOCH19func_ov058_0214441cEv kind:function(arm,size=0x30) addr:0x0214441c
_ZN12ActorUnkKOCH19func_ov058_0214444cEv kind:function(arm,size=0x5c) addr:0x0214444c
_ZN12ActorUnkKOCH19func_ov058_021444a8Ev kind:function(arm,size=0x60) addr:0x021444a8
_ZN12ActorUnkKOCH19func_ov058_02144508Ev kind:function(arm,size=0x4) addr:0x02144508
_ZN12ActorUnkKOCH19func_ov058_0214450cEv kind:function(arm,size=0x8) addr:0x0214450c
_ZN12ActorUnkKOCH19func_ov058_02144514Ev kind:function(arm,size=0x10) addr:0x02144514
_ZN12ActorUnkKOCH19func_ov058_02144524Ev kind:function(arm,size=0x14) addr:0x02144524
_ZN12ActorUnkKOCHD1Ev kind:function(arm,size=0x1c) addr:0x02144538
_ZN12ActorUnkKOCHD0Ev kind:function(arm,size=0x24) addr:0x02144554
_ZN19ActorProfileUnkKOCHD1Ev kind:function(arm,size=0x14) addr:0x02144578
func_ov058_0214458c kind:function(arm,size=0x10) addr:0x0214458c
func_ov058_0214459c kind:function(arm,size=0x10) addr:0x0214459c
_ZN19ActorProfileUnkNSTN10GetProfileEv kind:function(arm,size=0xc) addr:0x021445ac
_ZN19ActorProfileUnkNSTN6CreateEv kind:function(arm,size=0x24) addr:0x021445b8
_ZN19ActorProfileUnkNSTNC1Ev kind:function(arm,size=0x30) addr:0x021445dc
_ZN12ActorUnkNSTNC1Ev kind:function(arm,size=0x90) addr:0x0214460c
_ZN12ActorUnkNSTN19func_ov058_0214469cEv kind:function(arm,size=0x14) addr:0x0214469c
_ZN12ActorUnkNSTN19func_ov058_021446b0Ev kind:function(arm,size=0x18) addr:0x021446b0
_ZN12ActorUnkNSTN19func_ov058_021446c8Ev kind:function(arm,size=0x8) addr:0x021446c8
_ZN12ActorUnkNSTN19func_ov058_021446d0Ev kind:function(arm,size=0x54) addr:0x021446d0
_ZN12ActorUnkNSTN19func_ov058_02144724Ev kind:function(arm,size=0x38) addr:0x02144724
_ZN12ActorUnkNSTN19func_ov058_0214475cEv kind:function(arm,size=0x30) addr:0x0214475c
_ZN12ActorUnkNSTN19func_ov058_0214478cEv kind:function(arm,size=0xc) addr:0x0214478c
_ZN12ActorUnkNSTN19func_ov058_02144798Ev kind:function(arm,size=0xc) addr:0x02144798
_ZN12ActorUnkNSTN19func_ov058_021447a4Ev kind:function(arm,size=0xc) addr:0x021447a4
_ZN12ActorUnkNSTN19func_ov058_021447b0Ev kind:function(arm,size=0xc) addr:0x021447b0
_ZN12ActorUnkNSTN19func_ov058_021447bcEv kind:function(arm,size=0xc) addr:0x021447bc
_ZN12ActorUnkNSTN19func_ov058_021447c8Ev kind:function(arm,size=0xc) addr:0x021447c8
_ZN12ActorUnkNSTN19func_ov058_021447d4Ev kind:function(arm,size=0xc) addr:0x021447d4
_ZN12ActorUnkNSTN19func_ov058_021447e0Ev kind:function(arm,size=0xc) addr:0x021447e0
_ZN12ActorUnkNSTN19func_ov058_021447ecEv kind:function(arm,size=0x14) addr:0x021447ec
_ZN12ActorUnkNSTN19func_ov058_02144800Ev kind:function(arm,size=0x14) addr:0x02144800
_ZN12ActorUnkNSTN19func_ov058_02144814Ev kind:function(arm,size=0xd4) addr:0x02144814
_ZN12ActorUnkNSTN19func_ov058_021448e8Ev kind:function(arm,size=0xc) addr:0x021448e8
_ZN12ActorUnkNSTND1Ev kind:function(arm,size=0x30) addr:0x021448f4
_ZN12ActorUnkNSTND0Ev kind:function(arm,size=0x38) addr:0x02144924
_ZN19ActorProfileUnkNSTND1Ev kind:function(arm,size=0x14) addr:0x0214495c
_ZN19ActorProfileUnkSYOS10GetProfileEv kind:function(arm,size=0xc) addr:0x02144970
_ZN19ActorProfileUnkSYOS6CreateEv kind:function(arm,size=0x8) addr:0x0214497c
_ZN19ActorProfileUnkSYOSC1Ev kind:function(arm,size=0x2c) addr:0x02144984
_ZN19ActorProfileUnkSYSS10GetProfileEv kind:function(arm,size=0xc) addr:0x021449b0
_ZN19ActorProfileUnkSYSS6CreateEv kind:function(arm,size=0x8) addr:0x021449bc
_ZN19ActorProfileUnkSYSSC1Ev kind:function(arm,size=0x2c) addr:0x021449c4
_ZN19ActorProfileUnkSYWS10GetProfileEv kind:function(arm,size=0xc) addr:0x021449f0
_ZN19ActorProfileUnkSYWS6CreateEv kind:function(arm,size=0x8) addr:0x021449fc
_ZN19ActorProfileUnkSYWSC1Ev kind:function(arm,size=0x2c) addr:0x02144a04
_ZN19ActorProfileUnkSYIS10GetProfileEv kind:function(arm,size=0xc) addr:0x02144a30
_ZN19ActorProfileUnkSYIS6CreateEv kind:function(arm,size=0x8) addr:0x02144a3c
_ZN19ActorProfileUnkSYISC1Ev kind:function(arm,size=0x2c) addr:0x02144a44
_ZN19ActorProfileUnkSYDS10GetProfileEv kind:function(arm,size=0xc) addr:0x02144a70
_ZN19ActorProfileUnkSYDS6CreateEv kind:function(arm,size=0x8) addr:0x02144a7c
_ZN19ActorProfileUnkSYDSC1Ev kind:function(arm,size=0x2c) addr:0x02144a84
_ZN19ActorProfileUnkSYOL10GetProfileEv kind:function(arm,size=0xc) addr:0x02144ab0
_ZN19ActorProfileUnkSYOL6CreateEv kind:function(arm,size=0x8) addr:0x02144abc
_ZN19ActorProfileUnkSYOLC1Ev kind:function(arm,size=0x2c) addr:0x02144ac4
_ZN19ActorProfileUnkSYSL10GetProfileEv kind:function(arm,size=0xc) addr:0x02144af0
_ZN19ActorProfileUnkSYSL6CreateEv kind:function(arm,size=0x8) addr:0x02144afc
_ZN19ActorProfileUnkSYSLC1Ev kind:function(arm,size=0x2c) addr:0x02144b04
_ZN19ActorProfileUnkSYWL10GetProfileEv kind:function(arm,size=0xc) addr:0x02144b30
_ZN19ActorProfileUnkSYWL6CreateEv kind:function(arm,size=0x8) addr:0x02144b3c
_ZN19ActorProfileUnkSYWLC1Ev kind:function(arm,size=0x2c) addr:0x02144b44
_ZN19ActorProfileUnkSYIL10GetProfileEv kind:function(arm,size=0xc) addr:0x02144b70
_ZN19ActorProfileUnkSYIL6CreateEv kind:function(arm,size=0x8) addr:0x02144b7c
_ZN19ActorProfileUnkSYILC1Ev kind:function(arm,size=0x2c) addr:0x02144b84
_ZN19ActorProfileUnkSYDL10GetProfileEv kind:function(arm,size=0xc) addr:0x02144bb0
_ZN19ActorProfileUnkSYDL6CreateEv kind:function(arm,size=0x8) addr:0x02144bbc
_ZN19ActorProfileUnkSYDLC1Ev kind:function(arm,size=0x2c) addr:0x02144bc4
_ZN19ActorProfileUnkSYFO10GetProfileEv kind:function(arm,size=0xc) addr:0x02144bf0
_ZN19ActorProfileUnkSYFO6CreateEv kind:function(arm,size=0x28) addr:0x02144bfc
_ZN19ActorProfileUnkSYFOC1Ev kind:function(arm,size=0xa4) addr:0x02144c24
_ZN19ActorProfileUnkSYSN10GetProfileEv kind:function(arm,size=0xc) addr:0x02144cc8
_ZN19ActorProfileUnkSYSN6CreateEv kind:function(arm,size=0x28) addr:0x02144cd4
_ZN19ActorProfileUnkSYSNC1Ev kind:function(arm,size=0x9c) addr:0x02144cfc
_ZN19ActorProfileUnkSYWA10GetProfileEv kind:function(arm,size=0xc) addr:0x02144d98
_ZN19ActorProfileUnkSYWA6CreateEv kind:function(arm,size=0x28) addr:0x02144da4
_ZN19ActorProfileUnkSYWAC1Ev kind:function(arm,size=0xa0) addr:0x02144dcc
_ZN19ActorProfileUnkSYFI10GetProfileEv kind:function(arm,size=0xc) addr:0x02144e6c
_ZN19ActorProfileUnkSYFI6CreateEv kind:function(arm,size=0x28) addr:0x02144e78
_ZN19ActorProfileUnkSYFIC1Ev kind:function(arm,size=0xa4) addr:0x02144ea0
_ZN19ActorProfileUnkSYDE10GetProfileEv kind:function(arm,size=0xc) addr:0x02144f44
_ZN19ActorProfileUnkSYDE6CreateEv kind:function(arm,size=0x28) addr:0x02144f50
_ZN19ActorProfileUnkSYDEC1Ev kind:function(arm,size=0xa0) addr:0x02144f78
func_ov058_02145018 kind:function(arm,size=0x1a8) addr:0x02145018
func_ov058_021451c0 kind:function(arm,size=0xf6c) addr:0x021451c0
func_ov058_0214612c kind:function(arm,size=0x14) addr:0x0214612c
_ZN19func_ov058_02146140D1Ev kind:function(arm,size=0xa8) addr:0x02146140
_ZN19func_ov058_021461e8D0Ev kind:function(arm,size=0xb0) addr:0x021461e8
func_ov058_02146298 kind:function(arm,size=0x4e8) addr:0x02146298
func_ov058_02146780 kind:function(arm,size=0x580) addr:0x02146780
func_ov058_02146d00 kind:function(arm,size=0x584) addr:0x02146d00
func_ov058_02147284 kind:function(arm,size=0x34) addr:0x02147284
func_ov058_021472b8 kind:function(arm,size=0x74) addr:0x021472b8
func_ov058_0214732c kind:function(arm,size=0x148) addr:0x0214732c
func_ov058_02147474 kind:function(arm,size=0xd0) addr:0x02147474
func_ov058_02147544 kind:function(arm,size=0x54) addr:0x02147544
func_ov058_02147598 kind:function(arm,size=0x2c) addr:0x02147598
func_ov058_021475c4 kind:function(arm,size=0x1f0) addr:0x021475c4
func_ov058_021477b4 kind:function(arm,size=0x94) addr:0x021477b4
func_ov058_02147848 kind:function(arm,size=0x140) addr:0x02147848
func_ov058_02147988 kind:function(arm,size=0xec) addr:0x02147988
func_ov058_02147a74 kind:function(arm,size=0x5c) addr:0x02147a74
func_ov058_02147ad0 kind:function(arm,size=0x180) addr:0x02147ad0
func_ov058_02147c50 kind:function(arm,size=0xdc) addr:0x02147c50
func_ov058_02147d2c kind:function(arm,size=0x174) addr:0x02147d2c
func_ov058_02147ea0 kind:function(arm,size=0xb8) addr:0x02147ea0
func_ov058_02147f58 kind:function(arm,size=0x28) addr:0x02147f58
func_ov058_02147f80 kind:function(arm,size=0x28) addr:0x02147f80
func_ov058_02147fa8 kind:function(arm,size=0x28) addr:0x02147fa8
func_ov058_02147fd0 kind:function(arm,size=0x20) addr:0x02147fd0
func_ov058_02147ff0 kind:function(arm,size=0x28) addr:0x02147ff0
func_ov058_02148018 kind:function(arm,size=0x2c) addr:0x02148018
func_ov058_02148044 kind:function(arm,size=0x2c) addr:0x02148044
func_ov058_02148070 kind:function(arm,size=0x2c) addr:0x02148070
func_ov058_0214809c kind:function(arm,size=0x28) addr:0x0214809c
func_ov058_021480c4 kind:function(arm,size=0x68) addr:0x021480c4
func_ov058_0214812c kind:function(arm,size=0x4) addr:0x0214812c
func_ov058_02148130 kind:function(arm,size=0x4) addr:0x02148130
func_ov058_02148134 kind:function(arm,size=0x4) addr:0x02148134
func_ov058_02148138 kind:function(arm,size=0x2c) addr:0x02148138
func_ov058_02148164 kind:function(arm,size=0x2c) addr:0x02148164
func_ov058_02148190 kind:function(arm,size=0xc) addr:0x02148190
func_ov058_0214819c kind:function(arm,size=0x2f0) addr:0x0214819c
func_ov058_0214848c kind:function(arm,size=0x90) addr:0x0214848c
func_ov058_0214851c kind:function(arm,size=0xa0) addr:0x0214851c
func_ov058_021485bc kind:function(arm,size=0x4) addr:0x021485bc
func_ov058_021485c0 kind:function(arm,size=0x4) addr:0x021485c0
func_ov058_021485c4 kind:function(arm,size=0x4) addr:0x021485c4
func_ov058_021485c8 kind:function(arm,size=0x60) addr:0x021485c8
func_ov058_02148628 kind:function(arm,size=0x158) addr:0x02148628
func_ov058_02148780 kind:function(arm,size=0x130) addr:0x02148780
func_ov058_021488b0 kind:function(arm,size=0x60) addr:0x021488b0
func_ov058_02148910 kind:function(arm,size=0x20) addr:0x02148910
func_ov058_02148930 kind:function(arm,size=0x44) addr:0x02148930
func_ov058_02148974 kind:function(arm,size=0x44) addr:0x02148974
func_ov058_021489b8 kind:function(arm,size=0x364) addr:0x021489b8
func_ov058_02148d1c kind:function(arm,size=0x70) addr:0x02148d1c
func_ov058_02148d8c kind:function(arm,size=0x74) addr:0x02148d8c
func_ov058_02148e00 kind:function(arm,size=0x38) addr:0x02148e00
func_ov058_02148e38 kind:function(arm,size=0x54c) addr:0x02148e38
func_ov058_02149384 kind:function(arm,size=0x20) addr:0x02149384
func_ov058_021493a4 kind:function(arm,size=0x100) addr:0x021493a4
func_ov058_021494a4 kind:function(arm,size=0x1b0) addr:0x021494a4
func_ov058_02149654 kind:function(arm,size=0x4c) addr:0x02149654
func_ov058_021496a0 kind:function(arm,size=0x28) addr:0x021496a0
func_ov058_021496c8 kind:function(arm,size=0x68) addr:0x021496c8
func_ov058_02149730 kind:function(arm,size=0x80) addr:0x02149730
func_ov058_021497b0 kind:function(arm,size=0x2c) addr:0x021497b0
func_ov058_021497dc kind:function(arm,size=0x2c) addr:0x021497dc
func_ov058_02149808 kind:function(arm,size=0x30) addr:0x02149808
func_ov058_02149838 kind:function(arm,size=0x3c) addr:0x02149838
func_ov058_02149874 kind:function(arm,size=0x3c) addr:0x02149874
func_ov058_021498b0 kind:function(arm,size=0x3c) addr:0x021498b0
func_ov058_021498ec kind:function(arm,size=0x3c) addr:0x021498ec
func_ov058_02149928 kind:function(arm,size=0x3c) addr:0x02149928
func_ov058_02149964 kind:function(arm,size=0x3c) addr:0x02149964
func_ov058_021499a0 kind:function(arm,size=0x4) addr:0x021499a0
_ZN19func_ov058_021499a4D0Ev kind:function(arm,size=0x1c) addr:0x021499a4
_ZN19func_ov058_021499c0D0Ev kind:function(arm,size=0x28) addr:0x021499c0
_ZN19func_ov058_021499e8D2Ev kind:function(arm,size=0x20) addr:0x021499e8
_ZN19ActorProfileUnkSYOSD1Ev kind:function(arm,size=0x14) addr:0x02149a08
_ZN19ActorProfileUnkSYSSD1Ev kind:function(arm,size=0x14) addr:0x02149a1c
_ZN19ActorProfileUnkSYWSD1Ev kind:function(arm,size=0x14) addr:0x02149a30
_ZN19ActorProfileUnkSYISD1Ev kind:function(arm,size=0x14) addr:0x02149a44
_ZN19ActorProfileUnkSYDSD1Ev kind:function(arm,size=0x14) addr:0x02149a58
_ZN19ActorProfileUnkSYOLD1Ev kind:function(arm,size=0x14) addr:0x02149a6c
_ZN19ActorProfileUnkSYSLD1Ev kind:function(arm,size=0x14) addr:0x02149a80
_ZN19ActorProfileUnkSYWLD1Ev kind:function(arm,size=0x14) addr:0x02149a94
_ZN19ActorProfileUnkSYILD1Ev kind:function(arm,size=0x14) addr:0x02149aa8
_ZN19ActorProfileUnkSYDLD1Ev kind:function(arm,size=0x14) addr:0x02149abc
_ZN19ActorProfileUnkSYFOD1Ev kind:function(arm,size=0x14) addr:0x02149ad0
_ZN19ActorProfileUnkSYSND1Ev kind:function(arm,size=0x14) addr:0x02149ae4
_ZN19ActorProfileUnkSYWAD1Ev kind:function(arm,size=0x14) addr:0x02149af8
_ZN19ActorProfileUnkSYFID1Ev kind:function(arm,size=0x14) addr:0x02149b0c
_ZN19ActorProfileUnkSYDED1Ev kind:function(arm,size=0x14) addr:0x02149b20
_ZN19ActorProfileUnkCRFT10GetProfileEv kind:function(arm,size=0xc) addr:0x02149b34
_ZN19ActorProfileUnkCRFT6CreateEv kind:function(arm,size=0x24) addr:0x02149b40
_ZN19ActorProfileUnkCRFTC1Ev kind:function(arm,size=0x70) addr:0x02149b64
_ZN12ActorUnkCRFTC1Ev kind:function(arm,size=0x1b8) addr:0x02149bd4
_ZN12ActorUnkCRFT19func_ov058_02149d8cEv kind:function(arm,size=0x30) addr:0x02149d8c
_ZN12ActorUnkCRFT19func_ov058_02149dbcEv kind:function(arm,size=0x54) addr:0x02149dbc
_ZN12ActorUnkCRFT19func_ov058_02149e10Ev kind:function(arm,size=0xb0) addr:0x02149e10
_ZN12ActorUnkCRFT19func_ov058_02149ec0Ev kind:function(arm,size=0x7c) addr:0x02149ec0
_ZN12ActorUnkCRFT19func_ov058_02149f3cEv kind:function(arm,size=0x104) addr:0x02149f3c
_ZN12ActorUnkCRFT19func_ov058_0214a040Ev kind:function(arm,size=0x4c) addr:0x0214a040
_ZN12ActorUnkCRFT19func_ov058_0214a08cEv kind:function(arm,size=0x34) addr:0x0214a08c
_ZN12ActorUnkCRFT19func_ov058_0214a0c0Ev kind:function(arm,size=0x64) addr:0x0214a0c0
_ZN12ActorUnkCRFT19func_ov058_0214a124Ev kind:function(arm,size=0x34) addr:0x0214a124
_ZN12ActorUnkCRFT19func_ov058_0214a158Ev kind:function(arm,size=0x7c) addr:0x0214a158
_ZN12ActorUnkCRFT19func_ov058_0214a1d4Ev kind:function(arm,size=0x7c) addr:0x0214a1d4
_ZN12ActorUnkCRFT19func_ov058_0214a250Ev kind:function(arm,size=0x90) addr:0x0214a250
_ZN12ActorUnkCRFT19func_ov058_0214a2e0Ev kind:function(arm,size=0x74) addr:0x0214a2e0
_ZN12ActorUnkCRFT19func_ov058_0214a354Ev kind:function(arm,size=0x14) addr:0x0214a354
_ZN12ActorUnkCRFT19func_ov058_0214a368Ev kind:function(arm,size=0x3c) addr:0x0214a368
_ZN12ActorUnkCRFT19func_ov058_0214a3a4Ev kind:function(arm,size=0x68) addr:0x0214a3a4
_ZN12ActorUnkCRFT19func_ov058_0214a40cEv kind:function(arm,size=0x1c) addr:0x0214a40c
_ZN12ActorUnkCRFT19func_ov058_0214a428Ev kind:function(arm,size=0x8) addr:0x0214a428
_ZN12ActorUnkCRFT19func_ov058_0214a430Ev kind:function(arm,size=0x30) addr:0x0214a430
_ZN12ActorUnkCRFT19func_ov058_0214a460Ev kind:function(arm,size=0x40) addr:0x0214a460
_ZN12ActorUnkCRFT19func_ov058_0214a4a0Ev kind:function(arm,size=0x7c) addr:0x0214a4a0
_ZN12ActorUnkCRFT19func_ov058_0214a51cEv kind:function(arm,size=0x2c) addr:0x0214a51c
_ZN12ActorUnkCRFT19func_ov058_0214a548Ev kind:function(arm,size=0xa4) addr:0x0214a548
_ZN12ActorUnkCRFT19func_ov058_0214a5ecEv kind:function(arm,size=0xc4) addr:0x0214a5ec
_ZN12ActorUnkCRFT19func_ov058_0214a6b0Ev kind:function(arm,size=0x2c) addr:0x0214a6b0
_ZN12ActorUnkCRFT19func_ov058_0214a6dcEv kind:function(arm,size=0x6c) addr:0x0214a6dc
_ZN12ActorUnkCRFT19func_ov058_0214a748Ev kind:function(arm,size=0x6c) addr:0x0214a748
_ZN12ActorUnkCRFTD1Ev kind:function(arm,size=0x30) addr:0x0214a7b4
_ZN12ActorUnkCRFTD0Ev kind:function(arm,size=0x38) addr:0x0214a7e4
_ZN19ActorProfileUnkCRFTD1Ev kind:function(arm,size=0x14) addr:0x0214a81c
_ZN19ActorProfileUnkFBRD10GetProfileEv kind:function(arm,size=0xc) addr:0x0214a830
_ZN19ActorProfileUnkFBRD6CreateEv kind:function(arm,size=0x24) addr:0x0214a83c
_ZN19ActorProfileUnkFBRDC1Ev kind:function(arm,size=0x44) addr:0x0214a860
_ZN12ActorUnkFBRD19func_ov058_0214a8a4Ev kind:function(arm,size=0x28) addr:0x0214a8a4
_ZN12ActorUnkFBRD19func_ov058_0214a8ccEv kind:function(arm,size=0x20) addr:0x0214a8cc
_ZN12ActorUnkFBRD19func_ov058_0214a8ecEv kind:function(arm,size=0x50) addr:0x0214a8ec
_ZN12ActorUnkFBRD19func_ov058_0214a93cEv kind:function(arm,size=0x1d8) addr:0x0214a93c
_ZN12ActorUnkFBRDC1Ev kind:function(arm,size=0x1b0) addr:0x0214ab14
_ZN12ActorUnkFBRD19func_ov058_0214acc4Ev kind:function(arm,size=0x14) addr:0x0214acc4
_ZN12ActorUnkFBRD19func_ov058_0214acd8Ev kind:function(arm,size=0xbc) addr:0x0214acd8
_ZN12ActorUnkFBRDD0Ev kind:function(arm,size=0xc4) addr:0x0214ad94
_ZN12ActorUnkFBRD19func_ov058_0214ae58Ev kind:function(arm,size=0x9c) addr:0x0214ae58
_ZN12ActorUnkFBRD19func_ov058_0214aef4Ev kind:function(arm,size=0x64) addr:0x0214aef4
_ZN12ActorUnkFBRD19func_ov058_0214af58Ev kind:function(arm,size=0x40) addr:0x0214af58
_ZN12ActorUnkFBRD19func_ov058_0214af98Ev kind:function(arm,size=0x38) addr:0x0214af98
_ZN12ActorUnkFBRD19func_ov058_0214afd0Ev kind:function(arm,size=0x134) addr:0x0214afd0
_ZN12ActorUnkFBRD19func_ov058_0214b104Ev kind:function(arm,size=0x5c) addr:0x0214b104
_ZN12ActorUnkFBRD19func_ov058_0214b160Ev kind:function(arm,size=0x58) addr:0x0214b160
_ZN12ActorUnkFBRD19func_ov058_0214b1b8Ev kind:function(arm,size=0x88) addr:0x0214b1b8
_ZN12ActorUnkFBRD19func_ov058_0214b240Ev kind:function(arm,size=0x80) addr:0x0214b240
_ZN12ActorUnkFBRD19func_ov058_0214b2c0Ev kind:function(arm,size=0x14) addr:0x0214b2c0
_ZN12ActorUnkFBRD19func_ov058_0214b2d4Ev kind:function(arm,size=0x54) addr:0x0214b2d4
_ZN12ActorUnkFBRD19func_ov058_0214b328Ev kind:function(arm,size=0x1d0) addr:0x0214b328
_ZN12ActorUnkFBRD19func_ov058_0214b4f8Ev kind:function(arm,size=0x318) addr:0x0214b4f8
_ZN12ActorUnkFBRD19func_ov058_0214b810Ev kind:function(arm,size=0x90) addr:0x0214b810
_ZN12ActorUnkFBRD19func_ov058_0214b8a0Ev kind:function(arm,size=0x128) addr:0x0214b8a0
_ZN12ActorUnkFBRD19func_ov058_0214b9c8Ev kind:function(arm,size=0x14) addr:0x0214b9c8
_ZN12ActorUnkFBRD19func_ov058_0214b9dcEv kind:function(arm,size=0x5d4) addr:0x0214b9dc
_ZN12ActorUnkFBRD19func_ov058_0214bfb0Ev kind:function(arm,size=0x18) addr:0x0214bfb0
_ZN12ActorUnkFBRD19func_ov058_0214bfc8Ev kind:function(arm,size=0x28c) addr:0x0214bfc8
_ZN12ActorUnkFBRD19func_ov058_0214c254Ev kind:function(arm,size=0x1d0) addr:0x0214c254
_ZN12ActorUnkFBRD19func_ov058_0214c424Ev kind:function(arm,size=0x60) addr:0x0214c424
_ZN12ActorUnkFBRD19func_ov058_0214c484Ev kind:function(arm,size=0x90) addr:0x0214c484
_ZN12ActorUnkFBRD19func_ov058_0214c514Ev kind:function(arm,size=0x14) addr:0x0214c514
_ZN12ActorUnkFBRD19func_ov058_0214c528Ev kind:function(arm,size=0x74) addr:0x0214c528
_ZN12ActorUnkFBRD19func_ov058_0214c59cEv kind:function(arm,size=0x1c) addr:0x0214c59c
_ZN19ActorProfileUnkFBRDD1Ev kind:function(arm,size=0x14) addr:0x0214c5b8
_ZN19ActorProfileUnkFBSC10GetProfileEv kind:function(arm,size=0xc) addr:0x0214c5cc
_ZN19ActorProfileUnkFBSC6CreateEv kind:function(arm,size=0x24) addr:0x0214c5d8
_ZN19ActorProfileUnkFBSCC1Ev kind:function(arm,size=0x28) addr:0x0214c5fc
_ZN12ActorUnkFBSCC1Ev kind:function(arm,size=0x58) addr:0x0214c624
_ZN12ActorUnkFBSCD1Ev kind:function(arm,size=0x3c) addr:0x0214c67c
_ZN12ActorUnkFBSCD0Ev kind:function(arm,size=0x44) addr:0x0214c6b8
_ZN12ActorUnkFBSC19func_ov058_0214c6fcEv kind:function(arm,size=0x14) addr:0x0214c6fc
_ZN12ActorUnkFBSC19func_ov058_0214c710Ev kind:function(arm,size=0x38) addr:0x0214c710
_ZN12ActorUnkFBSC19func_ov058_0214c748Ev kind:function(arm,size=0x30) addr:0x0214c748
_ZN12ActorUnkFBSC19func_ov058_0214c778Ev kind:function(arm,size=0x34) addr:0x0214c778
_ZN12ActorUnkFBSC19func_ov058_0214c7acEv kind:function(arm,size=0x10) addr:0x0214c7ac
_ZN12ActorUnkFBSC19func_ov058_0214c7bcEv kind:function(arm,size=0x14) addr:0x0214c7bc
_ZN19ActorProfileUnkFBSCD1Ev kind:function(arm,size=0x14) addr:0x0214c7d0
func_ov058_0214c7e4 kind:function(arm,size=0x10) addr:0x0214c7e4
func_ov058_0214c7f4 kind:function(arm,size=0x10) addr:0x0214c7f4
_ZN19ActorProfileUnkWPBD10GetProfileEv kind:function(arm,size=0xc) addr:0x0214c804
_ZN19ActorProfileUnkWPBD6CreateEv kind:function(arm,size=0x24) addr:0x0214c810
_ZN19ActorProfileUnkWPBDC1Ev kind:function(arm,size=0x44) addr:0x0214c834
_ZN12ActorUnkWPBD19func_ov058_0214c878Ev kind:function(arm,size=0x54) addr:0x0214c878
_ZN12ActorUnkWPBD19func_ov058_0214c8ccEv kind:function(arm,size=0x38) addr:0x0214c8cc
_ZN12ActorUnkWPBD19func_ov058_0214c904Ev kind:function(arm,size=0x34) addr:0x0214c904
_ZN12ActorUnkWPBDC1Ev kind:function(arm,size=0x238) addr:0x0214c938
_ZN12ActorUnkWPBD19func_ov058_0214cb70Ev kind:function(arm,size=0x14) addr:0x0214cb70
_ZN12ActorUnkWPBD19func_ov058_0214cb84Ev kind:function(arm,size=0x14) addr:0x0214cb84
_ZN12ActorUnkWPBD19func_ov058_0214cb98Ev kind:function(arm,size=0x174) addr:0x0214cb98
_ZN12ActorUnkWPBD19func_ov058_0214cd0cEv kind:function(arm,size=0xb0) addr:0x0214cd0c
_ZN12ActorUnkWPBD19func_ov058_0214cdbcEv kind:function(arm,size=0x4c) addr:0x0214cdbc
_ZN12ActorUnkWPBD19func_ov058_0214ce08Ev kind:function(arm,size=0x74) addr:0x0214ce08
_ZN12ActorUnkWPBD19func_ov058_0214ce7cEv kind:function(arm,size=0x270) addr:0x0214ce7c
_ZN12ActorUnkWPBD19func_ov058_0214d0ecEv kind:function(arm,size=0x174) addr:0x0214d0ec
_ZN12ActorUnkWPBD19func_ov058_0214d260Ev kind:function(arm,size=0x4) addr:0x0214d260
_ZN12ActorUnkWPBD19func_ov058_0214d264Ev kind:function(arm,size=0x200) addr:0x0214d264
_ZN12ActorUnkWPBD19func_ov058_0214d464Ev kind:function(arm,size=0xbc) addr:0x0214d464
_ZN12ActorUnkWPBD19func_ov058_0214d520Ev kind:function(arm,size=0x2f0) addr:0x0214d520
_ZN12ActorUnkWPBD19func_ov058_0214d810Ev kind:function(arm,size=0x1cc) addr:0x0214d810
_ZN12ActorUnkWPBD19func_ov058_0214d9dcEv kind:function(arm,size=0x20c) addr:0x0214d9dc
_ZN12ActorUnkWPBD19func_ov058_0214dbe8Ev kind:function(arm,size=0xd4) addr:0x0214dbe8
_ZN12ActorUnkWPBD19func_ov058_0214dcbcEv kind:function(arm,size=0x3c) addr:0x0214dcbc
_ZN12ActorUnkWPBD19func_ov058_0214dcf8Ev kind:function(arm,size=0x280) addr:0x0214dcf8
_ZN12ActorUnkWPBD19func_ov058_0214df78Ev kind:function(arm,size=0x60) addr:0x0214df78
_ZN12ActorUnkWPBD19func_ov058_0214dfd8Ev kind:function(arm,size=0x344) addr:0x0214dfd8
_ZN12ActorUnkWPBD19func_ov058_0214e31cEv kind:function(arm,size=0x14c) addr:0x0214e31c
_ZN12ActorUnkWPBD19func_ov058_0214e468Ev kind:function(arm,size=0x108) addr:0x0214e468
_ZN12ActorUnkWPBD19func_ov058_0214e570Ev kind:function(arm,size=0x114) addr:0x0214e570
_ZN12ActorUnkWPBD19func_ov058_0214e684Ev kind:function(arm,size=0x78) addr:0x0214e684
_ZN12ActorUnkWPBD19func_ov058_0214e6fcEv kind:function(arm,size=0x14) addr:0x0214e6fc
_ZN12ActorUnkWPBD19func_ov058_0214e710Ev kind:function(arm,size=0x98) addr:0x0214e710
_ZN12ActorUnkWPBD19func_ov058_0214e7a8Ev kind:function(arm,size=0x84) addr:0x0214e7a8
_ZN12ActorUnkWPBD19func_ov058_0214e82cEv kind:function(arm,size=0x98) addr:0x0214e82c
_ZN12ActorUnkWPBD19func_ov058_0214e8c4Ev kind:function(arm,size=0x50) addr:0x0214e8c4
_ZN12ActorUnkWPBD19func_ov058_0214e914Ev kind:function(arm,size=0xc4) addr:0x0214e914
_ZN12ActorUnkWPBD19func_ov058_0214e9d8Ev kind:function(arm,size=0x210) addr:0x0214e9d8
_ZN12ActorUnkWPBD19func_ov058_0214ebe8Ev kind:function(arm,size=0xd4) addr:0x0214ebe8
_ZN12ActorUnkWPBD19func_ov058_0214ecbcEv kind:function(arm,size=0x1d8) addr:0x0214ecbc
_ZN12ActorUnkWPBD19func_ov058_0214ee94Ev kind:function(arm,size=0x64) addr:0x0214ee94
_ZN12ActorUnkWPBD19func_ov058_0214eef8Ev kind:function(arm,size=0x10) addr:0x0214eef8
_ZN12ActorUnkWPBD19func_ov058_0214ef08Ev kind:function(arm,size=0xe0) addr:0x0214ef08
_ZN12ActorUnkWPBDD0Ev kind:function(arm,size=0x1c) addr:0x0214efe8
_ZN12ActorUnkWPBD19func_ov058_0214f004Ev kind:function(arm,size=0x1c) addr:0x0214f004
_ZN12ActorUnkWPBDD1Ev kind:function(arm,size=0x38) addr:0x0214f020
_ZN12ActorUnkWPBD19func_ov058_0214f058Ev kind:function(arm,size=0x40) addr:0x0214f058
_ZN19ActorProfileUnkWPBDD1Ev kind:function(arm,size=0x14) addr:0x0214f098
_ZN19ActorProfileUnkWPCH10GetProfileEv kind:function(arm,size=0xc) addr:0x0214f0ac
_ZN19ActorProfileUnkWPCH6CreateEv kind:function(arm,size=0x24) addr:0x0214f0b8
_ZN19ActorProfileUnkWPCHC1Ev kind:function(arm,size=0x28) addr:0x0214f0dc
_ZN12ActorUnkWPCHC1Ev kind:function(arm,size=0x40) addr:0x0214f104
_ZN12ActorUnkWPCH19func_ov058_0214f144Ev kind:function(arm,size=0x8) addr:0x0214f144
_ZN12ActorUnkWPCH19func_ov058_0214f14cEv kind:function(arm,size=0x38) addr:0x0214f14c
_ZN12ActorUnkWPCH19func_ov058_0214f184Ev kind:function(arm,size=0x18) addr:0x0214f184
_ZN12ActorUnkWPCH19func_ov058_0214f19cEv kind:function(arm,size=0x18) addr:0x0214f19c
_ZN12ActorUnkWPCH19func_ov058_0214f1b4Ev kind:function(arm,size=0x114) addr:0x0214f1b4
_ZN12ActorUnkWPCH19func_ov058_0214f2c8Ev kind:function(arm,size=0x10) addr:0x0214f2c8
_ZN12ActorUnkWPCH19func_ov058_0214f2d8Ev kind:function(arm,size=0x14) addr:0x0214f2d8
_ZN12ActorUnkWPCHD1Ev kind:function(arm,size=0x1c) addr:0x0214f2ec
_ZN12ActorUnkWPCHD0Ev kind:function(arm,size=0x24) addr:0x0214f308
_ZN19ActorProfileUnkWPCHD1Ev kind:function(arm,size=0x14) addr:0x0214f32c
func_ov058_0214f340 kind:function(arm,size=0x10) addr:0x0214f340
func_ov058_0214f350 kind:function(arm,size=0x10) addr:0x0214f350
_ZN19ActorProfileUnkBSTG10GetProfileEv kind:function(arm,size=0xc) addr:0x0214f360
_ZN19ActorProfileUnkBSTG6CreateEv kind:function(arm,size=0x24) addr:0x0214f36c
_ZN19ActorProfileUnkBSTGC1Ev kind:function(arm,size=0x28) addr:0x0214f390
_ZN12ActorUnkBSTGC1Ev kind:function(arm,size=0x20) addr:0x0214f3b8
_ZN12ActorUnkBSTG19func_ov058_0214f3d8Ev kind:function(arm,size=0x8) addr:0x0214f3d8
_ZN12ActorUnkBSTG19func_ov058_0214f3e0Ev kind:function(arm,size=0x34) addr:0x0214f3e0
_ZN12ActorUnkBSTGD1Ev kind:function(arm,size=0x14) addr:0x0214f414
_ZN12ActorUnkBSTGD0Ev kind:function(arm,size=0x1c) addr:0x0214f428
_ZN19ActorProfileUnkBSTGD1Ev kind:function(arm,size=0x14) addr:0x0214f444
_ZN19ActorProfileUnkTMNA10GetProfileEv kind:function(arm,size=0xc) addr:0x0214f458
_ZN19ActorProfileUnkTMNA6CreateEv kind:function(arm,size=0x24) addr:0x0214f464
_ZN19ActorProfileUnkTMNAC1Ev kind:function(arm,size=0x68) addr:0x0214f488
_ZN12ActorUnkTMNAC1Ev kind:function(arm,size=0x140) addr:0x0214f4f0
_ZN12ActorUnkTMNA19func_ov058_0214f630Ev kind:function(arm,size=0xbc) addr:0x0214f630
_ZN12ActorUnkTMNA19func_ov058_0214f6ecEv kind:function(arm,size=0xc) addr:0x0214f6ec
_ZN12ActorUnkTMNA19func_ov058_0214f6f8Ev kind:function(arm,size=0x20) addr:0x0214f6f8
_ZN12ActorUnkTMNA19func_ov058_0214f718Ev kind:function(arm,size=0x94) addr:0x0214f718
_ZN12ActorUnkTMNA19func_ov058_0214f7acEv kind:function(arm,size=0x60) addr:0x0214f7ac
_ZN12ActorUnkTMNA19func_ov058_0214f80cEv kind:function(arm,size=0x1c) addr:0x0214f80c
_ZN12ActorUnkTMNA19func_ov058_0214f828Ev kind:function(arm,size=0x4c) addr:0x0214f828
_ZN12ActorUnkTMNA19func_ov058_0214f874Ev kind:function(arm,size=0xf8) addr:0x0214f874
_ZN12ActorUnkTMNAD1Ev kind:function(arm,size=0x28) addr:0x0214f96c
_ZN12ActorUnkTMNAD0Ev kind:function(arm,size=0x30) addr:0x0214f994
_ZN12ActorUnkTMNA19func_ov058_0214f9c4Ev kind:function(arm,size=0x20) addr:0x0214f9c4
_ZN12ActorUnkTMNA19func_ov058_0214f9e4Ev kind:function(arm,size=0x14) addr:0x0214f9e4
_ZN19ActorProfileUnkTMNAD1Ev kind:function(arm,size=0x14) addr:0x0214f9f8
_ZN19ActorProfileUnkTMNC10GetProfileEv kind:function(arm,size=0xc) addr:0x0214fa0c
_ZN19ActorProfileUnkTMNC6CreateEv kind:function(arm,size=0x24) addr:0x0214fa18
_ZN19ActorProfileUnkTMNCC1Ev kind:function(arm,size=0x44) addr:0x0214fa3c
_ZN12ActorUnkTMNCC1Ev kind:function(arm,size=0x9c) addr:0x0214fa80
_ZN12ActorUnkTMNC19func_ov058_0214fb1cEv kind:function(arm,size=0x90) addr:0x0214fb1c
_ZN12ActorUnkTMNC19func_ov058_0214fbacEv kind:function(arm,size=0x80) addr:0x0214fbac
_ZN12ActorUnkTMNCD1Ev kind:function(arm,size=0x28) addr:0x0214fc2c
_ZN12ActorUnkTMNCD0Ev kind:function(arm,size=0x30) addr:0x0214fc54
_ZN19ActorProfileUnkTMNCD1Ev kind:function(arm,size=0x14) addr:0x0214fc84
_ZN23MapObjectProfileUnkTREE10GetProfileEv kind:function(arm,size=0xc) addr:0x0214fc98
_ZN23MapObjectProfileUnkTREE6CreateEv kind:function(arm,size=0x24) addr:0x0214fca4
_ZN23MapObjectProfileUnkTREEC1Ev kind:function(arm,size=0xc4) addr:0x0214fcc8
_ZN16MapObjectUnkTREEC1Ev kind:function(arm,size=0x4c) addr:0x0214fd8c
_ZN16MapObjectUnkTREE19func_ov058_0214fdd8Ev kind:function(arm,size=0x1a0) addr:0x0214fdd8
_ZN16MapObjectUnkTREE19func_ov058_0214ff78Ev kind:function(arm,size=0xac) addr:0x0214ff78
_ZN16MapObjectUnkTREE19func_ov058_02150024Ev kind:function(arm,size=0x48) addr:0x02150024
_ZN16MapObjectUnkTREE19func_ov058_0215006cEv kind:function(arm,size=0x8) addr:0x0215006c
_ZN16MapObjectUnkTREE19func_ov058_02150074Ev kind:function(arm,size=0xb0) addr:0x02150074
_ZN16MapObjectUnkTREE19func_ov058_02150124Ev kind:function(arm,size=0x78) addr:0x02150124
_ZN16MapObjectUnkTREED1Ev kind:function(arm,size=0x20) addr:0x0215019c
_ZN16MapObjectUnkTREED0Ev kind:function(arm,size=0x28) addr:0x021501bc
_ZN23MapObjectProfileUnkTREED1Ev kind:function(arm,size=0x14) addr:0x021501e4
_ZN19func_ov058_021501f8D0Ev kind:function(arm,size=0x1c) addr:0x021501f8
_ZN19func_ov058_02150214D0Ev kind:function(arm,size=0x1c) addr:0x02150214
func_ov058_02150230 kind:function(arm,size=0x14) addr:0x02150230
_ZN23MapObjectProfileUnkLEVS10GetProfileEv kind:function(arm,size=0xc) addr:0x02150244
_ZN23MapObjectProfileUnkLEVS6CreateEv kind:function(arm,size=0x24) addr:0x02150250
_ZN23MapObjectProfileUnkLEVSC1Ev kind:function(arm,size=0xa4) addr:0x02150274
_ZN16MapObjectUnkLEVS19func_ov058_02150318Ev kind:function(arm,size=0x98) addr:0x02150318
_ZN16MapObjectUnkLEVSC1Ev kind:function(arm,size=0x98) addr:0x021503b0
_ZN16MapObjectUnkLEVS19func_ov058_02150448Ev kind:function(arm,size=0x18) addr:0x02150448
_ZN16MapObjectUnkLEVS19func_ov058_02150460Ev kind:function(arm,size=0x3c) addr:0x02150460
_ZN16MapObjectUnkLEVS19func_ov058_0215049cEv kind:function(arm,size=0x44) addr:0x0215049c
_ZN16MapObjectUnkLEVS19func_ov058_021504e0Ev kind:function(arm,size=0xb4) addr:0x021504e0
_ZN16MapObjectUnkLEVS19func_ov058_02150594Ev kind:function(arm,size=0x38) addr:0x02150594
_ZN16MapObjectUnkLEVS19func_ov058_021505ccEv kind:function(arm,size=0x184) addr:0x021505cc
_ZN16MapObjectUnkLEVSD1Ev kind:function(arm,size=0x20) addr:0x02150750
_ZN16MapObjectUnkLEVSD0Ev kind:function(arm,size=0x28) addr:0x02150770
_ZN23MapObjectProfileUnkLEVSD1Ev kind:function(arm,size=0x14) addr:0x02150798
_ZN23MapObjectProfileUnkSTNE10GetProfileEv kind:function(arm,size=0xc) addr:0x021507ac
_ZN23MapObjectProfileUnkSTNE6CreateEv kind:function(arm,size=0x24) addr:0x021507b8
_ZN23MapObjectProfileUnkSTNEC1Ev kind:function(arm,size=0x8c) addr:0x021507dc
_ZN16MapObjectUnkSTNEC1Ev kind:function(arm,size=0xb4) addr:0x02150868
_ZN16MapObjectUnkSTNE19func_ov058_0215091cEv kind:function(arm,size=0xb0) addr:0x0215091c
_ZN16MapObjectUnkSTNE19func_ov058_021509ccEv kind:function(arm,size=0xc4) addr:0x021509cc
_ZN16MapObjectUnkSTNE19func_ov058_02150a90Ev kind:function(arm,size=0x50) addr:0x02150a90
_ZN16MapObjectUnkSTNE19func_ov058_02150ae0Ev kind:function(arm,size=0x1c0) addr:0x02150ae0
_ZN16MapObjectUnkSTNE19func_ov058_02150ca0Ev kind:function(arm,size=0x54) addr:0x02150ca0
_ZN16MapObjectUnkSTNE19func_ov058_02150cf4Ev kind:function(arm,size=0x14) addr:0x02150cf4
_ZN16MapObjectUnkSTNE19func_ov058_02150d08Ev kind:function(arm,size=0x34) addr:0x02150d08
_ZN16MapObjectUnkSTNE19func_ov058_02150d3cEv kind:function(arm,size=0x8) addr:0x02150d3c
_ZN16MapObjectUnkSTNED1Ev kind:function(arm,size=0x20) addr:0x02150d44
_ZN16MapObjectUnkSTNED0Ev kind:function(arm,size=0x28) addr:0x02150d64
_ZN23MapObjectProfileUnkSTNED1Ev kind:function(arm,size=0x14) addr:0x02150d8c
_ZN23MapObjectProfileUnkHOUS10GetProfileEv kind:function(arm,size=0xc) addr:0x02150da0
_ZN23MapObjectProfileUnkHOUS6CreateEv kind:function(arm,size=0x24) addr:0x02150dac
_ZN23MapObjectProfileUnkHOUSC1Ev kind:function(arm,size=0x54) addr:0x02150dd0
_ZN16MapObjectUnkHOUSC1Ev kind:function(arm,size=0x78) addr:0x02150e24
_ZN16MapObjectUnkHOUS19func_ov058_02150e9cEv kind:function(arm,size=0x3cc) addr:0x02150e9c
_ZN16MapObjectUnkHOUS19func_ov058_02151268Ev kind:function(arm,size=0x60) addr:0x02151268
_ZN16MapObjectUnkHOUSD1Ev kind:function(arm,size=0x28) addr:0x021512c8
_ZN16MapObjectUnkHOUSD0Ev kind:function(arm,size=0x30) addr:0x021512f0
_ZN23MapObjectProfileUnkHOUSD1Ev kind:function(arm,size=0x14) addr:0x02151320
_ZN19func_ov058_02151334D0Ev kind:function(arm,size=0x1c) addr:0x02151334
func_ov058_02151350 kind:function(arm,size=0x2c) addr:0x02151350
func_ov058_0215137c kind:function(arm,size=0x80) addr:0x0215137c
func_ov058_021513fc kind:function(arm,size=0x80) addr:0x021513fc
func_ov058_0215147c kind:function(arm,size=0x8) addr:0x0215147c
func_ov058_02151484 kind:function(arm,size=0x8) addr:0x02151484
func_ov058_0215148c kind:function(arm,size=0x8) addr:0x0215148c
_ZN19func_ov058_02151494D1Ev kind:function(arm,size=0x20) addr:0x02151494
_ZN19func_ov058_021514b4D0Ev kind:function(arm,size=0x28) addr:0x021514b4
_ZN23MapObjectProfileUnkHOST10GetProfileEv kind:function(arm,size=0xc) addr:0x021514dc
_ZN23MapObjectProfileUnkHOST6CreateEv kind:function(arm,size=0x24) addr:0x021514e8
_ZN23MapObjectProfileUnkHOSTC1Ev kind:function(arm,size=0x48) addr:0x0215150c
_ZN16MapObjectUnkHOSTC1Ev kind:function(arm,size=0x20) addr:0x02151554
_ZN16MapObjectUnkHOST19func_ov058_02151574Ev kind:function(arm,size=0x50) addr:0x02151574
_ZN16MapObjectUnkHOST19func_ov058_021515c4Ev kind:function(arm,size=0x8) addr:0x021515c4
_ZN16MapObjectUnkHOSTD1Ev kind:function(arm,size=0x20) addr:0x021515cc
_ZN16MapObjectUnkHOSTD0Ev kind:function(arm,size=0x28) addr:0x021515ec
_ZN23MapObjectProfileUnkHOSTD1Ev kind:function(arm,size=0x14) addr:0x02151614
_ZN23MapObjectProfileUnkDRHS10GetProfileEv kind:function(arm,size=0xc) addr:0x02151628
_ZN23MapObjectProfileUnkDRHS6CreateEv kind:function(arm,size=0x24) addr:0x02151634
_ZN23MapObjectProfileUnkDRHSC1Ev kind:function(arm,size=0x48) addr:0x02151658
_ZN16MapObjectUnkDRHS19func_ov058_021516a0Ev kind:function(arm,size=0x48) addr:0x021516a0
_ZN16MapObjectUnkDRHSC1Ev kind:function(arm,size=0x48) addr:0x021516e8
_ZN16MapObjectUnkDRHS19func_ov058_02151730Ev kind:function(arm,size=0x230) addr:0x02151730
_ZN16MapObjectUnkDRHS19func_ov058_02151960Ev kind:function(arm,size=0x58) addr:0x02151960
_ZN16MapObjectUnkDRHS19func_ov058_021519b8Ev kind:function(arm,size=0x14) addr:0x021519b8
_ZN16MapObjectUnkDRHS19func_ov058_021519ccEv kind:function(arm,size=0x2c) addr:0x021519cc
_ZN16MapObjectUnkDRHSD1Ev kind:function(arm,size=0x20) addr:0x021519f8
_ZN16MapObjectUnkDRHSD0Ev kind:function(arm,size=0x28) addr:0x02151a18
_ZN23MapObjectProfileUnkDRHSD1Ev kind:function(arm,size=0x14) addr:0x02151a40
_ZN23MapObjectProfileUnkEXHS10GetProfileEv kind:function(arm,size=0xc) addr:0x02151a54
_ZN23MapObjectProfileUnkEXHS6CreateEv kind:function(arm,size=0x24) addr:0x02151a60
_ZN23MapObjectProfileUnkEXHSC1Ev kind:function(arm,size=0x44) addr:0x02151a84
_ZN16MapObjectUnkEXHSC1Ev kind:function(arm,size=0x34) addr:0x02151ac8
_ZN16MapObjectUnkEXHS19func_ov058_02151afcEv kind:function(arm,size=0xcc) addr:0x02151afc
_ZN16MapObjectUnkEXHSD1Ev kind:function(arm,size=0x14) addr:0x02151bc8
_ZN16MapObjectUnkEXHSD0Ev kind:function(arm,size=0x1c) addr:0x02151bdc
_ZN23MapObjectProfileUnkEXHSD1Ev kind:function(arm,size=0x14) addr:0x02151bf8
_ZN23MapObjectProfileUnkBBFL10GetProfileEv kind:function(arm,size=0xc) addr:0x02151c0c
_ZN23MapObjectProfileUnkBBFL6CreateEv kind:function(arm,size=0x24) addr:0x02151c18
_ZN23MapObjectProfileUnkBBFLC1Ev kind:function(arm,size=0x48) addr:0x02151c3c
_ZN16MapObjectUnkBBFLC1Ev kind:function(arm,size=0xac) addr:0x02151c84
_ZN16MapObjectUnkBBFL19func_ov058_02151d30Ev kind:function(arm,size=0x1f8) addr:0x02151d30
_ZN16MapObjectUnkBBFL19func_ov058_02151f28Ev kind:function(arm,size=0x80) addr:0x02151f28
_ZN16MapObjectUnkBBFL19func_ov058_02151fa8Ev kind:function(arm,size=0x230) addr:0x02151fa8
_ZN16MapObjectUnkBBFL19func_ov058_021521d8Ev kind:function(arm,size=0x74) addr:0x021521d8
_ZN16MapObjectUnkBBFL19func_ov058_0215224cEv kind:function(arm,size=0x298) addr:0x0215224c
_ZN16MapObjectUnkBBFL19func_ov058_021524e4Ev kind:function(arm,size=0x180) addr:0x021524e4
_ZN16MapObjectUnkBBFLD1Ev kind:function(arm,size=0x30) addr:0x02152664
_ZN16MapObjectUnkBBFLD0Ev kind:function(arm,size=0x38) addr:0x02152694
_ZN23MapObjectProfileUnkBBFLD1Ev kind:function(arm,size=0x14) addr:0x021526cc
_ZN23MapObjectProfileUnkKNBN10GetProfileEv kind:function(arm,size=0xc) addr:0x021526e0
_ZN23MapObjectProfileUnkKNBN6CreateEv kind:function(arm,size=0x24) addr:0x021526ec
_ZN23MapObjectProfileUnkKNBNC1Ev kind:function(arm,size=0x90) addr:0x02152710
_ZN16MapObjectUnkKNBN19func_ov058_021527a0Ev kind:function(arm,size=0x60) addr:0x021527a0
_ZN16MapObjectUnkKNBN19func_ov058_02152800Ev kind:function(arm,size=0x74) addr:0x02152800
_ZN16MapObjectUnkKNBN19func_ov058_02152874Ev kind:function(arm,size=0x98) addr:0x02152874
_ZN16MapObjectUnkKNBN19func_ov058_0215290cEv kind:function(arm,size=0x12c) addr:0x0215290c
_ZN16MapObjectUnkKNBN19func_ov058_02152a38Ev kind:function(arm,size=0x88) addr:0x02152a38
_ZN16MapObjectUnkKNBN19func_ov058_02152ac0Ev kind:function(arm,size=0x28) addr:0x02152ac0
_ZN16MapObjectUnkKNBN19func_ov058_02152ae8Ev kind:function(arm,size=0x18) addr:0x02152ae8
_ZN16MapObjectUnkKNBN19func_ov058_02152b00Ev kind:function(arm,size=0x18) addr:0x02152b00
_ZN16MapObjectUnkKNBN19func_ov058_02152b18Ev kind:function(arm,size=0x18) addr:0x02152b18
_ZN16MapObjectUnkKNBNC1Ev kind:function(arm,size=0x80) addr:0x02152b30
_ZN16MapObjectUnkKNBN19func_ov058_02152bb0Ev kind:function(arm,size=0x14) addr:0x02152bb0
_ZN16MapObjectUnkKNBN19func_ov058_02152bc4Ev kind:function(arm,size=0x2c) addr:0x02152bc4
_ZN16MapObjectUnkKNBN19func_ov058_02152bf0Ev kind:function(arm,size=0x38) addr:0x02152bf0
_ZN16MapObjectUnkKNBN19func_ov058_02152c28Ev kind:function(arm,size=0xd0) addr:0x02152c28
_ZN16MapObjectUnkKNBN19func_ov058_02152cf8Ev kind:function(arm,size=0xbc) addr:0x02152cf8
_ZN16MapObjectUnkKNBN19func_ov058_02152db4Ev kind:function(arm,size=0x20) addr:0x02152db4
_ZN16MapObjectUnkKNBN19func_ov058_02152dd4Ev kind:function(arm,size=0x8c) addr:0x02152dd4
_ZN16MapObjectUnkKNBND0Ev kind:function(arm,size=0x1c) addr:0x02152e60
_ZN16MapObjectUnkKNBND1Ev kind:function(arm,size=0x20) addr:0x02152e7c
_ZN16MapObjectUnkKNBN19func_ov058_02152e9cEv kind:function(arm,size=0x28) addr:0x02152e9c
_ZN23MapObjectProfileUnkKNBND1Ev kind:function(arm,size=0x14) addr:0x02152ec4
_ZN23MapObjectProfileUnkMSCL10GetProfileEv kind:function(arm,size=0xc) addr:0x02152ed8
_ZN23MapObjectProfileUnkMSCL6CreateEv kind:function(arm,size=0x24) addr:0x02152ee4
_ZN23MapObjectProfileUnkMSCLC1Ev kind:function(arm,size=0xa8) addr:0x02152f08
_ZN16MapObjectUnkMSCLC1Ev kind:function(arm,size=0x4c) addr:0x02152fb0
_ZN16MapObjectUnkMSCL19func_ov058_02152ffcEv kind:function(arm,size=0x90) addr:0x02152ffc
_ZN16MapObjectUnkMSCL19func_ov058_0215308cEv kind:function(arm,size=0x1c) addr:0x0215308c
_ZN16MapObjectUnkMSCL19func_ov058_021530a8Ev kind:function(arm,size=0xb4) addr:0x021530a8
_ZN16MapObjectUnkMSCL19func_ov058_0215315cEv kind:function(arm,size=0x1c) addr:0x0215315c
_ZN16MapObjectUnkMSCLD1Ev kind:function(arm,size=0x14) addr:0x02153178
_ZN16MapObjectUnkMSCLD0Ev kind:function(arm,size=0x1c) addr:0x0215318c
_ZN23MapObjectProfileUnkMSCLD1Ev kind:function(arm,size=0x14) addr:0x021531a8
_ZN23MapObjectProfileUnkGRSV10GetProfileEv kind:function(arm,size=0xc) addr:0x021531bc
_ZN23MapObjectProfileUnkGRSV6CreateEv kind:function(arm,size=0x24) addr:0x021531c8
_ZN23MapObjectProfileUnkGRSVC1Ev kind:function(arm,size=0x88) addr:0x021531ec
_ZN16MapObjectUnkGRSVC1Ev kind:function(arm,size=0x20) addr:0x02153274
_ZN16MapObjectUnkGRSV19func_ov058_02153294Ev kind:function(arm,size=0x31c) addr:0x02153294
_ZN16MapObjectUnkGRSV19func_ov058_021535b0Ev kind:function(arm,size=0x74) addr:0x021535b0
_ZN16MapObjectUnkGRSV19func_ov058_02153624Ev kind:function(arm,size=0x3c) addr:0x02153624
_ZN16MapObjectUnkGRSVD1Ev kind:function(arm,size=0x14) addr:0x02153660
_ZN16MapObjectUnkGRSVD0Ev kind:function(arm,size=0x1c) addr:0x02153674
_ZN23MapObjectProfileUnkGRSVD1Ev kind:function(arm,size=0x14) addr:0x02153690
func_ov058_021536a4 kind:function(arm,size=0x14) addr:0x021536a4
func_ov058_021536b8 kind:function(arm,size=0x24) addr:0x021536b8
_ZN23MapObjectProfileUnkSWCB10GetProfileEv kind:function(arm,size=0xc) addr:0x021536dc
_ZN23MapObjectProfileUnkSWCB6CreateEv kind:function(arm,size=0x24) addr:0x021536e8
_ZN23MapObjectProfileUnkSWCBC1Ev kind:function(arm,size=0x98) addr:0x0215370c
_ZN16MapObjectUnkSWCB19func_ov058_021537a4Ev kind:function(arm,size=0x14) addr:0x021537a4
_ZN16MapObjectUnkSWCB19func_ov058_021537b8Ev kind:function(arm,size=0x10) addr:0x021537b8
_ZN16MapObjectUnkSWCB19func_ov058_021537c8Ev kind:function(arm,size=0x10) addr:0x021537c8
_ZN16MapObjectUnkSWCB19func_ov058_021537d8Ev kind:function(arm,size=0x10) addr:0x021537d8
_ZN16MapObjectUnkSWCB19func_ov058_021537e8Ev kind:function(arm,size=0xdc) addr:0x021537e8
_ZN16MapObjectUnkSWCB19func_ov058_021538c4Ev kind:function(arm,size=0xd0) addr:0x021538c4
_ZN16MapObjectUnkSWCB19func_ov058_02153994Ev kind:function(arm,size=0x4) addr:0x02153994
_ZN16MapObjectUnkSWCBC1Ev kind:function(arm,size=0xc8) addr:0x02153998
_ZN16MapObjectUnkSWCB19func_ov058_02153a60Ev kind:function(arm,size=0x164) addr:0x02153a60
_ZN16MapObjectUnkSWCB19func_ov058_02153bc4Ev kind:function(arm,size=0x50) addr:0x02153bc4
_ZN16MapObjectUnkSWCB19func_ov058_02153c14Ev kind:function(arm,size=0x1a0) addr:0x02153c14
_ZN16MapObjectUnkSWCB19func_ov058_02153db4Ev kind:function(arm,size=0x14) addr:0x02153db4
_ZN16MapObjectUnkSWCB19func_ov058_02153dc8Ev kind:function(arm,size=0x4) addr:0x02153dc8
_ZN16MapObjectUnkSWCB19func_ov058_02153dccEv kind:function(arm,size=0x11c) addr:0x02153dcc
_ZN16MapObjectUnkSWCB19func_ov058_02153ee8Ev kind:function(arm,size=0x360) addr:0x02153ee8
_ZN16MapObjectUnkSWCB19func_ov058_02154248Ev kind:function(arm,size=0x58) addr:0x02154248
_ZN16MapObjectUnkSWCB19func_ov058_021542a0Ev kind:function(arm,size=0x10) addr:0x021542a0
_ZN16MapObjectUnkSWCB19func_ov058_021542b0Ev kind:function(arm,size=0xf8) addr:0x021542b0
_ZN16MapObjectUnkSWCB19func_ov058_021543a8Ev kind:function(arm,size=0x280) addr:0x021543a8
_ZN16MapObjectUnkSWCBD1Ev kind:function(arm,size=0x30) addr:0x02154628
_ZN16MapObjectUnkSWCBD0Ev kind:function(arm,size=0x38) addr:0x02154658
_ZN23MapObjectProfileUnkSWCBD1Ev kind:function(arm,size=0x14) addr:0x02154690
func_ov058_021546a4 kind:function(thumb,size=0x5a) addr:0x021546a4
func_ov058_02154700 kind:function(arm,size=0x60) addr:0x02154700
_ZN27UnkStruct_ov000_0208f820_2819func_ov058_02152a24Ev kind:function(thumb,size=0x64) addr:0x02154760
func_ov058_021547c4 kind:function(arm,size=0x60) addr:0x021547c4
_ZN19func_ov058_02154824D1Ev kind:function(arm,size=0x20) addr:0x02154824
_ZN19func_ov058_02154844D0Ev kind:function(arm,size=0x28) addr:0x02154844
func_ov058_0215486c kind:function(arm,size=0x14) addr:0x0215486c
func_ov058_02154880 kind:function(arm,size=0x24) addr:0x02154880
func_ov058_021548a4 kind:function(arm,size=0x20) addr:0x021548a4
func_ov058_021548c4 kind:function(arm,size=0x18) addr:0x021548c4
func_ov058_021548dc kind:function(arm,size=0x18) addr:0x021548dc
func_ov058_021548f4 kind:function(arm,size=0x5c) addr:0x021548f4
func_ov058_02154950 kind:function(arm,size=0x30) addr:0x02154950
func_ov058_02154980 kind:function(arm,size=0x1c) addr:0x02154980
func_ov058_0215499c kind:function(arm,size=0x2c) addr:0x0215499c
func_ov058_021549c8 kind:function(arm,size=0x6c) addr:0x021549c8
func_ov058_02154a34 kind:function(arm,size=0x48) addr:0x02154a34
func_ov058_02154a7c kind:function(arm,size=0x34) addr:0x02154a7c
func_ov058_02154ab0 kind:function(arm,size=0x30) addr:0x02154ab0
func_ov058_02154ae0 kind:function(arm,size=0x14) addr:0x02154ae0
func_ov058_02154af4 kind:function(arm,size=0x70) addr:0x02154af4
func_ov058_02154b64 kind:function(arm,size=0xc) addr:0x02154b64
func_ov058_02154b70 kind:function(arm,size=0x40) addr:0x02154b70
_ZN19func_ov058_02154bb0D0Ev kind:function(arm,size=0x1c) addr:0x02154bb0
_ZN19func_ov058_02154bccD0Ev kind:function(arm,size=0x28) addr:0x02154bcc
data_ov058_02154bf4 kind:data(any) addr:0x02154bf4
data_ov058_02154c4c kind:data(any) addr:0x02154c4c
data_ov058_02154c88 kind:data(any) addr:0x02154c88
data_ov058_02154ca4 kind:data(any) addr:0x02154ca4 ambiguous
data_ov058_02154cb8 kind:data(any) addr:0x02154cb8
data_ov058_02154ce8 kind:data(any) addr:0x02154ce8
data_ov058_02154d4c kind:data(any) addr:0x02154d4c
data_ov058_02154e3c kind:data(any) addr:0x02154e3c
data_ov058_02154e6c kind:data(any) addr:0x02154e6c ambiguous
data_ov058_02154e8c kind:data(any) addr:0x02154e8c
data_ov058_02154e8d kind:data(any) addr:0x02154e8d
data_ov058_02154e8e kind:data(any) addr:0x02154e8e
data_ov058_02154e8f kind:data(any) addr:0x02154e8f
data_ov058_02154ec0 kind:data(any) addr:0x02154ec0 ambiguous
data_ov058_02154f28 kind:data(any) addr:0x02154f28 ambiguous
data_ov058_02154f88 kind:data(any) addr:0x02154f88 ambiguous
data_ov058_0215503c kind:data(any) addr:0x0215503c
data_ov058_02155044 kind:data(any) addr:0x02155044
data_ov058_02155054 kind:data(any) addr:0x02155054
data_ov058_02155058 kind:data(any) addr:0x02155058 ambiguous
data_ov058_02155064 kind:data(any) addr:0x02155064
data_ov058_0215506c kind:data(any) addr:0x0215506c
data_ov058_02155070 kind:data(any) addr:0x02155070 ambiguous
data_ov058_02155088 kind:data(any) addr:0x02155088
data_ov058_02155090 kind:data(any) addr:0x02155090
data_ov058_0215509c kind:data(any) addr:0x0215509c
data_ov058_021550bc kind:data(any) addr:0x021550bc
data_ov058_021550f0 kind:data(any) addr:0x021550f0
data_ov058_02155110 kind:data(any) addr:0x02155110
data_ov058_02155130 kind:data(any) addr:0x02155130
data_ov058_02155140 kind:data(any) addr:0x02155140
data_ov058_02155154 kind:data(any) addr:0x02155154
data_ov058_02155168 kind:data(any) addr:0x02155168
data_ov058_02155190 kind:data(any) addr:0x02155190 ambiguous
data_ov058_021551b8 kind:data(any) addr:0x021551b8
data_ov058_021551c8 kind:data(any) addr:0x021551c8
__sinit_ActorUnkKOKO.cpp kind:function(arm,size=0x50) addr:0x021551d8
__sinit_ActorUnkKOAT.cpp kind:function(arm,size=0x50) addr:0x02155228
__sinit_ActorUnkKOCH.cpp kind:function(arm,size=0x50) addr:0x02155278
__sinit_ActorUnkNSTN.cpp kind:function(arm,size=0x50) addr:0x021552c8
__sinit_ActorUnkSYDE_SYDL_SYDS_SYFI_SYFO_SYIL_SYIS_SYOL_SYOS_SYSL_SYSN_SYSS_SYWA_SYWL_SYWS.cpp kind:function(arm,size=0x3d0) addr:0x02155318
__sinit_ActorUnkCRFT.cpp kind:function(arm,size=0x50) addr:0x021556e8
__sinit_ActorUnkFBRD.cpp kind:function(arm,size=0x7c) addr:0x02155738
__sinit_ActorUnkFBSC.cpp kind:function(arm,size=0x50) addr:0x021557b4
__sinit_ActorUnkWPBD.cpp kind:function(arm,size=0x80) addr:0x02155804
__sinit_ActorUnkWPCH.cpp kind:function(arm,size=0x50) addr:0x02155884
__sinit_ActorUnkBSTG.cpp kind:function(arm,size=0x50) addr:0x021558d4
__sinit_ActorUnkTMNA.cpp kind:function(arm,size=0x78) addr:0x02155924
__sinit_ActorUnkTMNC.cpp kind:function(arm,size=0x50) addr:0x0215599c
__sinit_MapObjectUnkTREE.cpp kind:function(arm,size=0x7c) addr:0x021559ec
__sinit_MapObjectUnkLEVS.cpp kind:function(arm,size=0x50) addr:0x02155a68
__sinit_MapObjectUnkSTNE.cpp kind:function(arm,size=0x50) addr:0x02155ab8
__sinit_MapObjectUnkHOUS.cpp kind:function(arm,size=0x50) addr:0x02155b08
__sinit_MapObjectUnkHOST.cpp kind:function(arm,size=0x50) addr:0x02155b58
__sinit_MapObjectUnkDRHS.cpp kind:function(arm,size=0x50) addr:0x02155ba8
__sinit_MapObjectUnkEXHS.cpp kind:function(arm,size=0x50) addr:0x02155bf8
__sinit_MapObjectUnkBBFL.cpp kind:function(arm,size=0x50) addr:0x02155c48
__sinit_MapObjectUnkKNBN.cpp kind:function(arm,size=0x74) addr:0x02155c98
__sinit_MapObjectUnkMSCL.cpp kind:function(arm,size=0x74) addr:0x02155d0c
__sinit_MapObjectUnkGRSV.cpp kind:function(arm,size=0x90) addr:0x02155d80
__sinit_MapObjectUnkSWCB.cpp kind:function(arm,size=0x50) addr:0x02155e10
.p__sinit_ActorUnkKOKO.cpp kind:data(word) addr:0x02155e60
.p__sinit_ActorUnkKOAT.cpp kind:data(word) addr:0x02155e64
.p__sinit_ActorUnkKOCH.cpp kind:data(word) addr:0x02155e68
.p__sinit_ActorUnkNSTN.cpp kind:data(word) addr:0x02155e6c
.p__sinit_ActorUnkSYDE_SYDL_SYDS_SYFI_SYFO_SYIL_SYIS_SYOL_SYOS_SYSL_SYSN_SYSS_SYWA_SYWL_SYWS.cpp kind:data(word) addr:0x02155e70
.p__sinit_ActorUnkCRFT.cpp kind:data(word) addr:0x02155e74
.p__sinit_ActorUnkFBRD.cpp kind:data(word) addr:0x02155e78
.p__sinit_ActorUnkFBSC.cpp kind:data(word) addr:0x02155e7c
.p__sinit_ActorUnkWPBD.cpp kind:data(word) addr:0x02155e80
.p__sinit_ActorUnkWPCH.cpp kind:data(word) addr:0x02155e84
.p__sinit_ActorUnkBSTG.cpp kind:data(word) addr:0x02155e88
.p__sinit_ActorUnkTMNA.cpp kind:data(word) addr:0x02155e8c
.p__sinit_ActorUnkTMNC.cpp kind:data(word) addr:0x02155e90
.p__sinit_MapObjectUnkTREE.cpp kind:data(word) addr:0x02155e94
.p__sinit_MapObjectUnkLEVS.cpp kind:data(word) addr:0x02155e98
.p__sinit_MapObjectUnkSTNE.cpp kind:data(word) addr:0x02155e9c
.p__sinit_MapObjectUnkHOUS.cpp kind:data(word) addr:0x02155ea0
.p__sinit_MapObjectUnkHOST.cpp kind:data(word) addr:0x02155ea4
.p__sinit_MapObjectUnkDRHS.cpp kind:data(word) addr:0x02155ea8
.p__sinit_MapObjectUnkEXHS.cpp kind:data(word) addr:0x02155eac
.p__sinit_MapObjectUnkBBFL.cpp kind:data(word) addr:0x02155eb0
.p__sinit_MapObjectUnkKNBN.cpp kind:data(word) addr:0x02155eb4
.p__sinit_MapObjectUnkMSCL.cpp kind:data(word) addr:0x02155eb8
.p__sinit_MapObjectUnkGRSV.cpp kind:data(word) addr:0x02155ebc
.p__sinit_MapObjectUnkSWCB.cpp kind:data(word) addr:0x02155ec0
data_ov058_02155ee8 kind:data(any) addr:0x02155ee8
data_ov058_02155f04 kind:data(any) addr:0x02155f04
data_ov058_02155f10 kind:data(any) addr:0x02155f10 ambiguous
data_ov058_02155f18 kind:data(any) addr:0x02155f18
data_ov058_02155f24 kind:data(any) addr:0x02155f24
_ZTV19data_ov058_02155f3c kind:data(any) addr:0x02155f3c
data_ov058_02155f68 kind:data(any) addr:0x02155f68
data_ov058_02155f94 kind:data(any) addr:0x02155f94
data_ov058_02155fd0 kind:data(any) addr:0x02155fd0 ambiguous
data_ov058_02155fdc kind:data(any) addr:0x02155fdc
data_ov058_02156020 kind:data(any) addr:0x02156020
data_ov058_0215602c kind:data(any) addr:0x0215602c ambiguous
data_ov058_02156038 kind:data(any) addr:0x02156038
data_ov058_02156050 kind:data(any) addr:0x02156050
data_ov058_02156068 kind:data(any) addr:0x02156068
_ZTV19data_ov058_02156080 kind:data(any) addr:0x02156080
data_ov058_021560e0 kind:data(any) addr:0x021560e0
data_ov058_02156148 kind:data(any) addr:0x02156148
data_ov058_021561b0 kind:data(any) addr:0x021561b0
data_ov058_021561c4 kind:data(any) addr:0x021561c4 ambiguous
_ZTV19data_ov058_021561c8 kind:data(any) addr:0x021561c8
_ZTV19data_ov058_021561ec kind:data(any) addr:0x021561ec
data_ov058_02156254 kind:data(any) addr:0x02156254
_ZTV19data_ov058_02156260 kind:data(any) addr:0x02156260
_ZTV19data_ov058_02156284 kind:data(any) addr:0x02156284
_ZTV19data_ov058_021562b8 kind:data(any) addr:0x021562b8 ambiguous
data_ov058_021562f0 kind:data(any) addr:0x021562f0
_ZTV19data_ov058_021562fc kind:data(any) addr:0x021562fc
data_ov058_02156320 kind:data(any) addr:0x02156320
data_ov058_02156360 kind:data(any) addr:0x02156360
_ZTV19data_ov058_021563a0 kind:data(any) addr:0x021563a0
data_ov058_02156418 kind:data(any) addr:0x02156418
data_ov058_02156428 kind:data(any) addr:0x02156428
_ZTV19data_ov058_02156440 kind:data(any) addr:0x02156440
_ZTV19data_ov058_02156464 kind:data(any) addr:0x02156464
_ZTV19data_ov058_02156488 kind:data(any) addr:0x02156488
data_ov058_021564a0 kind:data(any) addr:0x021564a0 ambiguous
_ZTV19data_ov058_021564ac kind:data(any) addr:0x021564ac
_ZTV19data_ov058_021564d0 kind:data(any) addr:0x021564d0
data_ov058_021564fc kind:data(any) addr:0x021564fc
_ZTV19data_ov058_02156500 kind:data(any) addr:0x02156500 ambiguous
_ZTV19data_ov058_02156518 kind:data(any) addr:0x02156518
_ZTV19data_ov058_0215653c kind:data(any) addr:0x0215653c
_ZTV19data_ov058_02156560 kind:data(any) addr:0x02156560
_ZTV19data_ov058_02156584 kind:data(any) addr:0x02156584
_ZTV19data_ov058_021565a8 kind:data(any) addr:0x021565a8
data_ov058_021565c4 kind:data(any) addr:0x021565c4 ambiguous
_ZTV19data_ov058_021565cc kind:data(any) addr:0x021565cc
_ZTV19data_ov058_021565f0 kind:data(any) addr:0x021565f0
_ZTV19data_ov058_02156614 kind:data(any) addr:0x02156614
_ZTV19data_ov058_02156638 kind:data(any) addr:0x02156638
data_ov058_0215665c kind:data(any) addr:0x0215665c
data_ov058_02156674 kind:data(any) addr:0x02156674
data_ov058_021566ac kind:data(any) addr:0x021566ac
data_ov058_021566f0 kind:data(any) addr:0x021566f0
data_ov058_02156758 kind:data(any) addr:0x02156758
data_ov058_02156798 kind:data(any) addr:0x02156798 ambiguous
_ZTV19data_ov058_021567c0 kind:data(any) addr:0x021567c0
_ZTV19data_ov058_021567f8 kind:data(any) addr:0x021567f8 ambiguous
_ZTV19data_ov058_021568dc kind:data(any) addr:0x021568dc
_ZTV19data_ov058_02156964 kind:data(any) addr:0x02156964 ambiguous
data_ov058_02156a1c kind:data(any) addr:0x02156a1c
data_ov058_02156a24 kind:data(any) addr:0x02156a24 ambiguous
data_ov058_02156ab8 kind:data(any) addr:0x02156ab8 ambiguous
data_ov058_02156b7c kind:data(any) addr:0x02156b7c ambiguous
data_ov058_02156b98 kind:data(any) addr:0x02156b98 ambiguous
data_ov058_02156b9c kind:data(any) addr:0x02156b9c
_ZTV19data_ov058_02156bfc kind:data(any) addr:0x02156bfc
data_ov058_02156c20 kind:data(any) addr:0x02156c20
data_ov058_02156c24 kind:data(any) addr:0x02156c24 ambiguous
data_ov058_02156c78 kind:data(any) addr:0x02156c78
data_ov058_02156cd0 kind:data(any) addr:0x02156cd0
_ZTV19data_ov058_02156d48 kind:data(any) addr:0x02156d48
data_ov058_02156e7c kind:data(any) addr:0x02156e7c
data_ov058_02156e88 kind:data(any) addr:0x02156e88
data_ov058_02156ea0 kind:data(any) addr:0x02156ea0
data_ov058_02156ec0 kind:data(any) addr:0x02156ec0
data_ov058_02156ed0 kind:data(any) addr:0x02156ed0
_ZTV19data_ov058_02156ee4 kind:data(any) addr:0x02156ee4
data_ov058_02156f08 kind:data(any) addr:0x02156f08
data_ov058_02156f44 kind:data(any) addr:0x02156f44 ambiguous
_ZTV19data_ov058_02156f48 kind:data(any) addr:0x02156f48
_ZTV19data_ov058_02156fa4 kind:data(any) addr:0x02156fa4
_ZTV19data_ov058_02156fc8 kind:data(any) addr:0x02156fc8
_ZTV19data_ov058_02156fec kind:data(any) addr:0x02156fec ambiguous
data_ov058_02157034 kind:data(any) addr:0x02157034
data_ov058_02157040 kind:data(any) addr:0x02157040
data_ov058_02157048 kind:data(any) addr:0x02157048
data_ov058_0215704c kind:data(any) addr:0x0215704c
data_ov058_02157058 kind:data(any) addr:0x02157058
data_ov058_02157064 kind:data(any) addr:0x02157064
data_ov058_0215708c kind:data(any) addr:0x0215708c
data_ov058_021570b4 kind:data(any) addr:0x021570b4
data_ov058_021570cc kind:data(any) addr:0x021570cc
data_ov058_021570ec kind:data(any) addr:0x021570ec
data_ov058_021570f8 kind:data(any) addr:0x021570f8 ambiguous
data_ov058_02157104 kind:data(any) addr:0x02157104
_ZTV19data_ov058_02157118 kind:data(any) addr:0x02157118
_ZTV19data_ov058_02157134 kind:data(any) addr:0x02157134
_ZTV19data_ov058_02157158 kind:data(any) addr:0x02157158
_ZTV19data_ov058_021571b4 kind:data(any) addr:0x021571b4
_ZTV19data_ov058_021571d8 kind:data(any) addr:0x021571d8
data_ov058_02157244 kind:data(any) addr:0x02157244
_ZTV19data_ov058_02157250 kind:data(any) addr:0x02157250
_ZTV19data_ov058_02157274 kind:data(any) addr:0x02157274
data_ov058_021572d0 kind:data(any) addr:0x021572d0 ambiguous
_ZTV19data_ov058_021572d0 kind:data(any) addr:0x021572d0
data_ov058_021572f4 kind:data(any) addr:0x021572f4
data_ov058_0215733c kind:data(any) addr:0x0215733c
data_ov058_0215737c kind:data(any) addr:0x0215737c ambiguous
_ZTV19data_ov058_02157384 kind:data(any) addr:0x02157384
_ZTV19data_ov058_021574a0 kind:data(any) addr:0x021574a0
_ZTV19data_ov058_021574c4 kind:data(any) addr:0x021574c4
data_ov058_02157528 kind:data(any) addr:0x02157528
data_ov058_02157550 kind:data(any) addr:0x02157550
data_ov058_02157578 kind:data(any) addr:0x02157578
data_ov058_021575a0 kind:data(any) addr:0x021575a0
data_ov058_021575e0 kind:data(any) addr:0x021575e0
data_ov058_021575fc kind:data(any) addr:0x021575fc
data_ov058_02157618 kind:data(any) addr:0x02157618
data_ov058_0215765c kind:data(any) addr:0x0215765c
data_ov058_02157678 kind:data(any) addr:0x02157678
data_ov058_021576d0 kind:data(any) addr:0x021576d0
data_ov058_021576e8 kind:data(any) addr:0x021576e8
data_ov058_021576fc kind:data(any) addr:0x021576fc ambiguous
data_ov058_02157710 kind:data(any) addr:0x02157710
data_ov058_02157718 kind:data(any) addr:0x02157718 ambiguous
data_ov058_02157738 kind:data(any) addr:0x02157738
data_ov058_02157778 kind:data(any) addr:0x02157778
data_ov058_021577a4 kind:data(any) addr:0x021577a4 ambiguous
data_ov058_021577c4 kind:data(any) addr:0x021577c4
data_ov058_021577e0 kind:data(any) addr:0x021577e0
data_ov058_02157808 kind:data(any) addr:0x02157808 ambiguous
data_ov058_0215782c kind:data(any) addr:0x0215782c
data_ov058_02157848 kind:data(any) addr:0x02157848
data_ov058_02157888 kind:data(any) addr:0x02157888
data_ov058_021578a4 kind:data(any) addr:0x021578a4
data_ov058_021578d0 kind:data(any) addr:0x021578d0 ambiguous
data_ov058_021578e4 kind:data(any) addr:0x021578e4
data_ov058_02157900 kind:data(any) addr:0x02157900
data_ov058_02157938 kind:data(any) addr:0x02157938
data_ov058_0215794c kind:data(any) addr:0x0215794c
data_ov058_02157968 kind:data(any) addr:0x02157968
data_ov058_02157984 kind:data(any) addr:0x02157984
data_ov058_0215798c kind:data(any) addr:0x0215798c ambiguous
data_ov058_021579b0 kind:data(any) addr:0x021579b0
data_ov058_021579e8 kind:data(any) addr:0x021579e8
data_ov058_021579fc kind:data(any) addr:0x021579fc
data_ov058_02157a18 kind:data(any) addr:0x02157a18
data_ov058_02157a34 kind:data(any) addr:0x02157a34
data_ov058_02157a74 kind:data(any) addr:0x02157a74
data_ov058_02157a90 kind:data(any) addr:0x02157a90
data_ov058_02157ab0 kind:data(any) addr:0x02157ab0 ambiguous
data_ov058_02157ab4 kind:data(any) addr:0x02157ab4 ambiguous
data_ov058_02157ad8 kind:data(any) addr:0x02157ad8
data_ov058_02157aec kind:data(any) addr:0x02157aec
data_ov058_02157b08 kind:data(any) addr:0x02157b08
_ZTV19data_ov058_02157b40 kind:data(any) addr:0x02157b40
data_ov058_02157b78 kind:data(any) addr:0x02157b78
_ZTV19data_ov058_02157b88 kind:data(any) addr:0x02157b88
_ZTV19data_ov058_02157ba4 kind:data(any) addr:0x02157ba4
data_ov058_02157bcc kind:data(any) addr:0x02157bcc ambiguous
_ZGVN15ProfileInstanceI19ActorProfileUnkKOKOE8sProfileE kind:bss addr:0x02157be0
@32049 kind:bss addr:0x02157be4
_ZN15ProfileInstanceI19ActorProfileUnkKOKOE8sProfileE kind:bss addr:0x02157bf0
data_ov058_02157c44 kind:bss addr:0x02157c44 ambiguous
data_ov058_02157cc8 kind:bss addr:0x02157cc8
data_ov058_02157ccc kind:bss addr:0x02157ccc
_ZGVN15ProfileInstanceI19ActorProfileUnkKOATE8sProfileE kind:bss addr:0x02157cd4
@32055 kind:bss addr:0x02157cdc ambiguous
_ZN15ProfileInstanceI19ActorProfileUnkKOATE8sProfileE kind:bss addr:0x02157ce0
_ZGVN15ProfileInstanceI19ActorProfileUnkKOCHE8sProfileE kind:bss addr:0x02157d24
@32061 kind:bss addr:0x02157d28
_ZN15ProfileInstanceI19ActorProfileUnkKOCHE8sProfileE kind:bss addr:0x02157d34
_ZGVN15ProfileInstanceI19ActorProfileUnkNSTNE8sProfileE kind:bss addr:0x02157d70
@32067 kind:bss addr:0x02157d74
_ZN15ProfileInstanceI19ActorProfileUnkNSTNE8sProfileE kind:bss addr:0x02157d80
data_ov058_02157da4 kind:bss addr:0x02157da4 ambiguous
data_ov058_02157dbc kind:bss addr:0x02157dbc
data_ov058_02157df8 kind:bss addr:0x02157df8
data_ov058_02157e04 kind:bss addr:0x02157e04
data_ov058_02157e10 kind:bss addr:0x02157e10
data_ov058_02157e1c kind:bss addr:0x02157e1c
data_ov058_02157e28 kind:bss addr:0x02157e28
data_ov058_02157e34 kind:bss addr:0x02157e34
data_ov058_02157e40 kind:bss addr:0x02157e40
data_ov058_02157e4c kind:bss addr:0x02157e4c
data_ov058_02157e54 kind:bss addr:0x02157e54 ambiguous
data_ov058_02157e58 kind:bss addr:0x02157e58
data_ov058_02157e64 kind:bss addr:0x02157e64
data_ov058_02157e70 kind:bss addr:0x02157e70
data_ov058_02157e7c kind:bss addr:0x02157e7c
data_ov058_02157e88 kind:bss addr:0x02157e88
data_ov058_02157e94 kind:bss addr:0x02157e94
data_ov058_02157ea0 kind:bss addr:0x02157ea0
data_ov058_02157ea4 kind:bss addr:0x02157ea4 ambiguous
data_ov058_02157eac kind:bss addr:0x02157eac
data_ov058_02157eb0 kind:bss addr:0x02157eb0
data_ov058_02157eb4 kind:bss addr:0x02157eb4
data_ov058_02157eb8 kind:bss addr:0x02157eb8
data_ov058_02157ebc kind:bss addr:0x02157ebc
data_ov058_02157ec0 kind:bss addr:0x02157ec0
data_ov058_02157ec4 kind:bss addr:0x02157ec4
data_ov058_02157ec8 kind:bss addr:0x02157ec8
data_ov058_02157ecc kind:bss addr:0x02157ecc
data_ov058_02157ed0 kind:bss addr:0x02157ed0
data_ov058_02157ed4 kind:bss addr:0x02157ed4
data_ov058_02157ed8 kind:bss addr:0x02157ed8
data_ov058_02157edc kind:bss addr:0x02157edc
_ZGVN15ProfileInstanceI19ActorProfileUnkSYDLE8sProfileE kind:bss addr:0x02157ee0
@32073 kind:bss addr:0x02157ee4
_ZN15ProfileInstanceI19ActorProfileUnkSYDLE8sProfileE kind:bss addr:0x02157f60
_ZN15ProfileInstanceI19ActorProfileUnkSYFOE8sProfileE kind:bss addr:0x02158038
_ZN15ProfileInstanceI19ActorProfileUnkSYSNE8sProfileE kind:bss addr:0x02158110
data_ov058_02158134 kind:bss addr:0x02158134 ambiguous
_ZN15ProfileInstanceI19ActorProfileUnkSYWAE8sProfileE kind:bss addr:0x021581e8
_ZN15ProfileInstanceI19ActorProfileUnkSYFIE8sProfileE kind:bss addr:0x021582c0
_ZN15ProfileInstanceI19ActorProfileUnkSYDEE8sProfileE kind:bss addr:0x02158398
_ZN15ProfileInstanceI19ActorProfileUnkSYOSE8sProfileE kind:bss addr:0x02158470
data_ov058_02158480 kind:bss addr:0x02158480 ambiguous
data_ov058_02158520 kind:bss addr:0x02158520 ambiguous
_ZN15ProfileInstanceI19ActorProfileUnkSYSSE8sProfileE kind:bss addr:0x02158548
data_ov058_021585f8 kind:bss addr:0x021585f8 ambiguous
_ZN15ProfileInstanceI19ActorProfileUnkSYWSE8sProfileE kind:bss addr:0x02158620
_ZN15ProfileInstanceI19ActorProfileUnkSYISE8sProfileE kind:bss addr:0x021586f8
_ZN15ProfileInstanceI19ActorProfileUnkSYDSE8sProfileE kind:bss addr:0x021587d0
_ZN15ProfileInstanceI19ActorProfileUnkSYOLE8sProfileE kind:bss addr:0x021588a8
data_ov058_021588f8 kind:bss addr:0x021588f8 ambiguous
_ZN15ProfileInstanceI19ActorProfileUnkSYSLE8sProfileE kind:bss addr:0x02158980
data_ov058_021589c0 kind:bss addr:0x021589c0 ambiguous
data_ov058_02158a54 kind:bss addr:0x02158a54 ambiguous
_ZN15ProfileInstanceI19ActorProfileUnkSYWLE8sProfileE kind:bss addr:0x02158a58
_ZN15ProfileInstanceI19ActorProfileUnkSYILE8sProfileE kind:bss addr:0x02158b30
data_ov058_02158ba8 kind:bss addr:0x02158ba8 ambiguous
_ZGVN15ProfileInstanceI19ActorProfileUnkCRFTE8sProfileE kind:bss addr:0x02158c08
@32079 kind:bss addr:0x02158c0c
_ZN15ProfileInstanceI19ActorProfileUnkCRFTE8sProfileE kind:bss addr:0x02158c18
data_ov058_02158cf0 kind:bss addr:0x02158cf0
data_ov058_02158cf8 kind:bss addr:0x02158cf8
_ZGVN15ProfileInstanceI19ActorProfileUnkFBRDE8sProfileE kind:bss addr:0x02158d04
@32085 kind:bss addr:0x02158d20 ambiguous
_ZN15ProfileInstanceI19ActorProfileUnkFBRDE8sProfileE kind:bss addr:0x02158d2c
_ZGVN15ProfileInstanceI19ActorProfileUnkFBSCE8sProfileE kind:bss addr:0x02158e04
@32091 kind:bss addr:0x02158e08
_ZN15ProfileInstanceI19ActorProfileUnkFBSCE8sProfileE kind:bss addr:0x02158e14
data_ov058_02158e3c kind:bss addr:0x02158e3c ambiguous
_ZGVN15ProfileInstanceI19ActorProfileUnkWPBDE8sProfileE kind:bss addr:0x02158e50
@32097 kind:bss addr:0x02158e58
_ZN15ProfileInstanceI19ActorProfileUnkWPBDE8sProfileE kind:bss addr:0x02158e64
data_ov058_02158ebc kind:bss addr:0x02158ebc ambiguous
_ZGVN15ProfileInstanceI19ActorProfileUnkWPCHE8sProfileE kind:bss addr:0x02158f3c
@32103 kind:bss addr:0x02158f40
_ZN15ProfileInstanceI19ActorProfileUnkWPCHE8sProfileE kind:bss addr:0x02158f4c
_ZGVN15ProfileInstanceI19ActorProfileUnkBSTGE8sProfileE kind:bss addr:0x02158f88
@32109 kind:bss addr:0x02158f8c
_ZN15ProfileInstanceI19ActorProfileUnkBSTGE8sProfileE kind:bss addr:0x02158f98
data_ov058_02158f9c kind:bss addr:0x02158f9c ambiguous
data_ov058_02158fd4 kind:bss addr:0x02158fd4
data_ov058_02158fd8 kind:bss addr:0x02158fd8
data_ov058_02158fdc kind:bss addr:0x02158fdc ambiguous
_ZGVN15ProfileInstanceI19ActorProfileUnkTMNAE8sProfileE kind:bss addr:0x02158fe4
@32115 kind:bss addr:0x02158ff0
_ZN15ProfileInstanceI19ActorProfileUnkTMNAE8sProfileE kind:bss addr:0x0215903c
data_ov058_021590fc kind:bss addr:0x021590fc ambiguous
_ZGVN15ProfileInstanceI19ActorProfileUnkTMNCE8sProfileE kind:bss addr:0x02159114
@32121 kind:bss addr:0x02159118
_ZN15ProfileInstanceI19ActorProfileUnkTMNCE8sProfileE kind:bss addr:0x02159124
data_ov058_0215916c kind:bss addr:0x0215916c ambiguous
data_ov058_021591b0 kind:bss addr:0x021591b0 ambiguous
data_ov058_021591fc kind:bss addr:0x021591fc
data_ov058_02159200 kind:bss addr:0x02159200
_ZGVN15ProfileInstanceI23MapObjectProfileUnkTREEE8sProfileE kind:bss addr:0x0215920c
@31719 kind:bss addr:0x02159228 ambiguous
_ZN15ProfileInstanceI23MapObjectProfileUnkTREEE8sProfileE kind:bss addr:0x0215922c
data_ov058_02159294 kind:bss addr:0x02159294
_ZGVN15ProfileInstanceI23MapObjectProfileUnkLEVSE8sProfileE kind:bss addr:0x021592b4
@31725 kind:bss addr:0x021592b8
_ZN15ProfileInstanceI23MapObjectProfileUnkLEVSE8sProfileE kind:bss addr:0x021592c4
data_ov058_02159398 kind:bss addr:0x02159398
_ZGVN15ProfileInstanceI23MapObjectProfileUnkSTNEE8sProfileE kind:bss addr:0x021593b8
@31731 kind:bss addr:0x021593bc
_ZN15ProfileInstanceI23MapObjectProfileUnkSTNEE8sProfileE kind:bss addr:0x021593c8
data_ov058_0215949c kind:bss addr:0x0215949c
_ZGVN15ProfileInstanceI23MapObjectProfileUnkHOUSE8sProfileE kind:bss addr:0x021594bc
@31737 kind:bss addr:0x021594c8
_ZN15ProfileInstanceI23MapObjectProfileUnkHOUSE8sProfileE kind:bss addr:0x021594d4
data_ov058_021594f4 kind:bss addr:0x021594f4
_ZGVN15ProfileInstanceI23MapObjectProfileUnkHOSTE8sProfileE kind:bss addr:0x0215953c
@31743 kind:bss addr:0x02159540
_ZN15ProfileInstanceI23MapObjectProfileUnkHOSTE8sProfileE kind:bss addr:0x0215954c
data_ov058_021595e0 kind:bss addr:0x021595e0 ambiguous
data_ov058_0215961c kind:bss addr:0x0215961c ambiguous
_ZGVN15ProfileInstanceI23MapObjectProfileUnkDRHSE8sProfileE kind:bss addr:0x02159620
@31749 kind:bss addr:0x02159624
_ZN15ProfileInstanceI23MapObjectProfileUnkDRHSE8sProfileE kind:bss addr:0x02159630
data_ov058_021596ac kind:bss addr:0x021596ac ambiguous
_ZGVN15ProfileInstanceI23MapObjectProfileUnkEXHSE8sProfileE kind:bss addr:0x02159704
@31755 kind:bss addr:0x02159708
_ZN15ProfileInstanceI23MapObjectProfileUnkEXHSE8sProfileE kind:bss addr:0x02159714
_ZGVN15ProfileInstanceI23MapObjectProfileUnkBBFLE8sProfileE kind:bss addr:0x02159734
@31761 kind:bss addr:0x02159738
_ZN15ProfileInstanceI23MapObjectProfileUnkBBFLE8sProfileE kind:bss addr:0x02159744
_ZGVN15ProfileInstanceI23MapObjectProfileUnkKNBNE8sProfileE kind:bss addr:0x02159818
@31767 kind:bss addr:0x0215981c
_ZN15ProfileInstanceI23MapObjectProfileUnkKNBNE8sProfileE kind:bss addr:0x02159828
data_ov058_02159868 kind:bss addr:0x02159868 ambiguous
data_ov058_021598d4 kind:bss addr:0x021598d4 ambiguous
data_ov058_021598fc kind:bss addr:0x021598fc
_ZGVN15ProfileInstanceI23MapObjectProfileUnkMSCLE8sProfileE kind:bss addr:0x02159920
@31773 kind:bss addr:0x02159924
_ZN15ProfileInstanceI23MapObjectProfileUnkMSCLE8sProfileE kind:bss addr:0x02159930
data_ov058_02159950 kind:bss addr:0x02159950
data_ov058_02159974 kind:bss addr:0x02159974
data_ov058_02159978 kind:bss addr:0x02159978
data_ov058_02159984 kind:bss addr:0x02159984
_ZGVN15ProfileInstanceI23MapObjectProfileUnkGRSVE8sProfileE kind:bss addr:0x02159990
@31779 kind:bss addr:0x021599b0 ambiguous
_ZN15ProfileInstanceI23MapObjectProfileUnkGRSVE8sProfileE kind:bss addr:0x021599e0
data_ov058_02159a24 kind:bss addr:0x02159a24 ambiguous
data_ov058_02159ab4 kind:bss addr:0x02159ab4
_ZGVN15ProfileInstanceI23MapObjectProfileUnkSWCBE8sProfileE kind:bss addr:0x02159ad4
@31785 kind:bss addr:0x02159ad8
_ZN15ProfileInstanceI23MapObjectProfileUnkSWCBE8sProfileE kind:bss addr:0x02159ae4
data_ov058_02159af4 kind:bss addr:0x02159af4 ambiguous
data_ov058_02159b04 kind:bss addr:0x02159b04
data_ov058_02159bb8 kind:bss addr:0x02159bb8
data_ov058_02159bd8 kind:bss addr:0x02159bd8 ambiguous
