func_ov039_0211ad60 kind:function(arm,size=0x20) addr:0x0211ad60
func_ov039_0211ad80 kind:function(arm,size=0xc) addr:0x0211ad80
_ZN19ActorProfileUnkZELD10GetProfileEv kind:function(arm,size=0xc) addr:0x0211ad8c
_ZN19ActorProfileUnkZELD6CreateEv kind:function(arm,size=0x28) addr:0x0211ad98
_ZN19ActorProfileUnkZELDC1Ev kind:function(arm,size=0x5c) addr:0x0211adc0
_ZN12ActorUnkZELDC1Ev kind:function(arm,size=0x394) addr:0x0211ae1c
_ZN12ActorUnkZELD19func_ov039_02119410Ev kind:function(arm,size=0x14) addr:0x0211b1b0
_ZN12ActorUnkZELD19func_ov039_02119424Ev kind:function(arm,size=0x14) addr:0x0211b1c4
_ZN12ActorUnkZELD19func_ov039_02119438Ev kind:function(arm,size=0x14) addr:0x0211b1d8
_ZN12ActorUnkZELD19func_ov039_0211944cEv kind:function(arm,size=0x14) addr:0x0211b1ec
_ZN12ActorUnkZELDD1Ev kind:function(arm,size=0x48) addr:0x0211b200
_ZN12ActorUnkZELDD0Ev kind:function(arm,size=0x50) addr:0x0211b248
_ZN12ActorUnkZELD19func_ov039_021194f8Ev kind:function(arm,size=0x2c) addr:0x0211b298
_ZN12ActorUnkZELD19func_ov039_02119524Ev kind:function(arm,size=0x90) addr:0x0211b2c4
_ZN12ActorUnkZELD19func_ov039_021195b4Ev kind:function(arm,size=0xa0) addr:0x0211b354
_ZN12ActorUnkZELD19func_ov039_02119654Ev kind:function(arm,size=0x94) addr:0x0211b3f4
_ZN12ActorUnkZELD19func_ov039_021196e8Ev kind:function(arm,size=0xa0) addr:0x0211b488
_ZN12ActorUnkZELD19func_ov039_02119788Ev kind:function(arm,size=0x1e0) addr:0x0211b528
_ZN12ActorUnkZELD19func_ov039_02119968Ev kind:function(arm,size=0x58) addr:0x0211b708
_ZN12ActorUnkZELD19func_ov039_021199c0Ev kind:function(arm,size=0x19c) addr:0x0211b760
_ZN12ActorUnkZELD19func_ov039_02119b5cEv kind:function(arm,size=0x58) addr:0x0211b8fc
_ZN12ActorUnkZELD19func_ov039_02119bb4Ev kind:function(arm,size=0x150) addr:0x0211b954
_ZN12ActorUnkZELD19func_ov039_02119d04Ev kind:function(arm,size=0x24) addr:0x0211baa4
_ZN12ActorUnkZELD19func_ov039_02119d28Ev kind:function(arm,size=0x10) addr:0x0211bac8
_ZN12ActorUnkZELD19func_ov039_02119d38Ev kind:function(arm,size=0x8) addr:0x0211bad8
_ZN12ActorUnkZELD19func_ov039_02119d40Ev kind:function(arm,size=0x1c) addr:0x0211bae0
_ZN12ActorUnkZELD19func_ov039_02119d5cEv kind:function(arm,size=0x1c) addr:0x0211bafc
_ZN12ActorUnkZELD19func_ov039_02119d78Ev kind:function(arm,size=0x1c) addr:0x0211bb18
_ZN12ActorUnkZELD19func_ov039_02119d94Ev kind:function(arm,size=0x24) addr:0x0211bb34
_ZN12ActorUnkZELD19func_ov039_02119db8Ev kind:function(arm,size=0x2c) addr:0x0211bb58
_ZN12ActorUnkZELD19func_ov039_02119de4Ev kind:function(arm,size=0x1c) addr:0x0211bb84
_ZN12ActorUnkZELD19func_ov039_02119e00Ev kind:function(arm,size=0x28) addr:0x0211bba0
_ZN12ActorUnkZELDD2Ev kind:function(arm,size=0x20) addr:0x0211bbc8
_ZN19ActorProfileUnkZELDD1Ev kind:function(arm,size=0x14) addr:0x0211bbe8
_ZN19ActorProfileUnkSRNM10GetProfileEv kind:function(arm,size=0xc) addr:0x0211bbfc
_ZN19ActorProfileUnkSRNM6CreateEv kind:function(arm,size=0x8) addr:0x0211bc08
_ZN19ActorProfileUnkSRNMC1Ev kind:function(arm,size=0x2c) addr:0x0211bc10
_ZN19ActorProfileUnkSRSL10GetProfileEv kind:function(arm,size=0xc) addr:0x0211bc3c
_ZN19ActorProfileUnkSRSL6CreateEv kind:function(arm,size=0x8) addr:0x0211bc48
_ZN19ActorProfileUnkSRSLC1Ev kind:function(arm,size=0x2c) addr:0x0211bc50
_ZN19ActorProfileUnkSIRO10GetProfileEv kind:function(arm,size=0xc) addr:0x0211bc7c
_ZN19ActorProfileUnkSIRO6CreateEv kind:function(arm,size=0x24) addr:0x0211bc88
_ZN19ActorProfileUnkSIROC1Ev kind:function(arm,size=0x74) addr:0x0211bcac
_ZN19ActorProfileUnkSIRS10GetProfileEv kind:function(arm,size=0xc) addr:0x0211bd20
_ZN19ActorProfileUnkSIRS6CreateEv kind:function(arm,size=0x24) addr:0x0211bd2c
_ZN19ActorProfileUnkSIRSC1Ev kind:function(arm,size=0x6c) addr:0x0211bd50
func_ov039_0211bdbc kind:function(arm,size=0x270) addr:0x0211bdbc
func_ov039_0211c02c kind:function(arm,size=0x120) addr:0x0211c02c
func_ov039_0211c14c kind:function(arm,size=0x58) addr:0x0211c14c
func_ov039_0211c1a4 kind:function(arm,size=0x5c) addr:0x0211c1a4
func_ov039_0211c200 kind:function(arm,size=0xb0) addr:0x0211c200
func_ov039_0211c2b0 kind:function(arm,size=0x54) addr:0x0211c2b0
func_ov039_0211c304 kind:function(arm,size=0xcc) addr:0x0211c304
func_ov039_0211c3d0 kind:function(arm,size=0x144) addr:0x0211c3d0
func_ov039_0211c514 kind:function(arm,size=0x6c) addr:0x0211c514
func_ov039_0211c580 kind:function(arm,size=0x20) addr:0x0211c580
func_ov039_0211c5a0 kind:function(arm,size=0x28) addr:0x0211c5a0
func_ov039_0211c5c8 kind:function(arm,size=0x90) addr:0x0211c5c8
func_ov039_0211c658 kind:function(arm,size=0x98) addr:0x0211c658
func_ov039_0211c6f0 kind:function(arm,size=0x20) addr:0x0211c6f0
_ZN19func_ov039_0211c710D1Ev kind:function(arm,size=0x30) addr:0x0211c710
_ZN19func_ov039_0211c740D0Ev kind:function(arm,size=0x38) addr:0x0211c740
_ZN19ActorProfileUnkSRNMD1Ev kind:function(arm,size=0x14) addr:0x0211c778
_ZN19ActorProfileUnkSRSLD1Ev kind:function(arm,size=0x14) addr:0x0211c78c
_ZN19ActorProfileUnkSIROD1Ev kind:function(arm,size=0x14) addr:0x0211c7a0
_ZN19ActorProfileUnkSIRSD1Ev kind:function(arm,size=0x14) addr:0x0211c7b4
func_ov039_0211c7c8 kind:function(arm,size=0x38) addr:0x0211c7c8
func_ov039_0211c800 kind:function(arm,size=0x28) addr:0x0211c800
func_ov039_0211c828 kind:function(arm,size=0x2c) addr:0x0211c828
func_ov039_0211c854 kind:function(arm,size=0x20) addr:0x0211c854
func_ov039_0211c874 kind:function(arm,size=0x54) addr:0x0211c874
_ZN19ActorProfileUnkRMM410GetProfileEv kind:function(arm,size=0xc) addr:0x0211c8c8
_ZN19ActorProfileUnkRMM46CreateEv kind:function(arm,size=0x24) addr:0x0211c8d4
_ZN19ActorProfileUnkRMM4C1Ev kind:function(arm,size=0x28) addr:0x0211c8f8
_ZN12ActorUnkRMM4C1Ev kind:function(arm,size=0x150) addr:0x0211c920
_ZN12ActorUnkRMM419func_ov039_0211acd0Ev kind:function(arm,size=0x14) addr:0x0211ca70
_ZN12ActorUnkRMM419func_ov039_0211ace4Ev kind:function(arm,size=0x24) addr:0x0211ca84
_ZN12ActorUnkRMM419func_ov039_0211ad08Ev kind:function(arm,size=0x14) addr:0x0211caa8
_ZN12ActorUnkRMM419func_ov039_0211ad1cEv kind:function(arm,size=0x35c) addr:0x0211cabc
_ZN12ActorUnkRMM419func_ov039_0211b078Ev kind:function(arm,size=0x8c) addr:0x0211ce18
_ZN12ActorUnkRMM419func_ov039_0211b104Ev kind:function(arm,size=0xa8) addr:0x0211cea4
_ZN12ActorUnkRMM419func_ov039_0211b1acEv kind:function(arm,size=0x14) addr:0x0211cf4c
_ZN12ActorUnkRMM419func_ov039_0211b1c0Ev kind:function(arm,size=0x20) addr:0x0211cf60
_ZN12ActorUnkRMM419func_ov039_0211b1e0Ev kind:function(arm,size=0x84) addr:0x0211cf80
_ZN12ActorUnkRMM419func_ov039_0211b264Ev kind:function(arm,size=0xac) addr:0x0211d004
_ZN12ActorUnkRMM419func_ov039_0211b310Ev kind:function(arm,size=0x130) addr:0x0211d0b0
_ZN12ActorUnkRMM4D0Ev kind:function(arm,size=0x1c) addr:0x0211d1e0
_ZN12ActorUnkRMM4D1Ev kind:function(arm,size=0x48) addr:0x0211d1fc
_ZN12ActorUnkRMM419func_ov039_0211b4a4Ev kind:function(arm,size=0x50) addr:0x0211d244
_ZN19ActorProfileUnkRMM4D1Ev kind:function(arm,size=0x14) addr:0x0211d294
_ZN19ActorProfileUnkZLSS10GetProfileEv kind:function(arm,size=0xc) addr:0x0211d2a8
_ZN19ActorProfileUnkZLSS6CreateEv kind:function(arm,size=0x24) addr:0x0211d2b4
_ZN19ActorProfileUnkZLSSC1Ev kind:function(arm,size=0x64) addr:0x0211d2d8
_ZN12ActorUnkZLSSC1Ev kind:function(arm,size=0x2a4) addr:0x0211d33c
_ZN12ActorUnkZLSS19func_ov039_0211b840Ev kind:function(arm,size=0x14) addr:0x0211d5e0
_ZN12ActorUnkZLSSD1Ev kind:function(arm,size=0x50) addr:0x0211d5f4
_ZN12ActorUnkZLSSD0Ev kind:function(arm,size=0x58) addr:0x0211d644
_ZN12ActorUnkZLSS19func_ov039_0211b8fcEv kind:function(arm,size=0xa4) addr:0x0211d69c
_ZN12ActorUnkZLSS19func_ov039_0211b9a0Ev kind:function(arm,size=0xc) addr:0x0211d740
_ZN12ActorUnkZLSS19func_ov039_0211b9acEv kind:function(arm,size=0x54) addr:0x0211d74c
_ZN12ActorUnkZLSS19func_ov039_0211ba00Ev kind:function(arm,size=0x10) addr:0x0211d7a0
_ZN12ActorUnkZLSS19func_ov039_0211ba10Ev kind:function(arm,size=0x128) addr:0x0211d7b0
_ZN12ActorUnkZLSS19func_ov039_0211bb38Ev kind:function(arm,size=0xac) addr:0x0211d8d8
_ZN12ActorUnkZLSS19func_ov039_0211bbe4Ev kind:function(arm,size=0xc0) addr:0x0211d984
_ZN12ActorUnkZLSS19func_ov039_0211bca4Ev kind:function(arm,size=0x34) addr:0x0211da44
_ZN12ActorUnkZLSS19func_ov039_0211bcd8Ev kind:function(arm,size=0xbc) addr:0x0211da78
_ZN12ActorUnkZLSS19func_ov039_0211bd94Ev kind:function(arm,size=0xac) addr:0x0211db34
_ZN12ActorUnkZLSS19func_ov039_0211be40Ev kind:function(arm,size=0x54) addr:0x0211dbe0
_ZN12ActorUnkZLSS19func_ov039_0211be94Ev kind:function(arm,size=0x18) addr:0x0211dc34
_ZN12ActorUnkZLSS19func_ov039_0211beacEv kind:function(arm,size=0x18) addr:0x0211dc4c
_ZN12ActorUnkZLSS19func_ov039_0211bec4Ev kind:function(arm,size=0x18) addr:0x0211dc64
_ZN12ActorUnkZLSS19func_ov039_0211bedcEv kind:function(arm,size=0xc) addr:0x0211dc7c
_ZN12ActorUnkZLSS19func_ov039_0211bee8Ev kind:function(arm,size=0x18) addr:0x0211dc88
_ZN12ActorUnkZLSS19func_ov039_0211bf00Ev kind:function(arm,size=0x20) addr:0x0211dca0
_ZN12ActorUnkZLSS19func_ov039_0211bf20Ev kind:function(arm,size=0x20) addr:0x0211dcc0
_ZN12ActorUnkZLSS19func_ov039_0211bf40Ev kind:function(arm,size=0x20) addr:0x0211dce0
_ZN12ActorUnkZLSS19func_ov039_0211bf60Ev kind:function(arm,size=0xc) addr:0x0211dd00
_ZN12ActorUnkZLSS19func_ov039_0211bf6cEv kind:function(arm,size=0x3c) addr:0x0211dd0c
_ZN12ActorUnkZLSS19func_ov039_0211bfa8Ev kind:function(arm,size=0x2c) addr:0x0211dd48
_ZN12ActorUnkZLSS19func_ov039_0211bfd4Ev kind:function(arm,size=0xc) addr:0x0211dd74
_ZN12ActorUnkZLSS19func_ov039_0211bfe0Ev kind:function(arm,size=0x260) addr:0x0211dd80
_ZN12ActorUnkZLSS19func_ov039_0211c240Ev kind:function(arm,size=0x90) addr:0x0211dfe0
_ZN12ActorUnkZLSS19func_ov039_0211c2d0Ev kind:function(arm,size=0x84) addr:0x0211e070
_ZN12ActorUnkZLSS19func_ov039_0211c354Ev kind:function(arm,size=0x60) addr:0x0211e0f4
_ZN12ActorUnkZLSS19func_ov039_0211c3b4Ev kind:function(arm,size=0x18) addr:0x0211e154
_ZN12ActorUnkZLSS19func_ov039_0211c3ccEv kind:function(arm,size=0x6c) addr:0x0211e16c
_ZN12ActorUnkZLSS19func_ov039_0211c438Ev kind:function(arm,size=0x58) addr:0x0211e1d8
_ZN12ActorUnkZLSS19func_ov039_0211c490Ev kind:function(arm,size=0x88) addr:0x0211e230
_ZN12ActorUnkZLSS19func_ov039_0211c518Ev kind:function(arm,size=0x6c) addr:0x0211e2b8
_ZN12ActorUnkZLSS19func_ov039_0211c584Ev kind:function(arm,size=0x70) addr:0x0211e324
_ZN12ActorUnkZLSS19func_ov039_0211c5f4Ev kind:function(arm,size=0x80) addr:0x0211e394
_ZN12ActorUnkZLSS19func_ov039_0211c674Ev kind:function(arm,size=0x1c) addr:0x0211e414
_ZN12ActorUnkZLSS19func_ov039_0211c690Ev kind:function(arm,size=0x20) addr:0x0211e430
_ZN12ActorUnkZLSS19func_ov039_0211c6b0Ev kind:function(arm,size=0xc) addr:0x0211e450
_ZN12ActorUnkZLSS19func_ov039_0211c6bcEv kind:function(arm,size=0x4) addr:0x0211e45c
_ZN12ActorUnkZLSS19func_ov039_0211c6c0Ev kind:function(arm,size=0x14) addr:0x0211e460
_ZN12ActorUnkZLSS19func_ov039_0211c6d4Ev kind:function(arm,size=0x1c) addr:0x0211e474
_ZN19ActorProfileUnkZLSSD1Ev kind:function(arm,size=0x14) addr:0x0211e490
_ZN23MapObjectProfileUnkGTAT10GetProfileEv kind:function(arm,size=0xc) addr:0x0211e4a4
_ZN23MapObjectProfileUnkGTAT6CreateEv kind:function(arm,size=0x24) addr:0x0211e4b0
_ZN23MapObjectProfileUnkGTATC1Ev kind:function(arm,size=0x44) addr:0x0211e4d4
_ZN16MapObjectUnkGTATC1Ev kind:function(arm,size=0x34) addr:0x0211e518
_ZN16MapObjectUnkGTAT19func_ov039_0211c7acEv kind:function(arm,size=0x1b4) addr:0x0211e54c
_ZN16MapObjectUnkGTAT19func_ov039_0211c960Ev kind:function(arm,size=0x4) addr:0x0211e700
_ZN16MapObjectUnkGTAT19func_ov039_0211c964Ev kind:function(arm,size=0x4) addr:0x0211e704
_ZN16MapObjectUnkGTATD1Ev kind:function(arm,size=0x14) addr:0x0211e708
_ZN16MapObjectUnkGTATD0Ev kind:function(arm,size=0x1c) addr:0x0211e71c
_ZN23MapObjectProfileUnkGTATD1Ev kind:function(arm,size=0x14) addr:0x0211e738
func_ov039_0211e74c kind:function(arm,size=0x20) addr:0x0211e74c
func_ov039_0211e76c kind:function(arm,size=0xe0) addr:0x0211e76c
data_ov039_0211e854 kind:data(any) addr:0x0211e854
data_ov039_0211e85c kind:data(any) addr:0x0211e85c
data_ov039_0211e86c kind:data(any) addr:0x0211e86c
data_ov039_0211e87c kind:data(any) addr:0x0211e87c
data_ov039_0211e880 kind:data(any) addr:0x0211e880
data_ov039_0211e894 kind:data(any) addr:0x0211e894
data_ov039_0211e8a8 kind:data(any) addr:0x0211e8a8
data_ov039_0211e8bc kind:data(any) addr:0x0211e8bc
data_ov039_0211e8d0 kind:data(any) addr:0x0211e8d0
data_ov039_0211e8e4 kind:data(any) addr:0x0211e8e4
data_ov039_0211e8f8 kind:data(any) addr:0x0211e8f8
data_ov039_0211e90c kind:data(any) addr:0x0211e90c
__sinit_ActorUnkZELD.cpp kind:function(arm,size=0x50) addr:0x0211e920
__sinit_ActorUnkSIRO_SIRS_SRNM_SRSL.cpp kind:function(arm,size=0x148) addr:0x0211e970
__sinit_ActorUnkRMM4.cpp kind:function(arm,size=0x50) addr:0x0211eab8
__sinit_ActorUnkZLSS.cpp kind:function(arm,size=0x50) addr:0x0211eb08
__sinit_MapObjectUnkGTAT.cpp kind:function(arm,size=0x50) addr:0x0211eb58
.p__sinit_ActorUnkZELD.cpp kind:data(word) addr:0x0211eba8
.p__sinit_ActorUnkSIRO_SIRS_SRNM_SRSL.cpp kind:data(word) addr:0x0211ebac
.p__sinit_ActorUnkRMM4.cpp kind:data(word) addr:0x0211ebb0
.p__sinit_ActorUnkZLSS.cpp kind:data(word) addr:0x0211ebb4
.p__sinit_MapObjectUnkGTAT.cpp kind:data(word) addr:0x0211ebb8
_ZTV19data_ov039_0211ebc0 kind:data(any) addr:0x0211ebc0
data_ov039_0211ebec kind:data(any) addr:0x0211ebec
data_ov039_0211ec18 kind:data(any) addr:0x0211ec18
data_ov039_0211ec60 kind:data(any) addr:0x0211ec60
data_ov039_0211eca8 kind:data(any) addr:0x0211eca8
data_ov039_0211ecec kind:data(any) addr:0x0211ecec
_ZTV19data_ov039_0211edf4 kind:data(any) addr:0x0211edf4
_ZTV19data_ov039_0211ef10 kind:data(any) addr:0x0211ef10
data_ov039_0211f02c kind:data(any) addr:0x0211f02c
data_ov039_0211f044 kind:data(any) addr:0x0211f044
data_ov039_0211f11c kind:data(any) addr:0x0211f11c
data_ov039_0211f134 kind:data(any) addr:0x0211f134
data_ov039_0211f14c kind:data(any) addr:0x0211f14c
data_ov039_0211f17c kind:data(any) addr:0x0211f17c
_ZTV19data_ov039_0211f18c kind:data(any) addr:0x0211f18c
_ZTV19data_ov039_0211f1b0 kind:data(any) addr:0x0211f1b0
_ZTV19data_ov039_0211f1d4 kind:data(any) addr:0x0211f1d4
_ZTV19data_ov039_0211f1f8 kind:data(any) addr:0x0211f1f8
data_ov039_0211f21c kind:data(any) addr:0x0211f21c
data_ov039_0211f234 kind:data(any) addr:0x0211f234
data_ov039_0211f24c kind:data(any) addr:0x0211f24c
data_ov039_0211f264 kind:data(any) addr:0x0211f264
data_ov039_0211f324 kind:data(any) addr:0x0211f324
_ZTV19data_ov039_0211f3e4 kind:data(any) addr:0x0211f3e4
data_ov039_0211f500 kind:data(any) addr:0x0211f500
data_ov039_0211f508 kind:data(any) addr:0x0211f508
data_ov039_0211f520 kind:data(any) addr:0x0211f520
data_ov039_0211f538 kind:data(any) addr:0x0211f538
data_ov039_0211f544 kind:data(any) addr:0x0211f544
_ZTV19data_ov039_0211f550 kind:data(any) addr:0x0211f550
data_ov039_0211f57c kind:data(any) addr:0x0211f57c
_ZTV19data_ov039_0211f5a0 kind:data(any) addr:0x0211f5a0
data_ov039_0211f5f4 kind:data(any) addr:0x0211f5f4
data_ov039_0211f604 kind:data(any) addr:0x0211f604
_ZTV19data_ov039_0211f614 kind:data(any) addr:0x0211f614
data_ov039_0211f640 kind:data(any) addr:0x0211f640
data_ov039_0211f664 kind:data(any) addr:0x0211f664
data_ov039_0211f6b4 kind:data(any) addr:0x0211f6b4
data_ov039_0211f704 kind:data(any) addr:0x0211f704
_ZTV19data_ov039_0211f80c kind:data(any) addr:0x0211f80c
data_ov039_0211f8e0 kind:data(any) addr:0x0211f8e0 ambiguous
data_ov039_0211f930 kind:data(any) addr:0x0211f930
data_ov039_0211fa68 kind:data(any) addr:0x0211fa68
data_ov039_0211fa88 kind:data(any) addr:0x0211fa88
data_ov039_0211faa4 kind:data(any) addr:0x0211faa4
data_ov039_0211facc kind:data(any) addr:0x0211facc
_ZGVN15ProfileInstanceI19ActorProfileUnkZELDE8sProfileE kind:bss addr:0x0211fb20
@31416 kind:bss addr:0x0211fb24
_ZN15ProfileInstanceI19ActorProfileUnkZELDE8sProfileE kind:bss addr:0x0211fb30
data_ov039_0211fbcc kind:bss addr:0x0211fbcc ambiguous
data_ov039_0211fc08 kind:bss addr:0x0211fc08
data_ov039_0211fc18 kind:bss addr:0x0211fc18
data_ov039_0211fc24 kind:bss addr:0x0211fc24
_ZGVN15ProfileInstanceI19ActorProfileUnkSIRSE8sProfileE kind:bss addr:0x0211fc30
@31422 kind:bss addr:0x0211fc3c
_ZN15ProfileInstanceI19ActorProfileUnkSIRSE8sProfileE kind:bss addr:0x0211fc48
_ZN15ProfileInstanceI19ActorProfileUnkSRNME8sProfileE kind:bss addr:0x0211fc8c
data_ov039_0211fd08 kind:bss addr:0x0211fd08 ambiguous
data_ov039_0211fd40 kind:bss addr:0x0211fd40 ambiguous
_ZN15ProfileInstanceI19ActorProfileUnkSRSLE8sProfileE kind:bss addr:0x0211fd64
data_ov039_0211fd6c kind:bss addr:0x0211fd6c ambiguous
data_ov039_0211fd70 kind:bss addr:0x0211fd70 ambiguous
data_ov039_0211fdd4 kind:bss addr:0x0211fdd4 ambiguous
data_ov039_0211fe14 kind:bss addr:0x0211fe14 ambiguous
_ZN15ProfileInstanceI19ActorProfileUnkSIROE8sProfileE kind:bss addr:0x0211fe3c
data_ov039_0211fe48 kind:bss addr:0x0211fe48 ambiguous
_ZGVN15ProfileInstanceI19ActorProfileUnkRMM4E8sProfileE kind:bss addr:0x0211ff14
@31428 kind:bss addr:0x0211ff18
_ZN15ProfileInstanceI19ActorProfileUnkRMM4E8sProfileE kind:bss addr:0x0211ff24
_ZGVN15ProfileInstanceI19ActorProfileUnkZLSSE8sProfileE kind:bss addr:0x0211fffc
@31434 kind:bss addr:0x02120000
_ZN15ProfileInstanceI19ActorProfileUnkZLSSE8sProfileE kind:bss addr:0x0212000c
data_ov039_02120050 kind:bss addr:0x02120050
data_ov039_02120054 kind:bss addr:0x02120054
_ZN15ProfileInstanceI23MapObjectProfileUnkGTATE8sProfileE kind:bss addr:0x02120060
