_ZN19ActorProfileUnkRMM110GetProfileEv kind:function(arm,size=0xc) addr:0x02118fc0
_ZN19ActorProfileUnkRMM16CreateEv kind:function(arm,size=0x24) addr:0x02118fcc
_ZN19ActorProfileUnkRMM1C1Ev kind:function(arm,size=0x28) addr:0x02118ff0
_ZN12ActorUnkRMM119func_ov034_02119018Ev kind:function(arm,size=0x3c) addr:0x02119018
_ZN12ActorUnkRMM1C1Ev kind:function(arm,size=0x3c) addr:0x02119054
_ZN12ActorUnkRMM119func_ov034_02119090Ev kind:function(arm,size=0x8c) addr:0x02119090
_ZN12ActorUnkRMM119func_ov034_0211911cEv kind:function(arm,size=0x11c) addr:0x0211911c
_ZN12ActorUnkRMM119func_ov034_02119238Ev kind:function(arm,size=0x40) addr:0x02119238
_ZN12ActorUnkRMM119func_ov034_02119278Ev kind:function(arm,size=0x40) addr:0x02119278
_ZN12ActorUnkRMM1D1Ev kind:function(arm,size=0x28) addr:0x021192b8
_ZN12ActorUnkRMM1D0Ev kind:function(arm,size=0x30) addr:0x021192e0
_ZN19ActorProfileUnkRMM1D1Ev kind:function(arm,size=0x14) addr:0x02119310
_ZN19ActorProfileUnkBSFC10GetProfileEv kind:function(arm,size=0xc) addr:0x02119324
_ZN19ActorProfileUnkBSFC6CreateEv kind:function(arm,size=0x24) addr:0x02119330
_ZN19ActorProfileUnkBSFCC1Ev kind:function(arm,size=0x5c) addr:0x02119354
_ZN12ActorUnkBSFC19func_ov034_021193b0Ev kind:function(arm,size=0x70) addr:0x021193b0
_ZN12ActorUnkBSFCC1Ev kind:function(arm,size=0x188) addr:0x02119420
_ZN12ActorUnkBSFC19func_ov034_021195a8Ev kind:function(arm,size=0x14) addr:0x021195a8
_ZN12ActorUnkBSFC19func_ov034_021195bcEv kind:function(arm,size=0x144) addr:0x021195bc
_ZN12ActorUnkBSFC19func_ov034_02119700Ev kind:function(arm,size=0x270) addr:0x02119700
_ZN12ActorUnkBSFC19func_ov034_02119970Ev kind:function(arm,size=0x14) addr:0x02119970
_ZN12ActorUnkBSFC19func_ov034_02119984Ev kind:function(arm,size=0x1a0) addr:0x02119984
_ZN12ActorUnkBSFC19func_ov034_02119b24Ev kind:function(arm,size=0xdc) addr:0x02119b24
_ZN12ActorUnkBSFC19func_ov034_02119c00Ev kind:function(arm,size=0x94) addr:0x02119c00
_ZN12ActorUnkBSFC19func_ov034_02119c94Ev kind:function(arm,size=0xc0) addr:0x02119c94
_ZN12ActorUnkBSFC19func_ov034_02119d54Ev kind:function(arm,size=0x24) addr:0x02119d54
_ZN12ActorUnkBSFC19func_ov034_02119d78Ev kind:function(arm,size=0x10) addr:0x02119d78
_ZN12ActorUnkBSFC19func_ov034_02119d88Ev kind:function(arm,size=0x8) addr:0x02119d88
_ZN12ActorUnkBSFC19func_ov034_02119d90Ev kind:function(arm,size=0xc) addr:0x02119d90
_ZN12ActorUnkBSFCD0Ev kind:function(arm,size=0x1c) addr:0x02119d9c
_ZN12ActorUnkBSFCD1Ev kind:function(arm,size=0x68) addr:0x02119db8
_ZN12ActorUnkBSFC19func_ov034_02119e20Ev kind:function(arm,size=0x70) addr:0x02119e20
_ZN19ActorProfileUnkBSFCD1Ev kind:function(arm,size=0x14) addr:0x02119e90
_ZN19ActorProfileUnkFCHL10GetProfileEv kind:function(arm,size=0xc) addr:0x02119ea4
_ZN19ActorProfileUnkFCHL6CreateEv kind:function(arm,size=0x24) addr:0x02119eb0
_ZN19ActorProfileUnkFCHLC1Ev kind:function(arm,size=0x28) addr:0x02119ed4
_ZN12ActorUnkFCHLC1Ev kind:function(arm,size=0xf4) addr:0x02119efc
_ZN12ActorUnkFCHL19func_ov034_02119ff0Ev kind:function(arm,size=0x14) addr:0x02119ff0
_ZN12ActorUnkFCHL19func_ov034_0211a004Ev kind:function(arm,size=0x204) addr:0x0211a004
_ZN12ActorUnkFCHL19func_ov034_0211a208Ev kind:function(arm,size=0x14) addr:0x0211a208
_ZN12ActorUnkFCHL19func_ov034_0211a21cEv kind:function(arm,size=0x20) addr:0x0211a21c
_ZN12ActorUnkFCHLD0Ev kind:function(arm,size=0x1c) addr:0x0211a23c
_ZN12ActorUnkFCHLD1Ev kind:function(arm,size=0x30) addr:0x0211a258
_ZN12ActorUnkFCHL19func_ov034_0211a288Ev kind:function(arm,size=0x38) addr:0x0211a288
_ZN19ActorProfileUnkFCHLD1Ev kind:function(arm,size=0x14) addr:0x0211a2c0
func_ov034_0211a2d4 kind:function(arm,size=0x48) addr:0x0211a2d4
_ZN19ActorProfileUnkTRLY10GetProfileEv kind:function(arm,size=0xc) addr:0x0211a31c
_ZN19ActorProfileUnkTRLY6CreateEv kind:function(arm,size=0x24) addr:0x0211a328
_ZN19ActorProfileUnkTRLYC1Ev kind:function(arm,size=0x48) addr:0x0211a34c
_ZN12ActorUnkTRLYD1Ev kind:function(arm,size=0x14) addr:0x0211a394
_ZN12ActorUnkTRLYD0Ev kind:function(arm,size=0x1c) addr:0x0211a3a8
_ZN12ActorUnkTRLY19func_ov034_0211a3c4Ev kind:function(arm,size=0x31c) addr:0x0211a3c4
_ZN12ActorUnkTRLY19func_ov034_0211a6e0Ev kind:function(arm,size=0x9c) addr:0x0211a6e0
_ZN12ActorUnkTRLY19func_ov034_0211a77cEv kind:function(arm,size=0x40) addr:0x0211a77c
_ZN12ActorUnkTRLY19func_ov034_0211a7bcEv kind:function(arm,size=0x1c) addr:0x0211a7bc
_ZN12ActorUnkTRLY19func_ov034_0211a7d8Ev kind:function(arm,size=0x24) addr:0x0211a7d8
_ZN12ActorUnkTRLY19func_ov034_0211a7fcEv kind:function(arm,size=0xa4) addr:0x0211a7fc
_ZN12ActorUnkTRLYC1Ev kind:function(arm,size=0x240) addr:0x0211a8a0
_ZN12ActorUnkTRLY19func_ov034_0211aae0Ev kind:function(arm,size=0x280) addr:0x0211aae0
_ZN12ActorUnkTRLY19func_ov034_0211ad60Ev kind:function(arm,size=0x12c) addr:0x0211ad60
_ZN12ActorUnkTRLY19func_ov034_0211ae8cEv kind:function(arm,size=0x94) addr:0x0211ae8c
_ZN12ActorUnkTRLY19func_ov034_0211af20Ev kind:function(arm,size=0xbc) addr:0x0211af20
_ZN12ActorUnkTRLY19func_ov034_0211afdcEv kind:function(arm,size=0x24c) addr:0x0211afdc
_ZN12ActorUnkTRLY19func_ov034_0211b228Ev kind:function(arm,size=0x58) addr:0x0211b228
_ZN12ActorUnkTRLY19func_ov034_0211b280Ev kind:function(arm,size=0x19c) addr:0x0211b280
_ZN12ActorUnkTRLY19func_ov034_0211b41cEv kind:function(arm,size=0x988) addr:0x0211b41c
_ZN12ActorUnkTRLY19func_ov034_0211bda4Ev kind:function(arm,size=0x5c) addr:0x0211bda4
_ZN12ActorUnkTRLY19func_ov034_0211be00Ev kind:function(arm,size=0x10c) addr:0x0211be00
_ZN12ActorUnkTRLY19func_ov034_0211bf0cEv kind:function(arm,size=0x18) addr:0x0211bf0c
_ZN12ActorUnkTRLY19func_ov034_0211bf24Ev kind:function(arm,size=0x2c0) addr:0x0211bf24
_ZN12ActorUnkTRLY19func_ov034_0211c1e4Ev kind:function(arm,size=0x278) addr:0x0211c1e4
_ZN12ActorUnkTRLY19func_ov034_0211c45cEv kind:function(arm,size=0x4c) addr:0x0211c45c
_ZN12ActorUnkTRLY19func_ov034_0211c4a8Ev kind:function(arm,size=0x274) addr:0x0211c4a8
_ZN12ActorUnkTRLY19func_ov034_0211c71cEv kind:function(arm,size=0x24) addr:0x0211c71c
_ZN12ActorUnkTRLY19func_ov034_0211c740Ev kind:function(arm,size=0x54) addr:0x0211c740
_ZN12ActorUnkTRLY19func_ov034_0211c794Ev kind:function(arm,size=0x44) addr:0x0211c794
_ZN12ActorUnkTRLY19func_ov034_0211c7d8Ev kind:function(arm,size=0x10) addr:0x0211c7d8
_ZN12ActorUnkTRLY19func_ov034_0211c7e8Ev kind:function(arm,size=0xfc) addr:0x0211c7e8
_ZN12ActorUnkTRLY19func_ov034_0211c8e4Ev kind:function(arm,size=0x1b0) addr:0x0211c8e4
_ZN12ActorUnkTRLY19func_ov034_0211ca94Ev kind:function(arm,size=0x40) addr:0x0211ca94
_ZN12ActorUnkTRLY19func_ov034_0211cad4Ev kind:function(arm,size=0xdc) addr:0x0211cad4
_ZN12ActorUnkTRLY19func_ov034_0211cbb0Ev kind:function(arm,size=0x13c) addr:0x0211cbb0
_ZN12ActorUnkTRLY19func_ov034_0211ccecEv kind:function(arm,size=0x194) addr:0x0211ccec
_ZN12ActorUnkTRLY19func_ov034_0211ce80Ev kind:function(arm,size=0x144) addr:0x0211ce80
_ZN12ActorUnkTRLY19func_ov034_0211cfc4Ev kind:function(arm,size=0xf4) addr:0x0211cfc4
_ZN12ActorUnkTRLY19func_ov034_0211d0b8Ev kind:function(arm,size=0x6c) addr:0x0211d0b8
_ZN12ActorUnkTRLY19func_ov034_0211d124Ev kind:function(arm,size=0x48) addr:0x0211d124
_ZN12ActorUnkTRLY19func_ov034_0211d16cEv kind:function(arm,size=0x3c) addr:0x0211d16c
_ZN12ActorUnkTRLY19func_ov034_0211d1a8Ev kind:function(arm,size=0x108) addr:0x0211d1a8
_ZN12ActorUnkTRLY19func_ov034_0211d2b0Ev kind:function(arm,size=0x4c) addr:0x0211d2b0
_ZN12ActorUnkTRLY19func_ov034_0211d2fcEv kind:function(arm,size=0x184) addr:0x0211d2fc
_ZN12ActorUnkTRLY19func_ov034_0211d480Ev kind:function(arm,size=0x234) addr:0x0211d480
_ZN12ActorUnkTRLY19func_ov034_0211d6b4Ev kind:function(arm,size=0x1ec) addr:0x0211d6b4
_ZN12ActorUnkTRLY19func_ov034_0211d8a0Ev kind:function(arm,size=0xd0) addr:0x0211d8a0
_ZN12ActorUnkTRLY19func_ov034_0211d970Ev kind:function(arm,size=0x13c) addr:0x0211d970
_ZN12ActorUnkTRLY19func_ov034_0211daacEv kind:function(arm,size=0x90) addr:0x0211daac
_ZN12ActorUnkTRLY19func_ov034_0211db3cEv kind:function(arm,size=0xb4) addr:0x0211db3c
_ZN12ActorUnkTRLY19func_ov034_0211dbf0Ev kind:function(arm,size=0x18) addr:0x0211dbf0
_ZN12ActorUnkTRLY19func_ov034_0211dc08Ev kind:function(arm,size=0x84) addr:0x0211dc08
_ZN12ActorUnkTRLY19func_ov034_0211dc8cEv kind:function(arm,size=0x330) addr:0x0211dc8c
_ZN12ActorUnkTRLY19func_ov034_0211dfbcEv kind:function(arm,size=0x38) addr:0x0211dfbc
_ZN12ActorUnkTRLY19func_ov034_0211dff4Ev kind:function(arm,size=0xec) addr:0x0211dff4
_ZN12ActorUnkTRLY19func_ov034_0211e0e0Ev kind:function(arm,size=0x94) addr:0x0211e0e0
_ZN12ActorUnkTRLY19func_ov034_0211e174Ev kind:function(arm,size=0x30) addr:0x0211e174
_ZN12ActorUnkTRLY19func_ov034_0211e1a4Ev kind:function(arm,size=0x30) addr:0x0211e1a4
_ZN12ActorUnkTRLY19func_ov034_0211e1d4Ev kind:function(arm,size=0x30) addr:0x0211e1d4
_ZN12ActorUnkTRLY19func_ov034_0211e204Ev kind:function(arm,size=0x30) addr:0x0211e204
_ZN12ActorUnkTRLY19func_ov034_0211e234Ev kind:function(arm,size=0x58) addr:0x0211e234
_ZN12ActorUnkTRLY19func_ov034_0211e28cEv kind:function(arm,size=0x60) addr:0x0211e28c
_ZN19ActorProfileUnkTRLYD1Ev kind:function(arm,size=0x14) addr:0x0211e2ec
_ZN19ActorProfileUnkTRRL10GetProfileEv kind:function(arm,size=0xc) addr:0x0211e300
_ZN19ActorProfileUnkTRRL6CreateEv kind:function(arm,size=0x28) addr:0x0211e30c
_ZN19ActorProfileUnkTRRLC1Ev kind:function(arm,size=0x30) addr:0x0211e334
_ZN12ActorUnkTRRLC1Ev kind:function(arm,size=0x1ac) addr:0x0211e364
_ZN12ActorUnkTRRLD1Ev kind:function(arm,size=0x54) addr:0x0211e510
_ZN12ActorUnkTRRLD0Ev kind:function(arm,size=0x5c) addr:0x0211e564
_ZN12ActorUnkTRRL19func_ov034_0211e5c0Ev kind:function(arm,size=0x1d0) addr:0x0211e5c0
_ZN12ActorUnkTRRL19func_ov034_0211e790Ev kind:function(arm,size=0x6c) addr:0x0211e790
_ZN12ActorUnkTRRL19func_ov034_0211e7fcEv kind:function(arm,size=0x1c) addr:0x0211e7fc
_ZN12ActorUnkTRRL19func_ov034_0211e818Ev kind:function(arm,size=0x4) addr:0x0211e818
_ZN12ActorUnkTRRL19func_ov034_0211e81cEv kind:function(arm,size=0x24) addr:0x0211e81c
_ZN12ActorUnkTRRL19func_ov034_0211e840Ev kind:function(arm,size=0x4) addr:0x0211e840
_ZN12ActorUnkTRRL19func_ov034_0211e844Ev kind:function(arm,size=0x24) addr:0x0211e844
_ZN12ActorUnkTRRL19func_ov034_0211e868Ev kind:function(arm,size=0x184) addr:0x0211e868
_ZN12ActorUnkTRRL19func_ov034_0211e9ecEv kind:function(arm,size=0x34) addr:0x0211e9ec
_ZN12ActorUnkTRRL19func_ov034_0211ea20Ev kind:function(arm,size=0x48) addr:0x0211ea20
_ZN12ActorUnkTRRL19func_ov034_0211ea68Ev kind:function(arm,size=0x40) addr:0x0211ea68
_ZN12ActorUnkTRRL19func_ov034_0211eaa8Ev kind:function(arm,size=0x64) addr:0x0211eaa8
_ZN12ActorUnkTRRL19func_ov034_0211eb0cEv kind:function(arm,size=0x114) addr:0x0211eb0c
_ZN12ActorUnkTRRL19func_ov034_0211ec20Ev kind:function(arm,size=0x50) addr:0x0211ec20
_ZN12ActorUnkTRRL19func_ov034_0211ec70Ev kind:function(arm,size=0x58) addr:0x0211ec70
_ZN12ActorUnkTRRL19func_ov034_0211ecc8Ev kind:function(arm,size=0x6c) addr:0x0211ecc8
_ZN12ActorUnkTRRL19func_ov034_0211ed34Ev kind:function(arm,size=0x14) addr:0x0211ed34
_ZN12ActorUnkTRRL19func_ov034_0211ed48Ev kind:function(arm,size=0x6c) addr:0x0211ed48
_ZN12ActorUnkTRRL19func_ov034_0211edb4Ev kind:function(arm,size=0x18) addr:0x0211edb4
_ZN12ActorUnkTRRL19func_ov034_0211edccEv kind:function(arm,size=0x18) addr:0x0211edcc
_ZN12ActorUnkTRRL19func_ov034_0211ede4Ev kind:function(arm,size=0x18) addr:0x0211ede4
_ZN12ActorUnkTRRL19func_ov034_0211edfcEv kind:function(arm,size=0x28) addr:0x0211edfc
_ZN12ActorUnkTRRL19func_ov034_0211ee24Ev kind:function(arm,size=0x60) addr:0x0211ee24
_ZN12ActorUnkTRRL19func_ov034_0211ee84Ev kind:function(arm,size=0x3c) addr:0x0211ee84
_ZN12ActorUnkTRRL19func_ov034_0211eec0Ev kind:function(arm,size=0x98) addr:0x0211eec0
_ZN12ActorUnkTRRL19func_ov034_0211ef58Ev kind:function(arm,size=0x3c) addr:0x0211ef58
_ZN12ActorUnkTRRL19func_ov034_0211ef94Ev kind:function(arm,size=0x374) addr:0x0211ef94
_ZN12ActorUnkTRRL19func_ov034_0211f308Ev kind:function(arm,size=0x23c) addr:0x0211f308
_ZN12ActorUnkTRRL19func_ov034_0211f544Ev kind:function(arm,size=0x28) addr:0x0211f544
_ZN12ActorUnkTRRL19func_ov034_0211f56cEv kind:function(arm,size=0x128) addr:0x0211f56c
_ZN12ActorUnkTRRL19func_ov034_0211f694Ev kind:function(arm,size=0x140) addr:0x0211f694
_ZN12ActorUnkTRRL19func_ov034_0211f7d4Ev kind:function(arm,size=0x34) addr:0x0211f7d4
_ZN12ActorUnkTRRL19func_ov034_0211f808Ev kind:function(arm,size=0x23c) addr:0x0211f808
_ZN12ActorUnkTRRL19func_ov034_0211fa44Ev kind:function(arm,size=0x8a0) addr:0x0211fa44
_ZN12ActorUnkTRRL19func_ov034_021202e4Ev kind:function(arm,size=0x50) addr:0x021202e4
_ZN12ActorUnkTRRL19func_ov034_02120334Ev kind:function(arm,size=0x118) addr:0x02120334
_ZN12ActorUnkTRRL19func_ov034_0212044cEv kind:function(arm,size=0x18) addr:0x0212044c
_ZN12ActorUnkTRRL19func_ov034_02120464Ev kind:function(arm,size=0x58) addr:0x02120464
_ZN12ActorUnkTRRL19func_ov034_021204bcEv kind:function(arm,size=0x1ac) addr:0x021204bc
_ZN12ActorUnkTRRL19func_ov034_02120668Ev kind:function(arm,size=0x2d4) addr:0x02120668
_ZN12ActorUnkTRRL19func_ov034_0212093cEv kind:function(arm,size=0x140) addr:0x0212093c
_ZN12ActorUnkTRRL19func_ov034_02120a7cEv kind:function(arm,size=0xb8) addr:0x02120a7c
_ZN12ActorUnkTRRL19func_ov034_02120b34Ev kind:function(arm,size=0xa8) addr:0x02120b34
_ZN12ActorUnkTRRL19func_ov034_02120bdcEv kind:function(arm,size=0xc0) addr:0x02120bdc
_ZN12ActorUnkTRRL19func_ov034_02120c9cEv kind:function(arm,size=0x18) addr:0x02120c9c
_ZN12ActorUnkTRRL19func_ov034_02120cb4Ev kind:function(arm,size=0xb8) addr:0x02120cb4
_ZN19ActorProfileUnkTRRLD1Ev kind:function(arm,size=0x14) addr:0x02120d6c
_ZN23MapObjectProfileUnkTRSW10GetProfileEv kind:function(arm,size=0xc) addr:0x02120d80
_ZN23MapObjectProfileUnkTRSW6CreateEv kind:function(arm,size=0x24) addr:0x02120d8c
_ZN23MapObjectProfileUnkTRSWC1Ev kind:function(arm,size=0xac) addr:0x02120db0
_ZN16MapObjectUnkTRSWC1Ev kind:function(arm,size=0x10c) addr:0x02120e5c
_ZN16MapObjectUnkTRSW19func_ov034_02120f68Ev kind:function(arm,size=0x14) addr:0x02120f68
_ZN16MapObjectUnkTRSWD1Ev kind:function(arm,size=0x48) addr:0x02120f7c
_ZN16MapObjectUnkTRSWD0Ev kind:function(arm,size=0x50) addr:0x02120fc4
_ZN16MapObjectUnkTRSW19func_ov034_02121014Ev kind:function(arm,size=0xa0) addr:0x02121014
_ZN16MapObjectUnkTRSW19func_ov034_021210b4Ev kind:function(arm,size=0x168) addr:0x021210b4
_ZN16MapObjectUnkTRSW19func_ov034_0212121cEv kind:function(arm,size=0x54) addr:0x0212121c
_ZN16MapObjectUnkTRSW19func_ov034_02121270Ev kind:function(arm,size=0x114) addr:0x02121270
_ZN16MapObjectUnkTRSW19func_ov034_02121384Ev kind:function(arm,size=0x34) addr:0x02121384
_ZN16MapObjectUnkTRSW19func_ov034_021213b8Ev kind:function(arm,size=0xe4) addr:0x021213b8
_ZN16MapObjectUnkTRSW19func_ov034_0212149cEv kind:function(arm,size=0x60) addr:0x0212149c
_ZN16MapObjectUnkTRSW19func_ov034_021214fcEv kind:function(arm,size=0xa8) addr:0x021214fc
_ZN16MapObjectUnkTRSW19func_ov034_021215a4Ev kind:function(arm,size=0x44) addr:0x021215a4
_ZN16MapObjectUnkTRSW19func_ov034_021215e8Ev kind:function(arm,size=0x44) addr:0x021215e8
_ZN16MapObjectUnkTRSW19func_ov034_0212162cEv kind:function(arm,size=0x48) addr:0x0212162c
_ZN16MapObjectUnkTRSW19func_ov034_02121674Ev kind:function(arm,size=0x14) addr:0x02121674
_ZN23MapObjectProfileUnkTRSWD1Ev kind:function(arm,size=0x14) addr:0x02121688
func_ov034_0212169c kind:function(arm,size=0x80) addr:0x0212169c
_ZN23MapObjectProfileUnkWPHL10GetProfileEv kind:function(arm,size=0xc) addr:0x0212171c
_ZN23MapObjectProfileUnkWPHL6CreateEv kind:function(arm,size=0x24) addr:0x02121728
_ZN23MapObjectProfileUnkWPHLC1Ev kind:function(arm,size=0x3c) addr:0x0212174c
_ZN16MapObjectUnkWPHLC1Ev kind:function(arm,size=0xcc) addr:0x02121788
_ZN16MapObjectUnkWPHL19func_ov034_02121854Ev kind:function(arm,size=0x9c) addr:0x02121854
_ZN16MapObjectUnkWPHL19func_ov034_021218f0Ev kind:function(arm,size=0x8) addr:0x021218f0
_ZN16MapObjectUnkWPHL19func_ov034_021218f8Ev kind:function(arm,size=0x2b4) addr:0x021218f8
_ZN16MapObjectUnkWPHL19func_ov034_02121bacEv kind:function(arm,size=0x14) addr:0x02121bac
_ZN16MapObjectUnkWPHL19func_ov034_02121bc0Ev kind:function(arm,size=0x30) addr:0x02121bc0
_ZN16MapObjectUnkWPHL19func_ov034_02121bf0Ev kind:function(arm,size=0x54) addr:0x02121bf0
_ZN16MapObjectUnkWPHL19func_ov034_02121c44Ev kind:function(arm,size=0x128) addr:0x02121c44
_ZN16MapObjectUnkWPHL19func_ov034_02121d6cEv kind:function(arm,size=0x18) addr:0x02121d6c
_ZN16MapObjectUnkWPHL19func_ov034_02121d84Ev kind:function(arm,size=0x60) addr:0x02121d84
_ZN16MapObjectUnkWPHL19func_ov034_02121de4Ev kind:function(arm,size=0x60) addr:0x02121de4
_ZN16MapObjectUnkWPHL19func_ov034_02121e44Ev kind:function(arm,size=0x14) addr:0x02121e44
_ZN16MapObjectUnkWPHLD1Ev kind:function(arm,size=0x30) addr:0x02121e58
_ZN16MapObjectUnkWPHLD0Ev kind:function(arm,size=0x38) addr:0x02121e88
_ZN23MapObjectProfileUnkWPHLD1Ev kind:function(arm,size=0x14) addr:0x02121ec0
_ZN23MapObjectProfileUnkGELG10GetProfileEv kind:function(arm,size=0xc) addr:0x02121ed4
_ZN23MapObjectProfileUnkGELG6CreateEv kind:function(arm,size=0x24) addr:0x02121ee0
_ZN23MapObjectProfileUnkGELGC1Ev kind:function(arm,size=0x4c) addr:0x02121f04
_ZN16MapObjectUnkGELGC1Ev kind:function(arm,size=0xbc) addr:0x02121f50
_ZN16MapObjectUnkGELG19func_ov034_0212200cEv kind:function(arm,size=0x20) addr:0x0212200c
_ZN16MapObjectUnkGELG19func_ov034_0212202cEv kind:function(arm,size=0x1c) addr:0x0212202c
_ZN16MapObjectUnkGELG19func_ov034_02122048Ev kind:function(arm,size=0x170) addr:0x02122048
_ZN16MapObjectUnkGELG19func_ov034_021221b8Ev kind:function(arm,size=0x2c) addr:0x021221b8
_ZN16MapObjectUnkGELG19func_ov034_021221e4Ev kind:function(arm,size=0x8) addr:0x021221e4
_ZN16MapObjectUnkGELG19func_ov034_021221ecEv kind:function(arm,size=0x148) addr:0x021221ec
_ZN16MapObjectUnkGELG19func_ov034_02122334Ev kind:function(arm,size=0xc) addr:0x02122334
_ZN16MapObjectUnkGELG19func_ov034_02122340Ev kind:function(arm,size=0x28) addr:0x02122340
_ZN16MapObjectUnkGELGD1Ev kind:function(arm,size=0x28) addr:0x02122368
_ZN16MapObjectUnkGELGD0Ev kind:function(arm,size=0x30) addr:0x02122390
_ZN23MapObjectProfileUnkGELGD1Ev kind:function(arm,size=0x14) addr:0x021223c0
_ZN19func_ov034_021223d4D0Ev kind:function(arm,size=0x1c) addr:0x021223d4
func_ov034_021223f0 kind:function(thumb,size=0x48) addr:0x021223f0
data_ov034_02122438 kind:data(any) addr:0x02122438
data_ov034_02122448 kind:data(any) addr:0x02122448
data_ov034_02122458 kind:data(any) addr:0x02122458
data_ov034_02122468 kind:data(any) addr:0x02122468
data_ov034_02122478 kind:data(any) addr:0x02122478
data_ov034_0212247c kind:data(any) addr:0x0212247c
data_ov034_0212248c kind:data(any) addr:0x0212248c
data_ov034_0212249c kind:data(any) addr:0x0212249c
data_ov034_021224ac kind:data(any) addr:0x021224ac
data_ov034_021224bc kind:data(any) addr:0x021224bc
data_ov034_021224cc kind:data(any) addr:0x021224cc
data_ov034_021224d8 kind:data(any) addr:0x021224d8
__sinit_ActorUnkRMM1.cpp kind:function(arm,size=0x50) addr:0x021224ec
__sinit_ActorUnkBSFC.cpp kind:function(arm,size=0x50) addr:0x0212253c
__sinit_ActorUnkFCHL.cpp kind:function(arm,size=0x50) addr:0x0212258c
__sinit_ActorUnkTRLY.cpp kind:function(arm,size=0x70) addr:0x021225dc
__sinit_ActorUnkTRRL.cpp kind:function(arm,size=0x50) addr:0x0212264c
__sinit_MapObjectUnkTRSW.cpp kind:function(arm,size=0x50) addr:0x0212269c
__sinit_MapObjectUnkWPHL.cpp kind:function(arm,size=0x5c) addr:0x021226ec
__sinit_MapObjectUnkGELG.cpp kind:function(arm,size=0x84) addr:0x02122748
.p__sinit_ActorUnkRMM1.cpp kind:data(word) addr:0x021227cc
.p__sinit_ActorUnkBSFC.cpp kind:data(word) addr:0x021227d0
.p__sinit_ActorUnkFCHL.cpp kind:data(word) addr:0x021227d4
.p__sinit_ActorUnkTRLY.cpp kind:data(word) addr:0x021227d8
.p__sinit_ActorUnkTRRL.cpp kind:data(word) addr:0x021227dc
.p__sinit_MapObjectUnkTRSW.cpp kind:data(word) addr:0x021227e0
.p__sinit_MapObjectUnkWPHL.cpp kind:data(word) addr:0x021227e4
.p__sinit_MapObjectUnkGELG.cpp kind:data(word) addr:0x021227e8
data_ov034_02122808 kind:data(any) addr:0x02122808
_ZTV19data_ov034_02122808 kind:data(any) addr:0x02122808 ambiguous
_ZTV19data_ov034_02122824 kind:data(any) addr:0x02122824
_ZTV19data_ov034_02122888 kind:data(any) addr:0x02122888
data_ov034_021228ac kind:data(any) addr:0x021228ac
data_ov034_021228c4 kind:data(any) addr:0x021228c4
data_ov034_021228e4 kind:data(any) addr:0x021228e4
_ZTV19data_ov034_02122924 kind:data(any) addr:0x02122924
data_ov034_02122984 kind:data(any) addr:0x02122984
_ZTV19data_ov034_0212299c kind:data(any) addr:0x0212299c
data_ov034_021229c8 kind:data(any) addr:0x021229c8
data_ov034_021229f0 kind:data(any) addr:0x021229f0
_ZTV19data_ov034_02122a30 kind:data(any) addr:0x02122a30
data_ov034_02122a94 kind:data(any) addr:0x02122a94
data_ov034_02122aa0 kind:data(any) addr:0x02122aa0
data_ov034_02122aac kind:data(any) addr:0x02122aac
data_ov034_02122ab8 kind:data(any) addr:0x02122ab8
data_ov034_02122ac4 kind:data(any) addr:0x02122ac4
data_ov034_02122ad4 kind:data(any) addr:0x02122ad4
data_ov034_02122ae8 kind:data(any) addr:0x02122ae8
_ZTV19data_ov034_02122afc kind:data(any) addr:0x02122afc
data_ov034_02122b28 kind:data(any) addr:0x02122b28
_ZTV19data_ov034_02122b48 kind:data(any) addr:0x02122b48
data_ov034_02122ba4 kind:data(any) addr:0x02122ba4
data_ov034_02122bb4 kind:data(any) addr:0x02122bb4
data_ov034_02122c1c kind:data(any) addr:0x02122c1c
data_ov034_02122c28 kind:data(any) addr:0x02122c28
data_ov034_02122c38 kind:data(any) addr:0x02122c38
_ZTV19data_ov034_02122c48 kind:data(any) addr:0x02122c48
_ZTV19data_ov034_02122c6c kind:data(any) addr:0x02122c6c
data_ov034_02122cc8 kind:data(any) addr:0x02122cc8
data_ov034_02122cd0 kind:data(any) addr:0x02122cd0
data_ov034_02122cd8 kind:data(any) addr:0x02122cd8
data_ov034_02122ce0 kind:data(any) addr:0x02122ce0
data_ov034_02122ce8 kind:data(any) addr:0x02122ce8
data_ov034_02122cf8 kind:data(any) addr:0x02122cf8
data_ov034_02122d14 kind:data(any) addr:0x02122d14
data_ov034_02122d30 kind:data(any) addr:0x02122d30
data_ov034_02122d70 kind:data(any) addr:0x02122d70
data_ov034_02122d8c kind:data(any) addr:0x02122d8c
data_ov034_02122dc4 kind:data(any) addr:0x02122dc4
data_ov034_02122de0 kind:data(any) addr:0x02122de0
data_ov034_02122e08 kind:data(any) addr:0x02122e08
_ZGVN15ProfileInstanceI19ActorProfileUnkRMM1E8sProfileE kind:bss addr:0x02122e60
@11196 kind:bss addr:0x02122e64
_ZN15ProfileInstanceI19ActorProfileUnkRMM1E8sProfileE kind:bss addr:0x02122e70
data_ov034_02122ebc kind:bss addr:0x02122ebc ambiguous
_ZGVN15ProfileInstanceI19ActorProfileUnkBSFCE8sProfileE kind:bss addr:0x02122f48
@11202 kind:bss addr:0x02122f4c
_ZN15ProfileInstanceI19ActorProfileUnkBSFCE8sProfileE kind:bss addr:0x02122f58
data_ov034_02122f94 kind:bss addr:0x02122f94 ambiguous
data_ov034_02122ff8 kind:bss addr:0x02122ff8 ambiguous
_ZGVN15ProfileInstanceI19ActorProfileUnkFCHLE8sProfileE kind:bss addr:0x02123030
@11208 kind:bss addr:0x02123034
_ZN15ProfileInstanceI19ActorProfileUnkFCHLE8sProfileE kind:bss addr:0x02123040
_ZGVN15ProfileInstanceI19ActorProfileUnkTRLYE8sProfileE kind:bss addr:0x02123118
@11214 kind:bss addr:0x0212311c
_ZN15ProfileInstanceI19ActorProfileUnkTRLYE8sProfileE kind:bss addr:0x02123128
_ZGVN15ProfileInstanceI19ActorProfileUnkTRRLE8sProfileE kind:bss addr:0x02123200
@11220 kind:bss addr:0x02123208
_ZN15ProfileInstanceI19ActorProfileUnkTRRLE8sProfileE kind:bss addr:0x02123214
_ZGVN15ProfileInstanceI23MapObjectProfileUnkTRSWE8sProfileE kind:bss addr:0x02123308
@11215 kind:bss addr:0x0212330c
_ZN15ProfileInstanceI23MapObjectProfileUnkTRSWE8sProfileE kind:bss addr:0x02123318
data_ov034_02123338 kind:bss addr:0x02123338
data_ov034_021233ec kind:bss addr:0x021233ec
data_ov034_0212340c kind:bss addr:0x0212340c
_ZGVN15ProfileInstanceI23MapObjectProfileUnkWPHLE8sProfileE kind:bss addr:0x02123410
@11221 kind:bss addr:0x0212341c
_ZN15ProfileInstanceI23MapObjectProfileUnkWPHLE8sProfileE kind:bss addr:0x02123428
_ZGVN15ProfileInstanceI23MapObjectProfileUnkGELGE8sProfileE kind:bss addr:0x02123448
@11227 kind:bss addr:0x0212344c
_ZN15ProfileInstanceI23MapObjectProfileUnkGELGE8sProfileE kind:bss addr:0x02123458
data_ov034_02123478 kind:bss addr:0x02123478
