_ZN19ActorProfileUnkBDEA10GetProfileEv kind:function(arm,size=0xc) addr:0x02152c20
_ZN19ActorProfileUnkBDEA6CreateEv kind:function(arm,size=0x28) addr:0x02152c2c
_ZN19ActorProfileUnkBDEAC1Ev kind:function(arm,size=0x74) addr:0x02152c54
_ZN12ActorUnkBDEA19func_ov073_02150ca8Ev kind:function(arm,size=0x28) addr:0x02152cc8
_ZN12ActorUnkBDEA19func_ov073_02150cd0Ev kind:function(arm,size=0x1f8) addr:0x02152cf0
_ZN12ActorUnkBDEA19func_ov073_02150ec8Ev kind:function(arm,size=0x38) addr:0x02152ee8
_ZN12ActorUnkBDEA19func_ov073_02150f00Ev kind:function(arm,size=0xec) addr:0x02152f20
_ZN12ActorUnkBDEA19func_ov073_02150fecEv kind:function(arm,size=0x2c) addr:0x0215300c
_ZN12ActorUnkBDEA19func_ov073_02151018Ev kind:function(arm,size=0x30) addr:0x02153038
_ZN12ActorUnkBDEA19func_ov073_02151048Ev kind:function(arm,size=0x30) addr:0x02153068
_ZN12ActorUnkBDEA19func_ov073_02151078Ev kind:function(arm,size=0x18) addr:0x02153098
_ZN12ActorUnkBDEA19func_ov073_02151090Ev kind:function(arm,size=0x14) addr:0x021530b0
_ZN12ActorUnkBDEA19func_ov073_021510a4Ev kind:function(arm,size=0xc8) addr:0x021530c4
_ZN12ActorUnkBDEA19func_ov073_0215116cEv kind:function(arm,size=0x54) addr:0x0215318c
_ZN12ActorUnkBDEAC1Ev kind:function(arm,size=0x4a0) addr:0x021531e0
_ZN12ActorUnkBDEA19func_ov073_02151660Ev kind:function(arm,size=0x14) addr:0x02153680
_ZN12ActorUnkBDEA19func_ov073_02151674Ev kind:function(arm,size=0x14) addr:0x02153694
_ZN12ActorUnkBDEA19func_ov073_02151688Ev kind:function(arm,size=0x14) addr:0x021536a8
_ZN12ActorUnkBDEA19func_ov073_0215169cEv kind:function(arm,size=0x14) addr:0x021536bc
_ZN12ActorUnkBDEA19func_ov073_021516b0Ev kind:function(arm,size=0x100) addr:0x021536d0
_ZN12ActorUnkBDEAD0Ev kind:function(arm,size=0x108) addr:0x021537d0
_ZN12ActorUnkBDEA19func_ov073_021518b8Ev kind:function(arm,size=0x1b8) addr:0x021538d8
_ZN12ActorUnkBDEA19func_ov073_02151a70Ev kind:function(arm,size=0x50) addr:0x02153a90
_ZN12ActorUnkBDEA19func_ov073_02151ac0Ev kind:function(arm,size=0x2c) addr:0x02153ae0
_ZN12ActorUnkBDEA19func_ov073_02151aecEv kind:function(arm,size=0x60) addr:0x02153b0c
_ZN12ActorUnkBDEA19func_ov073_02151b4cEv kind:function(arm,size=0x160) addr:0x02153b6c
_ZN12ActorUnkBDEA19func_ov073_02151cacEv kind:function(arm,size=0xd8) addr:0x02153ccc
_ZN12ActorUnkBDEA19func_ov073_02151d84Ev kind:function(arm,size=0xa8) addr:0x02153da4
_ZN12ActorUnkBDEA19func_ov073_02151e2cEv kind:function(arm,size=0x1298) addr:0x02153e4c
_ZN12ActorUnkBDEA19func_ov073_021530c4Ev kind:function(arm,size=0xec) addr:0x021550e4
_ZN12ActorUnkBDEA19func_ov073_021531b0Ev kind:function(arm,size=0x8c) addr:0x021551d0
_ZN12ActorUnkBDEA19func_ov073_0215323cEv kind:function(arm,size=0x1ac) addr:0x0215525c
_ZN12ActorUnkBDEA19func_ov073_021533e8Ev kind:function(arm,size=0x7c) addr:0x02155408
_ZN12ActorUnkBDEA19func_ov073_02153464Ev kind:function(arm,size=0x78) addr:0x02155484
_ZN12ActorUnkBDEA19func_ov073_021534dcEv kind:function(arm,size=0xc8) addr:0x021554fc
_ZN12ActorUnkBDEA19func_ov073_021535a4Ev kind:function(arm,size=0x444) addr:0x021555c4
_ZN12ActorUnkBDEA19func_ov073_021539e8Ev kind:function(arm,size=0xb0) addr:0x02155a08
_ZN12ActorUnkBDEA19func_ov073_02153a98Ev kind:function(arm,size=0x374) addr:0x02155ab8
_ZN12ActorUnkBDEA19func_ov073_02153e0cEv kind:function(arm,size=0xa0) addr:0x02155e2c
_ZN12ActorUnkBDEA19func_ov073_02153eacEv kind:function(arm,size=0x190) addr:0x02155ecc
_ZN12ActorUnkBDEA19func_ov073_0215403cEv kind:function(arm,size=0xb8) addr:0x0215605c
_ZN12ActorUnkBDEA19func_ov073_021540f4Ev kind:function(arm,size=0x280) addr:0x02156114
_ZN12ActorUnkBDEA19func_ov073_02154374Ev kind:function(arm,size=0x330) addr:0x02156394
_ZN12ActorUnkBDEA19func_ov073_021546a4Ev kind:function(arm,size=0x740) addr:0x021566c4
_ZN12ActorUnkBDEA19func_ov073_02154de4Ev kind:function(arm,size=0x7c) addr:0x02156e04
_ZN12ActorUnkBDEA19func_ov073_02154e60Ev kind:function(arm,size=0x138) addr:0x02156e80
_ZN12ActorUnkBDEA19func_ov073_02154f98Ev kind:function(arm,size=0x7c) addr:0x02156fb8
_ZN12ActorUnkBDEA19func_ov073_02155014Ev kind:function(arm,size=0xf4) addr:0x02157034
_ZN12ActorUnkBDEA19func_ov073_02155108Ev kind:function(arm,size=0x7c) addr:0x02157128
_ZN12ActorUnkBDEA19func_ov073_02155184Ev kind:function(arm,size=0x120) addr:0x021571a4
_ZN12ActorUnkBDEA19func_ov073_021552a4Ev kind:function(arm,size=0xc0) addr:0x021572c4
_ZN12ActorUnkBDEA19func_ov073_02155364Ev kind:function(arm,size=0x5c8) addr:0x02157384
_ZN12ActorUnkBDEA19func_ov073_0215592cEv kind:function(arm,size=0xb8) addr:0x0215794c
_ZN12ActorUnkBDEA19func_ov073_021559e4Ev kind:function(arm,size=0x90) addr:0x02157a04
_ZN12ActorUnkBDEA19func_ov073_02155a74Ev kind:function(arm,size=0x74) addr:0x02157a94
_ZN12ActorUnkBDEA19func_ov073_02155ae8Ev kind:function(arm,size=0x58) addr:0x02157b08
_ZN12ActorUnkBDEA19func_ov073_02155b40Ev kind:function(arm,size=0x6c) addr:0x02157b60
_ZN12ActorUnkBDEA19func_ov073_02155bacEv kind:function(arm,size=0x10) addr:0x02157bcc
_ZN12ActorUnkBDEA19func_ov073_02155bbcEv kind:function(arm,size=0x164) addr:0x02157bdc
_ZN12ActorUnkBDEA19func_ov073_02155d20Ev kind:function(arm,size=0x494) addr:0x02157d40
_ZN12ActorUnkBDEA19func_ov073_021561b4Ev kind:function(arm,size=0x12c) addr:0x021581d4
_ZN12ActorUnkBDEA19func_ov073_021562e0Ev kind:function(arm,size=0x484) addr:0x02158300
_ZN12ActorUnkBDEA19func_ov073_02156764Ev kind:function(arm,size=0x18c) addr:0x02158784
_ZN12ActorUnkBDEA19func_ov073_021568f0Ev kind:function(arm,size=0x1d0) addr:0x02158910
_ZN12ActorUnkBDEA19func_ov073_02156ac0Ev kind:function(arm,size=0x188) addr:0x02158ae0
_ZN12ActorUnkBDEA19func_ov073_02156c48Ev kind:function(arm,size=0x138) addr:0x02158c68
_ZN12ActorUnkBDEA19func_ov073_02156d80Ev kind:function(arm,size=0x25c) addr:0x02158da0
_ZN12ActorUnkBDEA19func_ov073_02156fdcEv kind:function(arm,size=0x724) addr:0x02158ffc
_ZN12ActorUnkBDEA19func_ov073_02157700Ev kind:function(arm,size=0xa0) addr:0x02159720
_ZN12ActorUnkBDEA19func_ov073_021577a0Ev kind:function(arm,size=0x33c) addr:0x021597c0
_ZN12ActorUnkBDEA19func_ov073_02157adcEv kind:function(arm,size=0x74) addr:0x02159afc
_ZN12ActorUnkBDEA19func_ov073_02157b50Ev kind:function(arm,size=0x370) addr:0x02159b70
_ZN12ActorUnkBDEA19func_ov073_02157ec0Ev kind:function(arm,size=0x78) addr:0x02159ee0
_ZN12ActorUnkBDEA19func_ov073_02157f38Ev kind:function(arm,size=0x8cc) addr:0x02159f58
_ZN12ActorUnkBDEA19func_ov073_02158804Ev kind:function(arm,size=0x194) addr:0x0215a824
_ZN12ActorUnkBDEA19func_ov073_02158998Ev kind:function(arm,size=0x918) addr:0x0215a9b8
_ZN12ActorUnkBDEA19func_ov073_021592b0Ev kind:function(arm,size=0x7c) addr:0x0215b2d0
_ZN12ActorUnkBDEA19func_ov073_0215932cEv kind:function(arm,size=0x7c0) addr:0x0215b34c
_ZN12ActorUnkBDEA19func_ov073_02159aecEv kind:function(arm,size=0x5c) addr:0x0215bb0c
_ZN12ActorUnkBDEA19func_ov073_02159b48Ev kind:function(arm,size=0x80) addr:0x0215bb68
_ZN12ActorUnkBDEA19func_ov073_02159bc8Ev kind:function(arm,size=0x5fc) addr:0x0215bbe8
_ZN12ActorUnkBDEA19func_ov073_0215a1c4Ev kind:function(arm,size=0x21c) addr:0x0215c1e4
_ZN12ActorUnkBDEA19func_ov073_0215a3e0Ev kind:function(arm,size=0x27c) addr:0x0215c400
_ZN12ActorUnkBDEA19func_ov073_0215a65cEv kind:function(arm,size=0x9c) addr:0x0215c67c
_ZN12ActorUnkBDEA19func_ov073_0215a6f8Ev kind:function(arm,size=0xdc) addr:0x0215c718
_ZN12ActorUnkBDEA19func_ov073_0215a7d4Ev kind:function(arm,size=0x9c) addr:0x0215c7f4
_ZN12ActorUnkBDEA19func_ov073_0215a870Ev kind:function(arm,size=0x18c) addr:0x0215c890
_ZN12ActorUnkBDEA19func_ov073_0215a9fcEv kind:function(arm,size=0x4c4) addr:0x0215ca1c
_ZN12ActorUnkBDEA19func_ov073_0215aec0Ev kind:function(arm,size=0x108) addr:0x0215cee0
_ZN12ActorUnkBDEA19func_ov073_0215afc8Ev kind:function(arm,size=0x4f4) addr:0x0215cfe8
_ZN12ActorUnkBDEA19func_ov073_0215b4bcEv kind:function(arm,size=0xf0) addr:0x0215d4dc
_ZN12ActorUnkBDEA19func_ov073_0215b5acEv kind:function(arm,size=0x9c) addr:0x0215d5cc
_ZN12ActorUnkBDEA19func_ov073_0215b648Ev kind:function(arm,size=0x384) addr:0x0215d668
_ZN12ActorUnkBDEA19func_ov073_0215b9ccEv kind:function(arm,size=0x70) addr:0x0215d9ec
_ZN12ActorUnkBDEA19func_ov073_0215ba3cEv kind:function(arm,size=0xac) addr:0x0215da5c
_ZN12ActorUnkBDEA19func_ov073_0215bae8Ev kind:function(arm,size=0x84) addr:0x0215db08
_ZN12ActorUnkBDEA19func_ov073_0215bb6cEv kind:function(arm,size=0xa0) addr:0x0215db8c
_ZN12ActorUnkBDEA19func_ov073_0215bc0cEv kind:function(arm,size=0x6c) addr:0x0215dc2c
_ZN12ActorUnkBDEA19func_ov073_0215bc78Ev kind:function(arm,size=0x17c) addr:0x0215dc98
_ZN12ActorUnkBDEA19func_ov073_0215bdf4Ev kind:function(arm,size=0x80) addr:0x0215de14
_ZN12ActorUnkBDEA19func_ov073_0215be74Ev kind:function(arm,size=0x1300) addr:0x0215de94
_ZN12ActorUnkBDEA19func_ov073_0215d174Ev kind:function(arm,size=0x15c) addr:0x0215f194
_ZN12ActorUnkBDEA19func_ov073_0215d2d0Ev kind:function(arm,size=0x1050) addr:0x0215f2f0
_ZN12ActorUnkBDEA19func_ov073_0215e320Ev kind:function(arm,size=0x9c) addr:0x02160340
_ZN12ActorUnkBDEA19func_ov073_0215e3bcEv kind:function(arm,size=0x968) addr:0x021603dc
_ZN12ActorUnkBDEA19func_ov073_0215ed24Ev kind:function(arm,size=0x6c) addr:0x02160d44
_ZN12ActorUnkBDEA19func_ov073_0215ed90Ev kind:function(arm,size=0x68) addr:0x02160db0
_ZN12ActorUnkBDEA19func_ov073_0215edf8Ev kind:function(arm,size=0x240) addr:0x02160e18
_ZN12ActorUnkBDEA19func_ov073_0215f038Ev kind:function(arm,size=0x5d4) addr:0x02161058
_ZN12ActorUnkBDEA19func_ov073_0215f60cEv kind:function(arm,size=0x14) addr:0x0216162c
_ZN12ActorUnkBDEA19func_ov073_0215f620Ev kind:function(arm,size=0x110) addr:0x02161640
_ZN12ActorUnkBDEA19func_ov073_0215f730Ev kind:function(arm,size=0x29c) addr:0x02161750
_ZN12ActorUnkBDEA19func_ov073_0215f9ccEv kind:function(arm,size=0xac) addr:0x021619ec
_ZN12ActorUnkBDEA19func_ov073_0215fa78Ev kind:function(arm,size=0x210) addr:0x02161a98
_ZN12ActorUnkBDEA19func_ov073_0215fc88Ev kind:function(arm,size=0x78) addr:0x02161ca8
_ZN12ActorUnkBDEA19func_ov073_0215fd00Ev kind:function(arm,size=0x2f4) addr:0x02161d20
_ZN12ActorUnkBDEA19func_ov073_0215fff4Ev kind:function(arm,size=0xb4) addr:0x02162014
_ZN12ActorUnkBDEA19func_ov073_021600a8Ev kind:function(arm,size=0x144) addr:0x021620c8
_ZN12ActorUnkBDEA19func_ov073_021601ecEv kind:function(arm,size=0x18) addr:0x0216220c
_ZN12ActorUnkBDEA19func_ov073_02160204Ev kind:function(arm,size=0x2f8) addr:0x02162224
_ZN12ActorUnkBDEA19func_ov073_021604fcEv kind:function(arm,size=0x168) addr:0x0216251c
_ZN12ActorUnkBDEA19func_ov073_02160664Ev kind:function(arm,size=0x2bc) addr:0x02162684
_ZN12ActorUnkBDEA19func_ov073_02160920Ev kind:function(arm,size=0x268) addr:0x02162940
_ZN12ActorUnkBDEA19func_ov073_02160b88Ev kind:function(arm,size=0x2c) addr:0x02162ba8
_ZN12ActorUnkBDEA19func_ov073_02160bb4Ev kind:function(arm,size=0x20c) addr:0x02162bd4
_ZN12ActorUnkBDEA19func_ov073_02160dc0Ev kind:function(arm,size=0x50) addr:0x02162de0
_ZN12ActorUnkBDEA19func_ov073_02160e10Ev kind:function(arm,size=0x54) addr:0x02162e30
_ZN12ActorUnkBDEA19func_ov073_02160e64Ev kind:function(arm,size=0xd8) addr:0x02162e84
_ZN12ActorUnkBDEA19func_ov073_02160f3cEv kind:function(arm,size=0x120) addr:0x02162f5c
_ZN12ActorUnkBDEA19func_ov073_0216105cEv kind:function(arm,size=0xd8) addr:0x0216307c
_ZN12ActorUnkBDEA19func_ov073_02161134Ev kind:function(arm,size=0x74) addr:0x02163154
_ZN12ActorUnkBDEA19func_ov073_021611a8Ev kind:function(arm,size=0xe0) addr:0x021631c8
_ZN12ActorUnkBDEA19func_ov073_02161288Ev kind:function(arm,size=0x70) addr:0x021632a8
_ZN12ActorUnkBDEA19func_ov073_021612f8Ev kind:function(arm,size=0x44) addr:0x02163318
_ZN12ActorUnkBDEA19func_ov073_0216133cEv kind:function(arm,size=0x50) addr:0x0216335c
_ZN12ActorUnkBDEA19func_ov073_0216138cEv kind:function(arm,size=0x274) addr:0x021633ac
_ZN12ActorUnkBDEA19func_ov073_02161600Ev kind:function(arm,size=0x50) addr:0x02163620
_ZN12ActorUnkBDEA19func_ov073_02161650Ev kind:function(arm,size=0x114) addr:0x02163670
_ZN12ActorUnkBDEA19func_ov073_02161764Ev kind:function(arm,size=0x1e8) addr:0x02163784
_ZN12ActorUnkBDEA19func_ov073_0216194cEv kind:function(arm,size=0x14) addr:0x0216396c
_ZN12ActorUnkBDEA19func_ov073_02161960Ev kind:function(arm,size=0x78) addr:0x02163980
_ZN12ActorUnkBDEA19func_ov073_021619d8Ev kind:function(arm,size=0x90) addr:0x021639f8
_ZN12ActorUnkBDEA19func_ov073_02161a68Ev kind:function(arm,size=0x24) addr:0x02163a88
_ZN12ActorUnkBDEA19func_ov073_02161a8cEv kind:function(arm,size=0x84) addr:0x02163aac
_ZN12ActorUnkBDEA19func_ov073_02161b10Ev kind:function(arm,size=0x214) addr:0x02163b30
_ZN12ActorUnkBDEA19func_ov073_02161d24Ev kind:function(arm,size=0x74) addr:0x02163d44
_ZN12ActorUnkBDEA19func_ov073_02161d98Ev kind:function(arm,size=0x240) addr:0x02163db8
_ZN12ActorUnkBDEA19func_ov073_02161fd8Ev kind:function(arm,size=0x64) addr:0x02163ff8
_ZN12ActorUnkBDEA19func_ov073_0216203cEv kind:function(arm,size=0x5c) addr:0x0216405c
_ZN12ActorUnkBDEA19func_ov073_02162098Ev kind:function(arm,size=0x90) addr:0x021640b8
_ZN12ActorUnkBDEA19func_ov073_02162128Ev kind:function(arm,size=0x90) addr:0x02164148
_ZN12ActorUnkBDEA19func_ov073_021621b8Ev kind:function(arm,size=0x20) addr:0x021641d8
_ZN12ActorUnkBDEA19func_ov073_021621d8Ev kind:function(arm,size=0x18) addr:0x021641f8
_ZN12ActorUnkBDEA19func_ov073_021621f0Ev kind:function(arm,size=0x19c) addr:0x02164210
_ZN12ActorUnkBDEA19func_ov073_0216238cEv kind:function(arm,size=0x8) addr:0x021643ac
_ZN12ActorUnkBDEA19func_ov073_02162394Ev kind:function(arm,size=0x114) addr:0x021643b4
_ZN12ActorUnkBDEA19func_ov073_021624a8Ev kind:function(arm,size=0x10) addr:0x021644c8
_ZN12ActorUnkBDEA19func_ov073_021624b8Ev kind:function(arm,size=0x38) addr:0x021644d8
_ZN12ActorUnkBDEA19func_ov073_021624f0Ev kind:function(arm,size=0x38) addr:0x02164510
_ZN12ActorUnkBDEA19func_ov073_02162528Ev kind:function(arm,size=0x25c) addr:0x02164548
_ZN12ActorUnkBDEA19func_ov073_02162784Ev kind:function(arm,size=0x40) addr:0x021647a4
_ZN12ActorUnkBDEA19func_ov073_021627c4Ev kind:function(arm,size=0xf8) addr:0x021647e4
_ZN12ActorUnkBDEA19func_ov073_021628bcEv kind:function(arm,size=0x6c) addr:0x021648dc
_ZN12ActorUnkBDEA19func_ov073_02162928Ev kind:function(arm,size=0x190) addr:0x02164948
_ZN12ActorUnkBDEA19func_ov073_02162ab8Ev kind:function(arm,size=0x63c) addr:0x02164ad8
_ZN12ActorUnkBDEA19func_ov073_021630f4Ev kind:function(arm,size=0x24) addr:0x02165114
_ZN12ActorUnkBDEA19func_ov073_02163118Ev kind:function(arm,size=0x10) addr:0x02165138
_ZN12ActorUnkBDEA19func_ov073_02163128Ev kind:function(arm,size=0x8) addr:0x02165148
_ZN12ActorUnkBDEA19func_ov073_02163130Ev kind:function(arm,size=0x24) addr:0x02165150
_ZN12ActorUnkBDEA19func_ov073_02163154Ev kind:function(arm,size=0x2c) addr:0x02165174
_ZN12ActorUnkBDEA19func_ov073_02163180Ev kind:function(arm,size=0x18) addr:0x021651a0
_ZN12ActorUnkBDEA19func_ov073_02163198Ev kind:function(arm,size=0xc) addr:0x021651b8
_ZN12ActorUnkBDEA19func_ov073_021631a4Ev kind:function(arm,size=0x1c) addr:0x021651c4
_ZN12ActorUnkBDEA19func_ov073_021631c0Ev kind:function(arm,size=0x1c) addr:0x021651e0
_ZN12ActorUnkBDEA19func_ov073_021631dcEv kind:function(arm,size=0x1c) addr:0x021651fc
_ZN12ActorUnkBDEA19func_ov073_021631f8Ev kind:function(arm,size=0x1c) addr:0x02165218
_ZN19ActorProfileUnkBDEAD1Ev kind:function(arm,size=0x14) addr:0x02165234
_ZN19ActorProfileUnkDGPC10GetProfileEv kind:function(arm,size=0xc) addr:0x02165248
_ZN19ActorProfileUnkDGPC6CreateEv kind:function(arm,size=0x24) addr:0x02165254
_ZN19ActorProfileUnkDGPCC1Ev kind:function(arm,size=0x28) addr:0x02165278
_ZN12ActorUnkDGPCC1Ev kind:function(arm,size=0x4c) addr:0x021652a0
_ZN12ActorUnkDGPC19func_ov073_021632ccEv kind:function(arm,size=0x40) addr:0x021652ec
_ZN12ActorUnkDGPC19func_ov073_0216330cEv kind:function(arm,size=0x30) addr:0x0216532c
_ZN12ActorUnkDGPC19func_ov073_0216333cEv kind:function(arm,size=0x14) addr:0x0216535c
_ZN12ActorUnkDGPC19func_ov073_02163350Ev kind:function(arm,size=0x18) addr:0x02165370
_ZN12ActorUnkDGPC19func_ov073_02163368Ev kind:function(arm,size=0x20) addr:0x02165388
_ZN12ActorUnkDGPC19func_ov073_02163388Ev kind:function(arm,size=0x38) addr:0x021653a8
_ZN12ActorUnkDGPC19func_ov073_021633c0Ev kind:function(arm,size=0x8) addr:0x021653e0
_ZN12ActorUnkDGPC19func_ov073_021633c8Ev kind:function(arm,size=0x68) addr:0x021653e8
_ZN12ActorUnkDGPCD0Ev kind:function(arm,size=0x28) addr:0x02165450
_ZN12ActorUnkDGPCD2Ev kind:function(arm,size=0x20) addr:0x02165478
_ZN19ActorProfileUnkDGPCD1Ev kind:function(arm,size=0x14) addr:0x02165498
func_ov073_021654ac kind:function(arm,size=0x10) addr:0x021654ac
func_ov073_021654bc kind:function(arm,size=0x10) addr:0x021654bc
func_ov073_021654cc kind:function(arm,size=0x10) addr:0x021654cc
func_ov073_021654dc kind:function(arm,size=0x10) addr:0x021654dc
func_ov073_021654ec kind:function(arm,size=0x150) addr:0x021654ec
func_ov073_0216563c kind:function(arm,size=0x26c) addr:0x0216563c
func_ov073_021658a8 kind:function(arm,size=0x1e0) addr:0x021658a8
func_ov073_02165a88 kind:function(arm,size=0x1d8) addr:0x02165a88
data_ov073_02165c68 kind:data(any) addr:0x02165c68
data_ov073_02165c6c kind:data(any) addr:0x02165c6c
data_ov073_02165c70 kind:data(any) addr:0x02165c70
data_ov073_02165c74 kind:data(any) addr:0x02165c74
data_ov073_02165c78 kind:data(any) addr:0x02165c78
data_ov073_02165c7c kind:data(any) addr:0x02165c7c
data_ov073_02165c88 kind:data(any) addr:0x02165c88
data_ov073_02165c98 kind:data(any) addr:0x02165c98
data_ov073_02165cb8 kind:data(any) addr:0x02165cb8
data_ov073_02165cd8 kind:data(any) addr:0x02165cd8
data_ov073_02165cf8 kind:data(any) addr:0x02165cf8
data_ov073_02165d08 kind:data(any) addr:0x02165d08
data_ov073_02165d18 kind:data(any) addr:0x02165d18
data_ov073_02165d28 kind:data(any) addr:0x02165d28
data_ov073_02165d38 kind:data(any) addr:0x02165d38
data_ov073_02165d48 kind:data(any) addr:0x02165d48
data_ov073_02165d58 kind:data(any) addr:0x02165d58
__sinit_ActorUnkBDEA.cpp kind:function(arm,size=0x124) addr:0x02165d68
__sinit_ActorUnkDGPC.cpp kind:function(arm,size=0x50) addr:0x02165e8c
.p__sinit_ActorUnkBDEA.cpp kind:data(word) addr:0x02165edc
.p__sinit_ActorUnkDGPC.cpp kind:data(word) addr:0x02165ee0
data_ov073_02165f00 kind:data(any) addr:0x02165f00
data_ov073_02165f14 kind:data(any) addr:0x02165f14
data_ov073_02165f20 kind:data(any) addr:0x02165f20
data_ov073_02165f2c kind:data(any) addr:0x02165f2c
data_ov073_02165f44 kind:data(any) addr:0x02165f44
data_ov073_02165f50 kind:data(any) addr:0x02165f50
data_ov073_02165f60 kind:data(any) addr:0x02165f60
data_ov073_02165f80 kind:data(any) addr:0x02165f80
data_ov073_02165f8c kind:data(any) addr:0x02165f8c
data_ov073_02165f98 kind:data(any) addr:0x02165f98
data_ov073_02165fa8 kind:data(any) addr:0x02165fa8
data_ov073_02165fc0 kind:data(any) addr:0x02165fc0
data_ov073_02165fdc kind:data(any) addr:0x02165fdc
_ZTV19data_ov073_02165fe0 kind:data(any) addr:0x02165fe0 ambiguous
data_ov073_02165ff0 kind:data(any) addr:0x02165ff0 ambiguous
data_ov073_02166000 kind:data(any) addr:0x02166000
data_ov073_0216602c kind:data(any) addr:0x0216602c
data_ov073_02166040 kind:data(any) addr:0x02166040 ambiguous
data_ov073_02166054 kind:data(any) addr:0x02166054 ambiguous
data_ov073_02166074 kind:data(any) addr:0x02166074
_ZTV19data_ov073_021660b8 kind:data(any) addr:0x021660b8
data_ov073_02166118 kind:data(any) addr:0x02166118
data_ov073_0216611c kind:data(any) addr:0x0216611c ambiguous
data_ov073_02166230 kind:data(any) addr:0x02166230
data_ov073_02166348 kind:data(any) addr:0x02166348
data_ov073_02166360 kind:data(any) addr:0x02166360
data_ov073_02166378 kind:data(any) addr:0x02166378
data_ov073_02166390 kind:data(any) addr:0x02166390
data_ov073_021663a4 kind:data(any) addr:0x021663a4 ambiguous
data_ov073_021663a8 kind:data(any) addr:0x021663a8
data_ov073_021663c0 kind:data(any) addr:0x021663c0
data_ov073_021663d8 kind:data(any) addr:0x021663d8
data_ov073_021663f0 kind:data(any) addr:0x021663f0
data_ov073_02166408 kind:data(any) addr:0x02166408
data_ov073_02166420 kind:data(any) addr:0x02166420
data_ov073_02166438 kind:data(any) addr:0x02166438
data_ov073_02166450 kind:data(any) addr:0x02166450
data_ov073_02166468 kind:data(any) addr:0x02166468
data_ov073_02166480 kind:data(any) addr:0x02166480
data_ov073_02166498 kind:data(any) addr:0x02166498
data_ov073_021664b0 kind:data(any) addr:0x021664b0
data_ov073_021664c8 kind:data(any) addr:0x021664c8
data_ov073_021664e0 kind:data(any) addr:0x021664e0
data_ov073_021664f8 kind:data(any) addr:0x021664f8
data_ov073_02166510 kind:data(any) addr:0x02166510
data_ov073_02166528 kind:data(any) addr:0x02166528
data_ov073_02166540 kind:data(any) addr:0x02166540
data_ov073_02166558 kind:data(any) addr:0x02166558
data_ov073_02166570 kind:data(any) addr:0x02166570
data_ov073_02166588 kind:data(any) addr:0x02166588
data_ov073_021665a0 kind:data(any) addr:0x021665a0
data_ov073_021665b8 kind:data(any) addr:0x021665b8
data_ov073_021665d0 kind:data(any) addr:0x021665d0
data_ov073_021665e8 kind:data(any) addr:0x021665e8
data_ov073_02166600 kind:data(any) addr:0x02166600
data_ov073_02166618 kind:data(any) addr:0x02166618
data_ov073_02166630 kind:data(any) addr:0x02166630
data_ov073_02166648 kind:data(any) addr:0x02166648
data_ov073_02166660 kind:data(any) addr:0x02166660
data_ov073_02166678 kind:data(any) addr:0x02166678
data_ov073_02166690 kind:data(any) addr:0x02166690
data_ov073_021666a8 kind:data(any) addr:0x021666a8
data_ov073_021666c0 kind:data(any) addr:0x021666c0
data_ov073_021666d8 kind:data(any) addr:0x021666d8
data_ov073_021666f0 kind:data(any) addr:0x021666f0
data_ov073_02166708 kind:data(any) addr:0x02166708
_ZTV19data_ov073_02166720 kind:data(any) addr:0x02166720
_ZTV19data_ov073_02166744 kind:data(any) addr:0x02166744
_ZTV19data_ov073_021667ac kind:data(any) addr:0x021667ac
_ZGVN15ProfileInstanceI19ActorProfileUnkBDEAE8sProfileE kind:bss addr:0x021667e0
@33345 kind:bss addr:0x021667e4
_ZN15ProfileInstanceI19ActorProfileUnkBDEAE8sProfileE kind:bss addr:0x021667f0
data_ov073_021667f4 kind:bss addr:0x021667f4
_ZGVN15ProfileInstanceI19ActorProfileUnkDGPCE8sProfileE kind:bss addr:0x021668c8
@33351 kind:bss addr:0x021668cc
_ZN15ProfileInstanceI19ActorProfileUnkDGPCE8sProfileE kind:bss addr:0x021668d8
