_ZN19ActorProfileUnkWHMA10GetProfileEv kind:function(arm,size=0xc) addr:0x02154be0
_ZN19ActorProfileUnkWHMA6CreateEv kind:function(arm,size=0x24) addr:0x02154bec
_ZN19ActorProfileUnkWHMAC1Ev kind:function(arm,size=0x4c) addr:0x02154c10
_ZN12ActorUnkWHMA19func_ov082_02154c5cEv kind:function(arm,size=0x14) addr:0x02154c5c
_ZN12ActorUnkWHMAC1Ev kind:function(arm,size=0x1bc) addr:0x02154c70
_ZN12ActorUnkWHMA19func_ov082_02154e2cEv kind:function(arm,size=0x7c) addr:0x02154e2c
_ZN12ActorUnkWHMA19func_ov082_02154ea8Ev kind:function(arm,size=0x48) addr:0x02154ea8
_ZN12ActorUnkWHMA19func_ov082_02154ef0Ev kind:function(arm,size=0x54) addr:0x02154ef0
_ZN12ActorUnkWHMA19func_ov082_02154f44Ev kind:function(arm,size=0x194) addr:0x02154f44
_ZN12ActorUnkWHMA19func_ov082_021550d8Ev kind:function(arm,size=0x70) addr:0x021550d8
_ZN12ActorUnkWHMA19func_ov082_02155148Ev kind:function(arm,size=0x28) addr:0x02155148
_ZN12ActorUnkWHMA19func_ov082_02155170Ev kind:function(arm,size=0x3c) addr:0x02155170
_ZN12ActorUnkWHMA19func_ov082_021551acEv kind:function(arm,size=0x80) addr:0x021551ac
_ZN12ActorUnkWHMA19func_ov082_0215522cEv kind:function(arm,size=0x98) addr:0x0215522c
_ZN12ActorUnkWHMA19func_ov082_021552c4Ev kind:function(arm,size=0x9c) addr:0x021552c4
_ZN12ActorUnkWHMA19func_ov082_02155360Ev kind:function(arm,size=0xf0) addr:0x02155360
_ZN12ActorUnkWHMA19func_ov082_02155450Ev kind:function(arm,size=0x7c) addr:0x02155450
_ZN12ActorUnkWHMA19func_ov082_021554ccEv kind:function(arm,size=0xa8) addr:0x021554cc
_ZN12ActorUnkWHMA19func_ov082_02155574Ev kind:function(arm,size=0xd4) addr:0x02155574
_ZN12ActorUnkWHMA19func_ov082_02155648Ev kind:function(arm,size=0x308) addr:0x02155648
_ZN12ActorUnkWHMA19func_ov082_02155950Ev kind:function(arm,size=0x138) addr:0x02155950
_ZN12ActorUnkWHMA19func_ov082_02155a88Ev kind:function(arm,size=0x330) addr:0x02155a88
_ZN12ActorUnkWHMA19func_ov082_02155db8Ev kind:function(arm,size=0x7c) addr:0x02155db8
_ZN12ActorUnkWHMA19func_ov082_02155e34Ev kind:function(arm,size=0x28c) addr:0x02155e34
_ZN12ActorUnkWHMA19func_ov082_021560c0Ev kind:function(arm,size=0x1e8) addr:0x021560c0
_ZN12ActorUnkWHMA19func_ov082_021562a8Ev kind:function(arm,size=0x2bc) addr:0x021562a8
_ZN12ActorUnkWHMA19func_ov082_02156564Ev kind:function(arm,size=0x11c) addr:0x02156564
_ZN12ActorUnkWHMA19func_ov082_02156680Ev kind:function(arm,size=0x1f8) addr:0x02156680
_ZN12ActorUnkWHMA19func_ov082_02156878Ev kind:function(arm,size=0xf0) addr:0x02156878
_ZN12ActorUnkWHMA19func_ov082_02156968Ev kind:function(arm,size=0x2bc) addr:0x02156968
_ZN12ActorUnkWHMA19func_ov082_02156c24Ev kind:function(arm,size=0x12c) addr:0x02156c24
_ZN12ActorUnkWHMA19func_ov082_02156d50Ev kind:function(arm,size=0x220) addr:0x02156d50
_ZN12ActorUnkWHMA19func_ov082_02156f70Ev kind:function(arm,size=0xf4) addr:0x02156f70
_ZN12ActorUnkWHMA19func_ov082_02157064Ev kind:function(arm,size=0x9c) addr:0x02157064
_ZN12ActorUnkWHMA19func_ov082_02157100Ev kind:function(arm,size=0xd0) addr:0x02157100
_ZN12ActorUnkWHMA19func_ov082_021571d0Ev kind:function(arm,size=0x70) addr:0x021571d0
_ZN12ActorUnkWHMA19func_ov082_02157240Ev kind:function(arm,size=0x12c) addr:0x02157240
_ZN12ActorUnkWHMA19func_ov082_0215736cEv kind:function(arm,size=0x70) addr:0x0215736c
_ZN12ActorUnkWHMA19func_ov082_021573dcEv kind:function(arm,size=0x390) addr:0x021573dc
_ZN12ActorUnkWHMA19func_ov082_0215776cEv kind:function(arm,size=0xc8) addr:0x0215776c
_ZN12ActorUnkWHMA19func_ov082_02157834Ev kind:function(arm,size=0x60) addr:0x02157834
_ZN12ActorUnkWHMA19func_ov082_02157894Ev kind:function(arm,size=0xc0) addr:0x02157894
_ZN12ActorUnkWHMA19func_ov082_02157954Ev kind:function(arm,size=0x90) addr:0x02157954
_ZN12ActorUnkWHMA19func_ov082_021579e4Ev kind:function(arm,size=0xb8) addr:0x021579e4
_ZN12ActorUnkWHMA19func_ov082_02157a9cEv kind:function(arm,size=0xd4) addr:0x02157a9c
_ZN12ActorUnkWHMA19func_ov082_02157b70Ev kind:function(arm,size=0xf0) addr:0x02157b70
_ZN12ActorUnkWHMA19func_ov082_02157c60Ev kind:function(arm,size=0xb0) addr:0x02157c60
_ZN12ActorUnkWHMA19func_ov082_02157d10Ev kind:function(arm,size=0x90) addr:0x02157d10
_ZN12ActorUnkWHMA19func_ov082_02157da0Ev kind:function(arm,size=0x5c) addr:0x02157da0
_ZN12ActorUnkWHMA19func_ov082_02157dfcEv kind:function(arm,size=0x74) addr:0x02157dfc
_ZN12ActorUnkWHMA19func_ov082_02157e70Ev kind:function(arm,size=0x50) addr:0x02157e70
_ZN12ActorUnkWHMA19func_ov082_02157ec0Ev kind:function(arm,size=0x49c) addr:0x02157ec0
_ZN12ActorUnkWHMA19func_ov082_0215835cEv kind:function(arm,size=0x8c) addr:0x0215835c
_ZN12ActorUnkWHMA19func_ov082_021583e8Ev kind:function(arm,size=0x190) addr:0x021583e8
_ZN12ActorUnkWHMA19func_ov082_02158578Ev kind:function(arm,size=0x1c) addr:0x02158578
_ZN12ActorUnkWHMA19func_ov082_02158594Ev kind:function(arm,size=0x78) addr:0x02158594
_ZN12ActorUnkWHMA19func_ov082_0215860cEv kind:function(arm,size=0x5c) addr:0x0215860c
_ZN12ActorUnkWHMA19func_ov082_02158668Ev kind:function(arm,size=0x28) addr:0x02158668
_ZN12ActorUnkWHMA19func_ov082_02158690Ev kind:function(arm,size=0xf4) addr:0x02158690
_ZN12ActorUnkWHMA19func_ov082_02158784Ev kind:function(arm,size=0xec) addr:0x02158784
_ZN12ActorUnkWHMA19func_ov082_02158870Ev kind:function(arm,size=0x2c) addr:0x02158870
_ZN12ActorUnkWHMA19func_ov082_0215889cEv kind:function(arm,size=0xc0) addr:0x0215889c
_ZN12ActorUnkWHMA19func_ov082_0215895cEv kind:function(arm,size=0xec) addr:0x0215895c
_ZN12ActorUnkWHMA19func_ov082_02158a48Ev kind:function(arm,size=0x1f0) addr:0x02158a48
_ZN12ActorUnkWHMA19func_ov082_02158c38Ev kind:function(arm,size=0x174) addr:0x02158c38
_ZN12ActorUnkWHMA19func_ov082_02158dacEv kind:function(arm,size=0x4dc) addr:0x02158dac
_ZN12ActorUnkWHMA19func_ov082_02159288Ev kind:function(arm,size=0x1ac) addr:0x02159288
_ZN12ActorUnkWHMA19func_ov082_02159434Ev kind:function(arm,size=0x68) addr:0x02159434
_ZN12ActorUnkWHMAD0Ev kind:function(arm,size=0x84) addr:0x0215949c
_ZN12ActorUnkWHMA19func_ov082_02159520Ev kind:function(arm,size=0x7c) addr:0x02159520
_ZN12ActorUnkWHMA19func_ov082_0215959cEv kind:function(arm,size=0x24) addr:0x0215959c
_ZN12ActorUnkWHMA19func_ov082_021595c0Ev kind:function(arm,size=0x2c) addr:0x021595c0
_ZN12ActorUnkWHMA19func_ov082_021595ecEv kind:function(arm,size=0x1c) addr:0x021595ec
_ZN19ActorProfileUnkWHMAD1Ev kind:function(arm,size=0x14) addr:0x02159608
_ZN19ActorProfileUnkEWHI10GetProfileEv kind:function(arm,size=0xc) addr:0x0215961c
_ZN19ActorProfileUnkEWHI6CreateEv kind:function(arm,size=0x24) addr:0x02159628
_ZN19ActorProfileUnkEWHIC1Ev kind:function(arm,size=0x40) addr:0x0215964c
_ZN12ActorUnkEWHIC1Ev kind:function(arm,size=0x2c) addr:0x0215968c
_ZN12ActorUnkEWHI19func_ov082_021596b8Ev kind:function(arm,size=0x34) addr:0x021596b8
_ZN12ActorUnkEWHI19func_ov082_021596ecEv kind:function(arm,size=0x3c) addr:0x021596ec
_ZN12ActorUnkEWHI19func_ov082_02159728Ev kind:function(arm,size=0x38) addr:0x02159728
_ZN12ActorUnkEWHI19func_ov082_02159760Ev kind:function(arm,size=0x38) addr:0x02159760
_ZN12ActorUnkEWHI19func_ov082_02159798Ev kind:function(arm,size=0x40) addr:0x02159798
_ZN12ActorUnkEWHI19func_ov082_021597d8Ev kind:function(arm,size=0x4) addr:0x021597d8
_ZN12ActorUnkEWHI19func_ov082_021597dcEv kind:function(arm,size=0x1c) addr:0x021597dc
_ZN12ActorUnkEWHI19func_ov082_021597f8Ev kind:function(arm,size=0x4) addr:0x021597f8
_ZN12ActorUnkEWHI19func_ov082_021597fcEv kind:function(arm,size=0x1c) addr:0x021597fc
_ZN12ActorUnkEWHI19func_ov082_02159818Ev kind:function(arm,size=0x4c) addr:0x02159818
_ZN12ActorUnkEWHI19func_ov082_02159864Ev kind:function(arm,size=0x1c) addr:0x02159864
_ZN12ActorUnkEWHI19func_ov082_02159880Ev kind:function(arm,size=0x4) addr:0x02159880
_ZN12ActorUnkEWHI19func_ov082_02159884Ev kind:function(arm,size=0x18) addr:0x02159884
_ZN12ActorUnkEWHI19func_ov082_0215989cEv kind:function(arm,size=0x4) addr:0x0215989c
_ZN12ActorUnkEWHI19func_ov082_021598a0Ev kind:function(arm,size=0x18) addr:0x021598a0
_ZN12ActorUnkEWHI19func_ov082_021598b8Ev kind:function(arm,size=0x8) addr:0x021598b8
_ZN12ActorUnkEWHI19func_ov082_021598c0Ev kind:function(arm,size=0x38) addr:0x021598c0
_ZN12ActorUnkEWHI19func_ov082_021598f8Ev kind:function(arm,size=0x4c) addr:0x021598f8
_ZN12ActorUnkEWHID1Ev kind:function(arm,size=0x28) addr:0x02159944
_ZN12ActorUnkEWHID0Ev kind:function(arm,size=0x30) addr:0x0215996c
_ZN19ActorProfileUnkEWHID1Ev kind:function(arm,size=0x14) addr:0x0215999c
_ZN19ActorProfileUnkDSWT10GetProfileEv kind:function(arm,size=0xc) addr:0x021599b0
_ZN19ActorProfileUnkDSWT6CreateEv kind:function(arm,size=0x24) addr:0x021599bc
_ZN19ActorProfileUnkDSWTC1Ev kind:function(arm,size=0x28) addr:0x021599e0
_ZN12ActorUnkDSWTC1Ev kind:function(arm,size=0x20) addr:0x02159a08
_ZN12ActorUnkDSWT19func_ov082_02159a28Ev kind:function(arm,size=0x50) addr:0x02159a28
_ZN12ActorUnkDSWTD1Ev kind:function(arm,size=0x20) addr:0x02159a78
_ZN12ActorUnkDSWTD0Ev kind:function(arm,size=0x28) addr:0x02159a98
_ZN19ActorProfileUnkDSWTD1Ev kind:function(arm,size=0x14) addr:0x02159ac0
func_ov082_02159ad4 kind:function(thumb,size=0x12) addr:0x02159ad4
func_ov082_02159ae8 kind:function(thumb,size=0xe) addr:0x02159ae8
func_ov082_02159af8 kind:function(arm,size=0x3c) addr:0x02159af8
func_ov082_02159b34 kind:function(arm,size=0x38) addr:0x02159b34
func_ov082_02159b6c kind:function(arm,size=0x24) addr:0x02159b6c
func_ov082_02159b90 kind:function(arm,size=0x240) addr:0x02159b90
func_ov082_02159dd0 kind:function(arm,size=0x58) addr:0x02159dd0
func_ov082_02159e28 kind:function(arm,size=0x1c8) addr:0x02159e28
func_ov082_02159ff0 kind:function(arm,size=0x2c) addr:0x02159ff0
func_ov082_0215a01c kind:function(arm,size=0x160) addr:0x0215a01c
func_ov082_0215a17c kind:function(arm,size=0x30c) addr:0x0215a17c
_ZN19func_ov082_0215a488D1Ev kind:function(arm,size=0x14) addr:0x0215a488
_ZN19func_ov082_0215a49cD0Ev kind:function(arm,size=0x1c) addr:0x0215a49c
func_ov082_0215a4b8 kind:function(arm,size=0xdc) addr:0x0215a4b8
func_ov082_0215a594 kind:function(arm,size=0x104) addr:0x0215a594
func_ov082_0215a698 kind:function(arm,size=0xb8) addr:0x0215a698
func_ov082_0215a750 kind:function(arm,size=0x34) addr:0x0215a750
data_ov082_0215a784 kind:data(any) addr:0x0215a784
data_ov082_0215a788 kind:data(any) addr:0x0215a788
data_ov082_0215a78c kind:data(any) addr:0x0215a78c
data_ov082_0215a790 kind:data(any) addr:0x0215a790
data_ov082_0215a794 kind:data(any) addr:0x0215a794
__sinit_ActorUnkWHMA.cpp kind:function(arm,size=0x50) addr:0x0215a798
__sinit_ActorUnkEWHI.cpp kind:function(arm,size=0x50) addr:0x0215a7e8
__sinit_ActorUnkDSWT.cpp kind:function(arm,size=0x50) addr:0x0215a838
.p__sinit_ActorUnkWHMA.cpp kind:data(word) addr:0x0215a888
.p__sinit_ActorUnkEWHI.cpp kind:data(word) addr:0x0215a88c
.p__sinit_ActorUnkDSWT.cpp kind:data(word) addr:0x0215a890
data_ov082_0215a8a0 kind:data(any) addr:0x0215a8a0
data_ov082_0215a8a4 kind:data(any) addr:0x0215a8a4
data_ov082_0215a8a8 kind:data(any) addr:0x0215a8a8
_ZTV19data_ov082_0215a8ac kind:data(any) addr:0x0215a8ac
data_ov082_0215a8d8 kind:data(any) addr:0x0215a8d8
data_ov082_0215a91c kind:data(any) addr:0x0215a91c ambiguous
_ZTV19data_ov082_0215a91c kind:data(any) addr:0x0215a91c
_ZTV19data_ov082_0215a954 kind:data(any) addr:0x0215a954 ambiguous
data_ov082_0215a974 kind:data(any) addr:0x0215a974 ambiguous
data_ov082_0215a97c kind:data(any) addr:0x0215a97c
data_ov082_0215aa24 kind:data(any) addr:0x0215aa24
data_ov082_0215aacc kind:data(any) addr:0x0215aacc
data_ov082_0215aad0 kind:data(any) addr:0x0215aad0 ambiguous
data_ov082_0215aae4 kind:data(any) addr:0x0215aae4
data_ov082_0215aafc kind:data(any) addr:0x0215aafc
data_ov082_0215ab08 kind:data(any) addr:0x0215ab08 ambiguous
data_ov082_0215ab14 kind:data(any) addr:0x0215ab14
data_ov082_0215ab44 kind:data(any) addr:0x0215ab44
data_ov082_0215ab5c kind:data(any) addr:0x0215ab5c
data_ov082_0215ab74 kind:data(any) addr:0x0215ab74
data_ov082_0215ab8c kind:data(any) addr:0x0215ab8c
data_ov082_0215ab98 kind:data(any) addr:0x0215ab98 ambiguous
data_ov082_0215aba4 kind:data(any) addr:0x0215aba4
data_ov082_0215abbc kind:data(any) addr:0x0215abbc
data_ov082_0215abd4 kind:data(any) addr:0x0215abd4
data_ov082_0215abec kind:data(any) addr:0x0215abec
data_ov082_0215abf4 kind:data(any) addr:0x0215abf4 ambiguous
data_ov082_0215ac04 kind:data(any) addr:0x0215ac04
data_ov082_0215ac1c kind:data(any) addr:0x0215ac1c
_ZTV19data_ov082_0215ac34 kind:data(any) addr:0x0215ac34
data_ov082_0215ac58 kind:data(any) addr:0x0215ac58
data_ov082_0215ac80 kind:data(any) addr:0x0215ac80
_ZTV19data_ov082_0215aca8 kind:data(any) addr:0x0215aca8
_ZTV19data_ov082_0215acb4 kind:data(any) addr:0x0215acb4 ambiguous
_ZTV19data_ov082_0215acdc kind:data(any) addr:0x0215acdc ambiguous
_ZTV19data_ov082_0215ad0c kind:data(any) addr:0x0215ad0c
_ZTV19data_ov082_0215ad10 kind:data(any) addr:0x0215ad10 ambiguous
_ZTV19data_ov082_0215ad30 kind:data(any) addr:0x0215ad30
_ZTV19data_ov082_0215ad90 kind:data(any) addr:0x0215ad90
data_ov082_0215adc0 kind:bss addr:0x0215adc0
data_ov082_0215adc4 kind:bss addr:0x0215adc4
sActorProfileUnkWHMA kind:bss addr:0x0215add0
data_ov082_0215ae3c kind:bss addr:0x0215ae3c ambiguous
data_ov082_0215ae80 kind:bss addr:0x0215ae80 ambiguous
data_ov082_0215aea8 kind:bss addr:0x0215aea8
data_ov082_0215aeac kind:bss addr:0x0215aeac
sActorProfileUnkEWHI kind:bss addr:0x0215aeb8
data_ov082_0215aee0 kind:bss addr:0x0215aee0 ambiguous
data_ov082_0215aef4 kind:bss addr:0x0215aef4
data_ov082_0215aef8 kind:bss addr:0x0215aef8
sActorProfileUnkDSWT kind:bss addr:0x0215af04
