_ZN23MapObjectProfileUnkTMFR10GetProfileEv kind:function(arm,size=0xc) addr:0x021419e0
_ZN23MapObjectProfileUnkTMFR6CreateEv kind:function(arm,size=0x24) addr:0x021419ec
_ZN23MapObjectProfileUnkTMFRC1Ev kind:function(arm,size=0x40) addr:0x02141a10
_ZN16MapObjectUnkTMFRC1Ev kind:function(arm,size=0x60) addr:0x02141a50
_ZN16MapObjectUnkTMFR19func_ov027_02141ab0Ev kind:function(arm,size=0x14) addr:0x02141ab0
_ZN16MapObjectUnkTMFR19func_ov027_02141ac4Ev kind:function(arm,size=0x10c) addr:0x02141ac4
_ZN16MapObjectUnkTMFR19func_ov027_02141bd0Ev kind:function(arm,size=0xe8) addr:0x02141bd0
_ZN16MapObjectUnkTMFR19func_ov027_02141cb8Ev kind:function(arm,size=0x8) addr:0x02141cb8
_ZN16MapObjectUnkTMFR19func_ov027_02141cc0Ev kind:function(arm,size=0x8) addr:0x02141cc0
_ZN16MapObjectUnkTMFR19func_ov027_02141cc8Ev kind:function(arm,size=0x4) addr:0x02141cc8
_ZN16MapObjectUnkTMFR19func_ov027_02141cccEv kind:function(arm,size=0x160) addr:0x02141ccc
_ZN16MapObjectUnkTMFR19func_ov027_02141e2cEv kind:function(arm,size=0xc) addr:0x02141e2c
_ZN16MapObjectUnkTMFR19func_ov027_02141e38Ev kind:function(arm,size=0xc) addr:0x02141e38
_ZN16MapObjectUnkTMFR19func_ov027_02141e44Ev kind:function(arm,size=0x8c) addr:0x02141e44
_ZN16MapObjectUnkTMFR19func_ov027_02141ed0Ev kind:function(arm,size=0x40) addr:0x02141ed0
_ZN16MapObjectUnkTMFR19func_ov027_02141f10Ev kind:function(arm,size=0x20) addr:0x02141f10
_ZN16MapObjectUnkTMFR19func_ov027_02141f30Ev kind:function(arm,size=0x20) addr:0x02141f30
_ZN16MapObjectUnkTMFRD0Ev kind:function(arm,size=0x1c) addr:0x02141f50
_ZN16MapObjectUnkTMFRD1Ev kind:function(arm,size=0x28) addr:0x02141f6c
_ZN16MapObjectUnkTMFR19func_ov027_02141f94Ev kind:function(arm,size=0x30) addr:0x02141f94
_ZN16MapObjectUnkTMFR19func_ov027_02141fc4Ev kind:function(arm,size=0x28) addr:0x02141fc4
_ZN16MapObjectUnkTMFRD2Ev kind:function(arm,size=0x20) addr:0x02141fec
_ZN23MapObjectProfileUnkTMFRD1Ev kind:function(arm,size=0x14) addr:0x0214200c
_ZN23MapObjectProfileUnkTRFV10GetProfileEv kind:function(arm,size=0xc) addr:0x02142020
_ZN23MapObjectProfileUnkTRFV6CreateEv kind:function(arm,size=0x24) addr:0x0214202c
_ZN23MapObjectProfileUnkTRFVC1Ev kind:function(arm,size=0x40) addr:0x02142050
_ZN16MapObjectUnkTRFVC1Ev kind:function(arm,size=0x44) addr:0x02142090
_ZN16MapObjectUnkTRFV19func_ov027_021420d4Ev kind:function(arm,size=0xec) addr:0x021420d4
_ZN16MapObjectUnkTRFV19func_ov027_021421c0Ev kind:function(arm,size=0x110) addr:0x021421c0
_ZN16MapObjectUnkTRFV19func_ov027_021422d0Ev kind:function(arm,size=0x38) addr:0x021422d0
_ZN16MapObjectUnkTRFV19func_ov027_02142308Ev kind:function(arm,size=0x18) addr:0x02142308
_ZN16MapObjectUnkTRFV19func_ov027_02142320Ev kind:function(arm,size=0x40) addr:0x02142320
_ZN16MapObjectUnkTRFV19func_ov027_02142360Ev kind:function(arm,size=0x20) addr:0x02142360
_ZN16MapObjectUnkTRFV19func_ov027_02142380Ev kind:function(arm,size=0x20) addr:0x02142380
_ZN16MapObjectUnkTRFV19func_ov027_021423a0Ev kind:function(arm,size=0xc) addr:0x021423a0
_ZN16MapObjectUnkTRFVD1Ev kind:function(arm,size=0x28) addr:0x021423ac
_ZN16MapObjectUnkTRFVD0Ev kind:function(arm,size=0x30) addr:0x021423d4
_ZN23MapObjectProfileUnkTRFVD1Ev kind:function(arm,size=0x14) addr:0x02142404
_ZN23MapObjectProfileUnkTRFO10GetProfileEv kind:function(arm,size=0xc) addr:0x02142418
_ZN23MapObjectProfileUnkTRFO6CreateEv kind:function(arm,size=0x24) addr:0x02142424
_ZN23MapObjectProfileUnkTRFOC1Ev kind:function(arm,size=0x38) addr:0x02142448
_ZN16MapObjectUnkTRFOC1Ev kind:function(arm,size=0x44) addr:0x02142480
_ZN16MapObjectUnkTRFO19func_ov027_021424c4Ev kind:function(arm,size=0xec) addr:0x021424c4
_ZN16MapObjectUnkTRFO19func_ov027_021425b0Ev kind:function(arm,size=0x6c) addr:0x021425b0
_ZN16MapObjectUnkTRFO19func_ov027_0214261cEv kind:function(arm,size=0x18) addr:0x0214261c
_ZN16MapObjectUnkTRFO19func_ov027_02142634Ev kind:function(arm,size=0x40) addr:0x02142634
_ZN16MapObjectUnkTRFO19func_ov027_02142674Ev kind:function(arm,size=0x20) addr:0x02142674
_ZN16MapObjectUnkTRFO19func_ov027_02142694Ev kind:function(arm,size=0x20) addr:0x02142694
_ZN16MapObjectUnkTRFO19func_ov027_021426b4Ev kind:function(arm,size=0x8) addr:0x021426b4
_ZN16MapObjectUnkTRFOD1Ev kind:function(arm,size=0x20) addr:0x021426bc
_ZN16MapObjectUnkTRFOD0Ev kind:function(arm,size=0x28) addr:0x021426dc
_ZN23MapObjectProfileUnkTRFOD1Ev kind:function(arm,size=0x14) addr:0x02142704
_ZN23MapObjectProfileUnkTRSH10GetProfileEv kind:function(arm,size=0xc) addr:0x02142718
_ZN23MapObjectProfileUnkTRSH6CreateEv kind:function(arm,size=0x24) addr:0x02142724
_ZN23MapObjectProfileUnkTRSHC1Ev kind:function(arm,size=0x54) addr:0x02142748
_ZN16MapObjectUnkTRSHC1Ev kind:function(arm,size=0x44) addr:0x0214279c
_ZN16MapObjectUnkTRSH19func_ov027_021427e0Ev kind:function(arm,size=0xec) addr:0x021427e0
_ZN16MapObjectUnkTRSH19func_ov027_021428ccEv kind:function(arm,size=0x6c) addr:0x021428cc
_ZN16MapObjectUnkTRSH19func_ov027_02142938Ev kind:function(arm,size=0x18) addr:0x02142938
_ZN16MapObjectUnkTRSH19func_ov027_02142950Ev kind:function(arm,size=0x40) addr:0x02142950
_ZN16MapObjectUnkTRSH19func_ov027_02142990Ev kind:function(arm,size=0x20) addr:0x02142990
_ZN16MapObjectUnkTRSH19func_ov027_021429b0Ev kind:function(arm,size=0x20) addr:0x021429b0
_ZN16MapObjectUnkTRSH19func_ov027_021429d0Ev kind:function(arm,size=0x8) addr:0x021429d0
_ZN16MapObjectUnkTRSHD1Ev kind:function(arm,size=0x20) addr:0x021429d8
_ZN16MapObjectUnkTRSHD0Ev kind:function(arm,size=0x28) addr:0x021429f8
_ZN23MapObjectProfileUnkTRSHD1Ev kind:function(arm,size=0x14) addr:0x02142a20
_ZN23MapObjectProfileUnkTRBR10GetProfileEv kind:function(arm,size=0xc) addr:0x02142a34
_ZN23MapObjectProfileUnkTRBR6CreateEv kind:function(arm,size=0x24) addr:0x02142a40
_ZN23MapObjectProfileUnkTRBRC1Ev kind:function(arm,size=0x38) addr:0x02142a64
_ZN16MapObjectUnkTRBRC1Ev kind:function(arm,size=0x3c) addr:0x02142a9c
_ZN16MapObjectUnkTRBR19func_ov027_02142ad8Ev kind:function(arm,size=0xec) addr:0x02142ad8
_ZN16MapObjectUnkTRBR19func_ov027_02142bc4Ev kind:function(arm,size=0x74) addr:0x02142bc4
_ZN16MapObjectUnkTRBR19func_ov027_02142c38Ev kind:function(arm,size=0x18) addr:0x02142c38
_ZN16MapObjectUnkTRBR19func_ov027_02142c50Ev kind:function(arm,size=0x40) addr:0x02142c50
_ZN16MapObjectUnkTRBR19func_ov027_02142c90Ev kind:function(arm,size=0x20) addr:0x02142c90
_ZN16MapObjectUnkTRBR19func_ov027_02142cb0Ev kind:function(arm,size=0x20) addr:0x02142cb0
_ZN16MapObjectUnkTRBR19func_ov027_02142cd0Ev kind:function(arm,size=0x8) addr:0x02142cd0
_ZN16MapObjectUnkTRBRD1Ev kind:function(arm,size=0x20) addr:0x02142cd8
_ZN16MapObjectUnkTRBRD0Ev kind:function(arm,size=0x28) addr:0x02142cf8
_ZN23MapObjectProfileUnkTRBRD1Ev kind:function(arm,size=0x14) addr:0x02142d20
_ZN23MapObjectProfileUnkTRDA10GetProfileEv kind:function(arm,size=0xc) addr:0x02142d34
_ZN23MapObjectProfileUnkTRDA6CreateEv kind:function(arm,size=0x24) addr:0x02142d40
_ZN23MapObjectProfileUnkTRDAC1Ev kind:function(arm,size=0x38) addr:0x02142d64
_ZN16MapObjectUnkTRDAC1Ev kind:function(arm,size=0xa0) addr:0x02142d9c
_ZN16MapObjectUnkTRDA19func_ov027_02142e3cEv kind:function(arm,size=0xec) addr:0x02142e3c
_ZN16MapObjectUnkTRDA19func_ov027_02142f28Ev kind:function(arm,size=0x20) addr:0x02142f28
_ZN16MapObjectUnkTRDA19func_ov027_02142f48Ev kind:function(arm,size=0x20) addr:0x02142f48
_ZN16MapObjectUnkTRDA19func_ov027_02142f68Ev kind:function(arm,size=0x20) addr:0x02142f68
_ZN16MapObjectUnkTRDA19func_ov027_02142f88Ev kind:function(arm,size=0x8) addr:0x02142f88
_ZN16MapObjectUnkTRDAD1Ev kind:function(arm,size=0x20) addr:0x02142f90
_ZN16MapObjectUnkTRDAD0Ev kind:function(arm,size=0x28) addr:0x02142fb0
_ZN23MapObjectProfileUnkTRDAD1Ev kind:function(arm,size=0x14) addr:0x02142fd8
_ZN23MapObjectProfileUnkETDK10GetProfileEv kind:function(arm,size=0xc) addr:0x02142fec
_ZN23MapObjectProfileUnkETDK6CreateEv kind:function(arm,size=0x24) addr:0x02142ff8
_ZN23MapObjectProfileUnkETDKC1Ev kind:function(arm,size=0x50) addr:0x0214301c
_ZN16MapObjectUnkETDKC1Ev kind:function(arm,size=0x70) addr:0x0214306c
_ZN16MapObjectUnkETDK19func_ov027_021430dcEv kind:function(arm,size=0x1f0) addr:0x021430dc
_ZN16MapObjectUnkETDK19func_ov027_021432ccEv kind:function(arm,size=0xe8) addr:0x021432cc
_ZN16MapObjectUnkETDK19func_ov027_021433b4Ev kind:function(arm,size=0x8) addr:0x021433b4
_ZN16MapObjectUnkETDK19func_ov027_021433bcEv kind:function(arm,size=0x8) addr:0x021433bc
_ZN16MapObjectUnkETDK19func_ov027_021433c4Ev kind:function(arm,size=0x4) addr:0x021433c4
_ZN16MapObjectUnkETDK19func_ov027_021433c8Ev kind:function(arm,size=0x114) addr:0x021433c8
_ZN16MapObjectUnkETDK19func_ov027_021434dcEv kind:function(arm,size=0x114) addr:0x021434dc
_ZN16MapObjectUnkETDK19func_ov027_021435f0Ev kind:function(arm,size=0x14) addr:0x021435f0
_ZN16MapObjectUnkETDK19func_ov027_02143604Ev kind:function(arm,size=0x64) addr:0x02143604
_ZN16MapObjectUnkETDK19func_ov027_02143668Ev kind:function(arm,size=0x8) addr:0x02143668
_ZN16MapObjectUnkETDK19func_ov027_02143670Ev kind:function(arm,size=0x8) addr:0x02143670
_ZN16MapObjectUnkETDK19func_ov027_02143678Ev kind:function(arm,size=0x8) addr:0x02143678
_ZN16MapObjectUnkETDK19func_ov027_02143680Ev kind:function(arm,size=0x38) addr:0x02143680
_ZN16MapObjectUnkETDK19func_ov027_021436b8Ev kind:function(arm,size=0x2c) addr:0x021436b8
_ZN16MapObjectUnkETDK19func_ov027_021436e4Ev kind:function(arm,size=0x40) addr:0x021436e4
_ZN16MapObjectUnkETDK19func_ov027_02143724Ev kind:function(arm,size=0x20) addr:0x02143724
_ZN16MapObjectUnkETDK19func_ov027_02143744Ev kind:function(arm,size=0x20) addr:0x02143744
_ZN16MapObjectUnkETDKD1Ev kind:function(arm,size=0x40) addr:0x02143764
_ZN16MapObjectUnkETDKD0Ev kind:function(arm,size=0x48) addr:0x021437a4
_ZN16MapObjectUnkETDK19func_ov027_021437ecEv kind:function(arm,size=0x40) addr:0x021437ec
_ZN16MapObjectUnkETDKD2Ev kind:function(arm,size=0x38) addr:0x0214382c
_ZN23MapObjectProfileUnkETDKD1Ev kind:function(arm,size=0x14) addr:0x02143864
_ZN23MapObjectProfileUnkTRRA10GetProfileEv kind:function(arm,size=0xc) addr:0x02143878
_ZN23MapObjectProfileUnkTRRA6CreateEv kind:function(arm,size=0x24) addr:0x02143884
_ZN23MapObjectProfileUnkTRRAC1Ev kind:function(arm,size=0x5c) addr:0x021438a8
_ZN16MapObjectUnkTRRAC1Ev kind:function(arm,size=0x3c) addr:0x02143904
_ZN16MapObjectUnkTRRA19func_ov027_02143940Ev kind:function(arm,size=0xec) addr:0x02143940
_ZN16MapObjectUnkTRRA19func_ov027_02143a2cEv kind:function(arm,size=0x74) addr:0x02143a2c
_ZN16MapObjectUnkTRRA19func_ov027_02143aa0Ev kind:function(arm,size=0x18) addr:0x02143aa0
_ZN16MapObjectUnkTRRA19func_ov027_02143ab8Ev kind:function(arm,size=0x40) addr:0x02143ab8
_ZN16MapObjectUnkTRRA19func_ov027_02143af8Ev kind:function(arm,size=0x20) addr:0x02143af8
_ZN16MapObjectUnkTRRA19func_ov027_02143b18Ev kind:function(arm,size=0x20) addr:0x02143b18
_ZN16MapObjectUnkTRRA19func_ov027_02143b38Ev kind:function(arm,size=0xc) addr:0x02143b38
_ZN16MapObjectUnkTRRAD1Ev kind:function(arm,size=0x20) addr:0x02143b44
_ZN16MapObjectUnkTRRAD0Ev kind:function(arm,size=0x28) addr:0x02143b64
_ZN23MapObjectProfileUnkTRRAD1Ev kind:function(arm,size=0x14) addr:0x02143b8c
_ZN23MapObjectProfileUnkCSTL10GetProfileEv kind:function(arm,size=0xc) addr:0x02143ba0
_ZN23MapObjectProfileUnkCSTL6CreateEv kind:function(arm,size=0x24) addr:0x02143bac
_ZN23MapObjectProfileUnkCSTLC1Ev kind:function(arm,size=0x5c) addr:0x02143bd0
_ZN16MapObjectUnkCSTLC1Ev kind:function(arm,size=0x44) addr:0x02143c2c
_ZN16MapObjectUnkCSTL19func_ov027_02143c70Ev kind:function(arm,size=0xec) addr:0x02143c70
_ZN16MapObjectUnkCSTL19func_ov027_02143d5cEv kind:function(arm,size=0x6c) addr:0x02143d5c
_ZN16MapObjectUnkCSTL19func_ov027_02143dc8Ev kind:function(arm,size=0x18) addr:0x02143dc8
_ZN16MapObjectUnkCSTL19func_ov027_02143de0Ev kind:function(arm,size=0x8) addr:0x02143de0
_ZN16MapObjectUnkCSTL19func_ov027_02143de8Ev kind:function(arm,size=0x40) addr:0x02143de8
_ZN16MapObjectUnkCSTL19func_ov027_02143e28Ev kind:function(arm,size=0x20) addr:0x02143e28
_ZN16MapObjectUnkCSTL19func_ov027_02143e48Ev kind:function(arm,size=0x20) addr:0x02143e48
_ZN16MapObjectUnkCSTLD1Ev kind:function(arm,size=0x20) addr:0x02143e68
_ZN16MapObjectUnkCSTLD0Ev kind:function(arm,size=0x28) addr:0x02143e88
_ZN23MapObjectProfileUnkCSTLD1Ev kind:function(arm,size=0x14) addr:0x02143eb0
_ZN23MapObjectProfileUnkMBRG10GetProfileEv kind:function(arm,size=0xc) addr:0x02143ec4
_ZN23MapObjectProfileUnkMBRG6CreateEv kind:function(arm,size=0x24) addr:0x02143ed0
_ZN23MapObjectProfileUnkMBRGC1Ev kind:function(arm,size=0x54) addr:0x02143ef4
_ZN16MapObjectUnkMBRGC1Ev kind:function(arm,size=0x34) addr:0x02143f48
_ZN16MapObjectUnkMBRG19func_ov027_02143f7cEv kind:function(arm,size=0x98) addr:0x02143f7c
_ZN16MapObjectUnkMBRG19func_ov027_02144014Ev kind:function(arm,size=0x88) addr:0x02144014
_ZN16MapObjectUnkMBRG19func_ov027_0214409cEv kind:function(arm,size=0x10c) addr:0x0214409c
_ZN16MapObjectUnkMBRG19func_ov027_021441a8Ev kind:function(arm,size=0x60) addr:0x021441a8
_ZN16MapObjectUnkMBRGD1Ev kind:function(arm,size=0x20) addr:0x02144208
_ZN16MapObjectUnkMBRGD0Ev kind:function(arm,size=0x28) addr:0x02144228
_ZN23MapObjectProfileUnkMBRGD1Ev kind:function(arm,size=0x14) addr:0x02144250
_ZN19func_ov027_02144264D0Ev kind:function(arm,size=0x1c) addr:0x02144264
_ZN23MapObjectProfileUnkMZFE10GetProfileEv kind:function(arm,size=0xc) addr:0x02144280
_ZN23MapObjectProfileUnkMZFE6CreateEv kind:function(arm,size=0x24) addr:0x0214428c
_ZN23MapObjectProfileUnkMZFEC1Ev kind:function(arm,size=0x2c) addr:0x021442b0
_ZN16MapObjectUnkMZFEC1Ev kind:function(arm,size=0x9c) addr:0x021442dc
_ZN16MapObjectUnkMZFE19func_ov027_02144378Ev kind:function(arm,size=0x1d4) addr:0x02144378
_ZN16MapObjectUnkMZFE19func_ov027_0214454cEv kind:function(arm,size=0xcc) addr:0x0214454c
_ZN16MapObjectUnkMZFE19func_ov027_02144618Ev kind:function(arm,size=0x4c) addr:0x02144618
_ZN16MapObjectUnkMZFE19func_ov027_02144664Ev kind:function(arm,size=0x50) addr:0x02144664
_ZN16MapObjectUnkMZFE19func_ov027_021446b4Ev kind:function(arm,size=0x84) addr:0x021446b4
_ZN16MapObjectUnkMZFE19func_ov027_02144738Ev kind:function(arm,size=0x3c) addr:0x02144738
_ZN16MapObjectUnkMZFE19func_ov027_02144774Ev kind:function(arm,size=0x8) addr:0x02144774
_ZN16MapObjectUnkMZFED1Ev kind:function(arm,size=0x40) addr:0x0214477c
_ZN16MapObjectUnkMZFED0Ev kind:function(arm,size=0x48) addr:0x021447bc
_ZN23MapObjectProfileUnkMZFED1Ev kind:function(arm,size=0x14) addr:0x02144804
_ZN19ActorProfileUnkTRER10GetProfileEv kind:function(arm,size=0xc) addr:0x02144818
_ZN19ActorProfileUnkTRER6CreateEv kind:function(arm,size=0x24) addr:0x02144824
_ZN19ActorProfileUnkTRERC1Ev kind:function(arm,size=0x4c) addr:0x02144848
_ZN12ActorUnkTRERC1Ev kind:function(arm,size=0xb0) addr:0x02144894
_ZN12ActorUnkTRER19func_ov027_02144944Ev kind:function(arm,size=0x98) addr:0x02144944
_ZN12ActorUnkTRER19func_ov027_021449dcEv kind:function(arm,size=0x3c) addr:0x021449dc
_ZN12ActorUnkTRER19func_ov027_02144a18Ev kind:function(arm,size=0x2d8) addr:0x02144a18
_ZN12ActorUnkTRER19func_ov027_02144cf0Ev kind:function(arm,size=0x58) addr:0x02144cf0
_ZN12ActorUnkTRER19func_ov027_02144d48Ev kind:function(arm,size=0x70) addr:0x02144d48
_ZN12ActorUnkTRER19func_ov027_02144db8Ev kind:function(arm,size=0x114) addr:0x02144db8
_ZN12ActorUnkTRER19func_ov027_02144eccEv kind:function(arm,size=0x4) addr:0x02144ecc
_ZN12ActorUnkTRER19func_ov027_02144ed0Ev kind:function(arm,size=0x78) addr:0x02144ed0
_ZN12ActorUnkTRER19func_ov027_02144f48Ev kind:function(arm,size=0x4) addr:0x02144f48
_ZN12ActorUnkTRER19func_ov027_02144f4cEv kind:function(arm,size=0xc) addr:0x02144f4c
_ZN12ActorUnkTRER19func_ov027_02144f58Ev kind:function(arm,size=0x4) addr:0x02144f58
_ZN12ActorUnkTRER19func_ov027_02144f5cEv kind:function(arm,size=0x40) addr:0x02144f5c
_ZN12ActorUnkTRER19func_ov027_02144f9cEv kind:function(arm,size=0xb0) addr:0x02144f9c
_ZN12ActorUnkTRERD1Ev kind:function(arm,size=0x20) addr:0x0214504c
_ZN12ActorUnkTRERD0Ev kind:function(arm,size=0x28) addr:0x0214506c
_ZN19ActorProfileUnkTRERD1Ev kind:function(arm,size=0x14) addr:0x02145094
_ZN19ActorProfileUnkFKTR10GetProfileEv kind:function(arm,size=0xc) addr:0x021450a8
_ZN19ActorProfileUnkFKTR6CreateEv kind:function(arm,size=0x24) addr:0x021450b4
_ZN19ActorProfileUnkFKTRC1Ev kind:function(arm,size=0x6c) addr:0x021450d8
_ZN12ActorUnkFKTR19func_ov027_02145144Ev kind:function(arm,size=0x10) addr:0x02145144
_ZN12ActorUnkFKTRC1Ev kind:function(arm,size=0x204) addr:0x02145154
_ZN12ActorUnkFKTR19func_ov027_02145358Ev kind:function(arm,size=0x40) addr:0x02145358
_ZN12ActorUnkFKTR19func_ov027_02145398Ev kind:function(arm,size=0x14) addr:0x02145398
_ZN12ActorUnkFKTR19func_ov027_021453acEv kind:function(arm,size=0x54) addr:0x021453ac
_ZN12ActorUnkFKTR19func_ov027_02145400Ev kind:function(arm,size=0x14) addr:0x02145400
_ZN12ActorUnkFKTRD1Ev kind:function(arm,size=0xec) addr:0x02145414
_ZN12ActorUnkFKTRD0Ev kind:function(arm,size=0xf4) addr:0x02145500
_ZN12ActorUnkFKTR19func_ov027_021455f4Ev kind:function(arm,size=0x50) addr:0x021455f4
_ZN12ActorUnkFKTR19func_ov027_02145644Ev kind:function(arm,size=0x124) addr:0x02145644
_ZN12ActorUnkFKTR19func_ov027_02145768Ev kind:function(arm,size=0x20) addr:0x02145768
_ZN12ActorUnkFKTR19func_ov027_02145788Ev kind:function(arm,size=0x20) addr:0x02145788
_ZN12ActorUnkFKTR19func_ov027_021457a8Ev kind:function(arm,size=0x144) addr:0x021457a8
_ZN12ActorUnkFKTR19func_ov027_021458ecEv kind:function(arm,size=0x148) addr:0x021458ec
_ZN12ActorUnkFKTR19func_ov027_02145a34Ev kind:function(arm,size=0x4) addr:0x02145a34
_ZN12ActorUnkFKTR19func_ov027_02145a38Ev kind:function(arm,size=0x314) addr:0x02145a38
_ZN12ActorUnkFKTR19func_ov027_02145d4cEv kind:function(arm,size=0x1e0) addr:0x02145d4c
_ZN12ActorUnkFKTR19func_ov027_02145f2cEv kind:function(arm,size=0x48) addr:0x02145f2c
_ZN12ActorUnkFKTR19func_ov027_02145f74Ev kind:function(arm,size=0x44) addr:0x02145f74
_ZN12ActorUnkFKTR19func_ov027_02145fb8Ev kind:function(arm,size=0x84) addr:0x02145fb8
_ZN12ActorUnkFKTR19func_ov027_0214603cEv kind:function(arm,size=0x21c) addr:0x0214603c
_ZN12ActorUnkFKTR19func_ov027_02146258Ev kind:function(arm,size=0xf4) addr:0x02146258
_ZN12ActorUnkFKTR19func_ov027_0214634cEv kind:function(arm,size=0x290) addr:0x0214634c
_ZN12ActorUnkFKTR19func_ov027_021465dcEv kind:function(arm,size=0x4c0) addr:0x021465dc
_ZN12ActorUnkFKTR19func_ov027_02146a9cEv kind:function(arm,size=0x2c) addr:0x02146a9c
_ZN12ActorUnkFKTR19func_ov027_02146ac8Ev kind:function(arm,size=0x68) addr:0x02146ac8
_ZN12ActorUnkFKTR19func_ov027_02146b30Ev kind:function(arm,size=0xd4) addr:0x02146b30
_ZN12ActorUnkFKTR19func_ov027_02146c04Ev kind:function(arm,size=0x14) addr:0x02146c04
_ZN12ActorUnkFKTR19func_ov027_02146c18Ev kind:function(arm,size=0x4) addr:0x02146c18
_ZN12ActorUnkFKTR19func_ov027_02146c1cEv kind:function(arm,size=0x168) addr:0x02146c1c
_ZN12ActorUnkFKTR19func_ov027_02146d84Ev kind:function(arm,size=0xa4) addr:0x02146d84
_ZN12ActorUnkFKTR19func_ov027_02146e28Ev kind:function(arm,size=0x3c) addr:0x02146e28
_ZN12ActorUnkFKTR19func_ov027_02146e64Ev kind:function(arm,size=0xa8) addr:0x02146e64
_ZN12ActorUnkFKTR19func_ov027_02146f0cEv kind:function(arm,size=0x128) addr:0x02146f0c
_ZN12ActorUnkFKTR19func_ov027_02147034Ev kind:function(arm,size=0x13c) addr:0x02147034
_ZN12ActorUnkFKTR19func_ov027_02147170Ev kind:function(arm,size=0x1c) addr:0x02147170
_ZN12ActorUnkFKTR19func_ov027_0214718cEv kind:function(arm,size=0x114) addr:0x0214718c
_ZN12ActorUnkFKTR19func_ov027_021472a0Ev kind:function(arm,size=0x1c) addr:0x021472a0
_ZN12ActorUnkFKTR19func_ov027_021472bcEv kind:function(arm,size=0x1ac) addr:0x021472bc
_ZN12ActorUnkFKTR19func_ov027_02147468Ev kind:function(arm,size=0x3c) addr:0x02147468
_ZN12ActorUnkFKTR19func_ov027_021474a4Ev kind:function(arm,size=0x90) addr:0x021474a4
_ZN12ActorUnkFKTR19func_ov027_02147534Ev kind:function(arm,size=0x48) addr:0x02147534
_ZN12ActorUnkFKTR19func_ov027_0214757cEv kind:function(arm,size=0xd8) addr:0x0214757c
_ZN12ActorUnkFKTR19func_ov027_02147654Ev kind:function(arm,size=0xec) addr:0x02147654
_ZN12ActorUnkFKTR19func_ov027_02147740Ev kind:function(arm,size=0xbc) addr:0x02147740
_ZN12ActorUnkFKTR19func_ov027_021477fcEv kind:function(arm,size=0x44) addr:0x021477fc
_ZN12ActorUnkFKTR19func_ov027_02147840Ev kind:function(arm,size=0xac) addr:0x02147840
_ZN12ActorUnkFKTR19func_ov027_021478ecEv kind:function(arm,size=0x5c) addr:0x021478ec
_ZN12ActorUnkFKTR19func_ov027_02147948Ev kind:function(arm,size=0xbc) addr:0x02147948
_ZN12ActorUnkFKTR19func_ov027_02147a04Ev kind:function(arm,size=0x44) addr:0x02147a04
_ZN12ActorUnkFKTR19func_ov027_02147a48Ev kind:function(arm,size=0xac) addr:0x02147a48
_ZN12ActorUnkFKTR19func_ov027_02147af4Ev kind:function(arm,size=0x2c) addr:0x02147af4
_ZN12ActorUnkFKTR19func_ov027_02147b20Ev kind:function(arm,size=0x120) addr:0x02147b20
_ZN12ActorUnkFKTR19func_ov027_02147c40Ev kind:function(arm,size=0x15c) addr:0x02147c40
_ZN12ActorUnkFKTR19func_ov027_02147d9cEv kind:function(arm,size=0x88) addr:0x02147d9c
_ZN12ActorUnkFKTR19func_ov027_02147e24Ev kind:function(arm,size=0x24) addr:0x02147e24
_ZN12ActorUnkFKTR19func_ov027_02147e48Ev kind:function(arm,size=0x2c) addr:0x02147e48
_ZN12ActorUnkFKTR19func_ov027_02147e74Ev kind:function(arm,size=0x24) addr:0x02147e74
_ZN12ActorUnkFKTR19func_ov027_02147e98Ev kind:function(arm,size=0x10) addr:0x02147e98
_ZN12ActorUnkFKTR19func_ov027_02147ea8Ev kind:function(arm,size=0x8) addr:0x02147ea8
_ZN12ActorUnkFKTR19func_ov027_02147eb0Ev kind:function(arm,size=0x1c) addr:0x02147eb0
_ZN12ActorUnkFKTR19func_ov027_02147eccEv kind:function(arm,size=0x1c) addr:0x02147ecc
_ZN19ActorProfileUnkFKTRD1Ev kind:function(arm,size=0x14) addr:0x02147ee8
data_ov027_02147efc kind:data(any) addr:0x02147efc
data_ov027_02147f0c kind:data(any) addr:0x02147f0c
data_ov027_02147f1c kind:data(any) addr:0x02147f1c
data_ov027_02147f2c kind:data(any) addr:0x02147f2c
__sinit_MapObjectUnkTMFR.cpp kind:function(arm,size=0x70) addr:0x02147f38
__sinit_MapObjectUnkTRFV.cpp kind:function(arm,size=0x50) addr:0x02147fa8
__sinit_MapObjectUnkTRFO.cpp kind:function(arm,size=0x50) addr:0x02147ff8
__sinit_MapObjectUnkTRSH.cpp kind:function(arm,size=0x50) addr:0x02148048
__sinit_MapObjectUnkTRBR.cpp kind:function(arm,size=0x50) addr:0x02148098
__sinit_MapObjectUnkTRDA.cpp kind:function(arm,size=0x50) addr:0x021480e8
__sinit_MapObjectUnkETDK.cpp kind:function(arm,size=0x50) addr:0x02148138
__sinit_MapObjectUnkTRRA.cpp kind:function(arm,size=0x50) addr:0x02148188
__sinit_MapObjectUnkCSTL.cpp kind:function(arm,size=0x50) addr:0x021481d8
__sinit_MapObjectUnkMBRG.cpp kind:function(arm,size=0x50) addr:0x02148228
__sinit_MapObjectUnkMZFE.cpp kind:function(arm,size=0x6c) addr:0x02148278
__sinit_ActorUnkTRER.cpp kind:function(arm,size=0x50) addr:0x021482e4
__sinit_ActorUnkFKTR.cpp kind:function(arm,size=0x50) addr:0x02148334
.p__sinit_MapObjectUnkTMFR.cpp kind:data(word) addr:0x02148384
.p__sinit_MapObjectUnkTRFV.cpp kind:data(word) addr:0x02148388
.p__sinit_MapObjectUnkTRFO.cpp kind:data(word) addr:0x0214838c
.p__sinit_MapObjectUnkTRSH.cpp kind:data(word) addr:0x02148390
.p__sinit_MapObjectUnkTRBR.cpp kind:data(word) addr:0x02148394
.p__sinit_MapObjectUnkTRDA.cpp kind:data(word) addr:0x02148398
.p__sinit_MapObjectUnkETDK.cpp kind:data(word) addr:0x0214839c
.p__sinit_MapObjectUnkTRRA.cpp kind:data(word) addr:0x021483a0
.p__sinit_MapObjectUnkCSTL.cpp kind:data(word) addr:0x021483a4
.p__sinit_MapObjectUnkMBRG.cpp kind:data(word) addr:0x021483a8
.p__sinit_MapObjectUnkMZFE.cpp kind:data(word) addr:0x021483ac
.p__sinit_ActorUnkTRER.cpp kind:data(word) addr:0x021483b0
.p__sinit_ActorUnkFKTR.cpp kind:data(word) addr:0x021483b4
data_ov027_021483c0 kind:data(any) addr:0x021483c0
data_ov027_021483d0 kind:data(any) addr:0x021483d0
data_ov027_021483e4 kind:data(any) addr:0x021483e4
data_ov027_02148400 kind:data(any) addr:0x02148400
data_ov027_0214842c kind:data(any) addr:0x0214842c
data_ov027_02148498 kind:data(any) addr:0x02148498
data_ov027_02148504 kind:data(any) addr:0x02148504
data_ov027_02148520 kind:data(any) addr:0x02148520
data_ov027_02148584 kind:data(any) addr:0x02148584
data_ov027_02148598 kind:data(any) addr:0x02148598
data_ov027_021485b4 kind:data(any) addr:0x021485b4
data_ov027_02148620 kind:data(any) addr:0x02148620
data_ov027_0214863c kind:data(any) addr:0x0214863c
data_ov027_021486a8 kind:data(any) addr:0x021486a8
data_ov027_021486c4 kind:data(any) addr:0x021486c4
data_ov027_02148730 kind:data(any) addr:0x02148730
data_ov027_0214874c kind:data(any) addr:0x0214874c
data_ov027_021487b0 kind:data(any) addr:0x021487b0
data_ov027_021487b4 kind:data(any) addr:0x021487b4
data_ov027_021487c8 kind:data(any) addr:0x021487c8
data_ov027_021487e4 kind:data(any) addr:0x021487e4
data_ov027_02148868 kind:data(any) addr:0x02148868
data_ov027_021488ec kind:data(any) addr:0x021488ec
data_ov027_02148908 kind:data(any) addr:0x02148908
data_ov027_02148974 kind:data(any) addr:0x02148974
data_ov027_02148990 kind:data(any) addr:0x02148990
data_ov027_021489fc kind:data(any) addr:0x021489fc
data_ov027_02148a24 kind:data(any) addr:0x02148a24
data_ov027_02148a6c kind:data(any) addr:0x02148a6c
data_ov027_02148a80 kind:data(any) addr:0x02148a80
data_ov027_02148a9c kind:data(any) addr:0x02148a9c
data_ov027_02148ac4 kind:data(any) addr:0x02148ac4
data_ov027_02148b30 kind:data(any) addr:0x02148b30
data_ov027_02148b48 kind:data(any) addr:0x02148b48
_ZTV19data_ov027_02148b60 kind:data(any) addr:0x02148b60
_ZTV19data_ov027_02148b84 kind:data(any) addr:0x02148b84
_ZTV19data_ov027_02148bcc kind:data(any) addr:0x02148bcc ambiguous
data_ov027_02148be8 kind:data(any) addr:0x02148be8
data_ov027_02148bec kind:data(any) addr:0x02148bec ambiguous
_ZTV19data_ov027_02148cc8 kind:data(any) addr:0x02148cc8
data_ov027_02148cf4 kind:data(any) addr:0x02148cf4
data_ov027_02148d3c kind:data(any) addr:0x02148d3c
_ZTV19data_ov027_02148d80 kind:data(any) addr:0x02148d80
data_ov027_02148e00 kind:bss addr:0x02148e00
data_ov027_02148e08 kind:bss addr:0x02148e08
data_ov027_02148e14 kind:bss addr:0x02148e14
sMapObjectProfileUnkTMFR kind:bss addr:0x02148e20
data_ov027_02148ef4 kind:bss addr:0x02148ef4
data_ov027_02148ef8 kind:bss addr:0x02148ef8
sMapObjectProfileUnkTRFV kind:bss addr:0x02148f04
data_ov027_02148fd8 kind:bss addr:0x02148fd8
data_ov027_02148fdc kind:bss addr:0x02148fdc
sMapObjectProfileUnkTRFO kind:bss addr:0x02148fe8
data_ov027_02149058 kind:bss addr:0x02149058 ambiguous
data_ov027_021490bc kind:bss addr:0x021490bc
data_ov027_021490c0 kind:bss addr:0x021490c0
sMapObjectProfileUnkTRSH kind:bss addr:0x021490cc
data_ov027_021491a0 kind:bss addr:0x021491a0
data_ov027_021491a4 kind:bss addr:0x021491a4
sMapObjectProfileUnkTRBR kind:bss addr:0x021491b0
data_ov027_02149284 kind:bss addr:0x02149284
data_ov027_02149288 kind:bss addr:0x02149288
sMapObjectProfileUnkTRDA kind:bss addr:0x02149294
data_ov027_02149368 kind:bss addr:0x02149368
data_ov027_0214936c kind:bss addr:0x0214936c
sMapObjectProfileUnkETDK kind:bss addr:0x02149378
data_ov027_02149398 kind:bss addr:0x02149398
data_ov027_0214944c kind:bss addr:0x0214944c
data_ov027_02149450 kind:bss addr:0x02149450
sMapObjectProfileUnkTRRA kind:bss addr:0x0214945c
data_ov027_02149530 kind:bss addr:0x02149530
data_ov027_02149534 kind:bss addr:0x02149534
sMapObjectProfileUnkCSTL kind:bss addr:0x02149540
data_ov027_02149614 kind:bss addr:0x02149614
data_ov027_02149618 kind:bss addr:0x02149618
sMapObjectProfileUnkMBRG kind:bss addr:0x02149624
data_ov027_0214968c kind:bss addr:0x0214968c
data_ov027_02149690 kind:bss addr:0x02149690
sMapObjectProfileUnkMZFE kind:bss addr:0x0214969c
data_ov027_02149770 kind:bss addr:0x02149770
data_ov027_02149778 kind:bss addr:0x02149778
sActorProfileUnkTRER kind:bss addr:0x02149784
data_ov027_0214985c kind:bss addr:0x0214985c
data_ov027_02149860 kind:bss addr:0x02149860
data_ov027_02149864 kind:bss addr:0x02149864
data_ov027_02149868 kind:bss addr:0x02149868
data_ov027_0214986c kind:bss addr:0x0214986c
data_ov027_02149870 kind:bss addr:0x02149870
data_ov027_02149874 kind:bss addr:0x02149874
data_ov027_02149878 kind:bss addr:0x02149878
data_ov027_0214987c kind:bss addr:0x0214987c
data_ov027_02149880 kind:bss addr:0x02149880
data_ov027_02149884 kind:bss addr:0x02149884
data_ov027_02149888 kind:bss addr:0x02149888
data_ov027_0214988c kind:bss addr:0x0214988c
data_ov027_02149890 kind:bss addr:0x02149890
data_ov027_02149894 kind:bss addr:0x02149894
data_ov027_021498a0 kind:bss addr:0x021498a0
data_ov027_021498a4 kind:bss addr:0x021498a4
data_ov027_021498b4 kind:bss addr:0x021498b4
data_ov027_021498c4 kind:bss addr:0x021498c4
data_ov027_021498d4 kind:bss addr:0x021498d4
data_ov027_021498e4 kind:bss addr:0x021498e4
data_ov027_021498f4 kind:bss addr:0x021498f4
data_ov027_02149904 kind:bss addr:0x02149904
data_ov027_02149914 kind:bss addr:0x02149914
data_ov027_02149924 kind:bss addr:0x02149924
data_ov027_02149934 kind:bss addr:0x02149934
data_ov027_02149944 kind:bss addr:0x02149944
data_ov027_02149954 kind:bss addr:0x02149954
data_ov027_02149964 kind:bss addr:0x02149964
data_ov027_02149974 kind:bss addr:0x02149974
sActorProfileUnkFKTR kind:bss addr:0x02149984
