func_ov080_02150c00 kind:function(arm,size=0x38) addr:0x02150c00
_ZN19ActorProfileUnkICBS10GetProfileEv kind:function(arm,size=0xc) addr:0x02150c38
_ZN19ActorProfileUnkICBS6CreateEv kind:function(arm,size=0x28) addr:0x02150c44
_ZN19ActorProfileUnkICBSC1Ev kind:function(arm,size=0x78) addr:0x02150c6c
_ZN12ActorUnkICBS19func_ov080_02150ce4Ev kind:function(arm,size=0x24) addr:0x02150ce4
_ZN12ActorUnkICBS19func_ov080_02150d08Ev kind:function(arm,size=0x24) addr:0x02150d08
_ZN12ActorUnkICBS19func_ov080_02150d2cEv kind:function(arm,size=0x2c) addr:0x02150d2c
_ZN12ActorUnkICBSC1Ev kind:function(arm,size=0x3fc) addr:0x02150d58
_ZN12ActorUnkICBS19func_ov080_02151154Ev kind:function(arm,size=0x14) addr:0x02151154
_ZN12ActorUnkICBS19func_ov080_02151168Ev kind:function(arm,size=0x38) addr:0x02151168
_ZN12ActorUnkICBS19func_ov080_021511a0Ev kind:function(arm,size=0x24) addr:0x021511a0
_ZN12ActorUnkICBS19func_ov080_021511c4Ev kind:function(arm,size=0x14) addr:0x021511c4
_ZN12ActorUnkICBS19func_ov080_021511d8Ev kind:function(arm,size=0xf4) addr:0x021511d8
_ZN12ActorUnkICBSD0Ev kind:function(arm,size=0xfc) addr:0x021512cc
_ZN12ActorUnkICBS19func_ov080_021513c8Ev kind:function(arm,size=0x44) addr:0x021513c8
_ZN12ActorUnkICBS19func_ov080_0215140cEv kind:function(arm,size=0x338) addr:0x0215140c
_ZN12ActorUnkICBS19func_ov080_02151744Ev kind:function(arm,size=0xf8) addr:0x02151744
_ZN12ActorUnkICBS19func_ov080_0215183cEv kind:function(arm,size=0x78) addr:0x0215183c
_ZN12ActorUnkICBS19func_ov080_021518b4Ev kind:function(arm,size=0xbc) addr:0x021518b4
_ZN12ActorUnkICBS19func_ov080_02151970Ev kind:function(arm,size=0x5e8) addr:0x02151970
_ZN12ActorUnkICBS19func_ov080_02151f58Ev kind:function(arm,size=0x120) addr:0x02151f58
_ZN12ActorUnkICBS19func_ov080_02152078Ev kind:function(arm,size=0x124) addr:0x02152078
_ZN12ActorUnkICBS19func_ov080_0215219cEv kind:function(arm,size=0x84) addr:0x0215219c
_ZN12ActorUnkICBS19func_ov080_02152220Ev kind:function(arm,size=0xa44) addr:0x02152220
_ZN12ActorUnkICBS19func_ov080_02152c64Ev kind:function(arm,size=0x34) addr:0x02152c64
_ZN12ActorUnkICBS19func_ov080_02152c98Ev kind:function(arm,size=0x2a8) addr:0x02152c98
_ZN12ActorUnkICBS19func_ov080_02152f40Ev kind:function(arm,size=0x7c) addr:0x02152f40
_ZN12ActorUnkICBS19func_ov080_02152fbcEv kind:function(arm,size=0x138) addr:0x02152fbc
_ZN12ActorUnkICBS19func_ov080_021530f4Ev kind:function(arm,size=0x6c) addr:0x021530f4
_ZN12ActorUnkICBS19func_ov080_02153160Ev kind:function(arm,size=0x58) addr:0x02153160
_ZN12ActorUnkICBS19func_ov080_021531b8Ev kind:function(arm,size=0xac) addr:0x021531b8
_ZN12ActorUnkICBS19func_ov080_02153264Ev kind:function(arm,size=0x1b8) addr:0x02153264
_ZN12ActorUnkICBS19func_ov080_0215341cEv kind:function(arm,size=0xe4) addr:0x0215341c
_ZN12ActorUnkICBS19func_ov080_02153500Ev kind:function(arm,size=0x998) addr:0x02153500
_ZN12ActorUnkICBS19func_ov080_02153e98Ev kind:function(arm,size=0xd0) addr:0x02153e98
_ZN12ActorUnkICBS19func_ov080_02153f68Ev kind:function(arm,size=0x39c) addr:0x02153f68
_ZN12ActorUnkICBS19func_ov080_02154304Ev kind:function(arm,size=0x48) addr:0x02154304
_ZN12ActorUnkICBS19func_ov080_0215434cEv kind:function(arm,size=0x484) addr:0x0215434c
_ZN12ActorUnkICBS19func_ov080_021547d0Ev kind:function(arm,size=0x134) addr:0x021547d0
_ZN12ActorUnkICBS19func_ov080_02154904Ev kind:function(arm,size=0xdc) addr:0x02154904
_ZN12ActorUnkICBS19func_ov080_021549e0Ev kind:function(arm,size=0x6c) addr:0x021549e0
_ZN12ActorUnkICBS19func_ov080_02154a4cEv kind:function(arm,size=0x110) addr:0x02154a4c
_ZN12ActorUnkICBS19func_ov080_02154b5cEv kind:function(arm,size=0x7c) addr:0x02154b5c
_ZN12ActorUnkICBS19func_ov080_02154bd8Ev kind:function(arm,size=0x91c) addr:0x02154bd8
_ZN12ActorUnkICBS19func_ov080_021554f4Ev kind:function(arm,size=0x28) addr:0x021554f4
_ZN12ActorUnkICBS19func_ov080_0215551cEv kind:function(arm,size=0x154) addr:0x0215551c
_ZN12ActorUnkICBS19func_ov080_02155670Ev kind:function(arm,size=0x10) addr:0x02155670
_ZN12ActorUnkICBS19func_ov080_02155680Ev kind:function(arm,size=0x58) addr:0x02155680
_ZN12ActorUnkICBS19func_ov080_021556d8Ev kind:function(arm,size=0x30) addr:0x021556d8
_ZN12ActorUnkICBS19func_ov080_02155708Ev kind:function(arm,size=0x70) addr:0x02155708
_ZN12ActorUnkICBS19func_ov080_02155778Ev kind:function(arm,size=0x68) addr:0x02155778
_ZN12ActorUnkICBS19func_ov080_021557e0Ev kind:function(arm,size=0xdc) addr:0x021557e0
_ZN12ActorUnkICBS19func_ov080_021558bcEv kind:function(arm,size=0x12c) addr:0x021558bc
_ZN12ActorUnkICBS19func_ov080_021559e8Ev kind:function(arm,size=0x274) addr:0x021559e8
_ZN12ActorUnkICBS19func_ov080_02155c5cEv kind:function(arm,size=0x4c) addr:0x02155c5c
_ZN12ActorUnkICBS19func_ov080_02155ca8Ev kind:function(arm,size=0xb8) addr:0x02155ca8
_ZN12ActorUnkICBS19func_ov080_02155d60Ev kind:function(arm,size=0x74) addr:0x02155d60
_ZN12ActorUnkICBS19func_ov080_02155dd4Ev kind:function(arm,size=0x34) addr:0x02155dd4
_ZN12ActorUnkICBS19func_ov080_02155e08Ev kind:function(arm,size=0xa0) addr:0x02155e08
_ZN12ActorUnkICBS19func_ov080_02155ea8Ev kind:function(arm,size=0x64) addr:0x02155ea8
_ZN12ActorUnkICBS19func_ov080_02155f0cEv kind:function(arm,size=0xb0) addr:0x02155f0c
_ZN12ActorUnkICBS19func_ov080_02155fbcEv kind:function(arm,size=0x2b8) addr:0x02155fbc
_ZN12ActorUnkICBS19func_ov080_02156274Ev kind:function(arm,size=0xb4) addr:0x02156274
_ZN12ActorUnkICBS19func_ov080_02156328Ev kind:function(arm,size=0x740) addr:0x02156328
_ZN12ActorUnkICBS19func_ov080_02156a68Ev kind:function(arm,size=0xb0) addr:0x02156a68
_ZN12ActorUnkICBS19func_ov080_02156b18Ev kind:function(arm,size=0x2b8) addr:0x02156b18
_ZN12ActorUnkICBS19func_ov080_02156dd0Ev kind:function(arm,size=0x90) addr:0x02156dd0
_ZN12ActorUnkICBS19func_ov080_02156e60Ev kind:function(arm,size=0x3c8) addr:0x02156e60
_ZN12ActorUnkICBS19func_ov080_02157228Ev kind:function(arm,size=0x6c) addr:0x02157228
_ZN12ActorUnkICBS19func_ov080_02157294Ev kind:function(arm,size=0x9c) addr:0x02157294
_ZN12ActorUnkICBS19func_ov080_02157330Ev kind:function(arm,size=0x10c) addr:0x02157330
_ZN12ActorUnkICBS19func_ov080_0215743cEv kind:function(arm,size=0x338) addr:0x0215743c
_ZN12ActorUnkICBS19func_ov080_02157774Ev kind:function(arm,size=0xa8) addr:0x02157774
_ZN12ActorUnkICBS19func_ov080_0215781cEv kind:function(arm,size=0x64) addr:0x0215781c
_ZN12ActorUnkICBS19func_ov080_02157880Ev kind:function(arm,size=0xf4) addr:0x02157880
_ZN12ActorUnkICBS19func_ov080_02157974Ev kind:function(arm,size=0x208) addr:0x02157974
_ZN12ActorUnkICBS19func_ov080_02157b7cEv kind:function(arm,size=0x80) addr:0x02157b7c
_ZN12ActorUnkICBS19func_ov080_02157bfcEv kind:function(arm,size=0x164) addr:0x02157bfc
_ZN12ActorUnkICBS19func_ov080_02157d60Ev kind:function(arm,size=0x98) addr:0x02157d60
_ZN12ActorUnkICBS19func_ov080_02157df8Ev kind:function(arm,size=0x16a8) addr:0x02157df8
_ZN12ActorUnkICBS19func_ov080_021594a0Ev kind:function(arm,size=0xf0) addr:0x021594a0
_ZN12ActorUnkICBS19func_ov080_02159590Ev kind:function(arm,size=0x17c) addr:0x02159590
_ZN12ActorUnkICBS19func_ov080_0215970cEv kind:function(arm,size=0x194) addr:0x0215970c
_ZN12ActorUnkICBS19func_ov080_021598a0Ev kind:function(arm,size=0x4d8) addr:0x021598a0
_ZN12ActorUnkICBS19func_ov080_02159d78Ev kind:function(arm,size=0x114) addr:0x02159d78
_ZN12ActorUnkICBS19func_ov080_02159e8cEv kind:function(arm,size=0xb4) addr:0x02159e8c
_ZN12ActorUnkICBS19func_ov080_02159f40Ev kind:function(arm,size=0x40) addr:0x02159f40
_ZN12ActorUnkICBS19func_ov080_02159f80Ev kind:function(arm,size=0x54) addr:0x02159f80
_ZN12ActorUnkICBS19func_ov080_02159fd4Ev kind:function(arm,size=0x54) addr:0x02159fd4
_ZN12ActorUnkICBS19func_ov080_0215a028Ev kind:function(arm,size=0x70) addr:0x0215a028
_ZN12ActorUnkICBS19func_ov080_0215a098Ev kind:function(arm,size=0x94) addr:0x0215a098
_ZN12ActorUnkICBS19func_ov080_0215a12cEv kind:function(arm,size=0xdc) addr:0x0215a12c
_ZN12ActorUnkICBS19func_ov080_0215a208Ev kind:function(arm,size=0x60) addr:0x0215a208
_ZN12ActorUnkICBS19func_ov080_0215a268Ev kind:function(arm,size=0x84) addr:0x0215a268
_ZN12ActorUnkICBS19func_ov080_0215a2ecEv kind:function(arm,size=0x2c) addr:0x0215a2ec
_ZN12ActorUnkICBS19func_ov080_0215a318Ev kind:function(arm,size=0x34) addr:0x0215a318
_ZN12ActorUnkICBS19func_ov080_0215a34cEv kind:function(arm,size=0x70) addr:0x0215a34c
_ZN12ActorUnkICBS19func_ov080_0215a3bcEv kind:function(arm,size=0x4c) addr:0x0215a3bc
_ZN12ActorUnkICBS19func_ov080_0215a408Ev kind:function(arm,size=0x48) addr:0x0215a408
_ZN12ActorUnkICBS19func_ov080_0215a450Ev kind:function(arm,size=0x5c) addr:0x0215a450
_ZN12ActorUnkICBS19func_ov080_0215a4acEv kind:function(arm,size=0x60) addr:0x0215a4ac
_ZN12ActorUnkICBS19func_ov080_0215a50cEv kind:function(arm,size=0x1c) addr:0x0215a50c
_ZN12ActorUnkICBS19func_ov080_0215a528Ev kind:function(arm,size=0x30) addr:0x0215a528
_ZN12ActorUnkICBS19func_ov080_0215a558Ev kind:function(arm,size=0x40) addr:0x0215a558
_ZN12ActorUnkICBS19func_ov080_0215a598Ev kind:function(arm,size=0x3b4) addr:0x0215a598
_ZN12ActorUnkICBS19func_ov080_0215a94cEv kind:function(arm,size=0x160) addr:0x0215a94c
_ZN12ActorUnkICBS19func_ov080_0215aaacEv kind:function(arm,size=0x9c) addr:0x0215aaac
_ZN12ActorUnkICBS19func_ov080_0215ab48Ev kind:function(arm,size=0x24) addr:0x0215ab48
_ZN12ActorUnkICBS19func_ov080_0215ab6cEv kind:function(arm,size=0x11c) addr:0x0215ab6c
_ZN12ActorUnkICBS19func_ov080_0215ac88Ev kind:function(arm,size=0x38) addr:0x0215ac88
_ZN12ActorUnkICBS19func_ov080_0215acc0Ev kind:function(arm,size=0xd0) addr:0x0215acc0
_ZN12ActorUnkICBS19func_ov080_0215ad90Ev kind:function(arm,size=0x8c) addr:0x0215ad90
_ZN12ActorUnkICBS19func_ov080_0215ae1cEv kind:function(arm,size=0x5c) addr:0x0215ae1c
_ZN12ActorUnkICBS19func_ov080_0215ae78Ev kind:function(arm,size=0x30) addr:0x0215ae78
_ZN12ActorUnkICBS19func_ov080_0215aea8Ev kind:function(arm,size=0x4b8) addr:0x0215aea8
_ZN12ActorUnkICBS19func_ov080_0215b360Ev kind:function(arm,size=0x6c) addr:0x0215b360
_ZN12ActorUnkICBS19func_ov080_0215b3ccEv kind:function(arm,size=0x68) addr:0x0215b3cc
_ZN12ActorUnkICBS19func_ov080_0215b434Ev kind:function(arm,size=0x1c) addr:0x0215b434
_ZN12ActorUnkICBS19func_ov080_0215b450Ev kind:function(arm,size=0x35c) addr:0x0215b450
_ZN12ActorUnkICBS19func_ov080_0215b7acEv kind:function(arm,size=0x110) addr:0x0215b7ac
_ZN12ActorUnkICBS19func_ov080_0215b8bcEv kind:function(arm,size=0x90) addr:0x0215b8bc
_ZN12ActorUnkICBS19func_ov080_0215b94cEv kind:function(arm,size=0x5c) addr:0x0215b94c
_ZN12ActorUnkICBS19func_ov080_0215b9a8Ev kind:function(arm,size=0x34) addr:0x0215b9a8
_ZN12ActorUnkICBS19func_ov080_0215b9dcEv kind:function(arm,size=0x230) addr:0x0215b9dc
_ZN12ActorUnkICBS19func_ov080_0215bc0cEv kind:function(arm,size=0xe8) addr:0x0215bc0c
_ZN12ActorUnkICBS19func_ov080_0215bcf4Ev kind:function(arm,size=0x138) addr:0x0215bcf4
_ZN12ActorUnkICBS19func_ov080_0215be2cEv kind:function(arm,size=0x68) addr:0x0215be2c
_ZN12ActorUnkICBS19func_ov080_0215be94Ev kind:function(arm,size=0x1c) addr:0x0215be94
_ZN12ActorUnkICBS19func_ov080_0215beb0Ev kind:function(arm,size=0x74) addr:0x0215beb0
_ZN12ActorUnkICBS19func_ov080_0215bf24Ev kind:function(arm,size=0x11c) addr:0x0215bf24
_ZN12ActorUnkICBS19func_ov080_0215c040Ev kind:function(arm,size=0x58) addr:0x0215c040
_ZN12ActorUnkICBS19func_ov080_0215c098Ev kind:function(arm,size=0x14) addr:0x0215c098
_ZN12ActorUnkICBS19func_ov080_0215c0acEv kind:function(arm,size=0xb0) addr:0x0215c0ac
_ZN12ActorUnkICBS19func_ov080_0215c15cEv kind:function(arm,size=0x38) addr:0x0215c15c
_ZN12ActorUnkICBS19func_ov080_0215c194Ev kind:function(arm,size=0x37c) addr:0x0215c194
_ZN12ActorUnkICBS19func_ov080_0215c510Ev kind:function(arm,size=0xc) addr:0x0215c510
_ZN12ActorUnkICBS19func_ov080_0215c51cEv kind:function(arm,size=0x38) addr:0x0215c51c
_ZN12ActorUnkICBS19func_ov080_0215c554Ev kind:function(arm,size=0x30) addr:0x0215c554
_ZN12ActorUnkICBS19func_ov080_0215c584Ev kind:function(arm,size=0x1f8) addr:0x0215c584
_ZN12ActorUnkICBS19func_ov080_0215c77cEv kind:function(arm,size=0x24) addr:0x0215c77c
_ZN12ActorUnkICBS19func_ov080_0215c7a0Ev kind:function(arm,size=0x2c) addr:0x0215c7a0
_ZN12ActorUnkICBS19func_ov080_0215c7ccEv kind:function(arm,size=0xc) addr:0x0215c7cc
_ZN12ActorUnkICBS19func_ov080_0215c7d8Ev kind:function(arm,size=0x1c) addr:0x0215c7d8
_ZN12ActorUnkICBS19func_ov080_0215c7f4Ev kind:function(arm,size=0x1c) addr:0x0215c7f4
_ZN19ActorProfileUnkICBSD1Ev kind:function(arm,size=0x14) addr:0x0215c810
_ZN19ActorProfileUnkICBA10GetProfileEv kind:function(arm,size=0xc) addr:0x0215c824
_ZN19ActorProfileUnkICBA6CreateEv kind:function(arm,size=0x24) addr:0x0215c830
_ZN19ActorProfileUnkICBAC1Ev kind:function(arm,size=0x8c) addr:0x0215c854
_ZN12ActorUnkICBA19func_ov080_0215c8e0Ev kind:function(arm,size=0xf0) addr:0x0215c8e0
_ZN12ActorUnkICBA19func_ov080_0215c9d0Ev kind:function(arm,size=0x44) addr:0x0215c9d0
_ZN12ActorUnkICBAD1Ev kind:function(arm,size=0x14) addr:0x0215ca14
_ZN12ActorUnkICBAD0Ev kind:function(arm,size=0x1c) addr:0x0215ca28
_ZN12ActorUnkICBA19func_ov080_0215ca44Ev kind:function(arm,size=0x34) addr:0x0215ca44
_ZN12ActorUnkICBA19func_ov080_0215ca78Ev kind:function(arm,size=0x1c4) addr:0x0215ca78
_ZN12ActorUnkICBAC1Ev kind:function(arm,size=0x208) addr:0x0215cc3c
_ZN12ActorUnkICBA19func_ov080_0215ce44Ev kind:function(arm,size=0x14) addr:0x0215ce44
_ZN12ActorUnkICBA19func_ov080_0215ce58Ev kind:function(arm,size=0x14) addr:0x0215ce58
_ZN12ActorUnkICBA19func_ov080_0215ce6cEv kind:function(arm,size=0x14) addr:0x0215ce6c
_ZN12ActorUnkICBA19func_ov080_0215ce80Ev kind:function(arm,size=0xcc) addr:0x0215ce80
_ZN12ActorUnkICBA19func_ov080_0215cf4cEv kind:function(arm,size=0xd4) addr:0x0215cf4c
_ZN12ActorUnkICBA19func_ov080_0215d020Ev kind:function(arm,size=0xbc) addr:0x0215d020
_ZN12ActorUnkICBA19func_ov080_0215d0dcEv kind:function(arm,size=0x48) addr:0x0215d0dc
_ZN12ActorUnkICBA19func_ov080_0215d124Ev kind:function(arm,size=0x2fc) addr:0x0215d124
_ZN12ActorUnkICBA19func_ov080_0215d420Ev kind:function(arm,size=0xf8) addr:0x0215d420
_ZN12ActorUnkICBA19func_ov080_0215d518Ev kind:function(arm,size=0x4) addr:0x0215d518
_ZN12ActorUnkICBA19func_ov080_0215d51cEv kind:function(arm,size=0x204) addr:0x0215d51c
_ZN12ActorUnkICBA19func_ov080_0215d720Ev kind:function(arm,size=0x3b4) addr:0x0215d720
_ZN12ActorUnkICBA19func_ov080_0215dad4Ev kind:function(arm,size=0x538) addr:0x0215dad4
_ZN12ActorUnkICBA19func_ov080_0215e00cEv kind:function(arm,size=0x1c8) addr:0x0215e00c
_ZN12ActorUnkICBA19func_ov080_0215e1d4Ev kind:function(arm,size=0x54) addr:0x0215e1d4
_ZN12ActorUnkICBA19func_ov080_0215e228Ev kind:function(arm,size=0x34) addr:0x0215e228
_ZN12ActorUnkICBA19func_ov080_0215e25cEv kind:function(arm,size=0x110) addr:0x0215e25c
_ZN12ActorUnkICBA19func_ov080_0215e36cEv kind:function(arm,size=0x38) addr:0x0215e36c
_ZN12ActorUnkICBA19func_ov080_0215e3a4Ev kind:function(arm,size=0x44) addr:0x0215e3a4
_ZN12ActorUnkICBA19func_ov080_0215e3e8Ev kind:function(arm,size=0xb4) addr:0x0215e3e8
_ZN12ActorUnkICBA19func_ov080_0215e49cEv kind:function(arm,size=0x1c) addr:0x0215e49c
_ZN12ActorUnkICBA19func_ov080_0215e4b8Ev kind:function(arm,size=0x1c) addr:0x0215e4b8
_ZN12ActorUnkICBA19func_ov080_0215e4d4Ev kind:function(arm,size=0x1c) addr:0x0215e4d4
_ZN19ActorProfileUnkICBAD1Ev kind:function(arm,size=0x14) addr:0x0215e4f0
func_ov080_0215e504 kind:function(arm,size=0x78) addr:0x0215e504
func_ov080_0215e57c kind:function(arm,size=0x9c) addr:0x0215e57c
func_ov080_0215e618 kind:function(arm,size=0x88) addr:0x0215e618
func_ov080_0215e6a0 kind:function(arm,size=0x10) addr:0x0215e6a0
func_ov080_0215e6b0 kind:function(arm,size=0x10) addr:0x0215e6b0
func_ov080_0215e6c0 kind:function(arm,size=0x80) addr:0x0215e6c0
_ZN23MapObjectProfileUnkSTSS10GetProfileEv kind:function(arm,size=0xc) addr:0x0215e740
_ZN23MapObjectProfileUnkSTSS6CreateEv kind:function(arm,size=0x24) addr:0x0215e74c
_ZN23MapObjectProfileUnkSTSSC1Ev kind:function(arm,size=0x4c) addr:0x0215e770
_ZN16MapObjectUnkSTSSC1Ev kind:function(arm,size=0x5c) addr:0x0215e7bc
_ZN16MapObjectUnkSTSS19func_ov080_0215e818Ev kind:function(arm,size=0xa8) addr:0x0215e818
_ZN16MapObjectUnkSTSS19func_ov080_0215e8c0Ev kind:function(arm,size=0x54) addr:0x0215e8c0
_ZN16MapObjectUnkSTSS19func_ov080_0215e914Ev kind:function(arm,size=0x60) addr:0x0215e914
_ZN16MapObjectUnkSTSSD1Ev kind:function(arm,size=0x28) addr:0x0215e974
_ZN16MapObjectUnkSTSSD0Ev kind:function(arm,size=0x30) addr:0x0215e99c
_ZN23MapObjectProfileUnkSTSSD1Ev kind:function(arm,size=0x14) addr:0x0215e9cc
_ZN19func_ov080_0215e9e0D0Ev kind:function(arm,size=0x1c) addr:0x0215e9e0
func_ov080_0215e9fc kind:function(arm,size=0x10) addr:0x0215e9fc
_ZN19ActorProfileUnkRBSN10GetProfileEv kind:function(arm,size=0xc) addr:0x0215ea0c
_ZN19ActorProfileUnkRBSN6CreateEv kind:function(arm,size=0x24) addr:0x0215ea18
_ZN19ActorProfileUnkRBSNC1Ev kind:function(arm,size=0x28) addr:0x0215ea3c
_ZN12ActorUnkRBSNC1Ev kind:function(arm,size=0x74) addr:0x0215ea64
_ZN12ActorUnkRBSN19func_ov080_0215ead8Ev kind:function(arm,size=0x14) addr:0x0215ead8
_ZN12ActorUnkRBSN19func_ov080_0215eaecEv kind:function(arm,size=0x68) addr:0x0215eaec
_ZN12ActorUnkRBSN19func_ov080_0215eb54Ev kind:function(arm,size=0x4) addr:0x0215eb54
_ZN12ActorUnkRBSN19func_ov080_0215eb58Ev kind:function(arm,size=0x14) addr:0x0215eb58
_ZN12ActorUnkRBSN19func_ov080_0215eb6cEv kind:function(arm,size=0x14) addr:0x0215eb6c
_ZN12ActorUnkRBSN19func_ov080_0215eb80Ev kind:function(arm,size=0x50) addr:0x0215eb80
_ZN12ActorUnkRBSN19func_ov080_0215ebd0Ev kind:function(arm,size=0x24) addr:0x0215ebd0
_ZN12ActorUnkRBSN19func_ov080_0215ebf4Ev kind:function(arm,size=0x10) addr:0x0215ebf4
_ZN12ActorUnkRBSN19func_ov080_0215ec04Ev kind:function(arm,size=0x8) addr:0x0215ec04
_ZN12ActorUnkRBSND0Ev kind:function(arm,size=0x1c) addr:0x0215ec0c
_ZN12ActorUnkRBSND1Ev kind:function(arm,size=0x28) addr:0x0215ec28
_ZN12ActorUnkRBSN19func_ov080_0215ec50Ev kind:function(arm,size=0x30) addr:0x0215ec50
_ZN19ActorProfileUnkRBSND1Ev kind:function(arm,size=0x14) addr:0x0215ec80
data_ov080_0215ec94 kind:data(any) addr:0x0215ec94
data_ov080_0215ec9a kind:data(any) addr:0x0215ec9a
data_ov080_0215eca0 kind:data(any) addr:0x0215eca0
data_ov080_0215eca6 kind:data(any) addr:0x0215eca6
data_ov080_0215ecac kind:data(any) addr:0x0215ecac
data_ov080_0215ecb2 kind:data(any) addr:0x0215ecb2
data_ov080_0215ecb8 kind:data(any) addr:0x0215ecb8
data_ov080_0215ecc4 kind:data(any) addr:0x0215ecc4
data_ov080_0215ecd0 kind:data(any) addr:0x0215ecd0
data_ov080_0215ecdc kind:data(any) addr:0x0215ecdc
data_ov080_0215ecf4 kind:data(any) addr:0x0215ecf4
data_ov080_0215ed00 kind:data(any) addr:0x0215ed00
data_ov080_0215ed0c kind:data(any) addr:0x0215ed0c
data_ov080_0215ed18 kind:data(any) addr:0x0215ed18
data_ov080_0215ed1c kind:data(any) addr:0x0215ed1c
data_ov080_0215ed20 kind:data(any) addr:0x0215ed20
data_ov080_0215ed2c kind:data(any) addr:0x0215ed2c
data_ov080_0215ed38 kind:data(any) addr:0x0215ed38
__sinit_ActorUnkICBS.cpp kind:function(arm,size=0x564) addr:0x0215ed48
__sinit_ActorUnkICBA.cpp kind:function(arm,size=0x74) addr:0x0215f2ac
__sinit_MapObjectUnkSTSS.cpp kind:function(arm,size=0x50) addr:0x0215f320
__sinit_ActorUnkRBSN.cpp kind:function(arm,size=0x50) addr:0x0215f370
.p__sinit_ActorUnkICBS.cpp kind:data(word) addr:0x0215f3c0
.p__sinit_ActorUnkICBA.cpp kind:data(word) addr:0x0215f3c4
.p__sinit_MapObjectUnkSTSS.cpp kind:data(word) addr:0x0215f3c8
.p__sinit_ActorUnkRBSN.cpp kind:data(word) addr:0x0215f3cc
data_ov080_0215f3e0 kind:data(any) addr:0x0215f3e0
data_ov080_0215f3f4 kind:data(any) addr:0x0215f3f4
_ZTV19data_ov080_0215f408 kind:data(any) addr:0x0215f408
data_ov080_0215f434 kind:data(any) addr:0x0215f434
_ZTV19data_ov080_0215f478 kind:data(any) addr:0x0215f478
data_ov080_0215f4d8 kind:data(any) addr:0x0215f4d8
data_ov080_0215f4dc kind:data(any) addr:0x0215f4dc
data_ov080_0215f4e0 kind:data(any) addr:0x0215f4e0
data_ov080_0215f4e4 kind:data(any) addr:0x0215f4e4
data_ov080_0215f4f0 kind:data(any) addr:0x0215f4f0
data_ov080_0215f4fc kind:data(any) addr:0x0215f4fc
data_ov080_0215f508 kind:data(any) addr:0x0215f508
data_ov080_0215f514 kind:data(any) addr:0x0215f514
data_ov080_0215f520 kind:data(any) addr:0x0215f520
data_ov080_0215f52c kind:data(any) addr:0x0215f52c
data_ov080_0215f538 kind:data(any) addr:0x0215f538
data_ov080_0215f544 kind:data(any) addr:0x0215f544
data_ov080_0215f550 kind:data(any) addr:0x0215f550
data_ov080_0215f628 kind:data(any) addr:0x0215f628
data_ov080_0215f700 kind:data(any) addr:0x0215f700
data_ov080_0215f70c kind:data(any) addr:0x0215f70c
data_ov080_0215f718 kind:data(any) addr:0x0215f718
data_ov080_0215f724 kind:data(any) addr:0x0215f724
data_ov080_0215f730 kind:data(any) addr:0x0215f730
data_ov080_0215f73c kind:data(any) addr:0x0215f73c
data_ov080_0215f748 kind:data(any) addr:0x0215f748
data_ov080_0215f754 kind:data(any) addr:0x0215f754
data_ov080_0215f760 kind:data(any) addr:0x0215f760
data_ov080_0215f76c kind:data(any) addr:0x0215f76c
data_ov080_0215f778 kind:data(any) addr:0x0215f778
data_ov080_0215f784 kind:data(any) addr:0x0215f784
data_ov080_0215f790 kind:data(any) addr:0x0215f790
data_ov080_0215f79c kind:data(any) addr:0x0215f79c
data_ov080_0215f7a8 kind:data(any) addr:0x0215f7a8
data_ov080_0215f7b4 kind:data(any) addr:0x0215f7b4
data_ov080_0215f7c0 kind:data(any) addr:0x0215f7c0
data_ov080_0215f7cc kind:data(any) addr:0x0215f7cc
data_ov080_0215f7d8 kind:data(any) addr:0x0215f7d8
data_ov080_0215f7e4 kind:data(any) addr:0x0215f7e4
data_ov080_0215f7f0 kind:data(any) addr:0x0215f7f0
data_ov080_0215f7fc kind:data(any) addr:0x0215f7fc
data_ov080_0215f808 kind:data(any) addr:0x0215f808
data_ov080_0215f814 kind:data(any) addr:0x0215f814
data_ov080_0215f820 kind:data(any) addr:0x0215f820
data_ov080_0215f82c kind:data(any) addr:0x0215f82c
data_ov080_0215f838 kind:data(any) addr:0x0215f838
data_ov080_0215f844 kind:data(any) addr:0x0215f844
data_ov080_0215f850 kind:data(any) addr:0x0215f850
data_ov080_0215f85c kind:data(any) addr:0x0215f85c
data_ov080_0215f868 kind:data(any) addr:0x0215f868
data_ov080_0215f874 kind:data(any) addr:0x0215f874
data_ov080_0215f880 kind:data(any) addr:0x0215f880
data_ov080_0215f88c kind:data(any) addr:0x0215f88c
data_ov080_0215f898 kind:data(any) addr:0x0215f898
data_ov080_0215f8a4 kind:data(any) addr:0x0215f8a4
data_ov080_0215f8b0 kind:data(any) addr:0x0215f8b0
data_ov080_0215f8c8 kind:data(any) addr:0x0215f8c8
data_ov080_0215f8e0 kind:data(any) addr:0x0215f8e0
data_ov080_0215f8f8 kind:data(any) addr:0x0215f8f8
data_ov080_0215f910 kind:data(any) addr:0x0215f910
data_ov080_0215f928 kind:data(any) addr:0x0215f928
data_ov080_0215f940 kind:data(any) addr:0x0215f940
data_ov080_0215f958 kind:data(any) addr:0x0215f958
data_ov080_0215f970 kind:data(any) addr:0x0215f970
data_ov080_0215f988 kind:data(any) addr:0x0215f988
data_ov080_0215f9a0 kind:data(any) addr:0x0215f9a0
data_ov080_0215f9b8 kind:data(any) addr:0x0215f9b8
data_ov080_0215f9d0 kind:data(any) addr:0x0215f9d0
data_ov080_0215f9e8 kind:data(any) addr:0x0215f9e8
data_ov080_0215fa00 kind:data(any) addr:0x0215fa00
data_ov080_0215fa18 kind:data(any) addr:0x0215fa18
data_ov080_0215fa30 kind:data(any) addr:0x0215fa30
data_ov080_0215fa48 kind:data(any) addr:0x0215fa48
data_ov080_0215fa60 kind:data(any) addr:0x0215fa60
data_ov080_0215fa78 kind:data(any) addr:0x0215fa78
data_ov080_0215fa90 kind:data(any) addr:0x0215fa90
data_ov080_0215fab0 kind:data(any) addr:0x0215fab0
data_ov080_0215fabc kind:data(any) addr:0x0215fabc
data_ov080_0215fac0 kind:data(any) addr:0x0215fac0
data_ov080_0215fad0 kind:data(any) addr:0x0215fad0
data_ov080_0215fae8 kind:data(any) addr:0x0215fae8
data_ov080_0215fb00 kind:data(any) addr:0x0215fb00
data_ov080_0215fb20 kind:data(any) addr:0x0215fb20
data_ov080_0215fb34 kind:data(any) addr:0x0215fb34
data_ov080_0215fb50 kind:data(any) addr:0x0215fb50
_ZTV19data_ov080_0215fb64 kind:data(any) addr:0x0215fb64
data_ov080_0215fb90 kind:data(any) addr:0x0215fb90
data_ov080_0215fbb4 kind:data(any) addr:0x0215fbb4
data_ov080_0215fbdc kind:data(any) addr:0x0215fbdc
_ZTV19data_ov080_0215fc20 kind:data(any) addr:0x0215fc20
data_ov080_0215fc84 kind:data(any) addr:0x0215fc84
data_ov080_0215fcac kind:data(any) addr:0x0215fcac
data_ov080_0215fd1c kind:data(any) addr:0x0215fd1c
data_ov080_0215fd2c kind:data(any) addr:0x0215fd2c
_ZTV19data_ov080_0215fd44 kind:data(any) addr:0x0215fd44
data_ov080_0215fd70 kind:data(any) addr:0x0215fd70
data_ov080_0215fd94 kind:data(any) addr:0x0215fd94 ambiguous
_ZTV19data_ov080_0215fdb0 kind:data(any) addr:0x0215fdb0
data_ov080_0215fe20 kind:bss addr:0x0215fe20
data_ov080_0215fe24 kind:bss addr:0x0215fe24
data_ov080_0215fe30 kind:bss addr:0x0215fe30
sActorProfileUnkICBS kind:bss addr:0x0215fe3c
data_ov080_0215fe40 kind:bss addr:0x0215fe40
data_ov080_0215ff14 kind:bss addr:0x0215ff14
data_ov080_021600c4 kind:bss addr:0x021600c4
data_ov080_021600c8 kind:bss addr:0x021600c8
sActorProfileUnkICBA kind:bss addr:0x021600d4
data_ov080_02160118 kind:bss addr:0x02160118 ambiguous
data_ov080_02160134 kind:bss addr:0x02160134 ambiguous
data_ov080_021601ac kind:bss addr:0x021601ac
data_ov080_021601cc kind:bss addr:0x021601cc
data_ov080_021601d0 kind:bss addr:0x021601d0
sMapObjectProfileUnkSTSS kind:bss addr:0x021601dc
data_ov080_02160244 kind:bss addr:0x02160244
data_ov080_02160248 kind:bss addr:0x02160248
sActorProfileUnkRBSN kind:bss addr:0x02160254
