_ZN19ActorProfileUnkCANS10GetProfileEv kind:function(arm,size=0xc) addr:0x02157ea0
_ZN19ActorProfileUnkCANS6CreateEv kind:function(arm,size=0x24) addr:0x02157eac
_ZN19ActorProfileUnkCANSC1Ev kind:function(arm,size=0x50) addr:0x02157ed0
_ZN12ActorUnkCANS19func_ov063_02157f20Ev kind:function(arm,size=0x5c) addr:0x02157f20
_ZN12ActorUnkCANS19func_ov063_02157f7cEv kind:function(arm,size=0x28) addr:0x02157f7c
_ZN12ActorUnkCANS19func_ov063_02157fa4Ev kind:function(arm,size=0x178) addr:0x02157fa4
_ZN12ActorUnkCANSC1Ev kind:function(arm,size=0x1dc) addr:0x0215811c
_ZN12ActorUnkCANS19func_ov063_021582f8Ev kind:function(arm,size=0x14) addr:0x021582f8
_ZN12ActorUnkCANS19func_ov063_0215830cEv kind:function(arm,size=0x14) addr:0x0215830c
_ZN12ActorUnkCANS19func_ov063_02158320Ev kind:function(arm,size=0x68) addr:0x02158320
_ZN12ActorUnkCANS19func_ov063_02158388Ev kind:function(arm,size=0x9c) addr:0x02158388
_ZN12ActorUnkCANS19func_ov063_02158424Ev kind:function(arm,size=0x24) addr:0x02158424
_ZN12ActorUnkCANS19func_ov063_02158448Ev kind:function(arm,size=0x48) addr:0x02158448
_ZN12ActorUnkCANS19func_ov063_02158490Ev kind:function(arm,size=0x34) addr:0x02158490
_ZN12ActorUnkCANS19func_ov063_021584c4Ev kind:function(arm,size=0x2c) addr:0x021584c4
_ZN12ActorUnkCANS19func_ov063_021584f0Ev kind:function(arm,size=0x53c) addr:0x021584f0
_ZN12ActorUnkCANS19func_ov063_02158a2cEv kind:function(arm,size=0xe0) addr:0x02158a2c
_ZN12ActorUnkCANS19func_ov063_02158b0cEv kind:function(arm,size=0x28) addr:0x02158b0c
_ZN12ActorUnkCANS19func_ov063_02158b34Ev kind:function(arm,size=0x64) addr:0x02158b34
_ZN12ActorUnkCANS19func_ov063_02158b98Ev kind:function(arm,size=0x1a8) addr:0x02158b98
_ZN12ActorUnkCANS19func_ov063_02158d40Ev kind:function(arm,size=0x70) addr:0x02158d40
_ZN12ActorUnkCANS19func_ov063_02158db0Ev kind:function(arm,size=0x318) addr:0x02158db0
_ZN12ActorUnkCANS19func_ov063_021590c8Ev kind:function(arm,size=0x38) addr:0x021590c8
_ZN12ActorUnkCANS19func_ov063_02159100Ev kind:function(arm,size=0xf4) addr:0x02159100
_ZN12ActorUnkCANS19func_ov063_021591f4Ev kind:function(arm,size=0x64) addr:0x021591f4
_ZN12ActorUnkCANS19func_ov063_02159258Ev kind:function(arm,size=0x1b0) addr:0x02159258
_ZN12ActorUnkCANS19func_ov063_02159408Ev kind:function(arm,size=0x8c) addr:0x02159408
_ZN12ActorUnkCANS19func_ov063_02159494Ev kind:function(arm,size=0x110) addr:0x02159494
_ZN12ActorUnkCANS19func_ov063_021595a4Ev kind:function(arm,size=0x74) addr:0x021595a4
_ZN12ActorUnkCANS19func_ov063_02159618Ev kind:function(arm,size=0xfc) addr:0x02159618
_ZN12ActorUnkCANS19func_ov063_02159714Ev kind:function(arm,size=0x70) addr:0x02159714
_ZN12ActorUnkCANS19func_ov063_02159784Ev kind:function(arm,size=0x178) addr:0x02159784
_ZN12ActorUnkCANS19func_ov063_021598fcEv kind:function(arm,size=0xe8) addr:0x021598fc
_ZN12ActorUnkCANS19func_ov063_021599e4Ev kind:function(arm,size=0x2c4) addr:0x021599e4
_ZN12ActorUnkCANS19func_ov063_02159ca8Ev kind:function(arm,size=0xc0) addr:0x02159ca8
_ZN12ActorUnkCANS19func_ov063_02159d68Ev kind:function(arm,size=0x94) addr:0x02159d68
_ZN12ActorUnkCANS19func_ov063_02159dfcEv kind:function(arm,size=0x20) addr:0x02159dfc
_ZN12ActorUnkCANS19func_ov063_02159e1cEv kind:function(arm,size=0x4) addr:0x02159e1c
_ZN12ActorUnkCANS19func_ov063_02159e20Ev kind:function(arm,size=0xa0) addr:0x02159e20
_ZN12ActorUnkCANS19func_ov063_02159ec0Ev kind:function(arm,size=0x7c) addr:0x02159ec0
_ZN12ActorUnkCANS19func_ov063_02159f3cEv kind:function(arm,size=0x1b4) addr:0x02159f3c
_ZN12ActorUnkCANS19func_ov063_0215a0f0Ev kind:function(arm,size=0x1d0) addr:0x0215a0f0
_ZN12ActorUnkCANS19func_ov063_0215a2c0Ev kind:function(arm,size=0x168) addr:0x0215a2c0
_ZN12ActorUnkCANS19func_ov063_0215a428Ev kind:function(arm,size=0x4c) addr:0x0215a428
_ZN12ActorUnkCANS19func_ov063_0215a474Ev kind:function(arm,size=0xa0) addr:0x0215a474
_ZN12ActorUnkCANS19func_ov063_0215a514Ev kind:function(arm,size=0x58) addr:0x0215a514
_ZN12ActorUnkCANS19func_ov063_0215a56cEv kind:function(arm,size=0x34) addr:0x0215a56c
_ZN12ActorUnkCANS19func_ov063_0215a5a0Ev kind:function(arm,size=0x1c) addr:0x0215a5a0
_ZN12ActorUnkCANS19func_ov063_0215a5bcEv kind:function(arm,size=0x1c) addr:0x0215a5bc
_ZN12ActorUnkCANS19func_ov063_0215a5d8Ev kind:function(arm,size=0x20) addr:0x0215a5d8
_ZN12ActorUnkCANS19func_ov063_0215a5f8Ev kind:function(arm,size=0x80) addr:0x0215a5f8
_ZN12ActorUnkCANS19func_ov063_0215a678Ev kind:function(arm,size=0x15c) addr:0x0215a678
_ZN12ActorUnkCANS19func_ov063_0215a7d4Ev kind:function(arm,size=0x30) addr:0x0215a7d4
_ZN12ActorUnkCANSD1Ev kind:function(arm,size=0x14) addr:0x0215a804
_ZN12ActorUnkCANSD0Ev kind:function(arm,size=0x1c) addr:0x0215a818
_ZN12ActorUnkCANS19func_ov063_0215a834Ev kind:function(arm,size=0x4c) addr:0x0215a834
_ZN12ActorUnkCANS19func_ov063_0215a880Ev kind:function(arm,size=0xcc) addr:0x0215a880
_ZN12ActorUnkCANS19func_ov063_0215a94cEv kind:function(arm,size=0x24) addr:0x0215a94c
_ZN12ActorUnkCANS19func_ov063_0215a970Ev kind:function(arm,size=0x2c) addr:0x0215a970
_ZN12ActorUnkCANS19func_ov063_0215a99cEv kind:function(arm,size=0x1c) addr:0x0215a99c
_ZN12ActorUnkCANS19func_ov063_0215a9b8Ev kind:function(arm,size=0x1c) addr:0x0215a9b8
_ZN12ActorUnkCANS19func_ov063_0215a9d4Ev kind:function(arm,size=0x84) addr:0x0215a9d4
_ZN12ActorUnkCANS19func_ov063_0215aa58Ev kind:function(arm,size=0x8c) addr:0x0215aa58
_ZN19ActorProfileUnkCANSD1Ev kind:function(arm,size=0x14) addr:0x0215aae4
_ZN19ActorProfileUnkCASE10GetProfileEv kind:function(arm,size=0xc) addr:0x0215aaf8
_ZN19ActorProfileUnkCASE6CreateEv kind:function(arm,size=0x24) addr:0x0215ab04
_ZN19ActorProfileUnkCASEC1Ev kind:function(arm,size=0x48) addr:0x0215ab28
_ZN12ActorUnkCASE19func_ov063_0215ab70Ev kind:function(arm,size=0x34) addr:0x0215ab70
_ZN12ActorUnkCASE19func_ov063_0215aba4Ev kind:function(arm,size=0x34) addr:0x0215aba4
_ZN12ActorUnkCASE19func_ov063_0215abd8Ev kind:function(arm,size=0x74) addr:0x0215abd8
_ZN12ActorUnkCASE19func_ov063_0215ac4cEv kind:function(arm,size=0x1c) addr:0x0215ac4c
_ZN12ActorUnkCASE19func_ov063_0215ac68Ev kind:function(arm,size=0x24) addr:0x0215ac68
_ZN12ActorUnkCASE19func_ov063_0215ac8cEv kind:function(arm,size=0x3c) addr:0x0215ac8c
_ZN12ActorUnkCASE19func_ov063_0215acc8Ev kind:function(arm,size=0x24) addr:0x0215acc8
_ZN12ActorUnkCASE19func_ov063_0215acecEv kind:function(arm,size=0x5c) addr:0x0215acec
_ZN12ActorUnkCASEC1Ev kind:function(arm,size=0x124) addr:0x0215ad48
_ZN12ActorUnkCASE19func_ov063_0215ae6cEv kind:function(arm,size=0x14) addr:0x0215ae6c
_ZN12ActorUnkCASE19func_ov063_0215ae80Ev kind:function(arm,size=0x14) addr:0x0215ae80
_ZN12ActorUnkCASE19func_ov063_0215ae94Ev kind:function(arm,size=0x68) addr:0x0215ae94
_ZN12ActorUnkCASE19func_ov063_0215aefcEv kind:function(arm,size=0x58) addr:0x0215aefc
_ZN12ActorUnkCASE19func_ov063_0215af54Ev kind:function(arm,size=0x4) addr:0x0215af54
_ZN12ActorUnkCASE19func_ov063_0215af58Ev kind:function(arm,size=0x4) addr:0x0215af58
_ZN12ActorUnkCASE19func_ov063_0215af5cEv kind:function(arm,size=0x4) addr:0x0215af5c
_ZN12ActorUnkCASE19func_ov063_0215af60Ev kind:function(arm,size=0x44) addr:0x0215af60
_ZN12ActorUnkCASE19func_ov063_0215afa4Ev kind:function(arm,size=0x14) addr:0x0215afa4
_ZN12ActorUnkCASE19func_ov063_0215afb8Ev kind:function(arm,size=0x9c) addr:0x0215afb8
_ZN12ActorUnkCASE19func_ov063_0215b054Ev kind:function(arm,size=0x3c) addr:0x0215b054
_ZN12ActorUnkCASE19func_ov063_0215b090Ev kind:function(arm,size=0x12c) addr:0x0215b090
_ZN12ActorUnkCASE19func_ov063_0215b1bcEv kind:function(arm,size=0x88) addr:0x0215b1bc
_ZN12ActorUnkCASE19func_ov063_0215b244Ev kind:function(arm,size=0x6c) addr:0x0215b244
_ZN12ActorUnkCASE19func_ov063_0215b2b0Ev kind:function(arm,size=0x14) addr:0x0215b2b0
_ZN12ActorUnkCASE19func_ov063_0215b2c4Ev kind:function(arm,size=0x4) addr:0x0215b2c4
_ZN12ActorUnkCASE19func_ov063_0215b2c8Ev kind:function(arm,size=0x24) addr:0x0215b2c8
_ZN12ActorUnkCASE19func_ov063_0215b2ecEv kind:function(arm,size=0x338) addr:0x0215b2ec
_ZN12ActorUnkCASE19func_ov063_0215b624Ev kind:function(arm,size=0xa4) addr:0x0215b624
_ZN12ActorUnkCASE19func_ov063_0215b6c8Ev kind:function(arm,size=0x5c) addr:0x0215b6c8
_ZN12ActorUnkCASE19func_ov063_0215b724Ev kind:function(arm,size=0xa8) addr:0x0215b724
_ZN12ActorUnkCASE19func_ov063_0215b7ccEv kind:function(arm,size=0x48) addr:0x0215b7cc
_ZN12ActorUnkCASE19func_ov063_0215b814Ev kind:function(arm,size=0x40) addr:0x0215b814
_ZN12ActorUnkCASE19func_ov063_0215b854Ev kind:function(arm,size=0x94) addr:0x0215b854
_ZN12ActorUnkCASE19func_ov063_0215b8e8Ev kind:function(arm,size=0xb4) addr:0x0215b8e8
_ZN12ActorUnkCASE19func_ov063_0215b99cEv kind:function(arm,size=0xac) addr:0x0215b99c
_ZN12ActorUnkCASED0Ev kind:function(arm,size=0x1c) addr:0x0215ba48
_ZN12ActorUnkCASE19func_ov063_0215ba64Ev kind:function(arm,size=0x1c) addr:0x0215ba64
_ZN12ActorUnkCASED1Ev kind:function(arm,size=0x30) addr:0x0215ba80
_ZN12ActorUnkCASE19func_ov063_0215bab0Ev kind:function(arm,size=0x38) addr:0x0215bab0
_ZN19ActorProfileUnkCASED1Ev kind:function(arm,size=0x14) addr:0x0215bae8
func_ov063_0215bafc kind:function(arm,size=0x38) addr:0x0215bafc
func_ov063_0215bb34 kind:function(arm,size=0x54) addr:0x0215bb34
func_ov063_0215bb88 kind:function(arm,size=0x4) addr:0x0215bb88
func_ov063_0215bb8c kind:function(arm,size=0x4) addr:0x0215bb8c
func_ov063_0215bb90 kind:function(arm,size=0x14) addr:0x0215bb90
func_ov063_0215bba4 kind:function(arm,size=0x30) addr:0x0215bba4
_ZN19func_ov063_0215bbd4D1Ev kind:function(arm,size=0x28) addr:0x0215bbd4
_ZN19func_ov063_0215bbfcD0Ev kind:function(arm,size=0x30) addr:0x0215bbfc
_ZN19ActorProfileUnkRMSV10GetProfileEv kind:function(arm,size=0xc) addr:0x0215bc2c
_ZN19ActorProfileUnkRMSV6CreateEv kind:function(arm,size=0x24) addr:0x0215bc38
_ZN19ActorProfileUnkRMSVC1Ev kind:function(arm,size=0x28) addr:0x0215bc5c
_ZN12ActorUnkRMSVC1Ev kind:function(arm,size=0xc0) addr:0x0215bc84
_ZN12ActorUnkRMSV19func_ov063_0215bd44Ev kind:function(arm,size=0x14) addr:0x0215bd44
_ZN12ActorUnkRMSV19func_ov063_0215bd58Ev kind:function(arm,size=0x94) addr:0x0215bd58
_ZN12ActorUnkRMSV19func_ov063_0215bdecEv kind:function(arm,size=0x24) addr:0x0215bdec
_ZN12ActorUnkRMSV19func_ov063_0215be10Ev kind:function(arm,size=0x2c) addr:0x0215be10
_ZN12ActorUnkRMSV19func_ov063_0215be3cEv kind:function(arm,size=0x14) addr:0x0215be3c
_ZN12ActorUnkRMSV19func_ov063_0215be50Ev kind:function(arm,size=0x40) addr:0x0215be50
_ZN12ActorUnkRMSV19func_ov063_0215be90Ev kind:function(arm,size=0x40) addr:0x0215be90
_ZN12ActorUnkRMSV19func_ov063_0215bed0Ev kind:function(arm,size=0x10) addr:0x0215bed0
_ZN12ActorUnkRMSV19func_ov063_0215bee0Ev kind:function(arm,size=0x8) addr:0x0215bee0
_ZN12ActorUnkRMSVD0Ev kind:function(arm,size=0x1c) addr:0x0215bee8
_ZN12ActorUnkRMSVD1Ev kind:function(arm,size=0x38) addr:0x0215bf04
_ZN12ActorUnkRMSV19func_ov063_0215bf3cEv kind:function(arm,size=0x40) addr:0x0215bf3c
_ZN19ActorProfileUnkRMSVD1Ev kind:function(arm,size=0x14) addr:0x0215bf7c
_ZN19ActorProfileUnkRMSW10GetProfileEv kind:function(arm,size=0xc) addr:0x0215bf90
_ZN19ActorProfileUnkRMSW6CreateEv kind:function(arm,size=0x24) addr:0x0215bf9c
_ZN19ActorProfileUnkRMSWC1Ev kind:function(arm,size=0x28) addr:0x0215bfc0
_ZN12ActorUnkRMSWC1Ev kind:function(arm,size=0x74) addr:0x0215bfe8
_ZN12ActorUnkRMSW19func_ov063_0215c05cEv kind:function(arm,size=0x54) addr:0x0215c05c
_ZN12ActorUnkRMSW19func_ov063_0215c0b0Ev kind:function(arm,size=0x18) addr:0x0215c0b0
_ZN12ActorUnkRMSW19func_ov063_0215c0c8Ev kind:function(arm,size=0x14) addr:0x0215c0c8
_ZN12ActorUnkRMSW19func_ov063_0215c0dcEv kind:function(arm,size=0x40) addr:0x0215c0dc
_ZN12ActorUnkRMSW19func_ov063_0215c11cEv kind:function(arm,size=0x40) addr:0x0215c11c
_ZN12ActorUnkRMSWD1Ev kind:function(arm,size=0x30) addr:0x0215c15c
_ZN12ActorUnkRMSWD0Ev kind:function(arm,size=0x38) addr:0x0215c18c
_ZN19ActorProfileUnkRMSWD1Ev kind:function(arm,size=0x14) addr:0x0215c1c4
_ZN19ActorProfileUnkRMSF10GetProfileEv kind:function(arm,size=0xc) addr:0x0215c1d8
_ZN19ActorProfileUnkRMSF6CreateEv kind:function(arm,size=0x24) addr:0x0215c1e4
_ZN19ActorProfileUnkRMSFC1Ev kind:function(arm,size=0x28) addr:0x0215c208
_ZN12ActorUnkRMSFC1Ev kind:function(arm,size=0x20) addr:0x0215c230
_ZN12ActorUnkRMSF19func_ov063_0215c250Ev kind:function(arm,size=0x40) addr:0x0215c250
_ZN12ActorUnkRMSF19func_ov063_0215c290Ev kind:function(arm,size=0x40) addr:0x0215c290
_ZN12ActorUnkRMSFD1Ev kind:function(arm,size=0x28) addr:0x0215c2d0
_ZN12ActorUnkRMSFD0Ev kind:function(arm,size=0x30) addr:0x0215c2f8
_ZN19ActorProfileUnkRMSFD1Ev kind:function(arm,size=0x14) addr:0x0215c328
_ZN19ActorProfileUnkRMSD10GetProfileEv kind:function(arm,size=0xc) addr:0x0215c33c
_ZN19ActorProfileUnkRMSD6CreateEv kind:function(arm,size=0x24) addr:0x0215c348
_ZN19ActorProfileUnkRMSDC1Ev kind:function(arm,size=0x28) addr:0x0215c36c
_ZN12ActorUnkRMSDC1Ev kind:function(arm,size=0x74) addr:0x0215c394
_ZN12ActorUnkRMSD19func_ov063_0215c408Ev kind:function(arm,size=0x54) addr:0x0215c408
_ZN12ActorUnkRMSD19func_ov063_0215c45cEv kind:function(arm,size=0x18) addr:0x0215c45c
_ZN12ActorUnkRMSD19func_ov063_0215c474Ev kind:function(arm,size=0x14) addr:0x0215c474
_ZN12ActorUnkRMSD19func_ov063_0215c488Ev kind:function(arm,size=0x40) addr:0x0215c488
_ZN12ActorUnkRMSD19func_ov063_0215c4c8Ev kind:function(arm,size=0x40) addr:0x0215c4c8
_ZN12ActorUnkRMSDD1Ev kind:function(arm,size=0x30) addr:0x0215c508
_ZN12ActorUnkRMSDD0Ev kind:function(arm,size=0x38) addr:0x0215c538
_ZN19ActorProfileUnkRMSDD1Ev kind:function(arm,size=0x14) addr:0x0215c570
_ZN19ActorProfileUnkRMSS10GetProfileEv kind:function(arm,size=0xc) addr:0x0215c584
_ZN19ActorProfileUnkRMSS6CreateEv kind:function(arm,size=0x24) addr:0x0215c590
_ZN19ActorProfileUnkRMSSC1Ev kind:function(arm,size=0x28) addr:0x0215c5b4
_ZN12ActorUnkRMSSC1Ev kind:function(arm,size=0x20) addr:0x0215c5dc
_ZN12ActorUnkRMSS19func_ov063_0215c5fcEv kind:function(arm,size=0x40) addr:0x0215c5fc
_ZN12ActorUnkRMSS19func_ov063_0215c63cEv kind:function(arm,size=0x40) addr:0x0215c63c
_ZN12ActorUnkRMSSD1Ev kind:function(arm,size=0x28) addr:0x0215c67c
_ZN12ActorUnkRMSSD0Ev kind:function(arm,size=0x30) addr:0x0215c6a4
_ZN19ActorProfileUnkRMSSD1Ev kind:function(arm,size=0x14) addr:0x0215c6d4
func_ov063_0215c6e8 kind:function(arm,size=0xc8) addr:0x0215c6e8
func_ov063_0215c7b0 kind:function(arm,size=0x14) addr:0x0215c7b0
_ZN19func_ov063_0215c7c4D1Ev kind:function(arm,size=0x28) addr:0x0215c7c4
_ZN19func_ov063_0215c7ecD0Ev kind:function(arm,size=0x30) addr:0x0215c7ec
func_ov063_0215c81c kind:function(arm,size=0x4c) addr:0x0215c81c
func_ov063_0215c868 kind:function(arm,size=0x1c) addr:0x0215c868
func_ov063_0215c884 kind:function(arm,size=0x4c) addr:0x0215c884
func_ov063_0215c8d0 kind:function(arm,size=0x158) addr:0x0215c8d0
func_ov063_0215ca28 kind:function(arm,size=0x24) addr:0x0215ca28
func_ov063_0215ca4c kind:function(arm,size=0x14) addr:0x0215ca4c
func_ov063_0215ca60 kind:function(arm,size=0x118) addr:0x0215ca60
func_ov063_0215cb78 kind:function(arm,size=0x38) addr:0x0215cb78
func_ov063_0215cbb0 kind:function(arm,size=0x80) addr:0x0215cbb0
func_ov063_0215cc30 kind:function(arm,size=0x114) addr:0x0215cc30
func_ov063_0215cd44 kind:function(arm,size=0x20) addr:0x0215cd44
func_ov063_0215cd64 kind:function(arm,size=0x28) addr:0x0215cd64
func_ov063_0215cd8c kind:function(arm,size=0x1c) addr:0x0215cd8c
func_ov063_0215cda8 kind:function(arm,size=0x6c4) addr:0x0215cda8
func_ov063_0215d46c kind:function(arm,size=0x50) addr:0x0215d46c
func_ov063_0215d4bc kind:function(arm,size=0xb8) addr:0x0215d4bc
func_ov063_0215d574 kind:function(arm,size=0x58) addr:0x0215d574
func_ov063_0215d5cc kind:function(arm,size=0x10) addr:0x0215d5cc
func_ov063_0215d5dc kind:function(arm,size=0x34) addr:0x0215d5dc
func_ov063_0215d610 kind:function(arm,size=0xc8) addr:0x0215d610
func_ov063_0215d6d8 kind:function(arm,size=0x104) addr:0x0215d6d8
func_ov063_0215d7dc kind:function(arm,size=0xec) addr:0x0215d7dc
func_ov063_0215d8c8 kind:function(arm,size=0x4) addr:0x0215d8c8
func_ov063_0215d8cc kind:function(arm,size=0x4) addr:0x0215d8cc
func_ov063_0215d8d0 kind:function(arm,size=0x1c) addr:0x0215d8d0
func_ov063_0215d8ec kind:function(arm,size=0x6c) addr:0x0215d8ec
func_ov063_0215d958 kind:function(arm,size=0x68) addr:0x0215d958
func_ov063_0215d9c0 kind:function(arm,size=0x168) addr:0x0215d9c0
func_ov063_0215db28 kind:function(arm,size=0x80) addr:0x0215db28
func_ov063_0215dba8 kind:function(arm,size=0x1e0) addr:0x0215dba8
func_ov063_0215dd88 kind:function(arm,size=0x148) addr:0x0215dd88
func_ov063_0215ded0 kind:function(arm,size=0x1c0) addr:0x0215ded0
func_ov063_0215e090 kind:function(arm,size=0x30) addr:0x0215e090
func_ov063_0215e0c0 kind:function(arm,size=0x34) addr:0x0215e0c0
func_ov063_0215e0f4 kind:function(arm,size=0x94) addr:0x0215e0f4
func_ov063_0215e188 kind:function(arm,size=0x58) addr:0x0215e188
func_ov063_0215e1e0 kind:function(arm,size=0x22c) addr:0x0215e1e0
func_ov063_0215e40c kind:function(arm,size=0x240) addr:0x0215e40c
func_ov063_0215e64c kind:function(arm,size=0x1d0) addr:0x0215e64c
func_ov063_0215e81c kind:function(arm,size=0x64) addr:0x0215e81c
func_ov063_0215e880 kind:function(arm,size=0x108) addr:0x0215e880
func_ov063_0215e988 kind:function(arm,size=0xec) addr:0x0215e988
func_ov063_0215ea74 kind:function(arm,size=0x1d0) addr:0x0215ea74
func_ov063_0215ec44 kind:function(arm,size=0x60) addr:0x0215ec44
func_ov063_0215eca4 kind:function(arm,size=0x20) addr:0x0215eca4
func_ov063_0215ecc4 kind:function(arm,size=0x1c) addr:0x0215ecc4
func_ov063_0215ece0 kind:function(arm,size=0x1c) addr:0x0215ece0
func_ov063_0215ecfc kind:function(arm,size=0x34) addr:0x0215ecfc
func_ov063_0215ed30 kind:function(arm,size=0x34) addr:0x0215ed30
func_ov063_0215ed64 kind:function(arm,size=0x1c) addr:0x0215ed64
func_ov063_0215ed80 kind:function(arm,size=0x10) addr:0x0215ed80
func_ov063_0215ed90 kind:function(arm,size=0x24) addr:0x0215ed90
func_ov063_0215edb4 kind:function(arm,size=0x80) addr:0x0215edb4
func_ov063_0215ee34 kind:function(arm,size=0xc) addr:0x0215ee34
func_ov063_0215ee40 kind:function(arm,size=0xac) addr:0x0215ee40
func_ov063_0215eeec kind:function(arm,size=0x34) addr:0x0215eeec
func_ov063_0215ef20 kind:function(arm,size=0x2c) addr:0x0215ef20
func_ov063_0215ef4c kind:function(arm,size=0x10) addr:0x0215ef4c
_ZN19func_ov063_0215ef5cD0Ev kind:function(arm,size=0x1c) addr:0x0215ef5c
func_ov063_0215ef78 kind:function(arm,size=0x38) addr:0x0215ef78
func_ov063_0215efb0 kind:function(arm,size=0x1d8) addr:0x0215efb0
func_ov063_0215f188 kind:function(arm,size=0x38) addr:0x0215f188
func_ov063_0215f1c0 kind:function(arm,size=0x14) addr:0x0215f1c0
_ZN19func_ov063_0215f1d4D1Ev kind:function(arm,size=0x18) addr:0x0215f1d4
_ZN19func_ov063_0215f1ecD0Ev kind:function(arm,size=0x20) addr:0x0215f1ec
func_ov063_0215f20c kind:function(arm,size=0x30) addr:0x0215f20c
func_ov063_0215f23c kind:function(arm,size=0xc) addr:0x0215f23c
func_ov063_0215f248 kind:function(arm,size=0x20) addr:0x0215f248
func_ov063_0215f268 kind:function(arm,size=0x20) addr:0x0215f268
func_ov063_0215f288 kind:function(arm,size=0x14) addr:0x0215f288
_ZN19func_ov063_0215f29cD0Ev kind:function(arm,size=0x1c) addr:0x0215f29c
_ZN19ActorProfileUnkRBLS10GetProfileEv kind:function(arm,size=0xc) addr:0x0215f2b8
_ZN19ActorProfileUnkRBLS6CreateEv kind:function(arm,size=0x24) addr:0x0215f2c4
_ZN19ActorProfileUnkRBLSC1Ev kind:function(arm,size=0x28) addr:0x0215f2e8
_ZN12ActorUnkRBLSC1Ev kind:function(arm,size=0xc4) addr:0x0215f310
_ZN12ActorUnkRBLS19func_ov063_0215f3d4Ev kind:function(arm,size=0x14) addr:0x0215f3d4
_ZN12ActorUnkRBLS19func_ov063_0215f3e8Ev kind:function(arm,size=0x8c) addr:0x0215f3e8
_ZN12ActorUnkRBLS19func_ov063_0215f474Ev kind:function(arm,size=0x14) addr:0x0215f474
_ZN12ActorUnkRBLS19func_ov063_0215f488Ev kind:function(arm,size=0x14) addr:0x0215f488
_ZN12ActorUnkRBLS19func_ov063_0215f49cEv kind:function(arm,size=0x20) addr:0x0215f49c
_ZN12ActorUnkRBLSD0Ev kind:function(arm,size=0x1c) addr:0x0215f4bc
_ZN12ActorUnkRBLSD1Ev kind:function(arm,size=0x28) addr:0x0215f4d8
_ZN12ActorUnkRBLS19func_ov063_0215f500Ev kind:function(arm,size=0x30) addr:0x0215f500
_ZN19ActorProfileUnkRBLSD1Ev kind:function(arm,size=0x14) addr:0x0215f530
_ZN23MapObjectProfileUnkSTAT10GetProfileEv kind:function(arm,size=0xc) addr:0x0215f544
_ZN23MapObjectProfileUnkSTAT6CreateEv kind:function(arm,size=0x24) addr:0x0215f550
_ZN23MapObjectProfileUnkSTATC1Ev kind:function(arm,size=0x94) addr:0x0215f574
_ZN16MapObjectUnkSTATC1Ev kind:function(arm,size=0xc8) addr:0x0215f608
_ZN16MapObjectUnkSTAT19func_ov063_0215f6d0Ev kind:function(arm,size=0x40) addr:0x0215f6d0
_ZN16MapObjectUnkSTAT19func_ov063_0215f710Ev kind:function(arm,size=0x88) addr:0x0215f710
_ZN16MapObjectUnkSTAT19func_ov063_0215f798Ev kind:function(arm,size=0x14) addr:0x0215f798
_ZN16MapObjectUnkSTAT19func_ov063_0215f7acEv kind:function(arm,size=0x494) addr:0x0215f7ac
_ZN16MapObjectUnkSTAT19func_ov063_0215fc40Ev kind:function(arm,size=0x48) addr:0x0215fc40
_ZN16MapObjectUnkSTAT19func_ov063_0215fc88Ev kind:function(arm,size=0x58) addr:0x0215fc88
_ZN16MapObjectUnkSTAT19func_ov063_0215fce0Ev kind:function(arm,size=0x58) addr:0x0215fce0
_ZN16MapObjectUnkSTATD1Ev kind:function(arm,size=0x20) addr:0x0215fd38
_ZN16MapObjectUnkSTATD0Ev kind:function(arm,size=0x28) addr:0x0215fd58
_ZN23MapObjectProfileUnkSTATD1Ev kind:function(arm,size=0x14) addr:0x0215fd80
_ZN23MapObjectProfileUnkWLMS10GetProfileEv kind:function(arm,size=0xc) addr:0x0215fd94
_ZN23MapObjectProfileUnkWLMS6CreateEv kind:function(arm,size=0x24) addr:0x0215fda0
_ZN23MapObjectProfileUnkWLMSC1Ev kind:function(arm,size=0xb0) addr:0x0215fdc4
_ZN16MapObjectUnkWLMS19func_ov063_0215fe74Ev kind:function(arm,size=0x14) addr:0x0215fe74
_ZN16MapObjectUnkWLMS19func_ov063_0215fe88Ev kind:function(arm,size=0x28) addr:0x0215fe88
_ZN16MapObjectUnkWLMS19func_ov063_0215feb0Ev kind:function(arm,size=0x14) addr:0x0215feb0
_ZN16MapObjectUnkWLMSC1Ev kind:function(arm,size=0x134) addr:0x0215fec4
_ZN16MapObjectUnkWLMS19func_ov063_0215fff8Ev kind:function(arm,size=0x38) addr:0x0215fff8
_ZN16MapObjectUnkWLMS19func_ov063_02160030Ev kind:function(arm,size=0x224) addr:0x02160030
_ZN16MapObjectUnkWLMS19func_ov063_02160254Ev kind:function(arm,size=0x2f4) addr:0x02160254
_ZN16MapObjectUnkWLMS19func_ov063_02160548Ev kind:function(arm,size=0x38) addr:0x02160548
_ZN16MapObjectUnkWLMS19func_ov063_02160580Ev kind:function(arm,size=0x108) addr:0x02160580
_ZN16MapObjectUnkWLMS19func_ov063_02160688Ev kind:function(arm,size=0x2c) addr:0x02160688
_ZN16MapObjectUnkWLMS19func_ov063_021606b4Ev kind:function(arm,size=0xcc) addr:0x021606b4
_ZN16MapObjectUnkWLMS19func_ov063_02160780Ev kind:function(arm,size=0x100) addr:0x02160780
_ZN16MapObjectUnkWLMS19func_ov063_02160880Ev kind:function(arm,size=0x28) addr:0x02160880
_ZN16MapObjectUnkWLMS19func_ov063_021608a8Ev kind:function(arm,size=0x70) addr:0x021608a8
_ZN16MapObjectUnkWLMS19func_ov063_02160918Ev kind:function(arm,size=0x20) addr:0x02160918
_ZN16MapObjectUnkWLMS19func_ov063_02160938Ev kind:function(arm,size=0x24) addr:0x02160938
_ZN16MapObjectUnkWLMS19func_ov063_0216095cEv kind:function(arm,size=0x68) addr:0x0216095c
_ZN16MapObjectUnkWLMSD0Ev kind:function(arm,size=0x48) addr:0x021609c4
_ZN16MapObjectUnkWLMSD2Ev kind:function(arm,size=0x40) addr:0x02160a0c
_ZN23MapObjectProfileUnkWLMSD1Ev kind:function(arm,size=0x14) addr:0x02160a4c
func_ov063_02160a60 kind:function(arm,size=0x10) addr:0x02160a60
func_ov063_02160a70 kind:function(arm,size=0x10) addr:0x02160a70
func_ov063_02160a80 kind:function(arm,size=0x10) addr:0x02160a80
func_ov063_02160a90 kind:function(arm,size=0x10) addr:0x02160a90
func_ov063_02160aa0 kind:function(arm,size=0x10) addr:0x02160aa0
func_ov063_02160ab0 kind:function(arm,size=0x10) addr:0x02160ab0
func_ov063_02160ac0 kind:function(arm,size=0x10) addr:0x02160ac0
_ZN23MapObjectProfileUnkLTRW10GetProfileEv kind:function(arm,size=0xc) addr:0x02160ad0
_ZN23MapObjectProfileUnkLTRW6CreateEv kind:function(arm,size=0x24) addr:0x02160adc
_ZN23MapObjectProfileUnkLTRWC1Ev kind:function(arm,size=0xd0) addr:0x02160b00
_ZN16MapObjectUnkLTRWC1Ev kind:function(arm,size=0x9c) addr:0x02160bd0
_ZN16MapObjectUnkLTRW19func_ov063_02160c6cEv kind:function(arm,size=0x5c) addr:0x02160c6c
_ZN16MapObjectUnkLTRW19func_ov063_02160cc8Ev kind:function(arm,size=0x1c) addr:0x02160cc8
_ZN16MapObjectUnkLTRW19func_ov063_02160ce4Ev kind:function(arm,size=0x34) addr:0x02160ce4
_ZN16MapObjectUnkLTRW19func_ov063_02160d18Ev kind:function(arm,size=0x1c) addr:0x02160d18
_ZN16MapObjectUnkLTRW19func_ov063_02160d34Ev kind:function(arm,size=0xc4) addr:0x02160d34
_ZN16MapObjectUnkLTRW19func_ov063_02160df8Ev kind:function(arm,size=0x20) addr:0x02160df8
_ZN16MapObjectUnkLTRW19func_ov063_02160e18Ev kind:function(arm,size=0x24) addr:0x02160e18
_ZN16MapObjectUnkLTRWD1Ev kind:function(arm,size=0x20) addr:0x02160e3c
_ZN16MapObjectUnkLTRWD0Ev kind:function(arm,size=0x28) addr:0x02160e5c
_ZN23MapObjectProfileUnkLTRWD1Ev kind:function(arm,size=0x14) addr:0x02160e84
_ZN23MapObjectProfileUnkMTJR10GetProfileEv kind:function(arm,size=0xc) addr:0x02160e98
_ZN23MapObjectProfileUnkMTJR6CreateEv kind:function(arm,size=0x24) addr:0x02160ea4
_ZN23MapObjectProfileUnkMTJRC1Ev kind:function(arm,size=0x9c) addr:0x02160ec8
_ZN16MapObjectUnkMTJRC1Ev kind:function(arm,size=0x98) addr:0x02160f64
_ZN16MapObjectUnkMTJR19func_ov063_02160ffcEv kind:function(arm,size=0x74) addr:0x02160ffc
_ZN16MapObjectUnkMTJR19func_ov063_02161070Ev kind:function(arm,size=0x13c) addr:0x02161070
_ZN16MapObjectUnkMTJR19func_ov063_021611acEv kind:function(arm,size=0x14) addr:0x021611ac
_ZN16MapObjectUnkMTJR19func_ov063_021611c0Ev kind:function(arm,size=0x94) addr:0x021611c0
_ZN16MapObjectUnkMTJR19func_ov063_02161254Ev kind:function(arm,size=0x34) addr:0x02161254
_ZN16MapObjectUnkMTJR19func_ov063_02161288Ev kind:function(arm,size=0xf8) addr:0x02161288
_ZN16MapObjectUnkMTJR19func_ov063_02161380Ev kind:function(arm,size=0x44) addr:0x02161380
_ZN16MapObjectUnkMTJRD1Ev kind:function(arm,size=0x28) addr:0x021613c4
_ZN16MapObjectUnkMTJRD0Ev kind:function(arm,size=0x30) addr:0x021613ec
_ZN23MapObjectProfileUnkMTJRD1Ev kind:function(arm,size=0x14) addr:0x0216141c
_ZN23MapObjectProfileUnkSWCR10GetProfileEv kind:function(arm,size=0xc) addr:0x02161430
_ZN23MapObjectProfileUnkSWCR6CreateEv kind:function(arm,size=0x24) addr:0x0216143c
_ZN23MapObjectProfileUnkSWCRC1Ev kind:function(arm,size=0x98) addr:0x02161460
_ZN16MapObjectUnkSWCR19func_ov063_021614f8Ev kind:function(arm,size=0x14) addr:0x021614f8
_ZN16MapObjectUnkSWCR19func_ov063_0216150cEv kind:function(arm,size=0x10) addr:0x0216150c
_ZN16MapObjectUnkSWCR19func_ov063_0216151cEv kind:function(arm,size=0x10) addr:0x0216151c
_ZN16MapObjectUnkSWCR19func_ov063_0216152cEv kind:function(arm,size=0x10) addr:0x0216152c
_ZN16MapObjectUnkSWCR19func_ov063_0216153cEv kind:function(arm,size=0x88) addr:0x0216153c
_ZN16MapObjectUnkSWCR19func_ov063_021615c4Ev kind:function(arm,size=0x74) addr:0x021615c4
_ZN16MapObjectUnkSWCR19func_ov063_02161638Ev kind:function(arm,size=0x4) addr:0x02161638
_ZN16MapObjectUnkSWCRC1Ev kind:function(arm,size=0xe0) addr:0x0216163c
_ZN16MapObjectUnkSWCR19func_ov063_0216171cEv kind:function(arm,size=0x1ac) addr:0x0216171c
_ZN16MapObjectUnkSWCR19func_ov063_021618c8Ev kind:function(arm,size=0x30) addr:0x021618c8
_ZN16MapObjectUnkSWCR19func_ov063_021618f8Ev kind:function(arm,size=0x1fc) addr:0x021618f8
_ZN16MapObjectUnkSWCR19func_ov063_02161af4Ev kind:function(arm,size=0x14) addr:0x02161af4
_ZN16MapObjectUnkSWCR19func_ov063_02161b08Ev kind:function(arm,size=0x5b8) addr:0x02161b08
_ZN16MapObjectUnkSWCR19func_ov063_021620c0Ev kind:function(arm,size=0x2c) addr:0x021620c0
_ZN16MapObjectUnkSWCRD1Ev kind:function(arm,size=0x20) addr:0x021620ec
_ZN16MapObjectUnkSWCRD0Ev kind:function(arm,size=0x28) addr:0x0216210c
_ZN23MapObjectProfileUnkSWCRD1Ev kind:function(arm,size=0x14) addr:0x02162134
func_ov063_02162148 kind:function(arm,size=0x1c) addr:0x02162148
func_ov063_02162164 kind:function(arm,size=0x4) addr:0x02162164
func_ov063_02162168 kind:function(arm,size=0x54) addr:0x02162168
func_ov063_021621bc kind:function(arm,size=0xc8) addr:0x021621bc
func_ov063_02162284 kind:function(arm,size=0x250) addr:0x02162284
func_ov063_021624d4 kind:function(arm,size=0x8) addr:0x021624d4
func_ov063_021624dc kind:function(arm,size=0x48) addr:0x021624dc
data_ov063_02162528 kind:data(any) addr:0x02162528
data_ov063_02162538 kind:data(any) addr:0x02162538
data_ov063_02162548 kind:data(any) addr:0x02162548
data_ov063_02162558 kind:data(any) addr:0x02162558
data_ov063_02162568 kind:data(any) addr:0x02162568
data_ov063_02162578 kind:data(any) addr:0x02162578
data_ov063_02162588 kind:data(any) addr:0x02162588
data_ov063_02162598 kind:data(any) addr:0x02162598
data_ov063_021625a8 kind:data(any) addr:0x021625a8
data_ov063_021625b8 kind:data(any) addr:0x021625b8
data_ov063_021625c8 kind:data(any) addr:0x021625c8
data_ov063_021625d8 kind:data(any) addr:0x021625d8
data_ov063_021625e8 kind:data(any) addr:0x021625e8
data_ov063_021625f8 kind:data(any) addr:0x021625f8
data_ov063_02162608 kind:data(any) addr:0x02162608
data_ov063_02162624 kind:data(any) addr:0x02162624
data_ov063_0216262b kind:data(any) addr:0x0216262b
data_ov063_02162632 kind:data(any) addr:0x02162632
data_ov063_0216263c kind:data(any) addr:0x0216263c
data_ov063_02162650 kind:data(any) addr:0x02162650
data_ov063_02162664 kind:data(any) addr:0x02162664
data_ov063_02162700 kind:data(any) addr:0x02162700
data_ov063_02162710 kind:data(any) addr:0x02162710
data_ov063_02162718 kind:data(any) addr:0x02162718 ambiguous
data_ov063_02162720 kind:data(any) addr:0x02162720
__sinit_ActorUnkCANS.cpp kind:function(arm,size=0x70) addr:0x02162730
__sinit_ActorUnkCASE.cpp kind:function(arm,size=0x94) addr:0x021627a0
__sinit_ActorUnkRMSV.cpp kind:function(arm,size=0x50) addr:0x02162834
__sinit_ActorUnkRMSW.cpp kind:function(arm,size=0x50) addr:0x02162884
__sinit_ActorUnkRMSF.cpp kind:function(arm,size=0x50) addr:0x021628d4
__sinit_ActorUnkRMSD.cpp kind:function(arm,size=0x50) addr:0x02162924
__sinit_ActorUnkRMSS.cpp kind:function(arm,size=0x50) addr:0x02162974
__sinit_ov063_021629c4 kind:function(arm,size=0x168) addr:0x021629c4
__sinit_ActorUnkRBLS.cpp kind:function(arm,size=0x50) addr:0x02162b2c
__sinit_MapObjectUnkSTAT.cpp kind:function(arm,size=0x50) addr:0x02162b7c
__sinit_MapObjectUnkWLMS.cpp kind:function(arm,size=0x154) addr:0x02162bcc
__sinit_MapObjectUnkLTRW.cpp kind:function(arm,size=0x80) addr:0x02162d20
__sinit_MapObjectUnkMTJR.cpp kind:function(arm,size=0x50) addr:0x02162da0
__sinit_MapObjectUnkSWCR.cpp kind:function(arm,size=0x50) addr:0x02162df0
.p__sinit_ActorUnkCANS.cpp kind:data(word) addr:0x02162e40
.p__sinit_ActorUnkCASE.cpp kind:data(word) addr:0x02162e44
.p__sinit_ActorUnkRMSV.cpp kind:data(word) addr:0x02162e48
.p__sinit_ActorUnkRMSW.cpp kind:data(word) addr:0x02162e4c
.p__sinit_ActorUnkRMSF.cpp kind:data(word) addr:0x02162e50
.p__sinit_ActorUnkRMSD.cpp kind:data(word) addr:0x02162e54
.p__sinit_ActorUnkRMSS.cpp kind:data(word) addr:0x02162e58
.p__sinit_ov063_021629c4 kind:data(word) addr:0x02162e5c
.p__sinit_ActorUnkRBLS.cpp kind:data(word) addr:0x02162e60
.p__sinit_MapObjectUnkSTAT.cpp kind:data(word) addr:0x02162e64
.p__sinit_MapObjectUnkWLMS.cpp kind:data(word) addr:0x02162e68
.p__sinit_MapObjectUnkLTRW.cpp kind:data(word) addr:0x02162e6c
.p__sinit_MapObjectUnkMTJR.cpp kind:data(word) addr:0x02162e70
.p__sinit_MapObjectUnkSWCR.cpp kind:data(word) addr:0x02162e74
data_ov063_02162e88 kind:data(any) addr:0x02162e88
data_ov063_02162e90 kind:data(any) addr:0x02162e90
data_ov063_02162ea8 kind:data(any) addr:0x02162ea8
_ZTV19data_ov063_02162ebc kind:data(any) addr:0x02162ebc
data_ov063_02162ee8 kind:data(any) addr:0x02162ee8
data_ov063_02162f14 kind:data(any) addr:0x02162f14
data_ov063_02162f34 kind:data(any) addr:0x02162f34 ambiguous
data_ov063_02162f58 kind:data(any) addr:0x02162f58
data_ov063_02162fb0 kind:data(any) addr:0x02162fb0
_ZTV19data_ov063_02163008 kind:data(any) addr:0x02163008
data_ov063_02163068 kind:data(any) addr:0x02163068
data_ov063_02163080 kind:data(any) addr:0x02163080
data_ov063_02163098 kind:data(any) addr:0x02163098
data_ov063_021630b0 kind:data(any) addr:0x021630b0
data_ov063_021630c8 kind:data(any) addr:0x021630c8
data_ov063_021630e0 kind:data(any) addr:0x021630e0
data_ov063_02163110 kind:data(any) addr:0x02163110
data_ov063_02163148 kind:data(any) addr:0x02163148
data_ov063_02163160 kind:data(any) addr:0x02163160
_ZTV19data_ov063_02163174 kind:data(any) addr:0x02163174
data_ov063_021631a0 kind:data(any) addr:0x021631a0
_ZTV19data_ov063_021631c4 kind:data(any) addr:0x021631c4
_ZTV19data_ov063_02163224 kind:data(any) addr:0x02163224
data_ov063_02163228 kind:data(any) addr:0x02163228 ambiguous
_ZTV19data_ov063_02163288 kind:data(any) addr:0x02163288
data_ov063_021632ac kind:data(any) addr:0x021632ac
data_ov063_021632c4 kind:data(any) addr:0x021632c4
data_ov063_021632e4 kind:data(any) addr:0x021632e4
_ZTV19data_ov063_02163324 kind:data(any) addr:0x02163324
data_ov063_02163388 kind:data(any) addr:0x02163388
_ZTV19data_ov063_021633a0 kind:data(any) addr:0x021633a0
_ZTV19data_ov063_021633c4 kind:data(any) addr:0x021633c4
_ZTV19data_ov063_02163428 kind:data(any) addr:0x02163428
_ZTV19data_ov063_0216344c kind:data(any) addr:0x0216344c
data_ov063_021634b0 kind:data(any) addr:0x021634b0
_ZTV19data_ov063_021634c8 kind:data(any) addr:0x021634c8
_ZTV19data_ov063_021634ec kind:data(any) addr:0x021634ec
_ZTV19data_ov063_02163510 kind:data(any) addr:0x02163510 ambiguous
_ZTV19data_ov063_02163550 kind:data(any) addr:0x02163550
_ZTV19data_ov063_02163574 kind:data(any) addr:0x02163574
_ZTV19data_ov063_021635d8 kind:data(any) addr:0x021635d8
data_ov063_021635fc kind:data(any) addr:0x021635fc
data_ov063_02163618 kind:data(any) addr:0x02163618
data_ov063_02163654 kind:data(any) addr:0x02163654
data_ov063_02163664 kind:data(any) addr:0x02163664
data_ov063_02163680 kind:data(any) addr:0x02163680
data_ov063_0216369c kind:data(any) addr:0x0216369c
data_ov063_021636b8 kind:data(any) addr:0x021636b8
data_ov063_021636d4 kind:data(any) addr:0x021636d4
data_ov063_021636f0 kind:data(any) addr:0x021636f0
data_ov063_02163704 kind:data(any) addr:0x02163704
_ZTV19data_ov063_0216370c kind:data(any) addr:0x0216370c
data_ov063_02163740 kind:data(any) addr:0x02163740
_ZTV19data_ov063_02163758 kind:data(any) addr:0x02163758
data_ov063_02163784 kind:data(any) addr:0x02163784
_ZTV19data_ov063_021637c4 kind:data(any) addr:0x021637c4
data_ov063_02163828 kind:data(any) addr:0x02163828
data_ov063_02163844 kind:data(any) addr:0x02163844
data_ov063_02163860 kind:data(any) addr:0x02163860
data_ov063_02163888 kind:data(any) addr:0x02163888
data_ov063_021638c0 kind:data(any) addr:0x021638c0
data_ov063_021638c8 kind:data(any) addr:0x021638c8
data_ov063_021638d4 kind:data(any) addr:0x021638d4
data_ov063_021638e8 kind:data(any) addr:0x021638e8
data_ov063_021638ec kind:data(any) addr:0x021638ec
data_ov063_021638f0 kind:data(any) addr:0x021638f0
data_ov063_021638f4 kind:data(any) addr:0x021638f4
data_ov063_021638f8 kind:data(any) addr:0x021638f8
data_ov063_021638fc kind:data(any) addr:0x021638fc
data_ov063_02163900 kind:data(any) addr:0x02163900
data_ov063_02163904 kind:data(any) addr:0x02163904
data_ov063_02163910 kind:data(any) addr:0x02163910
data_ov063_02163928 kind:data(any) addr:0x02163928
data_ov063_02163944 kind:data(any) addr:0x02163944
_ZTV19data_ov063_02163980 kind:data(any) addr:0x02163980
data_ov063_021639c4 kind:data(any) addr:0x021639c4
data_ov063_021639e4 kind:data(any) addr:0x021639e4
data_ov063_021639fc kind:data(any) addr:0x021639fc
data_ov063_02163a18 kind:data(any) addr:0x02163a18
data_ov063_02163a34 kind:data(any) addr:0x02163a34
data_ov063_02163a5c kind:data(any) addr:0x02163a5c
data_ov063_02163a9c kind:data(any) addr:0x02163a9c
data_ov063_02163ab8 kind:data(any) addr:0x02163ab8
data_ov063_02163af8 kind:data(any) addr:0x02163af8
data_ov063_02163b0c kind:data(any) addr:0x02163b0c
data_ov063_02163b28 kind:data(any) addr:0x02163b28
_ZGVN15ProfileInstanceI19ActorProfileUnkCANSE8sProfileE kind:bss addr:0x02163b60
@12600 kind:bss addr:0x02163b64
_ZN15ProfileInstanceI19ActorProfileUnkCANSE8sProfileE kind:bss addr:0x02163b70
_ZGVN15ProfileInstanceI19ActorProfileUnkCASEE8sProfileE kind:bss addr:0x02163c48
@12606 kind:bss addr:0x02163c4c
_ZN15ProfileInstanceI19ActorProfileUnkCASEE8sProfileE kind:bss addr:0x02163c58
_ZGVN15ProfileInstanceI19ActorProfileUnkRMSVE8sProfileE kind:bss addr:0x02163d30
@12612 kind:bss addr:0x02163d34
_ZN15ProfileInstanceI19ActorProfileUnkRMSVE8sProfileE kind:bss addr:0x02163d40
_ZGVN15ProfileInstanceI19ActorProfileUnkRMSWE8sProfileE kind:bss addr:0x02163e18
@12618 kind:bss addr:0x02163e1c
_ZN15ProfileInstanceI19ActorProfileUnkRMSWE8sProfileE kind:bss addr:0x02163e28
_ZGVN15ProfileInstanceI19ActorProfileUnkRMSFE8sProfileE kind:bss addr:0x02163f00
@12624 kind:bss addr:0x02163f04
_ZN15ProfileInstanceI19ActorProfileUnkRMSFE8sProfileE kind:bss addr:0x02163f10
data_ov063_02163fe0 kind:bss addr:0x02163fe0 ambiguous
data_ov063_02163fe8 kind:bss addr:0x02163fe8
_ZGVN15ProfileInstanceI19ActorProfileUnkRMSDE8sProfileE kind:bss addr:0x02163fec
@12630 kind:bss addr:0x02163ff4 ambiguous
_ZN15ProfileInstanceI19ActorProfileUnkRMSDE8sProfileE kind:bss addr:0x02163ff8
_ZGVN15ProfileInstanceI19ActorProfileUnkRMSSE8sProfileE kind:bss addr:0x021640d0
@12636 kind:bss addr:0x021640d4
_ZN15ProfileInstanceI19ActorProfileUnkRMSSE8sProfileE kind:bss addr:0x021640e0
data_ov063_02164144 kind:bss addr:0x02164144 ambiguous
data_ov063_021641b8 kind:bss addr:0x021641b8
data_ov063_021641bc kind:bss addr:0x021641bc
data_ov063_021641c8 kind:bss addr:0x021641c8
data_ov063_021641d0 kind:bss addr:0x021641d0 ambiguous
data_ov063_021642fc kind:bss addr:0x021642fc ambiguous
_ZGVN15ProfileInstanceI19ActorProfileUnkRBLSE8sProfileE kind:bss addr:0x02164318
@12642 kind:bss addr:0x0216431c
_ZN15ProfileInstanceI19ActorProfileUnkRBLSE8sProfileE kind:bss addr:0x02164328
_ZGVN15ProfileInstanceI23MapObjectProfileUnkSTATE8sProfileE kind:bss addr:0x02164400
@12245 kind:bss addr:0x02164404
_ZN15ProfileInstanceI23MapObjectProfileUnkSTATE8sProfileE kind:bss addr:0x02164410
data_ov063_021644e4 kind:bss addr:0x021644e4
data_ov063_02164504 kind:bss addr:0x02164504
data_ov063_02164508 kind:bss addr:0x02164508
_ZGVN15ProfileInstanceI23MapObjectProfileUnkWLMSE8sProfileE kind:bss addr:0x02164514
@12251 kind:bss addr:0x0216458c
_ZN15ProfileInstanceI23MapObjectProfileUnkWLMSE8sProfileE kind:bss addr:0x02164604
data_ov063_02164690 kind:bss addr:0x02164690 ambiguous
data_ov063_021646d8 kind:bss addr:0x021646d8
_ZGVN15ProfileInstanceI23MapObjectProfileUnkLTRWE8sProfileE kind:bss addr:0x021646f8
@12257 kind:bss addr:0x021646fc
_ZN15ProfileInstanceI23MapObjectProfileUnkLTRWE8sProfileE kind:bss addr:0x02164708
data_ov063_021647dc kind:bss addr:0x021647dc
_ZGVN15ProfileInstanceI23MapObjectProfileUnkMTJRE8sProfileE kind:bss addr:0x02164800
@12263 kind:bss addr:0x02164804
_ZN15ProfileInstanceI23MapObjectProfileUnkMTJRE8sProfileE kind:bss addr:0x02164810
data_ov063_021648e4 kind:bss addr:0x021648e4
_ZGVN15ProfileInstanceI23MapObjectProfileUnkSWCRE8sProfileE kind:bss addr:0x02164904
@12269 kind:bss addr:0x02164908
_ZN15ProfileInstanceI23MapObjectProfileUnkSWCRE8sProfileE kind:bss addr:0x02164914
data_ov063_02164934 kind:bss addr:0x02164934
data_ov063_021649e8 kind:bss addr:0x021649e8
