func_ov053_02139f20 kind:function(arm,size=0x48) addr:0x02139f20
func_ov053_02139f68 kind:function(arm,size=0x2c) addr:0x02139f68
func_ov053_02139f94 kind:function(arm,size=0x48) addr:0x02139f94
_ZN19ActorProfileUnkLIKE10GetProfileEv kind:function(arm,size=0xc) addr:0x02139fdc
_ZN19ActorProfileUnkLIKE6CreateEv kind:function(arm,size=0x24) addr:0x02139fe8
_ZN19ActorProfileUnkLIKEC1Ev kind:function(arm,size=0x5c) addr:0x0213a00c
_ZN12ActorUnkLIKE19func_ov053_02138628Ev kind:function(arm,size=0x28) addr:0x0213a068
_ZN12ActorUnkLIKED1Ev kind:function(arm,size=0x1c) addr:0x0213a090
_ZN12ActorUnkLIKED0Ev kind:function(arm,size=0x24) addr:0x0213a0ac
_ZN12ActorUnkLIKE19func_ov053_02138690Ev kind:function(arm,size=0xf8) addr:0x0213a0d0
_ZN12ActorUnkLIKEC1Ev kind:function(arm,size=0x32c) addr:0x0213a1c8
_ZN12ActorUnkLIKE19func_ov053_02138ab4Ev kind:function(arm,size=0x14) addr:0x0213a4f4
_ZN12ActorUnkLIKE19func_ov053_02138ac8Ev kind:function(arm,size=0x14) addr:0x0213a508
_ZN12ActorUnkLIKE19func_ov053_02138adcEv kind:function(arm,size=0x14) addr:0x0213a51c
_ZN12ActorUnkLIKE19func_ov053_02138af0Ev kind:function(arm,size=0xc0) addr:0x0213a530
_ZN12ActorUnkLIKE19func_ov053_02138bb0Ev kind:function(arm,size=0xc8) addr:0x0213a5f0
_ZN12ActorUnkLIKE19func_ov053_02138c78Ev kind:function(arm,size=0x80) addr:0x0213a6b8
_ZN12ActorUnkLIKE19func_ov053_02138cf8Ev kind:function(arm,size=0x5b0) addr:0x0213a738
_ZN12ActorUnkLIKE19func_ov053_021392c4Ev kind:function(arm,size=0x168) addr:0x0213ace8
_ZN12ActorUnkLIKE19func_ov053_0213942cEv kind:function(arm,size=0x8) addr:0x0213ae50
_ZN12ActorUnkLIKE19func_ov053_02139434Ev kind:function(arm,size=0x74) addr:0x0213ae58
_ZN12ActorUnkLIKE19func_ov053_021394a8Ev kind:function(arm,size=0x14c) addr:0x0213aecc
_ZN12ActorUnkLIKE19func_ov053_021395f4Ev kind:function(arm,size=0x268) addr:0x0213b018
_ZN12ActorUnkLIKE19func_ov053_0213985cEv kind:function(arm,size=0x78) addr:0x0213b280
_ZN12ActorUnkLIKE19func_ov053_021398d4Ev kind:function(arm,size=0x188) addr:0x0213b2f8
_ZN12ActorUnkLIKE19func_ov053_02139a5cEv kind:function(arm,size=0x78) addr:0x0213b480
_ZN12ActorUnkLIKE19func_ov053_02139ad4Ev kind:function(arm,size=0x15c) addr:0x0213b4f8
_ZN12ActorUnkLIKE19func_ov053_02139c30Ev kind:function(arm,size=0x6c) addr:0x0213b654
_ZN12ActorUnkLIKE19func_ov053_02139c9cEv kind:function(arm,size=0x5c) addr:0x0213b6c0
_ZN12ActorUnkLIKE19func_ov053_02139cf8Ev kind:function(arm,size=0x13c) addr:0x0213b71c
_ZN12ActorUnkLIKE19func_ov053_02139e34Ev kind:function(arm,size=0x2c4) addr:0x0213b858
_ZN12ActorUnkLIKE19func_ov053_0213a0f8Ev kind:function(arm,size=0x90) addr:0x0213bb1c
_ZN12ActorUnkLIKE19func_ov053_0213a188Ev kind:function(arm,size=0x34) addr:0x0213bbac
_ZN12ActorUnkLIKE19func_ov053_0213a1bcEv kind:function(arm,size=0x64) addr:0x0213bbe0
_ZN12ActorUnkLIKE19func_ov053_0213a220Ev kind:function(arm,size=0x34) addr:0x0213bc44
_ZN12ActorUnkLIKE19func_ov053_0213a254Ev kind:function(arm,size=0x110) addr:0x0213bc78
_ZN12ActorUnkLIKE19func_ov053_0213a364Ev kind:function(arm,size=0x108) addr:0x0213bd88
_ZN12ActorUnkLIKE19func_ov053_0213a46cEv kind:function(arm,size=0xa0) addr:0x0213be90
_ZN12ActorUnkLIKE19func_ov053_0213a50cEv kind:function(arm,size=0x1a4) addr:0x0213bf30
_ZN12ActorUnkLIKE19func_ov053_0213a6b0Ev kind:function(arm,size=0xb0) addr:0x0213c0d4
_ZN12ActorUnkLIKE19func_ov053_0213a760Ev kind:function(arm,size=0x5c) addr:0x0213c184
_ZN12ActorUnkLIKE19func_ov053_0213a7bcEv kind:function(arm,size=0x80) addr:0x0213c1e0
_ZN12ActorUnkLIKE19func_ov053_0213a834Ev kind:function(arm,size=0x8c) addr:0x0213c260
_ZN12ActorUnkLIKE19func_ov053_0213a8b8Ev kind:function(arm,size=0xa0) addr:0x0213c2ec
_ZN12ActorUnkLIKE19func_ov053_0213a958Ev kind:function(arm,size=0x54) addr:0x0213c38c
_ZN12ActorUnkLIKE19func_ov053_0213a9acEv kind:function(arm,size=0x8c) addr:0x0213c3e0
_ZN12ActorUnkLIKE19func_ov053_0213aa38Ev kind:function(arm,size=0x48) addr:0x0213c46c
_ZN12ActorUnkLIKE19func_ov053_0213aa80Ev kind:function(arm,size=0xc4) addr:0x0213c4b4
_ZN12ActorUnkLIKE19func_ov053_0213ab44Ev kind:function(arm,size=0x1e0) addr:0x0213c578
_ZN12ActorUnkLIKE19func_ov053_0213ad24Ev kind:function(arm,size=0x188) addr:0x0213c758
_ZN12ActorUnkLIKE19func_ov053_0213aeacEv kind:function(arm,size=0x58) addr:0x0213c8e0
_ZN12ActorUnkLIKE19func_ov053_0213af04Ev kind:function(arm,size=0x50) addr:0x0213c938
_ZN12ActorUnkLIKE19func_ov053_0213af54Ev kind:function(arm,size=0x90) addr:0x0213c988
_ZN12ActorUnkLIKE19func_ov053_0213afe4Ev kind:function(arm,size=0x18) addr:0x0213ca18
_ZN12ActorUnkLIKE19func_ov053_0213affcEv kind:function(arm,size=0x10c) addr:0x0213ca30
_ZN12ActorUnkLIKE19func_ov053_0213b108Ev kind:function(arm,size=0xac) addr:0x0213cb3c
_ZN12ActorUnkLIKE19func_ov053_0213b1b4Ev kind:function(arm,size=0x24) addr:0x0213cbe8
_ZN12ActorUnkLIKE19func_ov053_0213b1d8Ev kind:function(arm,size=0x10) addr:0x0213cc0c
_ZN12ActorUnkLIKE19func_ov053_0213b1e8Ev kind:function(arm,size=0x8) addr:0x0213cc1c
_ZN12ActorUnkLIKE19func_ov053_0213b1f0Ev kind:function(arm,size=0x24) addr:0x0213cc24
_ZN12ActorUnkLIKE19func_ov053_0213b214Ev kind:function(arm,size=0x2c) addr:0x0213cc48
_ZN12ActorUnkLIKE19func_ov053_0213b240Ev kind:function(arm,size=0x1c) addr:0x0213cc74
_ZN12ActorUnkLIKE19func_ov053_0213b25cEv kind:function(arm,size=0x1c) addr:0x0213cc90
_ZN12ActorUnkLIKE19func_ov053_0213b278Ev kind:function(arm,size=0x1c) addr:0x0213ccac
_ZN19ActorProfileUnkLIKED1Ev kind:function(arm,size=0x14) addr:0x0213ccc8
_ZN19ActorProfileUnkRAT010GetProfileEv kind:function(arm,size=0xc) addr:0x0213ccdc
_ZN19ActorProfileUnkRAT06CreateEv kind:function(arm,size=0x24) addr:0x0213cce8
_ZN19ActorProfileUnkRAT0C1Ev kind:function(arm,size=0x44) addr:0x0213cd0c
_ZN12ActorUnkRAT0C1Ev kind:function(arm,size=0x190) addr:0x0213cd50
_ZN12ActorUnkRAT019func_ov053_0213b4acEv kind:function(arm,size=0x14) addr:0x0213cee0
_ZN12ActorUnkRAT019func_ov053_0213b4c0Ev kind:function(arm,size=0x70) addr:0x0213cef4
_ZN12ActorUnkRAT019func_ov053_0213b530Ev kind:function(arm,size=0x24) addr:0x0213cf64
_ZN12ActorUnkRAT019func_ov053_0213b554Ev kind:function(arm,size=0x23c) addr:0x0213cf88
_ZN12ActorUnkRAT019func_ov053_0213b790Ev kind:function(arm,size=0x7c) addr:0x0213d1c4
_ZN12ActorUnkRAT019func_ov053_0213b80cEv kind:function(arm,size=0x60) addr:0x0213d240
_ZN12ActorUnkRAT019func_ov053_0213b86cEv kind:function(arm,size=0xb8) addr:0x0213d2a0
_ZN12ActorUnkRAT019func_ov053_0213b924Ev kind:function(arm,size=0x8c) addr:0x0213d358
_ZN12ActorUnkRAT019func_ov053_0213b9b0Ev kind:function(arm,size=0x1c) addr:0x0213d3e4
_ZN12ActorUnkRAT019func_ov053_0213b9ccEv kind:function(arm,size=0x4) addr:0x0213d400
_ZN12ActorUnkRAT019func_ov053_0213b9d0Ev kind:function(arm,size=0x74) addr:0x0213d404
_ZN12ActorUnkRAT019func_ov053_0213ba44Ev kind:function(arm,size=0x70) addr:0x0213d478
_ZN12ActorUnkRAT019func_ov053_0213bab4Ev kind:function(arm,size=0x10) addr:0x0213d4e8
_ZN12ActorUnkRAT019func_ov053_0213bac4Ev kind:function(arm,size=0x28) addr:0x0213d4f8
_ZN12ActorUnkRAT019func_ov053_0213baecEv kind:function(arm,size=0x3c) addr:0x0213d520
_ZN12ActorUnkRAT019func_ov053_0213bb28Ev kind:function(arm,size=0x28) addr:0x0213d55c
_ZN12ActorUnkRAT019func_ov053_0213bb50Ev kind:function(arm,size=0x4) addr:0x0213d584
_ZN12ActorUnkRAT019func_ov053_0213bb54Ev kind:function(arm,size=0xb4) addr:0x0213d588
_ZN12ActorUnkRAT019func_ov053_0213bc08Ev kind:function(arm,size=0xfc) addr:0x0213d63c
_ZN12ActorUnkRAT019func_ov053_0213bd04Ev kind:function(arm,size=0x70) addr:0x0213d738
_ZN12ActorUnkRAT019func_ov053_0213bd74Ev kind:function(arm,size=0x2d0) addr:0x0213d7a8
_ZN12ActorUnkRAT019func_ov053_0213c044Ev kind:function(arm,size=0x8c) addr:0x0213da78
_ZN12ActorUnkRAT019func_ov053_0213c0d0Ev kind:function(arm,size=0x294) addr:0x0213db04
_ZN12ActorUnkRAT019func_ov053_0213c364Ev kind:function(arm,size=0x40) addr:0x0213dd98
_ZN12ActorUnkRAT019func_ov053_0213c3a4Ev kind:function(arm,size=0x4c) addr:0x0213ddd8
_ZN12ActorUnkRAT019func_ov053_0213c3f0Ev kind:function(arm,size=0x14) addr:0x0213de24
_ZN12ActorUnkRAT019func_ov053_0213c404Ev kind:function(arm,size=0x28) addr:0x0213de38
_ZN12ActorUnkRAT019func_ov053_0213c42cEv kind:function(arm,size=0x90) addr:0x0213de60
_ZN12ActorUnkRAT019func_ov053_0213c4bcEv kind:function(arm,size=0x3c) addr:0x0213def0
_ZN12ActorUnkRAT019func_ov053_0213c4f8Ev kind:function(arm,size=0x198) addr:0x0213df2c
_ZN12ActorUnkRAT019func_ov053_0213c690Ev kind:function(arm,size=0x174) addr:0x0213e0c4
_ZN12ActorUnkRAT019func_ov053_0213c804Ev kind:function(arm,size=0x20) addr:0x0213e238
_ZN12ActorUnkRAT019func_ov053_0213c824Ev kind:function(arm,size=0x80) addr:0x0213e258
_ZN12ActorUnkRAT019func_ov053_0213c8a4Ev kind:function(arm,size=0x3c) addr:0x0213e2d8
_ZN12ActorUnkRAT0D1Ev kind:function(arm,size=0x14) addr:0x0213e314
_ZN12ActorUnkRAT0D0Ev kind:function(arm,size=0x1c) addr:0x0213e328
_ZN12ActorUnkRAT019func_ov053_0213c910Ev kind:function(arm,size=0xc) addr:0x0213e344
_ZN12ActorUnkRAT019func_ov053_0213c91cEv kind:function(arm,size=0x24) addr:0x0213e350
_ZN12ActorUnkRAT019func_ov053_0213c940Ev kind:function(arm,size=0x44) addr:0x0213e374
_ZN12ActorUnkRAT019func_ov053_0213c984Ev kind:function(arm,size=0x2c) addr:0x0213e3b8
_ZN12ActorUnkRAT019func_ov053_0213c9b0Ev kind:function(arm,size=0x1c) addr:0x0213e3e4
_ZN12ActorUnkRAT019func_ov053_0213c9ccEv kind:function(arm,size=0x84) addr:0x0213e400
_ZN12ActorUnkRAT019func_ov053_0213ca50Ev kind:function(arm,size=0x8c) addr:0x0213e484
_ZN19ActorProfileUnkRAT0D1Ev kind:function(arm,size=0x14) addr:0x0213e510
_ZN27UnkStruct_ItemManager_20_1419func_ov053_0213caf0Ev kind:function(arm,size=0x98) addr:0x0213e524
func_ov053_0213e5bc kind:function(arm,size=0x194) addr:0x0213e5bc
data_ov053_0213e750 kind:data(any) addr:0x0213e750
data_ov053_0213e760 kind:data(any) addr:0x0213e760
data_ov053_0213e770 kind:data(any) addr:0x0213e770
data_ov053_0213e780 kind:data(any) addr:0x0213e780
__sinit_ActorUnkLIKE.cpp kind:function(arm,size=0x50) addr:0x0213e790
__sinit_ActorUnkRAT0.cpp kind:function(arm,size=0xb0) addr:0x0213e7e0
__sinit_ov053_0213e890 kind:function(arm,size=0x18) addr:0x0213e890
.p__sinit_ActorUnkLIKE.cpp kind:data(word) addr:0x0213e8a8
.p__sinit_ActorUnkRAT0.cpp kind:data(word) addr:0x0213e8ac
.p__sinit_ov053_0213e890 kind:data(word) addr:0x0213e8b0
data_ov053_0213e8c0 kind:data(any) addr:0x0213e8c0
data_ov053_0213e8d8 kind:data(any) addr:0x0213e8d8
data_ov053_0213e8f8 kind:data(any) addr:0x0213e8f8
_ZTV19data_ov053_0213e90c kind:data(any) addr:0x0213e90c
data_ov053_0213e938 kind:data(any) addr:0x0213e938
data_ov053_0213e964 kind:data(any) addr:0x0213e964
data_ov053_0213e9ac kind:data(any) addr:0x0213e9ac
_ZTV19data_ov053_0213e9f0 kind:data(any) addr:0x0213e9f0
data_ov053_0213ea50 kind:data(any) addr:0x0213ea50
data_ov053_0213eac0 kind:data(any) addr:0x0213eac0
data_ov053_0213eb30 kind:data(any) addr:0x0213eb30
data_ov053_0213eb48 kind:data(any) addr:0x0213eb48
data_ov053_0213eb78 kind:data(any) addr:0x0213eb78
data_ov053_0213eb90 kind:data(any) addr:0x0213eb90
data_ov053_0213eba8 kind:data(any) addr:0x0213eba8
data_ov053_0213ebc0 kind:data(any) addr:0x0213ebc0
data_ov053_0213ebe0 kind:data(any) addr:0x0213ebe0
data_ov053_0213ebec kind:data(any) addr:0x0213ebec
_ZTV19data_ov053_0213ec00 kind:data(any) addr:0x0213ec00
data_ov053_0213ec24 kind:data(any) addr:0x0213ec24
data_ov053_0213ec3c kind:data(any) addr:0x0213ec3c
data_ov053_0213ec5c kind:data(any) addr:0x0213ec5c
_ZTV19data_ov053_0213eca0 kind:data(any) addr:0x0213eca0
data_ov053_0213ed00 kind:data(any) addr:0x0213ed00
data_ov053_0213ed10 kind:data(any) addr:0x0213ed10
data_ov053_0213edd8 kind:data(any) addr:0x0213edd8
data_ov053_0213ede0 kind:bss addr:0x0213ede0
data_ov053_0213ede4 kind:bss addr:0x0213ede4
sActorProfileUnkLIKE kind:bss addr:0x0213edf0
data_ov053_0213eec8 kind:bss addr:0x0213eec8
data_ov053_0213eed0 kind:bss addr:0x0213eed0
sActorProfileUnkRAT0 kind:bss addr:0x0213eedc
