_ZN17GameModeAdventureD1Ev kind:function(thumb,size=0x44) addr:0x020c6060
_ZN17GameModeAdventureD0Ev kind:function(thumb,size=0x48) addr:0x020c60a4
_ZN17GameModeAdventure8vfunc_08Ev kind:function(thumb,size=0x58) addr:0x020c60ec
_ZN17GameModeAdventure8vfunc_0CEv kind:function(arm,size=0x3c) addr:0x020c6144
_ZN17GameModeAdventure8vfunc_10Ev kind:function(arm,size=0x24) addr:0x020c6180
_ZN17GameModeAdventure8vfunc_14Ev kind:function(arm,size=0x20) addr:0x020c61a4
_ZN17GameModeAdventure8vfunc_18Ev kind:function(arm,size=0x50) addr:0x020c61c4
_ZN17GameModeAdventure8vfunc_1CEv kind:function(arm,size=0x24) addr:0x020c6214
_ZN17GameModeAdventure8vfunc_20Ev kind:function(arm,size=0x68) addr:0x020c6238
_ZN18UnkStruct_027e09a47DestroyEv kind:function(arm,size=0x2c) addr:0x020c62a0
_ZN24UnkStruct_ov024_020d866019func_ov024_020c4a8cEP15UnkActorSystem1 kind:function(arm,size=0x34) addr:0x020c62cc
_ZN24UnkStruct_ov024_020d866019func_ov024_020c4ac0Ev kind:function(arm,size=0x50) addr:0x020c6300
_ZN24UnkStruct_ov024_020d8660D1Ev kind:function(arm,size=0x14) addr:0x020c6350
_ZN24UnkStruct_ov024_020d8660C1Ev kind:function(arm,size=0x28) addr:0x020c6364
_ZN24UnkStruct_ov024_020d866019func_ov024_020c4b4cEi kind:function(arm,size=0x54) addr:0x020c638c
_ZN24UnkStruct_ov024_020d866019func_ov024_020c4ba0Ev kind:function(arm,size=0x128) addr:0x020c63e0
_ZN24UnkStruct_ov024_020d866019func_ov024_020c4cc8Ev kind:function(arm,size=0xe0) addr:0x020c6508
_ZN24UnkStruct_ov024_020d866019func_ov024_020c4d74Ev kind:function(arm,size=0x14) addr:0x020c65e8
_ZN24UnkStruct_ov024_020d866019func_ov024_020c4d88Eji kind:function(arm,size=0x24) addr:0x020c65fc
_ZN24UnkStruct_ov024_020d866019func_ov024_020c4dacEjiP21UnkActorSystem_Infos1 kind:function(arm,size=0x30) addr:0x020c6620
_ZN8InstanceI24UnkStruct_ov024_020d8660EC2Ev kind:function(arm,size=0x10) addr:0x020c6650
_ZN8InstanceI24UnkStruct_ov024_020d8660ED2Ev kind:function(arm,size=0x14) addr:0x020c6660
_ZN15UnkActorSystem1C1Ev kind:function(arm,size=0x18) addr:0x020c6674
_ZN15UnkActorSystem1D1Ev kind:function(arm,size=0x4) addr:0x020c668c
_ZN15UnkActorSystem1D0Ev kind:function(arm,size=0x14) addr:0x020c6690
_ZN15UnkActorSystem1D2Ev kind:function(arm,size=0x4) addr:0x020c66a4
_ZN15UnkActorSystem18vfunc_08Ev kind:function(arm,size=0xc) addr:0x020c66a8
_ZN15UnkActorSystem18vfunc_0CEv kind:function(arm,size=0xc) addr:0x020c66b4
_ZN15UnkActorSystem18vfunc_10Ei kind:function(arm,size=0x4) addr:0x020c66c0
_ZN15UnkActorSystem18vfunc_14Ei kind:function(arm,size=0x4) addr:0x020c66c4
_ZN15UnkActorSystem18vfunc_18EPc kind:function(arm,size=0x4) addr:0x020c66c8
_ZN15UnkActorSystem18vfunc_1CEi kind:function(arm,size=0x4) addr:0x020c66cc
_ZN15UnkActorSystem18vfunc_20Ei kind:function(arm,size=0x4) addr:0x020c66d0
_ZN15UnkActorSystem18vfunc_2CEv kind:function(arm,size=0x8) addr:0x020c66d4
_ZN15UnkActorSystem2C1Eb kind:function(arm,size=0x58) addr:0x020c66dc
_ZN15UnkActorSystem219func_ov024_020c4ec0Ev kind:function(arm,size=0x18) addr:0x020c6734
_ZN15UnkActorSystem219func_ov024_020c4ed8Ev kind:function(arm,size=0x18) addr:0x020c674c
_ZN15UnkActorSystem219func_ov024_020c4ef0Ev kind:function(arm,size=0x18) addr:0x020c6764
_ZN15UnkActorSystem219func_ov024_020c4f08Ev kind:function(arm,size=0x10) addr:0x020c677c
_ZN15UnkActorSystem219func_ov024_020c4f18Ev kind:function(arm,size=0x10) addr:0x020c678c
_ZN15UnkActorSystem219func_ov024_020c4f28Ev kind:function(arm,size=0x24) addr:0x020c679c
_ZN15UnkActorSystem219func_ov024_020c4f4cEv kind:function(arm,size=0x10) addr:0x020c67c0
_ZN15UnkActorSystem219func_ov024_020c4f5cEv kind:function(arm,size=0x10) addr:0x020c67d0
_ZN15UnkActorSystem219func_ov024_020c4f6cEv kind:function(arm,size=0x10) addr:0x020c67e0
_ZN15UnkActorSystem219func_ov024_020c4f7cEv kind:function(arm,size=0x8) addr:0x020c67f0
_ZN15UnkActorSystem28vfunc_08EP5InputP12TouchControl kind:function(arm,size=0x8c) addr:0x020c67f8
_ZN15UnkActorSystem28vfunc_10EPc kind:function(arm,size=0xfc) addr:0x020c6884
_ZN15UnkActorSystem219func_ov024_020c510cEv kind:function(arm,size=0x14) addr:0x020c6980
_ZN15UnkActorSystem219func_ov024_020c5120Eb kind:function(arm,size=0x8) addr:0x020c6994
_ZN15UnkActorSystem2D1Ev kind:function(arm,size=0x14) addr:0x020c699c
_ZN15UnkActorSystem2D0Ev kind:function(arm,size=0x1c) addr:0x020c69b0
_ZN20AdventureModeManagerD1Ev kind:function(arm,size=0x94) addr:0x020c69cc
_ZN20AdventureModeManagerD0Ev kind:function(arm,size=0x9c) addr:0x020c6a60
_ZN20AdventureModeManager19func_ov024_020c5288Ev kind:function(arm,size=0x18) addr:0x020c6afc
_ZN20AdventureModeManager19func_ov024_020c52a0Ev kind:function(arm,size=0x18) addr:0x020c6b14
_ZN20AdventureModeManager19func_ov024_020c52b8Ev kind:function(arm,size=0x3c) addr:0x020c6b2c
_ZN20AdventureModeManager19func_ov024_020c52f4Ev kind:function(arm,size=0x18) addr:0x020c6b68
_ZN20AdventureModeManager19func_ov024_020c530cEv kind:function(arm,size=0x58) addr:0x020c6b80
_ZN20AdventureModeManager19func_ov024_020c5364Ev kind:function(arm,size=0x18) addr:0x020c6bd8
_ZN20AdventureModeManager19func_ov024_020c537cEv kind:function(arm,size=0x6c) addr:0x020c6bf0
_ZN20AdventureModeManager19func_ov024_020c53e8Ev kind:function(arm,size=0x174) addr:0x020c6c5c
_ZN20AdventureModeManager19func_ov024_020c555cEi kind:function(arm,size=0x8) addr:0x020c6dd0
_ZN20AdventureModeManager8vfunc_24Ev kind:function(arm,size=0x734) addr:0x020c6dd8
_ZN20AdventureModeManager19func_ov024_020c5cecEv kind:function(arm,size=0xc0) addr:0x020c750c
_ZN20AdventureModeManager19func_ov024_020c5dacEv kind:function(arm,size=0x120) addr:0x020c75cc
_ZN20AdventureModeManager19func_ov024_020c5eccEv kind:function(arm,size=0xa4) addr:0x020c76ec
_ZN20AdventureModeManager19func_ov024_020c5f70Ev kind:function(arm,size=0x184) addr:0x020c7790
_ZN20AdventureModeManager19func_ov024_020c60f4Ev kind:function(arm,size=0x148) addr:0x020c7914
_ZN20AdventureModeManager19func_ov024_020c623cEv kind:function(arm,size=0x8c) addr:0x020c7a5c
_ZN20AdventureModeManager8vfunc_28EPc kind:function(arm,size=0x60) addr:0x020c7ae8
_ZN20AdventureModeManager6DrawUIEPc kind:function(arm,size=0x138) addr:0x020c7b48
_ZN20AdventureModeManager8vfunc_34Eii kind:function(arm,size=0xa0) addr:0x020c7c80
_ZN20AdventureModeManager8vfunc_38Ejhss kind:function(arm,size=0x14) addr:0x020c7d20
_ZN20AdventureModeManager19func_ov024_020c6514Ejhss kind:function(arm,size=0x160) addr:0x020c7d34
_ZN20AdventureModeManager16GetMapPaintIndexEjh kind:function(arm,size=0x4c) addr:0x020c7e94
_ZN20AdventureModeManager19func_ov024_020c66c0Ev kind:function(arm,size=0x5c) addr:0x020c7ee0
_ZN20AdventureModeManager19func_ov024_020c671cEv kind:function(arm,size=0x54) addr:0x020c7f3c
_ZN20AdventureModeManager19func_ov024_020c6770Ejhss kind:function(arm,size=0xac) addr:0x020c7f90
_ZN20AdventureModeManager19func_ov024_020c681cEv kind:function(arm,size=0x24) addr:0x020c803c
_ZN20AdventureModeManager19func_ov024_020c6840Ej kind:function(arm,size=0x94) addr:0x020c8060
_ZN20AdventureModeManager19func_ov024_020c68d4EP5Vec2si kind:function(arm,size=0x18) addr:0x020c80f4
_ZN20AdventureModeManager19func_ov024_020c68ecEii kind:function(arm,size=0x44) addr:0x020c810c
_ZN20AdventureModeManager19func_ov024_020c6930Ev kind:function(arm,size=0x10) addr:0x020c8150
_ZN20AdventureModeManager19func_ov024_020c6940Eii kind:function(arm,size=0x8c) addr:0x020c8160
_ZN20AdventureModeManager19func_ov024_020c699cEv kind:function(arm,size=0x34) addr:0x020c81ec
_ZN20AdventureModeManager19func_ov024_020c69d0Ev kind:function(arm,size=0x50) addr:0x020c8220
_ZN20AdventureModeManager19func_ov024_020c6a20Ev kind:function(arm,size=0x28) addr:0x020c8270
_ZN20AdventureModeManager19func_ov024_020c6a48Eib kind:function(arm,size=0xac) addr:0x020c8298
_ZN20AdventureModeManager19func_ov024_020c6af4Ei kind:function(arm,size=0x98) addr:0x020c8344
_ZN20AdventureModeManager19func_ov024_020c6b8cEv kind:function(arm,size=0xd4) addr:0x020c83dc
_ZN20AdventureModeManager19func_ov024_020c6c60Ev kind:function(arm,size=0x74) addr:0x020c84b0
_ZN20AdventureModeManager19func_ov024_020c6cd4Ev kind:function(arm,size=0x10) addr:0x020c8524
_ZN20AdventureModeManager19func_ov024_020c6ce4Ev kind:function(arm,size=0x20) addr:0x020c8534
_ZN20AdventureModeManager19func_ov024_020c6d04Ev kind:function(arm,size=0xc) addr:0x020c8554
_ZN20AdventureModeManager19func_ov024_020c6d10Ev kind:function(arm,size=0x10) addr:0x020c8560
_ZN20AdventureModeManager19func_ov024_020c6d20Ei kind:function(arm,size=0xc) addr:0x020c8570
_ZN20AdventureModeManager19func_ov024_020c6d2cEi kind:function(arm,size=0x38) addr:0x020c857c
_ZN20AdventureModeManager19func_ov024_020c6d64Ev kind:function(arm,size=0x54) addr:0x020c85b4
_ZN20AdventureModeManager19func_ov024_020c6db8Ei kind:function(arm,size=0x34) addr:0x020c8608
_ZN20AdventureModeManager19func_ov024_020c6decEv kind:function(arm,size=0x4c) addr:0x020c863c
_ZN24AdventureModeManager_1ACC1Ev kind:function(arm,size=0x2c) addr:0x020c8688
_ZN24AdventureModeManager_1ACD1Ev kind:function(arm,size=0x14) addr:0x020c86b4
_ZN24AdventureModeManager_1ACD0Ev kind:function(arm,size=0x1c) addr:0x020c86c8
_ZN24AdventureModeManager_1AC8vfunc_08EP5InputP12TouchControl kind:function(arm,size=0x18) addr:0x020c86e4
_ZN24AdventureModeManager_1AC8vfunc_10EPc kind:function(arm,size=0x18) addr:0x020c86fc
_ZN24AdventureModeManager_1AC8vfunc_14EPc kind:function(arm,size=0x18) addr:0x020c8714
_ZN24UnkStruct_ov024_020d86a07DestroyEv kind:function(arm,size=0x2c) addr:0x020c872c
_ZN18UnkStruct_027e09987DestroyEv kind:function(arm,size=0x2c) addr:0x020c8758
_ZN18UnkStruct_027e0998D1Ev kind:function(arm,size=0x14) addr:0x020c8784
_ZN18UnkStruct_027e0998C1Ev kind:function(arm,size=0x20) addr:0x020c8798
_ZN18UnkStruct_027e09986CreateEv kind:function(arm,size=0x24) addr:0x020c87b8
_ZN18UnkStruct_027e09988vfunc_00EP7VecFx32P5Vec2sPt kind:function(arm,size=0x1e0) addr:0x020c87dc
_ZN18UnkStruct_027e099819func_ov024_020c716cEv kind:function(arm,size=0xa8) addr:0x020c89bc
_ZN18UnkStruct_027e099819func_ov024_020c7214EP7VecFx32P5Vec2sPt kind:function(arm,size=0x68) addr:0x020c8a64
_ZN18UnkStruct_027e099819func_ov024_020c727cEP5Vec2sPt kind:function(arm,size=0x84) addr:0x020c8acc
_ZN18UnkStruct_027e099819func_ov024_020c7300Ei kind:function(arm,size=0x54) addr:0x020c8b50
_ZN18UnkStruct_027e099819func_ov024_020c7354Ev kind:function(arm,size=0x3c) addr:0x020c8ba4
_ZN18UnkStruct_027e0cf86CreateEv kind:function(arm,size=0x24) addr:0x020c8be0
_ZN18UnkStruct_027e0cf8C1Ev kind:function(arm,size=0xf0) addr:0x020c8c04
_ZN18UnkStruct_027e0cf8D1Ev kind:function(arm,size=0xb8) addr:0x020c8cf4
_ZN18UnkStruct_027e0cf819func_ov024_020c755cEP14UnkDataStruct4 kind:function(arm,size=0x74) addr:0x020c8dac
_ZN18UnkStruct_027e0cf819func_ov024_020c75d0EP14UnkDataStruct4it kind:function(arm,size=0x154) addr:0x020c8e20
_ZN18UnkStruct_027e0cf819func_ov024_020c7724Ev kind:function(arm,size=0x2c) addr:0x020c8f74
_ZN18UnkStruct_027e0cf819func_ov024_020c7750Ev kind:function(arm,size=0x30) addr:0x020c8fa0
_ZN18UnkStruct_027e0cf819func_ov024_020c7780Ev kind:function(arm,size=0x30) addr:0x020c8fd0
_ZN18UnkStruct_027e0cf819func_ov024_020c77b0Eb kind:function(arm,size=0x10) addr:0x020c9000
_ZN18UnkStruct_027e0cf819func_ov024_020c77c0EPiS0_i kind:function(arm,size=0x10) addr:0x020c9010
_ZN18UnkStruct_027e0cf819func_ov024_020c77d0EP5Vec2si kind:function(arm,size=0x10) addr:0x020c9020
_ZN18UnkStruct_027e0cf819func_ov024_020c77e0EP5Vec2s kind:function(arm,size=0x24) addr:0x020c9030
_ZN18UnkStruct_027e0cf819func_ov024_020c7804EP5Vec2s kind:function(arm,size=0x24) addr:0x020c9054
_ZN18UnkStruct_027e0cf819func_ov024_020c7828Ei kind:function(arm,size=0x50) addr:0x020c9078
_ZN18UnkStruct_027e0cf819func_ov024_020c7878Eit kind:function(arm,size=0xc) addr:0x020c90c8
_ZN18UnkStruct_027e0cf819func_ov024_020c7884Ev kind:function(arm,size=0x14) addr:0x020c90d4
_ZN18UnkStruct_027e0cf819func_ov024_020c7898Ev kind:function(arm,size=0x14) addr:0x020c90e8
_ZN18UnkStruct_027e0cf819func_ov024_020c78acEPiPs kind:function(arm,size=0x24) addr:0x020c90fc
_ZN18UnkStruct_027e0cf819func_ov024_020c78d0Ev kind:function(arm,size=0x14) addr:0x020c9120
_ZN18UnkStruct_027e0cf819func_ov024_020c78e4Ei kind:function(arm,size=0x1c) addr:0x020c9134
_ZN18UnkStruct_027e0cf819func_ov024_020c7900Ei kind:function(arm,size=0x1c) addr:0x020c9150
_ZN8InstanceI18UnkStruct_027e0cf8EC2Ev kind:function(arm,size=0x10) addr:0x020c916c
_ZN8InstanceI18UnkStruct_027e0cf8ED2Ev kind:function(arm,size=0x14) addr:0x020c917c
_ZN27AdventureModeManager_160_4C8vfunc_0CEv kind:function(arm,size=0x18) addr:0x020c9190
_ZN24AdventureModeManager_160C1EP23GameModeManagerBase_104P24AdventureModeManager_1B8 kind:function(arm,size=0xa8) addr:0x020c91a8
_ZN27AdventureModeManager_160_4CD1Ev kind:function(arm,size=0x14) addr:0x020c9250
_ZN24AdventureModeManager_160D1Ev kind:function(arm,size=0x30) addr:0x020c9264
_ZN24AdventureModeManager_160D0Ev kind:function(arm,size=0x38) addr:0x020c9294
_ZN24AdventureModeManager_1608vfunc_08Ei kind:function(arm,size=0x9c) addr:0x020c92cc
_ZN24AdventureModeManager_1608vfunc_0CEi kind:function(arm,size=0x1a0) addr:0x020c9368
_ZN24AdventureModeManager_1608vfunc_10Eii kind:function(arm,size=0x24) addr:0x020c9508
_ZN24AdventureModeManager_1608vfunc_14Ei kind:function(arm,size=0x20) addr:0x020c952c
_ZN24AdventureModeManager_16019func_ov024_020c7cfcEv kind:function(arm,size=0x50) addr:0x020c954c
_ZN24AdventureModeManager_16019func_ov024_020c7d4cEi kind:function(arm,size=0xf0) addr:0x020c959c
_ZN24AdventureModeManager_1608vfunc_18Ei kind:function(arm,size=0x118) addr:0x020c968c
_ZN24AdventureModeManager_1608vfunc_1CEi kind:function(arm,size=0x36c) addr:0x020c97a4
_ZN24AdventureModeManager_1608vfunc_20Eii kind:function(arm,size=0xf8) addr:0x020c9b10
_ZN24AdventureModeManager_1608vfunc_24Ev kind:function(arm,size=0x4) addr:0x020c9c08
_ZN24AdventureModeManager_16019func_ov024_020c83bcEv kind:function(arm,size=0x6c) addr:0x020c9c0c
_ZN24AdventureModeManager_16019func_ov024_020c8428Ev kind:function(arm,size=0x2c) addr:0x020c9c78
_ZN24AdventureModeManager_16019func_ov024_020c8454Ev kind:function(arm,size=0x30) addr:0x020c9ca4
_ZN24AdventureModeManager_16019func_ov024_020c8484Ev kind:function(arm,size=0x40) addr:0x020c9cd4
_ZN24AdventureModeManager_16019func_ov024_020c84c4Ev kind:function(arm,size=0x58) addr:0x020c9d14
_ZN24AdventureModeManager_16019func_ov024_020c851cEi kind:function(arm,size=0x80) addr:0x020c9d6c
_ZN27AdventureModeManager_160_4CD0Ev kind:function(arm,size=0x1c) addr:0x020c9dec
_ZN27AdventureModeManager_170_148vfunc_0CEv kind:function(arm,size=0x18) addr:0x020c9e08
_ZN24AdventureModeManager_170C1EP23GameModeManagerBase_104 kind:function(arm,size=0x60) addr:0x020c9e20
_ZN27AdventureModeManager_170_14D1Ev kind:function(arm,size=0x14) addr:0x020c9e80
_ZN24AdventureModeManager_170D1Ev kind:function(arm,size=0x20) addr:0x020c9e94
_ZN24AdventureModeManager_170D0Ev kind:function(arm,size=0x28) addr:0x020c9eb4
_ZN24AdventureModeManager_1708vfunc_08Ei kind:function(arm,size=0x38) addr:0x020c9edc
_ZN24AdventureModeManager_1708vfunc_0CEi kind:function(arm,size=0x74) addr:0x020c9f14
_ZN24AdventureModeManager_1708vfunc_10Eii kind:function(arm,size=0xd4) addr:0x020c9f88
_ZN24AdventureModeManager_1708vfunc_18Ei kind:function(arm,size=0xc) addr:0x020ca05c
_ZN24AdventureModeManager_1708vfunc_24Ev kind:function(arm,size=0x2c) addr:0x020ca068
_ZN27AdventureModeManager_170_14D0Ev kind:function(arm,size=0x1c) addr:0x020ca094
_ZN32AdventureModeManager_174_Base_108vfunc_0CEv kind:function(thumb,size=0x10) addr:0x020ca0b0
_ZN32AdventureModeManager_174_Base_108vfunc_10Ev kind:function(thumb,size=0x10) addr:0x020ca0c0
_ZN29AdventureModeManager_174_BaseC2EP23GameModeManagerBase_104 kind:function(thumb,size=0x64) addr:0x020ca0d0
_ZN32AdventureModeManager_174_Base_10D1Ev kind:function(thumb,size=0xc) addr:0x020ca134
_ZN29AdventureModeManager_174_Base19func_ov024_020c88f0Ev kind:function(thumb,size=0x23c) addr:0x020ca140
_ZN29AdventureModeManager_174_Base19func_ov024_020c8b2cEv kind:function(thumb,size=0x1d4) addr:0x020ca37c
_ZN32AdventureModeManager_174_Base_10D0Ev kind:function(arm,size=0x1c) addr:0x020ca550
_ZN29AdventureModeManager_174_BaseD1Ev kind:function(arm,size=0x20) addr:0x020ca56c
_ZN29AdventureModeManager_174_BaseD0Ev kind:function(arm,size=0x28) addr:0x020ca58c
_ZN24AdventureModeManager_174C1EP23GameModeManagerBase_104 kind:function(thumb,size=0x2c) addr:0x020ca5b4
_ZN24AdventureModeManager_1748vfunc_08Ei kind:function(thumb,size=0x58) addr:0x020ca5e0
_ZN24AdventureModeManager_1748vfunc_0CEi kind:function(thumb,size=0x48) addr:0x020ca638
_ZN24AdventureModeManager_1748vfunc_10Eii kind:function(thumb,size=0xac) addr:0x020ca680
_ZN24AdventureModeManager_1748vfunc_18Ei kind:function(thumb,size=0x6c) addr:0x020ca72c
_ZN24AdventureModeManager_1748vfunc_1CEi kind:function(thumb,size=0x40) addr:0x020ca798
_ZN24AdventureModeManager_1748vfunc_20Eii kind:function(thumb,size=0xc0) addr:0x020ca7d8
_ZN24AdventureModeManager_1748vfunc_24Ev kind:function(thumb,size=0x2) addr:0x020ca898
_ZN24AdventureModeManager_174D1Ev kind:function(arm,size=0x20) addr:0x020ca89c
_ZN24AdventureModeManager_174D0Ev kind:function(arm,size=0x28) addr:0x020ca8bc
_ZN29AdventureModeManager_178_BaseC2EP23GameModeManagerBase_104 kind:function(thumb,size=0x14) addr:0x020ca8e4
_ZN29AdventureModeManager_178_Base8vfunc_08Ei kind:function(thumb,size=0x2c) addr:0x020ca8f8
_ZN29AdventureModeManager_178_Base8vfunc_0CEi kind:function(thumb,size=0x1c) addr:0x020ca924
_ZN29AdventureModeManager_178_Base8vfunc_18Ei kind:function(thumb,size=0x2c) addr:0x020ca940
_ZN29AdventureModeManager_178_Base8vfunc_1CEi kind:function(thumb,size=0x1c) addr:0x020ca96c
_ZN29AdventureModeManager_178_BaseD1Ev kind:function(arm,size=0x20) addr:0x020ca988
_ZN29AdventureModeManager_178_BaseD0Ev kind:function(arm,size=0x28) addr:0x020ca9a8
_ZN24AdventureModeManager_178C1EP23GameModeManagerBase_104 kind:function(thumb,size=0x2c) addr:0x020ca9d0
_ZN24AdventureModeManager_1788vfunc_10Eii kind:function(thumb,size=0x24) addr:0x020ca9fc
_ZN24AdventureModeManager_1788vfunc_20Eii kind:function(thumb,size=0x24) addr:0x020caa20
_ZN24AdventureModeManager_178D1Ev kind:function(arm,size=0x20) addr:0x020caa44
_ZN24AdventureModeManager_178D0Ev kind:function(arm,size=0x28) addr:0x020caa64
_ZN27AdventureModeManager_180_188vfunc_0CEv kind:function(thumb,size=0x10) addr:0x020caa8c
_ZN24AdventureModeManager_180C1EP23GameModeManagerBase_104 kind:function(thumb,size=0x50) addr:0x020caa9c
_ZN27AdventureModeManager_180_18D1Ev kind:function(thumb,size=0xc) addr:0x020caaec
_ZN24AdventureModeManager_180D1Ev kind:function(thumb,size=0x14) addr:0x020caaf8
_ZN24AdventureModeManager_180D0Ev kind:function(thumb,size=0x1a) addr:0x020cab0c
_ZN24AdventureModeManager_1808vfunc_08Ei kind:function(thumb,size=0x64) addr:0x020cab28
_ZN24AdventureModeManager_1808vfunc_0CEi kind:function(thumb,size=0x90) addr:0x020cab8c
_ZN24AdventureModeManager_1808vfunc_10Eii kind:function(thumb,size=0x64) addr:0x020cac1c
_ZN24AdventureModeManager_18019func_ov024_020c9430Eii kind:function(thumb,size=0x24) addr:0x020cac80
_ZN24AdventureModeManager_1808vfunc_18Ei kind:function(thumb,size=0x30) addr:0x020caca4
_ZN24AdventureModeManager_1808vfunc_1CEi kind:function(thumb,size=0x78) addr:0x020cacd4
_ZN24AdventureModeManager_1808vfunc_20Eii kind:function(thumb,size=0x7c) addr:0x020cad4c
_ZN24AdventureModeManager_1808vfunc_24Ev kind:function(thumb,size=0x2) addr:0x020cadc8
_ZN24AdventureModeManager_18019func_ov024_020c957cEv kind:function(thumb,size=0x48) addr:0x020cadcc
_ZN24AdventureModeManager_18019func_ov024_020c95c4Ev kind:function(thumb,size=0x48) addr:0x020cae14
_ZN27AdventureModeManager_180_18D0Ev kind:function(arm,size=0x1c) addr:0x020cae5c
_ZN24AdventureModeManager_184C1EP23GameModeManagerBase_104 kind:function(thumb,size=0x30) addr:0x020cae78
_ZN24AdventureModeManager_184D1Ev kind:function(thumb,size=0xc) addr:0x020caea8
_ZN24AdventureModeManager_184D0Ev kind:function(thumb,size=0x12) addr:0x020caeb4
_ZN24AdventureModeManager_1848vfunc_08Ei kind:function(thumb,size=0x20) addr:0x020caec8
_ZN24AdventureModeManager_1848vfunc_0CEi kind:function(thumb,size=0xf8) addr:0x020caee8
_ZN24AdventureModeManager_1848vfunc_10Eii kind:function(thumb,size=0x8) addr:0x020cafe0
_ZN24AdventureModeManager_1848vfunc_14Ei kind:function(thumb,size=0x2) addr:0x020cafe8
_ZN24AdventureModeManager_18419func_ov024_020c979cEi kind:function(thumb,size=0x94) addr:0x020cafec
_ZN24AdventureModeManager_1848vfunc_18Ei kind:function(thumb,size=0x7c) addr:0x020cb080
_ZN24AdventureModeManager_1848vfunc_1CEi kind:function(thumb,size=0x60) addr:0x020cb0fc
_ZN24AdventureModeManager_1848vfunc_20Eii kind:function(thumb,size=0x5c) addr:0x020cb15c
_ZN24AdventureModeManager_1848vfunc_24Ev kind:function(thumb,size=0x8) addr:0x020cb1b8
_ZN27AdventureModeManager_18C_14C1Ev kind:function(thumb,size=0x14) addr:0x020cb1c0
_ZN27AdventureModeManager_18C_148vfunc_0CEv kind:function(thumb,size=0x10) addr:0x020cb1d4
_ZN27AdventureModeManager_18C_148vfunc_10Ev kind:function(thumb,size=0x10) addr:0x020cb1e4
_ZN24AdventureModeManager_18CC1EP23GameModeManagerBase_104 kind:function(thumb,size=0x68) addr:0x020cb1f4
_ZN27AdventureModeManager_18C_14D1Ev kind:function(thumb,size=0xc) addr:0x020cb25c
_ZN24AdventureModeManager_18CD1Ev kind:function(thumb,size=0x14) addr:0x020cb268
_ZN24AdventureModeManager_18CD0Ev kind:function(thumb,size=0x1a) addr:0x020cb27c
_ZN24AdventureModeManager_18C8vfunc_08Ei kind:function(thumb,size=0x32) addr:0x020cb298
_ZN24AdventureModeManager_18C8vfunc_0CEi kind:function(thumb,size=0xf0) addr:0x020cb2cc
_ZN24AdventureModeManager_18C8vfunc_10Eii kind:function(thumb,size=0x100) addr:0x020cb3bc
_ZN24AdventureModeManager_18C19func_ov024_020c9c6cEv kind:function(thumb,size=0xb4) addr:0x020cb4bc
_ZN24AdventureModeManager_18C8vfunc_14Ei kind:function(thumb,size=0x10) addr:0x020cb570
_ZN24AdventureModeManager_18C8vfunc_18Ei kind:function(thumb,size=0xac) addr:0x020cb580
_ZN24AdventureModeManager_18C8vfunc_1CEi kind:function(thumb,size=0x88) addr:0x020cb62c
_ZN24AdventureModeManager_18C8vfunc_20Eii kind:function(thumb,size=0x1c4) addr:0x020cb6b4
_ZN24AdventureModeManager_18C8vfunc_24Ev kind:function(thumb,size=0xa) addr:0x020cb878
_ZN24AdventureModeManager_18C19func_ov024_020ca034Ev kind:function(thumb,size=0x34) addr:0x020cb884
_ZN24AdventureModeManager_18C19func_ov024_020ca068Ei kind:function(thumb,size=0xc) addr:0x020cb8b8
_ZN24AdventureModeManager_18C19func_ov024_020ca074Ev kind:function(thumb,size=0x6) addr:0x020cb8c4
_ZN27AdventureModeManager_18C_14D0Ev kind:function(arm,size=0x1c) addr:0x020cb8cc
_ZN27AdventureModeManager_190_148vfunc_0CEv kind:function(thumb,size=0x10) addr:0x020cb8e8
_ZN27AdventureModeManager_190_388vfunc_0CEv kind:function(thumb,size=0xc) addr:0x020cb8f8
_ZN24AdventureModeManager_190C1EP23GameModeManagerBase_104 kind:function(thumb,size=0x54) addr:0x020cb904
_ZN27AdventureModeManager_190_14D1Ev kind:function(thumb,size=0xc) addr:0x020cb958
_ZN27AdventureModeManager_190_38D1Ev kind:function(thumb,size=0xc) addr:0x020cb964
_ZN24AdventureModeManager_1908vfunc_08Ei kind:function(thumb,size=0xc) addr:0x020cb970
_ZN24AdventureModeManager_1908vfunc_0CEi kind:function(thumb,size=0x20) addr:0x020cb97c
_ZN24AdventureModeManager_1908vfunc_10Eii kind:function(thumb,size=0x3c) addr:0x020cb99c
_ZN24AdventureModeManager_1908vfunc_18Ei kind:function(thumb,size=0xc) addr:0x020cb9d8
_ZN24AdventureModeManager_1908vfunc_1CEi kind:function(thumb,size=0x20) addr:0x020cb9e4
_ZN24AdventureModeManager_1908vfunc_20Eii kind:function(thumb,size=0x68) addr:0x020cba04
_ZN24AdventureModeManager_19019func_ov024_020ca21cEv kind:function(thumb,size=0x30) addr:0x020cba6c
_ZN24AdventureModeManager_19019func_ov024_020ca24cEi kind:function(thumb,size=0x34) addr:0x020cba9c
_ZN24AdventureModeManager_19019func_ov024_020ca280Ev kind:function(thumb,size=0x10) addr:0x020cbad0
_ZN27AdventureModeManager_190_14D0Ev kind:function(arm,size=0x1c) addr:0x020cbae0
_ZN27AdventureModeManager_190_38D0Ev kind:function(arm,size=0x1c) addr:0x020cbafc
_ZN24AdventureModeManager_190D1Ev kind:function(arm,size=0x28) addr:0x020cbb18
_ZN24AdventureModeManager_190D0Ev kind:function(arm,size=0x30) addr:0x020cbb40
_ZN30AdventureModeManager_15C_20_00C1Eb kind:function(arm,size=0x16c) addr:0x020cbb70
_ZN30AdventureModeManager_15C_20_0019func_ov024_020ca48cEv kind:function(arm,size=0x13c) addr:0x020cbcdc
_ZN30AdventureModeManager_15C_20_0019func_ov024_020ca5c8Ev kind:function(arm,size=0x90) addr:0x020cbe18
_ZN30AdventureModeManager_15C_20_0019func_ov024_020ca658Ev kind:function(arm,size=0x50) addr:0x020cbea8
_ZN30AdventureModeManager_15C_20_008vfunc_08EP5InputP12TouchControl kind:function(arm,size=0x2d0) addr:0x020cbef8
_ZN30AdventureModeManager_15C_20_00D1Ev kind:function(arm,size=0x6c) addr:0x020cc1c8
_ZN30AdventureModeManager_15C_20_00D0Ev kind:function(arm,size=0x74) addr:0x020cc234
_ZN23UnkAdventureModeSystem1C2EP5Vec2sS1_b kind:function(arm,size=0xa4) addr:0x020cc2a8
_ZN23UnkAdventureModeSystem1C2Eb kind:function(arm,size=0x5c) addr:0x020cc34c
_ZN23UnkAdventureModeSystem119func_ov024_020cab58EP5Vec2sS1_ kind:function(arm,size=0x4c) addr:0x020cc3a8
_ZN23UnkAdventureModeSystem119func_ov024_020caba4Ei kind:function(arm,size=0x1d8) addr:0x020cc3f4
_ZN23UnkAdventureModeSystem119func_ov024_020cad7cEi kind:function(arm,size=0x24) addr:0x020cc5cc
_ZN24UnkStruct_ov024_020d86946CreateEP23GameModeManagerBase_004 kind:function(arm,size=0x2c) addr:0x020cc5f0
_ZN24UnkStruct_ov024_020d8694C1EP23GameModeManagerBase_004 kind:function(arm,size=0xec) addr:0x020cc61c
_ZN24UnkStruct_ov024_020d8694D1Ev kind:function(arm,size=0x7c) addr:0x020cc708
_ZN24UnkStruct_ov024_020d8694D0Ev kind:function(arm,size=0x84) addr:0x020cc784
_ZN24UnkStruct_ov024_020d869419func_ov024_020cafb8Ei kind:function(arm,size=0x20) addr:0x020cc808
_ZN24UnkStruct_ov024_020d869419func_ov024_020cafd8Ei kind:function(arm,size=0x28) addr:0x020cc828
_ZN24UnkStruct_ov024_020d869419func_ov024_020cb000Ei kind:function(arm,size=0x20) addr:0x020cc850
_ZN24UnkStruct_ov024_020d869419func_ov024_020cb020Ei kind:function(arm,size=0x20) addr:0x020cc870
_ZN24UnkStruct_ov024_020d869419func_ov024_020cb040Ev kind:function(arm,size=0x14) addr:0x020cc890
_ZN24UnkStruct_ov024_020d869419func_ov024_020cb054EiP5Vec2sS1_ kind:function(arm,size=0x58) addr:0x020cc8a4
_ZN24UnkStruct_ov024_020d869412GetMessageIDEi kind:function(arm,size=0x18) addr:0x020cc8fc
_ZN24UnkStruct_ov024_020d869419func_ov024_020cb0c4Ev kind:function(arm,size=0x30) addr:0x020cc914
_ZN24UnkStruct_ov024_020d86948vfunc_08EP5InputP12TouchControl kind:function(arm,size=0x3c) addr:0x020cc944
_ZN24UnkStruct_ov024_020d86948vfunc_10EPc kind:function(arm,size=0x48) addr:0x020cc980
_ZN24UnkStruct_ov024_020d869419func_ov024_020cb178Ei kind:function(arm,size=0x1c) addr:0x020cc9c8
_ZN24UnkStruct_ov024_020d869419func_ov024_020cb194Es kind:function(arm,size=0x38) addr:0x020cc9e4
_ZN8InstanceI24UnkStruct_ov024_020d8694EC2Ev kind:function(arm,size=0x10) addr:0x020cca1c
_ZN8InstanceI24UnkStruct_ov024_020d8694ED2Ev kind:function(arm,size=0x14) addr:0x020cca2c
_ZN19UnkTitleCardSystem1C2EP23GameModeManagerBase_004 kind:function(arm,size=0x84) addr:0x020cca40
_ZN19UnkTitleCardSystem119func_ov024_020cb274EP34UnkSystem2_UnkSubSystem11_Derived2P32UnkSystem2_UnkSubSystem5_Base_10 kind:function(arm,size=0xc) addr:0x020ccac4
_ZN19UnkTitleCardSystem119func_ov024_020cb280Ev kind:function(arm,size=0x4) addr:0x020ccad0
_ZN19UnkTitleCardSystem119func_ov024_020cb284Eii kind:function(arm,size=0x20c) addr:0x020ccad4
_ZN19UnkTitleCardSystem119func_ov024_020cb490EP14UnkDataStruct2Pi kind:function(arm,size=0x11c) addr:0x020ccce0
_ZN19UnkTitleCardSystem18vfunc_08Ev kind:function(arm,size=0x8) addr:0x020ccdfc
_ZN19UnkTitleCardSystem18vfunc_0CEv kind:function(arm,size=0x4) addr:0x020cce04
_ZN19UnkTitleCardSystem18vfunc_10Ev kind:function(arm,size=0x4) addr:0x020cce08
_ZN19UnkTitleCardSystem119func_ov024_020cb5bcEv kind:function(arm,size=0x3c) addr:0x020cce0c
_ZN19UnkTitleCardSystem18vfunc_00Ev kind:function(arm,size=0x4) addr:0x020cce48
_ZN19UnkTitleCardSystem18vfunc_04EPc kind:function(arm,size=0x58) addr:0x020cce4c
_ZN19UnkTitleCardSystem119func_ov024_020cb654EPcP14UnkDataStruct1 kind:function(arm,size=0x25c) addr:0x020ccea4
_ZN19UnkTitleCardSystem18vfunc_14Ev kind:function(arm,size=0x14) addr:0x020cd100
_ZN19UnkTitleCardSystem18vfunc_18Ev kind:function(arm,size=0x8) addr:0x020cd114
_ZN28UnkTitleCardSystem1_Derived1C2EP23GameModeManagerBase_004 kind:function(arm,size=0x38) addr:0x020cd11c
_ZN28UnkTitleCardSystem1_Derived18vfunc_1CEjib kind:function(arm,size=0x114) addr:0x020cd154
_ZN28UnkTitleCardSystem1_Derived18vfunc_08Ev kind:function(arm,size=0x80) addr:0x020cd268
_ZN28UnkTitleCardSystem1_Derived18vfunc_0CEv kind:function(arm,size=0x338) addr:0x020cd2e8
_ZN28UnkTitleCardSystem1_Derived18vfunc_10Ev kind:function(arm,size=0xc4) addr:0x020cd620
_ZN28UnkTitleCardSystem1_Derived119func_ov024_020cbe94Ei kind:function(arm,size=0x24) addr:0x020cd6e4
_ZN28UnkTitleCardSystem1_Derived119func_ov024_020cbeb8Ev kind:function(arm,size=0xbc) addr:0x020cd708
_ZN28UnkTitleCardSystem1_Derived119func_ov024_020cbf74Ei kind:function(arm,size=0x24) addr:0x020cd7c4
_ZN28UnkTitleCardSystem1_Derived119func_ov024_020cbf98Ev kind:function(arm,size=0xc4) addr:0x020cd7e8
_ZN28UnkTitleCardSystem1_Derived119func_ov024_020cc05cEj kind:function(arm,size=0x2c) addr:0x020cd8ac
_ZN28UnkTitleCardSystem1_Derived119func_ov024_020cc088Eb kind:function(arm,size=0x2c) addr:0x020cd8d8
_ZN28UnkTitleCardSystem1_Derived119func_ov024_020cc0b4Ev kind:function(arm,size=0x8c) addr:0x020cd904
_ZN28UnkTitleCardSystem1_Derived18vfunc_18Ev kind:function(arm,size=0x14) addr:0x020cd990
_ZN28UnkStruct_ov024_020d8694_01CC1EP23GameModeManagerBase_004 kind:function(arm,size=0x30) addr:0x020cd9a4
_ZN28UnkStruct_ov024_020d8694_01C8vfunc_1CEjib kind:function(arm,size=0xa8) addr:0x020cd9d4
_ZN28UnkStruct_ov024_020d8694_01C8vfunc_00Ev kind:function(arm,size=0x22c) addr:0x020cda7c
_ZN28UnkStruct_ov024_020d8694_188C1EP23GameModeManagerBase_004 kind:function(arm,size=0x28) addr:0x020cdca8
_ZN28UnkStruct_ov024_020d8694_1888vfunc_1CEjib kind:function(arm,size=0x54) addr:0x020cdcd0
_ZN28UnkStruct_ov024_020d8694_1888vfunc_00Ev kind:function(arm,size=0x1e0) addr:0x020cdd24
_ZN28UnkStruct_ov024_020d8694_1888vfunc_04EPc kind:function(arm,size=0x88) addr:0x020cdf04
_ZN28UnkStruct_ov024_020d8694_1888vfunc_14Ev kind:function(arm,size=0x30) addr:0x020cdf8c
_ZN28UnkStruct_ov024_020d8694_2FCC1EP23GameModeManagerBase_004 kind:function(arm,size=0x20) addr:0x020cdfbc
_ZN28UnkStruct_ov024_020d8694_2FC8vfunc_00Ev kind:function(arm,size=0x364) addr:0x020cdfdc
_ZN28UnkStruct_ov024_020d8694_2FC8vfunc_10Ev kind:function(arm,size=0x20) addr:0x020ce340
_ZN28UnkStruct_ov024_020d8694_2FC19func_ov024_020ccb10EiP5Vec2sS1_ kind:function(arm,size=0x17c) addr:0x020ce360
_ZN28UnkStruct_ov024_020d8694_2FC8vfunc_08Ev kind:function(arm,size=0x8) addr:0x020ce4dc
_ZN28UnkStruct_ov024_020d8694_2FC8vfunc_0CEv kind:function(arm,size=0x88) addr:0x020ce4e4
_ZN18UnkStruct_020d86986CreateEv kind:function(arm,size=0x24) addr:0x020ce56c
_ZN18UnkStruct_020d8698C1Ev kind:function(arm,size=0x19c) addr:0x020ce590
_ZN18UnkStruct_020d8698D1Ev kind:function(arm,size=0xd8) addr:0x020ce72c
_ZN18UnkStruct_020d8698D0Ev kind:function(arm,size=0xe0) addr:0x020ce804
_ZN18UnkStruct_020d869819func_ov024_020cd094Ev kind:function(arm,size=0xbc) addr:0x020ce8e4
_ZN18UnkStruct_020d869819func_ov024_020cd150Ev kind:function(arm,size=0x94) addr:0x020ce9a0
_ZN18UnkStruct_020d86988vfunc_08EP5InputP12TouchControl kind:function(arm,size=0x98) addr:0x020cea34
_ZN18UnkStruct_020d86988vfunc_10EPc kind:function(arm,size=0xcc) addr:0x020ceacc
_ZN18UnkStruct_020d869819func_ov024_020cd348Ehh kind:function(arm,size=0x10) addr:0x020ceb98
_ZN18UnkStruct_020d869819func_ov024_020cd358Eh kind:function(arm,size=0x10) addr:0x020ceba8
_ZN18UnkStruct_020d869819func_ov024_020cd368Ebb kind:function(arm,size=0x3c) addr:0x020cebb8
_ZN18UnkStruct_020d869819func_ov024_020cd3a4Ev kind:function(arm,size=0x2c) addr:0x020cebf4
_ZN18UnkStruct_020d869819func_ov024_020cd3d0Ev kind:function(arm,size=0x10) addr:0x020cec20
_ZN18UnkStruct_020d869819func_ov024_020cd3e0Eb kind:function(arm,size=0x10) addr:0x020cec30
_ZN18UnkStruct_020d869819func_ov024_020cd3f0Eb kind:function(arm,size=0x10) addr:0x020cec40
_ZN18UnkStruct_020d869819func_ov024_020cd400Ev kind:function(arm,size=0x10) addr:0x020cec50
_ZN18UnkStruct_020d869819func_ov024_020cd410Ev kind:function(arm,size=0x10) addr:0x020cec60
_ZN18UnkStruct_020d869819func_ov024_020cd420Ev kind:function(arm,size=0x38) addr:0x020cec70
_ZN18UnkStruct_020d869819func_ov024_020cd458Ejb kind:function(arm,size=0x4c) addr:0x020ceca8
_ZN18UnkStruct_020d869819func_ov024_020cd4a4Eb kind:function(arm,size=0x40) addr:0x020cecf4
_ZN18UnkStruct_020d869819func_ov024_020cd4e4Etb kind:function(arm,size=0xdc) addr:0x020ced34
_ZN18UnkStruct_020d869819func_ov024_020cd5c0Et kind:function(arm,size=0x44) addr:0x020cee10
_ZN18UnkStruct_020d869819func_ov024_020cd604Ev kind:function(arm,size=0x6c) addr:0x020cee54
_ZN21UnkStruct_020d8698_1CC1Ev kind:function(arm,size=0xf8) addr:0x020ceec0
_ZN21UnkStruct_020d8698_1C19func_ov024_020cd768Ev kind:function(arm,size=0xc) addr:0x020cefb8
_ZN21UnkStruct_020d8698_1C19func_ov024_020cd774Ev kind:function(arm,size=0x27c) addr:0x020cefc4
_ZN21UnkStruct_020d8698_1C19func_ov024_020cd9f0Ev kind:function(arm,size=0xbc) addr:0x020cf240
_ZN21UnkStruct_020d8698_1C19func_ov024_020cdaacEv kind:function(arm,size=0x290) addr:0x020cf2fc
_ZN21UnkStruct_020d8698_1C19func_ov024_020cdd3cEhh kind:function(arm,size=0x144) addr:0x020cf58c
_ZN21UnkStruct_020d8698_1C19func_ov024_020cde54Eh kind:function(arm,size=0x74) addr:0x020cf6d0
_ZN21UnkStruct_020d8698_1C19func_ov024_020cdec8Ev kind:function(arm,size=0x110) addr:0x020cf744
_ZN21UnkStruct_020d8698_1C19func_ov024_020cdfd8Ev kind:function(arm,size=0x2b8) addr:0x020cf854
_ZN21UnkStruct_020d8698_1C19func_ov024_020ce218Ev kind:function(arm,size=0x48) addr:0x020cfb0c
_ZN21UnkStruct_020d8698_1C19func_ov024_020ce260Ev kind:function(arm,size=0x48) addr:0x020cfb54
_ZN21UnkStruct_020d8698_1C19func_ov024_020ce2a8Ev kind:function(arm,size=0x24) addr:0x020cfb9c
_ZN21UnkStruct_020d8698_24C1Ev kind:function(arm,size=0x24c) addr:0x020cfbc0
_ZN21UnkStruct_020d8698_2419func_ov024_020ce518Ev kind:function(arm,size=0x58) addr:0x020cfe0c
_ZN21UnkStruct_020d8698_2419func_ov024_020ce570Ev kind:function(arm,size=0x5c) addr:0x020cfe64
_ZN21UnkStruct_020d8698_2419func_ov024_020ce5ccEv kind:function(arm,size=0x2c0) addr:0x020cfec0
_ZN21UnkStruct_020d8698_2419func_ov024_020ce88cEPc kind:function(arm,size=0x104) addr:0x020d0180
_ZN21UnkStruct_020d8698_2419func_ov024_020ce990Ebb kind:function(arm,size=0x1c) addr:0x020d0284
_ZN21UnkStruct_020d8698_2419func_ov024_020ce9acEv kind:function(arm,size=0x50) addr:0x020d02a0
_ZN21UnkStruct_020d8698_2CC1Ev kind:function(arm,size=0x358) addr:0x020d02f0
_ZN21UnkStruct_020d8698_2C19func_ov024_020ced54Ev kind:function(arm,size=0x54) addr:0x020d0648
_ZN21UnkStruct_020d8698_2C19func_ov024_020ceda8Ev kind:function(arm,size=0xb0) addr:0x020d069c
_ZN21UnkStruct_020d8698_2C19func_ov024_020cee58Ev kind:function(arm,size=0xc) addr:0x020d074c
_ZN21UnkStruct_020d8698_2C19func_ov024_020cee64Ev kind:function(arm,size=0x4c) addr:0x020d0758
_ZN21UnkStruct_020d8698_2C19func_ov024_020cee84Ev kind:function(arm,size=0xe8) addr:0x020d07a4
_ZN21UnkStruct_020d8698_2C19func_ov024_020cef58Ev kind:function(arm,size=0x360) addr:0x020d088c
_ZN21UnkStruct_020d8698_2C19func_ov024_020cf2b8EPc kind:function(arm,size=0x1dc) addr:0x020d0bec
_ZN21UnkStruct_020d8698_2C19func_ov024_020cf494Eb kind:function(arm,size=0x30) addr:0x020d0dc8
_ZN21UnkStruct_020d8698_2C19func_ov024_020cf4c4Ev kind:function(arm,size=0x50) addr:0x020d0df8
_ZN21UnkStruct_020d8698_2C19func_ov024_020cf514Ev kind:function(arm,size=0x28) addr:0x020d0e48
_ZN21UnkStruct_020d8698_2C19func_ov024_020cf53cEb kind:function(arm,size=0x34) addr:0x020d0e70
_ZN21UnkStruct_020d8698_2C19func_ov024_020cf570Ev kind:function(arm,size=0x14) addr:0x020d0ea4
_ZN21UnkStruct_020d8698_2C19func_ov024_020cf584Ev kind:function(arm,size=0x24) addr:0x020d0eb8
_ZN21UnkStruct_020d8698_2C19func_ov024_020cf5a8Eb kind:function(arm,size=0x38) addr:0x020d0edc
_ZN21UnkStruct_020d8698_34C1Ev kind:function(arm,size=0xb8) addr:0x020d0f14
_ZN21UnkStruct_020d8698_3419func_ov024_020cf698Ev kind:function(arm,size=0x4c) addr:0x020d0fcc
_ZN21UnkStruct_020d8698_3419func_ov024_020cf6e4Ev kind:function(arm,size=0x40) addr:0x020d1018
_ZN21UnkStruct_020d8698_3419func_ov024_020cf724Ev kind:function(arm,size=0xd0) addr:0x020d1058
_ZN21UnkStruct_020d8698_3CC1Ev kind:function(arm,size=0x38) addr:0x020d1128
_ZN21UnkStruct_020d8698_3C19func_ov024_020cf82cEv kind:function(arm,size=0x5c) addr:0x020d1160
_ZN21UnkStruct_020d8698_3C19func_ov024_020cf888Ev kind:function(arm,size=0x4) addr:0x020d11bc
_ZN21UnkStruct_020d8698_3C19func_ov024_020cf88cEv kind:function(arm,size=0xb8) addr:0x020d11c0
_ZN8InstanceI18UnkStruct_020d8698EC2Ev kind:function(arm,size=0x10) addr:0x020d1278
_ZN8InstanceI18UnkStruct_020d8698ED2Ev kind:function(arm,size=0x14) addr:0x020d1288
_ZN21UnkStruct_027e0cf8_00C1Ev kind:function(arm,size=0x68) addr:0x020d129c
_ZN21UnkStruct_027e0cf8_00D1Ev kind:function(arm,size=0x4) addr:0x020d1304
_ZN21UnkStruct_027e0cf8_0019func_ov024_020cf9d4EP27UnkStruct_027e0cf8_00_18_00 kind:function(arm,size=0x1a8) addr:0x020d1308
_ZN21UnkStruct_027e0cf8_0019func_ov024_020cfb7cEP14UnkDataStruct4P5Vec2sitii kind:function(arm,size=0x1d8) addr:0x020d14b0
_ZN21UnkStruct_027e0cf8_0019func_ov024_020cfd54Eiiii kind:function(arm,size=0xd0) addr:0x020d1688
_ZN21UnkStruct_027e0cf8_0019func_ov024_020cfe24Es kind:function(arm,size=0x48) addr:0x020d1758
_ZN21UnkStruct_027e0cf8_0019func_ov024_020cfe6cEiiii kind:function(arm,size=0x28) addr:0x020d17a0
_ZN21UnkStruct_027e0cf8_0019func_ov024_020cfe94Ei kind:function(arm,size=0x3c) addr:0x020d17c8
_ZN21UnkStruct_027e0cf8_0019func_ov024_020cfed0Es kind:function(arm,size=0x4c) addr:0x020d1804
_ZN24UnkStruct_027e0cf8_0C_0019func_ov024_020cff1cEv kind:function(arm,size=0x2c) addr:0x020d1850
_ZN21UnkStruct_027e0cf8_0CC1Ev kind:function(arm,size=0x40) addr:0x020d187c
_ZN21UnkStruct_027e0cf8_0CD1Ev kind:function(arm,size=0x4) addr:0x020d18bc
_ZN21UnkStruct_027e0cf8_0C19func_ov024_020cff8cEP14UnkDataStruct4P5Vec2s kind:function(arm,size=0x78) addr:0x020d18c0
_ZN21UnkStruct_027e0cf8_0C19func_ov024_020d0004Ev kind:function(arm,size=0x28) addr:0x020d1938
_ZN21UnkStruct_027e0cf8_0C19func_ov024_020d002cEPK14UnkDataStruct4 kind:function(arm,size=0x1b4) addr:0x020d1960
_ZN21UnkStruct_027e0cf8_0C19func_ov024_020d01c0EPK14UnkDataStruct4 kind:function(arm,size=0x120) addr:0x020d1b14
_ZN21UnkStruct_027e0cf8_0C19func_ov024_020d02e0EPiS0_i kind:function(arm,size=0x60) addr:0x020d1c34
_ZN21UnkStruct_027e0cf8_0C19func_ov024_020d0340EP5Vec2si kind:function(arm,size=0xb8) addr:0x020d1c94
_ZN21UnkStruct_027e0cf8_0C19func_ov024_020d03f8EP5Vec2s kind:function(arm,size=0x24) addr:0x020d1d4c
_ZN21UnkStruct_027e0cf8_0C19func_ov024_020d041cEP5Vec2s kind:function(arm,size=0xf4) addr:0x020d1d70
_ZN21UnkStruct_027e0cf8_0C19func_ov024_020d0510Es kind:function(arm,size=0xa0) addr:0x020d1e64
_ZN21UnkStruct_027e0cf8_0C19func_ov024_020d05d0Eib kind:function(arm,size=0x3c) addr:0x020d1f04
_ZN29AdventureModeManager_1B8_BaseC2EhbRK32AdventureModeManager_1B8_Base_1Cbb kind:function(arm,size=0x94) addr:0x020d1f40
_ZN29AdventureModeManager_1B8_BaseD2Ev kind:function(arm,size=0x18) addr:0x020d1fd4
_ZN29AdventureModeManager_1B8_Base19func_ov024_020d0698Ev kind:function(arm,size=0x38) addr:0x020d1fec
_ZN29AdventureModeManager_1B8_Base19func_ov024_020d06d0Ev kind:function(arm,size=0x5c) addr:0x020d2024
_ZN29AdventureModeManager_1B8_Base19func_ov024_020d072cEPc kind:function(arm,size=0x18) addr:0x020d2080
_ZN29AdventureModeManager_1B8_Base19func_ov024_020d0744Eiiiihh kind:function(arm,size=0x1e0) addr:0x020d2098
_ZN29AdventureModeManager_1B8_Base19func_ov024_020d0924Eiihh kind:function(arm,size=0x140) addr:0x020d2278
_ZN29AdventureModeManager_1B8_Base19func_ov024_020d0a64Ev kind:function(arm,size=0x238) addr:0x020d23b8
_ZN29AdventureModeManager_1B8_Base13TryLoadBGCharEPvjj kind:function(arm,size=0x118) addr:0x020d25f0
_ZN29AdventureModeManager_1B8_Base19func_ov024_020d0db4Eii kind:function(arm,size=0x44) addr:0x020d2708
_ZN29AdventureModeManager_1B8_Base19func_ov024_020d0df8Eii kind:function(arm,size=0x6c) addr:0x020d274c
_ZN29AdventureModeManager_1B8_Base19func_ov024_020d0e64EPvj kind:function(arm,size=0x34) addr:0x020d27b8
_ZN29AdventureModeManager_1B8_Base19func_ov024_020d0e98Ev kind:function(arm,size=0x28) addr:0x020d27ec
_ZN29AdventureModeManager_1B8_Base19func_ov024_020d0ec0EPiib kind:function(arm,size=0x4c) addr:0x020d2814
_ZN29AdventureModeManager_1B8_Base19func_ov024_020d0f0cEPii kind:function(arm,size=0x20) addr:0x020d2860
_ZN29AdventureModeManager_1B8_Base19func_ov024_020d0f2cEii kind:function(arm,size=0x24) addr:0x020d2880
_ZN24AdventureModeManager_1B8C1Ehbb kind:function(arm,size=0x50) addr:0x020d28a4
_ZN24AdventureModeManager_1B8D1Ev kind:function(arm,size=0x14) addr:0x020d28f4
_ZN24AdventureModeManager_1B819func_ov024_020d0fb4EiihhP12TouchControl kind:function(arm,size=0x198) addr:0x020d2908
_ZN24AdventureModeManager_1B819func_ov024_020d114cEv kind:function(arm,size=0x14) addr:0x020d2aa0
_ZN24AdventureModeManager_1B819func_ov024_020d1160Ev kind:function(arm,size=0x204) addr:0x020d2ab4
_ZN24AdventureModeManager_1B819func_ov024_020d1364Ev kind:function(arm,size=0x68) addr:0x020d2cb8
_ZN24AdventureModeManager_1B819func_ov024_020d13ccEi kind:function(arm,size=0xdc) addr:0x020d2d20
_ZN24AdventureModeManager_1B819func_ov024_020d14a8EP32AdventureModeManager_1B8_Base_1CiPi kind:function(arm,size=0xbc) addr:0x020d2dfc
_ZN24AdventureModeManager_1B819func_ov024_020d1564EPK32AdventureModeManager_1B8_Base_1CiPih kind:function(arm,size=0xb0) addr:0x020d2eb8
_ZN24AdventureModeManager_1B819func_ov024_020d1614EPv kind:function(arm,size=0x24) addr:0x020d2f68
_ZN24AdventureModeManager_1B819func_ov024_020d1638Ev kind:function(arm,size=0x20) addr:0x020d2f8c
_ZN24UnkStruct_ov024_020d86a06CreateEv kind:function(arm,size=0x24) addr:0x020d2fac
_ZN24UnkStruct_ov024_020d86a019func_ov024_020d167cEv kind:function(arm,size=0x18) addr:0x020d2fd0
_ZN27UnkStruct_ov024_020d86a0_00C1EP24UnkStruct_ov024_020d86a0 kind:function(arm,size=0x28) addr:0x020d2fe8
_ZN27UnkStruct_ov024_020d86a0_00D1Ev kind:function(arm,size=0x14) addr:0x020d3010
_ZN27UnkStruct_ov024_020d86a0_00D0Ev kind:function(arm,size=0x1c) addr:0x020d3024
_ZN27UnkStruct_ov024_020d86a0_008vfunc_0CEv kind:function(arm,size=0x10) addr:0x020d3040
_ZN20PlayerActor_A0_38_048vfunc_00Ev kind:function(arm,size=0x80) addr:0x020d3050
_ZN20PlayerActor_A0_38_188vfunc_00Ev kind:function(arm,size=0x200) addr:0x020d30d0
_ZN17PlayerActor_A0_38C1Ev kind:function(thumb,size=0x44) addr:0x020d32d0
_ZN17PlayerActor_A0_38D1Ev kind:function(thumb,size=0x16) addr:0x020d3314
_ZN17PlayerActor_A0_3819func_ov024_020d19d8Ev kind:function(thumb,size=0x20) addr:0x020d332c
_Z20SetCreditsEndingTypes kind:function(arm,size=0x10) addr:0x020d334c
_Z20GetCreditsEndingTypev kind:function(arm,size=0x10) addr:0x020d335c
func_ov024_020d336c kind:function(arm,size=0x10) addr:0x020d336c
func_ov024_020d337c kind:function(arm,size=0x70) addr:0x020d337c
func_ov024_020d33ec kind:function(arm,size=0x20) addr:0x020d33ec
func_ov024_020d340c kind:function(arm,size=0xe0) addr:0x020d340c
func_ov024_020d1b98 kind:function(arm,size=0x48) addr:0x020d34ec
func_ov024_020d3534 kind:function(arm,size=0x5c) addr:0x020d3534
_ZNK17UnkDataStruct4_1419func_ov024_020d1c3cEP7VecFx32i kind:function(arm,size=0x48) addr:0x020d3590
func_ov024_020d35d8 kind:function(arm,size=0x44) addr:0x020d35d8
func_ov024_020d361c kind:function(arm,size=0x2c) addr:0x020d361c
func_ov024_020d3648 kind:function(arm,size=0x3c) addr:0x020d3648
func_ov024_020d1d30 kind:function(arm,size=0x48) addr:0x020d3684
func_ov024_020d36cc kind:function(arm,size=0x28) addr:0x020d36cc
func_ov024_020d36f4 kind:function(arm,size=0x28) addr:0x020d36f4
func_ov024_020d371c kind:function(arm,size=0x2c) addr:0x020d371c
func_ov024_020d3748 kind:function(arm,size=0x2c) addr:0x020d3748
func_ov024_020d3774 kind:function(arm,size=0x8c) addr:0x020d3774
func_ov024_020d3800 kind:function(arm,size=0xb4) addr:0x020d3800
func_ov024_020d38b4 kind:function(arm,size=0x10) addr:0x020d38b4
func_ov024_020d38c4 kind:function(arm,size=0x34) addr:0x020d38c4
func_ov024_020d38f8 kind:function(arm,size=0x44) addr:0x020d38f8
func_ov024_020d393c kind:function(arm,size=0x48) addr:0x020d393c
func_ov024_020d3984 kind:function(arm,size=0x5c) addr:0x020d3984
func_ov024_020d39e0 kind:function(arm,size=0xc) addr:0x020d39e0
func_ov024_020d39ec kind:function(arm,size=0x28) addr:0x020d39ec
func_ov024_020d3a14 kind:function(arm,size=0xe0) addr:0x020d3a14
func_ov024_020d3af4 kind:function(arm,size=0x38) addr:0x020d3af4
func_ov024_020d3b2c kind:function(arm,size=0x64) addr:0x020d3b2c
func_ov024_020d3b90 kind:function(arm,size=0x34) addr:0x020d3b90
func_ov024_020d3bc4 kind:function(arm,size=0x3c) addr:0x020d3bc4
func_ov024_020d3c00 kind:function(arm,size=0x74) addr:0x020d3c00
func_ov024_020d3c74 kind:function(arm,size=0x28) addr:0x020d3c74
func_ov024_020d3c9c kind:function(arm,size=0x54) addr:0x020d3c9c
_ZNK17UnkDataStruct4_1419func_ov024_020d239cEv kind:function(arm,size=0x20) addr:0x020d3cf0
_ZNK17UnkDataStruct4_1419func_ov024_020d23bcEv kind:function(arm,size=0x30) addr:0x020d3d10
func_ov024_020d3d40 kind:function(arm,size=0x50) addr:0x020d3d40
func_ov024_020d3d90 kind:function(arm,size=0xc) addr:0x020d3d90
func_ov024_020d3d9c kind:function(arm,size=0x1c) addr:0x020d3d9c
func_ov024_020d3db8 kind:function(arm,size=0x2c) addr:0x020d3db8
func_ov024_020d3de4 kind:function(arm,size=0x44) addr:0x020d3de4
func_ov024_020d24d4 kind:function(arm,size=0x44) addr:0x020d3e28
func_ov024_020d2518 kind:function(arm,size=0x4) addr:0x020d3e6c
func_ov024_020d3e70 kind:function(arm,size=0x4) addr:0x020d3e70
func_ov024_020d3e74 kind:function(arm,size=0x18) addr:0x020d3e74
func_ov024_020d2538 kind:function(arm,size=0x2c) addr:0x020d3e8c
func_ov024_020d3eb8 kind:function(arm,size=0x28) addr:0x020d3eb8
func_ov024_020d3ee0 kind:function(arm,size=0x124) addr:0x020d3ee0
func_ov024_020d4004 kind:function(arm,size=0xcc) addr:0x020d4004
func_ov024_020d40d0 kind:function(arm,size=0x50) addr:0x020d40d0
func_ov024_020d4120 kind:function(arm,size=0x40) addr:0x020d4120
func_ov024_020d4160 kind:function(arm,size=0x1a4) addr:0x020d4160
func_ov024_020d4304 kind:function(arm,size=0x68) addr:0x020d4304
func_ov024_020d436c kind:function(arm,size=0xf0) addr:0x020d436c
_ZNK14UnkDataStruct419func_ov024_020d2b08EiiP7VecFx32 kind:function(arm,size=0x38) addr:0x020d445c
func_ov024_020d4494 kind:function(arm,size=0x8c) addr:0x020d4494
func_ov024_020d4520 kind:function(arm,size=0x88) addr:0x020d4520
_ZN14UnkDataStruct419func_ov024_020d2c54EPvi kind:function(arm,size=0xa8) addr:0x020d45a8
_ZN14UnkDataStruct419func_ov024_020d2cfcEPvii kind:function(arm,size=0x364) addr:0x020d4650
func_ov024_020d49b4 kind:function(arm,size=0x4) addr:0x020d49b4
func_ov024_020d49b8 kind:function(arm,size=0x4) addr:0x020d49b8
func_ov024_020d49bc kind:function(arm,size=0x24) addr:0x020d49bc
_ZNK14UnkDataStruct419func_ov024_020d308cEPiS0_s kind:function(arm,size=0x74) addr:0x020d49e0
func_ov024_020d4a54 kind:function(arm,size=0x40) addr:0x020d4a54
func_ov024_020d4a94 kind:function(arm,size=0x18) addr:0x020d4a94
_ZN21UnkStruct_027e0cf8_0819func_ov024_020d3158Ej kind:function(arm,size=0xa0) addr:0x020d4aac
_ZN21UnkStruct_027e0cf8_08C1Ev kind:function(arm,size=0x88) addr:0x020d4b4c
_ZN21UnkStruct_027e0cf8_08D1Ev kind:function(arm,size=0x34) addr:0x020d4bd4
_ZN21UnkStruct_027e0cf8_0819func_ov024_020d32b4EPc kind:function(arm,size=0x24) addr:0x020d4c08
_ZN21UnkStruct_027e0cf8_0819func_ov024_020d32d8Ev kind:function(arm,size=0x10) addr:0x020d4c2c
_ZN21UnkStruct_027e0cf8_0819func_ov024_020d32e8EP5Vec2s kind:function(arm,size=0x3c) addr:0x020d4c3c
_ZN21UnkStruct_027e0cf8_0819func_ov024_020d3324EP14UnkDataStruct4 kind:function(arm,size=0x24) addr:0x020d4c78
_ZN21UnkStruct_027e0cf8_0819func_ov024_020d3348EP14UnkDataStruct4itii kind:function(arm,size=0x24) addr:0x020d4c9c
_ZN21UnkStruct_027e0cf8_0819func_ov024_020d336cEP14UnkDataStruct4iiii kind:function(arm,size=0xa0) addr:0x020d4cc0
_ZN21UnkStruct_027e0cf8_0819func_ov024_020d340cEv kind:function(arm,size=0x10) addr:0x020d4d60
_ZN21UnkStruct_027e0cf8_0819func_ov024_020d341cEb kind:function(arm,size=0xc) addr:0x020d4d70
_ZN21UnkStruct_027e0cf8_0819func_ov024_020d3428EPK14UnkDataStruct4ii kind:function(arm,size=0x78) addr:0x020d4d7c
_ZN21UnkStruct_027e0cf8_0819func_ov024_020d34a0EPA15_hh kind:function(arm,size=0x7c) addr:0x020d4df4
_ZN21UnkStruct_027e0cf8_0819func_ov024_020d351cEiiP7VecFx32ii kind:function(arm,size=0x154) addr:0x020d4e70
func_ov024_020d4fc4 kind:function(thumb,size=0x8c) addr:0x020d4fc4
func_ov024_020d5050 kind:function(thumb,size=0x68) addr:0x020d5050
func_ov024_020d50b8 kind:function(thumb,size=0xdc) addr:0x020d50b8
func_ov024_020d5194 kind:function(thumb,size=0x58) addr:0x020d5194
func_ov024_020d51ec kind:function(thumb,size=0x68) addr:0x020d51ec
func_ov024_020d5254 kind:function(arm,size=0x14) addr:0x020d5254
func_ov024_020d5268 kind:function(arm,size=0x5c) addr:0x020d5268
func_ov024_020d52c4 kind:function(arm,size=0x8c) addr:0x020d52c4
func_ov024_020d5350 kind:function(arm,size=0x38) addr:0x020d5350
func_ov024_020d5388 kind:function(arm,size=0x2c) addr:0x020d5388
func_ov024_020d53b4 kind:function(arm,size=0x2c) addr:0x020d53b4
func_ov024_020d53e0 kind:function(arm,size=0x50) addr:0x020d53e0
func_ov024_020d3adc kind:function(arm,size=0x120) addr:0x020d5430
func_ov024_020d5550 kind:function(arm,size=0x58) addr:0x020d5550
func_ov024_020d55a8 kind:function(thumb,size=0xc) addr:0x020d55a8
func_ov024_020d55b4 kind:function(thumb,size=0x94) addr:0x020d55b4
func_ov024_020d5648 kind:function(thumb,size=0x2c) addr:0x020d5648
func_ov024_020d5674 kind:function(thumb,size=0x5e) addr:0x020d5674
func_ov024_020d56d4 kind:function(thumb,size=0x18) addr:0x020d56d4
_ZN21UnkStruct_027e0ce0_3419func_ov024_020d3d98Eii kind:function(thumb,size=0x10) addr:0x020d56ec
func_ov024_020d56fc kind:function(thumb,size=0x16) addr:0x020d56fc
func_ov024_020d5714 kind:function(thumb,size=0xa) addr:0x020d5714
_ZN21UnkStruct_027e0ce0_3419func_ov024_020d3dccEv kind:function(thumb,size=0x20) addr:0x020d5720
func_ov024_020d5740 kind:function(arm,size=0x20) addr:0x020d5740
func_ov024_020d5760 kind:function(arm,size=0x24) addr:0x020d5760
func_ov024_020d5784 kind:function(arm,size=0x38) addr:0x020d5784
func_ov024_020d57bc kind:function(arm,size=0x80) addr:0x020d57bc
_ZN21UnkStruct_027e0ce0_3419func_ov024_020d3ee8Eiti kind:function(arm,size=0x64) addr:0x020d583c
func_ov024_020d58a0 kind:function(arm,size=0x40) addr:0x020d58a0
func_ov024_020d58e0 kind:function(arm,size=0x3c) addr:0x020d58e0
func_ov024_020d591c kind:function(arm,size=0x40) addr:0x020d591c
func_ov024_020d595c kind:function(arm,size=0x44) addr:0x020d595c
func_ov024_020d59a0 kind:function(arm,size=0x4c) addr:0x020d59a0
func_ov024_020d59ec kind:function(arm,size=0x88) addr:0x020d59ec
_ZN16PassengerManager21GetPassengerInfoIndexEj kind:function(arm,size=0x30) addr:0x020d5a74
_ZN16PassengerManager12GetBoardFlagEj kind:function(arm,size=0x24) addr:0x020d5aa4
_ZN16PassengerManager11GetFailFlagEj kind:function(arm,size=0x24) addr:0x020d5ac8
_ZN16PassengerManager6CreateEv kind:function(arm,size=0x24) addr:0x020d5aec
_ZN16PassengerManager19func_ov024_020d41bcEP16UnkStruct_Param1 kind:function(arm,size=0x38) addr:0x020d5b10
_ZN16PassengerManager19func_ov024_020d41f4EP16UnkStruct_Param1 kind:function(arm,size=0x34) addr:0x020d5b48
_ZN16PassengerManager19func_ov024_020d4228Ev kind:function(arm,size=0x30) addr:0x020d5b7c
_ZN16PassengerManager19func_ov024_020d4258Ev kind:function(arm,size=0x30) addr:0x020d5bac
_ZN16PassengerManager13TryBoardTrainEjjj kind:function(arm,size=0x7c) addr:0x020d5bdc
_ZN16PassengerManager8TryResetEv kind:function(arm,size=0x28) addr:0x020d5c58
_ZN16PassengerManager21TryResetAtDestinationEv kind:function(arm,size=0x50) addr:0x020d5c80
_ZN16PassengerManager18ReachedDestinationEjj kind:function(arm,size=0x34) addr:0x020d5cd0
_ZN16PassengerManager21TrySetCaughtByPiratesEv kind:function(arm,size=0x3c) addr:0x020d5d04
_ZN16PassengerManager23CaughtByPiratesTryResetEv kind:function(arm,size=0x48) addr:0x020d5d40
_ZN16PassengerManager13GiveHappinessEi kind:function(arm,size=0x54) addr:0x020d5d88
_ZN16PassengerManager12GetHappinessEv kind:function(arm,size=0x8) addr:0x020d5ddc
_ZN16PassengerManager16GetHappinessCondEv kind:function(arm,size=0x30) addr:0x020d5de4
_ZN16PassengerManager15CanCompleteTripEv kind:function(arm,size=0x3c) addr:0x020d5e14
_ZN16PassengerManager17IsCaughtByPiratesEv kind:function(arm,size=0x24) addr:0x020d5e50
_ZN16PassengerManager10GetActorIdEv kind:function(arm,size=0x8) addr:0x020d5e74
_ZN16PassengerManager11GetInstanceEv kind:function(arm,size=0x2c) addr:0x020d5e7c
_ZN16PassengerManager19func_ov024_020d4554Ev kind:function(arm,size=0x10) addr:0x020d5ea8
_ZN16PassengerManager5ResetEv kind:function(arm,size=0x4c) addr:0x020d5eb8
_ZN16PassengerManager11IsDateUnsetEv kind:function(arm,size=0x14) addr:0x020d5f04
_ZN16PassengerManager7GetDateEv kind:function(arm,size=0x1c) addr:0x020d5f18
_ZN16PassengerManager14GetRandomIndexEjj kind:function(arm,size=0x5c) addr:0x020d5f34
_ZN16PassengerManager13SetFailedFlagEv kind:function(arm,size=0x78) addr:0x020d5f90
func_ov024_020d6008 kind:function(arm,size=0x10) addr:0x020d6008
func_ov024_020d6018 kind:function(arm,size=0x70) addr:0x020d6018
func_ov024_020d6088 kind:function(arm,size=0x60) addr:0x020d6088
_ZN19func_ov024_020d60e8D1Ev kind:function(arm,size=0x14) addr:0x020d60e8
_ZN19func_ov024_020d60fcD0Ev kind:function(arm,size=0x1c) addr:0x020d60fc
func_ov024_020d6118 kind:function(arm,size=0x74) addr:0x020d6118
func_ov024_020d618c kind:function(arm,size=0x24) addr:0x020d618c
func_ov024_020d61b0 kind:function(arm,size=0x6c) addr:0x020d61b0
func_ov024_020d621c kind:function(arm,size=0x10) addr:0x020d621c
func_ov024_020d622c kind:function(arm,size=0xec) addr:0x020d622c
func_ov024_020d6318 kind:function(arm,size=0x28) addr:0x020d6318
func_ov024_020d6340 kind:function(arm,size=0x64) addr:0x020d6340
func_ov024_020d63a4 kind:function(arm,size=0x64) addr:0x020d63a4
func_ov024_020d6408 kind:function(arm,size=0x40) addr:0x020d6408
func_ov024_020d6448 kind:function(arm,size=0xcc) addr:0x020d6448
func_ov024_020d6514 kind:function(arm,size=0x5c) addr:0x020d6514
func_ov024_020d6570 kind:function(arm,size=0xc8) addr:0x020d6570
_ZN18UnkStruct_027e0d0019func_ov024_020d4cc0Ei kind:function(arm,size=0x50) addr:0x020d6638
_ZN18UnkStruct_027e0d0019func_ov024_020d4d10Ev kind:function(arm,size=0x34) addr:0x020d6688
func_ov024_020d66bc kind:function(arm,size=0x54) addr:0x020d66bc
func_ov024_020d6710 kind:function(arm,size=0x8c) addr:0x020d6710
func_ov024_020d679c kind:function(arm,size=0x44) addr:0x020d679c
func_ov024_020d67e0 kind:function(arm,size=0x60) addr:0x020d67e0
func_ov024_020d6840 kind:function(arm,size=0x40) addr:0x020d6840
func_ov024_020d6880 kind:function(arm,size=0x2c) addr:0x020d6880
func_ov024_020d68ac kind:function(arm,size=0x98) addr:0x020d68ac
func_ov024_020d6944 kind:function(arm,size=0x1c0) addr:0x020d6944
func_ov024_020d6b04 kind:function(arm,size=0x14) addr:0x020d6b04
func_ov024_020d6b18 kind:function(arm,size=0x1c) addr:0x020d6b18
_ZN19func_ov024_020d6b34D0Ev kind:function(arm,size=0x30) addr:0x020d6b34
_ZN19func_ov024_020d6b64D0Ev kind:function(arm,size=0x1c) addr:0x020d6b64
func_ov024_020d51dc kind:function(arm,size=0x70) addr:0x020d6b80
func_ov024_020d524c kind:function(arm,size=0xb8) addr:0x020d6bf0
func_ov024_020d5304 kind:function(arm,size=0x3c) addr:0x020d6ca8
func_ov024_020d5340 kind:function(arm,size=0x14) addr:0x020d6ce4
func_ov024_020d5354 kind:function(arm,size=0x5c) addr:0x020d6cf8
func_ov024_020d6d54 kind:function(arm,size=0x60) addr:0x020d6d54
func_ov024_020d6db4 kind:function(arm,size=0x24) addr:0x020d6db4
func_ov024_020d6dd8 kind:function(arm,size=0x24) addr:0x020d6dd8
func_ov024_020d6dfc kind:function(arm,size=0x24) addr:0x020d6dfc
func_ov024_020d6e20 kind:function(arm,size=0x24) addr:0x020d6e20
func_ov024_020d6e44 kind:function(arm,size=0x10) addr:0x020d6e44
func_ov024_020d6e54 kind:function(arm,size=0x40) addr:0x020d6e54
func_ov024_020d6e94 kind:function(arm,size=0x4) addr:0x020d6e94
func_ov024_020d6e98 kind:function(arm,size=0x138) addr:0x020d6e98
func_ov024_020d6fd0 kind:function(arm,size=0x240) addr:0x020d6fd0
func_ov024_020d7210 kind:function(arm,size=0x48) addr:0x020d7210
_ZN12CargoManager6CreateEv kind:function(arm,size=0x24) addr:0x020d7258
_ZN12CargoManager8SetCargoEii kind:function(arm,size=0x14) addr:0x020d727c
_ZN12CargoManager16GetTypeAndAmountEPiS0_ kind:function(arm,size=0x14) addr:0x020d7290
_ZN12CargoManager19func_ov024_020d5900Ev kind:function(arm,size=0x1c) addr:0x020d72a4
_ZN12CargoManager19func_ov024_020d591cEv kind:function(arm,size=0x1c) addr:0x020d72c0
func_ov024_020d72dc kind:function(arm,size=0x40) addr:0x020d72dc
func_ov024_020d731c kind:function(arm,size=0x18) addr:0x020d731c
func_ov024_020d7334 kind:function(arm,size=0x16c) addr:0x020d7334
func_ov024_020d74a0 kind:function(arm,size=0x144) addr:0x020d74a0
func_ov024_020d75e4 kind:function(arm,size=0x4c) addr:0x020d75e4
func_ov024_020d7630 kind:function(arm,size=0x44) addr:0x020d7630
func_ov024_020d7674 kind:function(arm,size=0x1c) addr:0x020d7674
func_ov024_020d7690 kind:function(arm,size=0x24) addr:0x020d7690
func_ov024_020d76b4 kind:function(arm,size=0x8) addr:0x020d76b4
func_ov024_020d76bc kind:function(arm,size=0x1c) addr:0x020d76bc
func_ov024_020d76d8 kind:function(arm,size=0x20) addr:0x020d76d8
func_ov024_020d76f8 kind:function(arm,size=0x80) addr:0x020d76f8
func_ov024_020d7778 kind:function(arm,size=0x4c) addr:0x020d7778
func_ov024_020d77c4 kind:function(arm,size=0x18c) addr:0x020d77c4
func_ov024_020d7950 kind:function(arm,size=0xc) addr:0x020d7950
func_ov024_020d795c kind:function(arm,size=0x2c) addr:0x020d795c
func_ov024_020d7988 kind:function(arm,size=0x2ac) addr:0x020d7988
func_ov024_020d7c34 kind:function(arm,size=0x10) addr:0x020d7c34
func_ov024_020d7c44 kind:function(arm,size=0x14) addr:0x020d7c44
_ZN14MiscAdvManager6CreateEv kind:function(arm,size=0x24) addr:0x020d7c58
_ZN14MiscAdvManagerC1Ev kind:function(arm,size=0x24) addr:0x020d7c7c
_ZN14MiscAdvManagerD1Ev kind:function(arm,size=0x14) addr:0x020d7ca0
_ZN14MiscAdvManager19func_ov024_020d6310EPS_ kind:function(arm,size=0x60) addr:0x020d7cb4
_ZN14MiscAdvManager21GiveLetterOrPriceCardEi kind:function(arm,size=0x48) addr:0x020d7d14
_ZN14MiscAdvManager22GetObtainedLetterCountEv kind:function(arm,size=0x30) addr:0x020d7d5c
_ZN14MiscAdvManager16GotUnreadLettersEv kind:function(arm,size=0x3c) addr:0x020d7d8c
_ZN14MiscAdvManager10GiveLetterEt kind:function(arm,size=0x44) addr:0x020d7dc8
_ZN14MiscAdvManager19func_ov024_020d6468Ev kind:function(arm,size=0x2c) addr:0x020d7e0c
_ZN14MiscAdvManager8GetStampEi kind:function(arm,size=0xc) addr:0x020d7e38
_ZN14MiscAdvManager12GetStampDateEi kind:function(arm,size=0x8) addr:0x020d7e44
_ZN14MiscAdvManager11GetStampPosEi kind:function(arm,size=0xc) addr:0x020d7e4c
_ZN14MiscAdvManager19func_ov024_020d64b4EiiPt kind:function(arm,size=0x7c) addr:0x020d7e58
_ZN14MiscAdvManager19func_ov024_020d6530Ev kind:function(arm,size=0x2c) addr:0x020d7ed4
_ZN14MiscAdvManager15GetNumPostcardsEv kind:function(arm,size=0x10) addr:0x020d7f00
_ZN14MiscAdvManager13GivePriceCardEi kind:function(arm,size=0x30) addr:0x020d7f10
_ZN14MiscAdvManager13PostPriceCardEii kind:function(arm,size=0x74) addr:0x020d7f40
_ZN14MiscAdvManager19func_ov024_020d6610Ev kind:function(arm,size=0x1c) addr:0x020d7fb4
_ZN8InstanceI14MiscAdvManagerEC2Ev kind:function(arm,size=0x10) addr:0x020d7fd0
_ZN8InstanceI14MiscAdvManagerED2Ev kind:function(arm,size=0x14) addr:0x020d7fe0
func_ov024_020d7ff4 kind:function(thumb,size=0x16) addr:0x020d7ff4
_ZN26ActorUnk_ov000_020a8bb0_ec19func_ov024_020d6668Ev kind:function(thumb,size=0x16) addr:0x020d800c
func_ov024_020d8024 kind:function(arm,size=0x40) addr:0x020d8024
func_ov024_020d8064 kind:function(arm,size=0x44) addr:0x020d8064
func_ov024_020d80a8 kind:function(arm,size=0x2c) addr:0x020d80a8
func_ov024_020d80d4 kind:function(arm,size=0x2a8) addr:0x020d80d4
func_ov024_020d837c kind:function(arm,size=0x1a4) addr:0x020d837c
func_ov024_020d8520 kind:function(arm,size=0x204) addr:0x020d8520
func_ov024_020d8724 kind:function(arm,size=0x11c) addr:0x020d8724
_ZN19ActorProfileUnkOBPC10GetProfileEv kind:function(arm,size=0xc) addr:0x020d8840
_ZN19ActorProfileUnkOBPC6CreateEv kind:function(arm,size=0x24) addr:0x020d884c
_ZN19ActorProfileUnkOBPCC1Ev kind:function(arm,size=0x28) addr:0x020d8870
_ZN12ActorUnkOBPCC1Ev kind:function(arm,size=0x34) addr:0x020d8898
_ZN12ActorUnkOBPC19func_ov024_020d6f28Ev kind:function(arm,size=0x4c) addr:0x020d88cc
_ZN12ActorUnkOBPC19func_ov024_020d6f74Ev kind:function(arm,size=0x20) addr:0x020d8918
_ZN12ActorUnkOBPC19func_ov024_020d6f94Ev kind:function(arm,size=0xbc) addr:0x020d8938
_ZN12ActorUnkOBPC19func_ov024_020d7050Ev kind:function(arm,size=0x14) addr:0x020d89f4
_ZN12ActorUnkOBPC19func_ov024_020d7064Ev kind:function(arm,size=0xf0) addr:0x020d8a08
_ZN12ActorUnkOBPC19func_ov024_020d7154Ev kind:function(arm,size=0x168) addr:0x020d8af8
_ZN12ActorUnkOBPCD1Ev kind:function(arm,size=0x20) addr:0x020d8c60
_ZN12ActorUnkOBPCD0Ev kind:function(arm,size=0x28) addr:0x020d8c80
_ZN19ActorProfileUnkOBPCD1Ev kind:function(arm,size=0x14) addr:0x020d8ca8
data_ov024_020d8cbc kind:data(any) addr:0x020d8cbc ambiguous
data_ov024_020d8cc0 kind:data(any) addr:0x020d8cc0 ambiguous
data_ov024_020d8cc4 kind:data(any) addr:0x020d8cc4 ambiguous
data_ov024_020d8cc8 kind:data(any) addr:0x020d8cc8 ambiguous
sBMGSceneMap kind:data(any) addr:0x020d8ccc local
data_ov024_020d73d8 kind:data(any) addr:0x020d8d7c local
data_ov024_020d73de kind:data(any) addr:0x020d8d82 local
data_ov024_020d73ec kind:data(any) addr:0x020d8d90 local
data_ov024_020d73fa kind:data(any) addr:0x020d8d9e local
data_ov024_020d740a kind:data(any) addr:0x020d8dae local
data_ov024_020d741e kind:data(any) addr:0x020d8dc2 local
data_ov024_020d7432 kind:data(any) addr:0x020d8dd6 local
data_ov024_020d7454 kind:data(byte[238]) addr:0x020d8df8 local
data_ov024_020d7544 kind:data(any) addr:0x020d8ee8 local
data_ov024_020d7547 kind:data(any) addr:0x020d8eeb local
data_ov024_020d8ef4 kind:data(any) addr:0x020d8ef4
data_ov024_020d8ef9 kind:data(any) addr:0x020d8ef9
data_ov024_020d8f04 kind:data(any) addr:0x020d8f04
data_ov024_020d8f10 kind:data(any) addr:0x020d8f10
data_ov024_020d8f14 kind:data(any) addr:0x020d8f14
data_ov024_020d8f1c kind:data(any) addr:0x020d8f1c
data_ov024_020d8f2c kind:data(any) addr:0x020d8f2c
data_ov024_020d8f3c kind:data(any) addr:0x020d8f3c ambiguous
sPassengerInfos kind:data(any) addr:0x020d8f48
data_ov024_020d8fc8 kind:data(any) addr:0x020d8fc8
data_ov024_020d8fd0 kind:data(any) addr:0x020d8fd0
data_ov024_020d8fe0 kind:data(any) addr:0x020d8fe0
data_ov024_020d8ff0 kind:data(any) addr:0x020d8ff0
data_ov024_020d9000 kind:data(any) addr:0x020d9000
data_ov024_020d9010 kind:data(any) addr:0x020d9010
data_ov024_020d9020 kind:data(any) addr:0x020d9020
data_ov024_020d9028 kind:data(any) addr:0x020d9028
data_ov024_020d9064 kind:data(any) addr:0x020d9064
data_ov024_020d9066 kind:data(any) addr:0x020d9066
data_ov024_020d90f0 kind:data(any) addr:0x020d90f0
data_ov024_020d90f6 kind:data(any) addr:0x020d90f6
data_ov024_020d9250 kind:data(any) addr:0x020d9250
data_ov024_020d925c kind:data(any) addr:0x020d925c
data_ov024_020d9260 kind:data(any) addr:0x020d9260
data_ov024_020d9264 kind:data(any) addr:0x020d9264 ambiguous
data_ov024_020d9266 kind:data(any) addr:0x020d9266 ambiguous
__sinit_ov024_020d928c kind:function(arm,size=0x38) addr:0x020d928c
__sinit_UnkStruct_027e0cf8_00_0C_024.cpp kind:function(arm,size=0x120) addr:0x020d92c4 local
__sinit_AdventureModeManager_1B8_Base_024.cpp kind:function(arm,size=0x2c) addr:0x020d93e4 local
__sinit_PlayerActor_A0_38_024.cpp kind:function(arm,size=0x48) addr:0x020d9410
__sinit_ov024_020d9458 kind:function(arm,size=0x18) addr:0x020d9458
__sinit_ov024_020d9470 kind:function(arm,size=0x18) addr:0x020d9470
__sinit_ActorUnkOBPC.cpp kind:function(arm,size=0x50) addr:0x020d9488
.p__sinit_ov024_020d928c kind:data(word) addr:0x020d94d8
.p__sinit_UnkStruct_027e0cf8_00_0C_024.cpp kind:data(word) addr:0x020d94dc
.p__sinit_AdventureModeManager_1B8_Base_024.cpp kind:data(word) addr:0x020d94e0 local
.p__sinit_PlayerActor_A0_38_024.cpp kind:data(word) addr:0x020d94e4
.p__sinit_ov024_020d9458 kind:data(word) addr:0x020d94e8
.p__sinit_ov024_020d9470 kind:data(word) addr:0x020d94ec
.p__sinit_ActorUnkOBPC.cpp kind:data(word) addr:0x020d94f0
_ZTV17GameModeAdventure kind:data(any) addr:0x020d9500
_ZTV15UnkActorSystem1 kind:data(any) addr:0x020d9530
_ZTV15UnkActorSystem2 kind:data(any) addr:0x020d9568
_ZTV24AdventureModeManager_1AC kind:data(any) addr:0x020d958c
_ZTV20AdventureModeManager kind:data(any) addr:0x020d95b0
@2869 kind:data(any) addr:0x020d9600 local
@2870 kind:data(any) addr:0x020d9614 local
@2871 kind:data(byte[11]) addr:0x020d9618 local
@2872 kind:data(byte[10]) addr:0x020d9624 local
_ZTV18UnkStruct_027e0998 kind:data(any) addr:0x020d9630
_ZTV27AdventureModeManager_160_4C kind:data(any) addr:0x020d963c
_ZTV24AdventureModeManager_160 kind:data(any) addr:0x020d9658
_ZTV27AdventureModeManager_170_14 kind:data(any) addr:0x020d9688
_ZTV24AdventureModeManager_170 kind:data(any) addr:0x020d96a4
_ZTV32AdventureModeManager_174_Base_10 kind:data(any) addr:0x020d96d4
_ZTV29AdventureModeManager_174_Base kind:data(any) addr:0x020d96f0
_ZTV24AdventureModeManager_174 kind:data(any) addr:0x020d9720
_ZTV29AdventureModeManager_178_Base kind:data(any) addr:0x020d9750
_ZTV24AdventureModeManager_178 kind:data(any) addr:0x020d9780
_ZTV27AdventureModeManager_180_18 kind:data(any) addr:0x020d97b0
_ZTV24AdventureModeManager_180 kind:data(any) addr:0x020d97cc
_ZTV24AdventureModeManager_184 kind:data(any) addr:0x020d97fc
_ZTV27AdventureModeManager_18C_14 kind:data(any) addr:0x020d982c
_ZTV24AdventureModeManager_18C kind:data(any) addr:0x020d9848
_ZTV27AdventureModeManager_190_38 kind:data(any) addr:0x020d9878
_ZTV27AdventureModeManager_190_14 kind:data(any) addr:0x020d9894
_ZTV24AdventureModeManager_190 kind:data(any) addr:0x020d98b0
data_ov024_020d98e0 kind:data(any) addr:0x020d98e0
_ZTV30AdventureModeManager_15C_20_00 kind:data(any) addr:0x020d98f0
_ZTV23UnkAdventureModeSystem1 kind:data(any) addr:0x020d9914
_ZTV24UnkStruct_ov024_020d8694 kind:data(any) addr:0x020d9920
_ZTV28UnkStruct_ov024_020d8694_2FC kind:data(any) addr:0x020d9944
_ZTV19UnkTitleCardSystem1 kind:data(any) addr:0x020d9968
_ZTV28UnkStruct_ov024_020d8694_01C kind:data(any) addr:0x020d998c
_ZTV28UnkStruct_ov024_020d8694_188 kind:data(any) addr:0x020d99b4
_ZTV28UnkTitleCardSystem1_Derived1 kind:data(any) addr:0x020d99dc
_ZTV18UnkStruct_020d8698 kind:data(any) addr:0x020d9a04
@5034 kind:data(byte[11]) addr:0x020d9a28 local
data_ov024_020d8094 kind:data(byte[2]) addr:0x020d9a34 local
data_ov024_020d8098 kind:data(any) addr:0x020d9a38 local
data_ov024_020d8200 kind:data(any) addr:0x020d9ba0 local
_ZTV27UnkStruct_ov024_020d86a0_00 kind:data(any) addr:0x020d9ba8
data_ov024_020d8224 kind:data(byte[4]) addr:0x020d9bc4
data_ov024_020d8228 kind:data(byte[4]) addr:0x020d9bc8
data_ov024_020d822c kind:data(byte[4]) addr:0x020d9bcc
data_ov024_020d8230 kind:data(byte[4]) addr:0x020d9bd0
data_ov024_020d8234 kind:data(byte[4]) addr:0x020d9bd4
data_ov024_020d8238 kind:data(byte[4]) addr:0x020d9bd8
_ZTV20PlayerActor_A0_38_18 kind:data(any) addr:0x020d9bdc
_ZTV20PlayerActor_A0_38_04 kind:data(any) addr:0x020d9be8
sCreditsEndingType kind:data(byte[2]) addr:0x020d9bf4 local
data_ov024_020d9c00 kind:data(any) addr:0x020d9c00
data_ov024_020d9c08 kind:data(any) addr:0x020d9c08
data_ov024_020d9c10 kind:data(any) addr:0x020d9c10
data_ov024_020d9c28 kind:data(any) addr:0x020d9c28
data_ov024_020d9c3c kind:data(any) addr:0x020d9c3c
data_ov024_020d9c40 kind:data(any) addr:0x020d9c40
data_ov024_020d9c44 kind:data(any) addr:0x020d9c44
data_ov024_020d9c48 kind:data(any) addr:0x020d9c48
data_ov024_020d9c50 kind:data(any) addr:0x020d9c50
data_ov024_020d9c58 kind:data(any) addr:0x020d9c58
data_ov024_020d9c60 kind:data(any) addr:0x020d9c60
data_ov024_020d9c68 kind:data(any) addr:0x020d9c68
data_ov024_020d9c70 kind:data(any) addr:0x020d9c70
data_ov024_020d9c78 kind:data(any) addr:0x020d9c78
data_ov024_020d9c80 kind:data(any) addr:0x020d9c80
data_ov024_020d9c88 kind:data(any) addr:0x020d9c88
data_ov024_020d9c94 kind:data(any) addr:0x020d9c94
data_ov024_020d9ca0 kind:data(any) addr:0x020d9ca0
data_ov024_020d9cac kind:data(any) addr:0x020d9cac
data_ov024_020d9cb8 kind:data(any) addr:0x020d9cb8
data_ov024_020d9cc4 kind:data(any) addr:0x020d9cc4
data_ov024_020d9cd0 kind:data(any) addr:0x020d9cd0
data_ov024_020d9cdc kind:data(any) addr:0x020d9cdc
data_ov024_020d9cf0 kind:data(any) addr:0x020d9cf0
data_ov024_020d9cf8 kind:data(any) addr:0x020d9cf8
data_ov024_020d9d14 kind:data(any) addr:0x020d9d14
data_ov024_020d9d44 kind:data(any) addr:0x020d9d44
data_ov024_020d9d4c kind:data(any) addr:0x020d9d4c
data_ov024_020d9d54 kind:data(any) addr:0x020d9d54
data_ov024_020d9d58 kind:data(any) addr:0x020d9d58
data_ov024_020d9d64 kind:data(any) addr:0x020d9d64
data_ov024_020d9d68 kind:data(any) addr:0x020d9d68
data_ov024_020d9d74 kind:data(any) addr:0x020d9d74
data_ov024_020d9d7c kind:data(any) addr:0x020d9d7c
data_ov024_020d9d84 kind:data(any) addr:0x020d9d84
data_ov024_020d9d8c kind:data(any) addr:0x020d9d8c
data_ov024_020d9d94 kind:data(any) addr:0x020d9d94
data_ov024_020d9d9c kind:data(any) addr:0x020d9d9c
data_ov024_020d9da4 kind:data(any) addr:0x020d9da4
data_ov024_020d9dac kind:data(any) addr:0x020d9dac
data_ov024_020d9db4 kind:data(any) addr:0x020d9db4
data_ov024_020d9dbc kind:data(any) addr:0x020d9dbc
data_ov024_020d9dc4 kind:data(any) addr:0x020d9dc4
data_ov024_020d9dcc kind:data(any) addr:0x020d9dcc
data_ov024_020d9dd4 kind:data(any) addr:0x020d9dd4
data_ov024_020d9ddc kind:data(any) addr:0x020d9ddc
data_ov024_020d9de4 kind:data(any) addr:0x020d9de4
data_ov024_020d9df0 kind:data(any) addr:0x020d9df0
data_ov024_020d9dfc kind:data(any) addr:0x020d9dfc
data_ov024_020d9e08 kind:data(any) addr:0x020d9e08
data_ov024_020d9e14 kind:data(any) addr:0x020d9e14
data_ov024_020d9e24 kind:data(any) addr:0x020d9e24
data_ov024_020d9e4c kind:data(any) addr:0x020d9e4c
data_ov024_020d9e5c kind:data(any) addr:0x020d9e5c
data_ov024_020d9e80 kind:data(any) addr:0x020d9e80
data_ov024_020d9e8c kind:data(any) addr:0x020d9e8c
data_ov024_020d9e98 kind:data(any) addr:0x020d9e98
data_ov024_020d9ea0 kind:data(any) addr:0x020d9ea0
data_ov024_020d9ea4 kind:data(any) addr:0x020d9ea4
data_ov024_020d9eb0 kind:data(any) addr:0x020d9eb0
data_ov024_020d9ebc kind:data(any) addr:0x020d9ebc
data_ov024_020d9ef0 kind:data(any) addr:0x020d9ef0
data_ov024_020d9ef8 kind:data(any) addr:0x020d9ef8
data_ov024_020d9f00 kind:data(any) addr:0x020d9f00
data_ov024_020d9f08 kind:data(any) addr:0x020d9f08
data_ov024_020d9f10 kind:data(any) addr:0x020d9f10
data_ov024_020d9f18 kind:data(any) addr:0x020d9f18
data_ov024_020d9f20 kind:data(any) addr:0x020d9f20
data_ov024_020d9f28 kind:data(any) addr:0x020d9f28
data_ov024_020d9f30 kind:data(any) addr:0x020d9f30
data_ov024_020d9f3c kind:data(any) addr:0x020d9f3c
data_ov024_020d9f48 kind:data(any) addr:0x020d9f48
data_ov024_020d9f5c kind:data(any) addr:0x020d9f5c
_ZTV19data_ov024_020d9f74 kind:data(any) addr:0x020d9f74
_ZTV19data_ov024_020d9f98 kind:data(any) addr:0x020d9f98
data_ov024_020d8660 kind:bss addr:0x020da000
_ZGVZN24UnkStruct_ov024_020d866019func_ov024_020c4ac0EvE8instance kind:bss addr:0x020da004 local
@1365 kind:bss addr:0x020da008 local
_ZZN24UnkStruct_ov024_020d866019func_ov024_020c4ac0EvE8instance kind:bss addr:0x020da014 local
data_ov024_020d8694 kind:bss addr:0x020da034
data_ov024_020d8698 kind:bss addr:0x020da038
data_ov024_020d869c kind:bss(size=0x2) addr:0x020da03c local
data_ov024_020d86a0 kind:bss addr:0x020da040
data_ov024_020da044 kind:bss addr:0x020da044
data_ov024_020da048 kind:bss addr:0x020da048
data_ov024_020da04c kind:bss addr:0x020da04c
gpMiscAdvManager kind:bss addr:0x020da050
data_ov024_020da054 kind:bss addr:0x020da054 ambiguous
data_ov024_020da058 kind:bss addr:0x020da058
data_ov024_020da05c kind:bss addr:0x020da05c
_ZN15ProfileInstanceI19ActorProfileUnkOBPCE8sProfileE kind:bss addr:0x020da068
