func_ov080_02152c20 kind:function(arm,size=0x38) addr:0x02152c20
_ZN19ActorProfileUnkICBS10GetProfileEv kind:function(arm,size=0xc) addr:0x02152c58
_ZN19ActorProfileUnkICBS6CreateEv kind:function(arm,size=0x28) addr:0x02152c64
_ZN19ActorProfileUnkICBSC1Ev kind:function(arm,size=0x78) addr:0x02152c8c
_ZN12ActorUnkICBS19func_ov080_02152d04Ev kind:function(arm,size=0x24) addr:0x02152d04
_ZN12ActorUnkICBS19func_ov080_02152d28Ev kind:function(arm,size=0x24) addr:0x02152d28
_ZN12ActorUnkICBS19func_ov080_02152d4cEv kind:function(arm,size=0x2c) addr:0x02152d4c
_ZN12ActorUnkICBSC1Ev kind:function(arm,size=0x400) addr:0x02152d78
_ZN12ActorUnkICBS19func_ov080_02153178Ev kind:function(arm,size=0x14) addr:0x02153178
_ZN12ActorUnkICBS19func_ov080_0215318cEv kind:function(arm,size=0x38) addr:0x0215318c
_ZN12ActorUnkICBS19func_ov080_021531c4Ev kind:function(arm,size=0x24) addr:0x021531c4
_ZN12ActorUnkICBS19func_ov080_021531e8Ev kind:function(arm,size=0x14) addr:0x021531e8
_ZN12ActorUnkICBS19func_ov080_021531fcEv kind:function(arm,size=0xf0) addr:0x021531fc
_ZN12ActorUnkICBSD0Ev kind:function(arm,size=0xf8) addr:0x021532ec
_ZN12ActorUnkICBS19func_ov080_021533e4Ev kind:function(arm,size=0x44) addr:0x021533e4
_ZN12ActorUnkICBS19func_ov080_02153428Ev kind:function(arm,size=0x338) addr:0x02153428
_ZN12ActorUnkICBS19func_ov080_02153760Ev kind:function(arm,size=0xf0) addr:0x02153760
_ZN12ActorUnkICBS19func_ov080_02153850Ev kind:function(arm,size=0x78) addr:0x02153850
_ZN12ActorUnkICBS19func_ov080_021538c8Ev kind:function(arm,size=0xdc) addr:0x021538c8
_ZN12ActorUnkICBS19func_ov080_021539a4Ev kind:function(arm,size=0x5e8) addr:0x021539a4
_ZN12ActorUnkICBS19func_ov080_02153f8cEv kind:function(arm,size=0x118) addr:0x02153f8c
_ZN12ActorUnkICBS19func_ov080_021540a4Ev kind:function(arm,size=0x124) addr:0x021540a4
_ZN12ActorUnkICBS19func_ov080_021541c8Ev kind:function(arm,size=0x84) addr:0x021541c8
_ZN12ActorUnkICBS19func_ov080_0215424cEv kind:function(arm,size=0xa3c) addr:0x0215424c
_ZN12ActorUnkICBS19func_ov080_02154c88Ev kind:function(arm,size=0x34) addr:0x02154c88
_ZN12ActorUnkICBS19func_ov080_02154cbcEv kind:function(arm,size=0x2a8) addr:0x02154cbc
_ZN12ActorUnkICBS19func_ov080_02154f64Ev kind:function(arm,size=0x7c) addr:0x02154f64
_ZN12ActorUnkICBS19func_ov080_02154fe0Ev kind:function(arm,size=0x138) addr:0x02154fe0
_ZN12ActorUnkICBS19func_ov080_02155118Ev kind:function(arm,size=0x6c) addr:0x02155118
_ZN12ActorUnkICBS19func_ov080_02155184Ev kind:function(arm,size=0x58) addr:0x02155184
_ZN12ActorUnkICBS19func_ov080_021551dcEv kind:function(arm,size=0xac) addr:0x021551dc
_ZN12ActorUnkICBS19func_ov080_02155288Ev kind:function(arm,size=0x1b8) addr:0x02155288
_ZN12ActorUnkICBS19func_ov080_02155440Ev kind:function(arm,size=0xe0) addr:0x02155440
_ZN12ActorUnkICBS19func_ov080_02155520Ev kind:function(arm,size=0x9a8) addr:0x02155520
_ZN12ActorUnkICBS19func_ov080_02155ec8Ev kind:function(arm,size=0xd0) addr:0x02155ec8
_ZN12ActorUnkICBS19func_ov080_02155f98Ev kind:function(arm,size=0x39c) addr:0x02155f98
_ZN12ActorUnkICBS19func_ov080_02156334Ev kind:function(arm,size=0x48) addr:0x02156334
_ZN12ActorUnkICBS19func_ov080_0215637cEv kind:function(arm,size=0x49c) addr:0x0215637c
_ZN12ActorUnkICBS19func_ov080_02156818Ev kind:function(arm,size=0x140) addr:0x02156818
_ZN12ActorUnkICBS19func_ov080_02156958Ev kind:function(arm,size=0xdc) addr:0x02156958
_ZN12ActorUnkICBS19func_ov080_02156a34Ev kind:function(arm,size=0x6c) addr:0x02156a34
_ZN12ActorUnkICBS19func_ov080_02156aa0Ev kind:function(arm,size=0x110) addr:0x02156aa0
_ZN12ActorUnkICBS19func_ov080_02156bb0Ev kind:function(arm,size=0x7c) addr:0x02156bb0
_ZN12ActorUnkICBS19func_ov080_02156c2cEv kind:function(arm,size=0x934) addr:0x02156c2c
_ZN12ActorUnkICBS19func_ov080_02157560Ev kind:function(arm,size=0x28) addr:0x02157560
_ZN12ActorUnkICBS19func_ov080_02157588Ev kind:function(arm,size=0x154) addr:0x02157588
_ZN12ActorUnkICBS19func_ov080_021576dcEv kind:function(arm,size=0x10) addr:0x021576dc
_ZN12ActorUnkICBS19func_ov080_021576ecEv kind:function(arm,size=0x58) addr:0x021576ec
_ZN12ActorUnkICBS19func_ov080_02157744Ev kind:function(arm,size=0x30) addr:0x02157744
_ZN12ActorUnkICBS19func_ov080_02157774Ev kind:function(arm,size=0x6c) addr:0x02157774
_ZN12ActorUnkICBS19func_ov080_021577e0Ev kind:function(arm,size=0x78) addr:0x021577e0
_ZN12ActorUnkICBS19func_ov080_02157858Ev kind:function(arm,size=0x10c) addr:0x02157858
_ZN12ActorUnkICBS19func_ov080_02157964Ev kind:function(arm,size=0x138) addr:0x02157964
_ZN12ActorUnkICBS19func_ov080_02157a9cEv kind:function(arm,size=0x318) addr:0x02157a9c
_ZN12ActorUnkICBS19func_ov080_02157db4Ev kind:function(arm,size=0x4c) addr:0x02157db4
_ZN12ActorUnkICBS19func_ov080_02157e00Ev kind:function(arm,size=0xb8) addr:0x02157e00
_ZN12ActorUnkICBS19func_ov080_02157eb8Ev kind:function(arm,size=0x74) addr:0x02157eb8
_ZN12ActorUnkICBS19func_ov080_02157f2cEv kind:function(arm,size=0x34) addr:0x02157f2c
_ZN12ActorUnkICBS19func_ov080_02157f60Ev kind:function(arm,size=0xa0) addr:0x02157f60
_ZN12ActorUnkICBS19func_ov080_02158000Ev kind:function(arm,size=0x60) addr:0x02158000
_ZN12ActorUnkICBS19func_ov080_02158060Ev kind:function(arm,size=0xc4) addr:0x02158060
_ZN12ActorUnkICBS19func_ov080_02158124Ev kind:function(arm,size=0x2b8) addr:0x02158124
_ZN12ActorUnkICBS19func_ov080_021583dcEv kind:function(arm,size=0xb4) addr:0x021583dc
_ZN12ActorUnkICBS19func_ov080_02158490Ev kind:function(arm,size=0x740) addr:0x02158490
_ZN12ActorUnkICBS19func_ov080_02158bd0Ev kind:function(arm,size=0xc4) addr:0x02158bd0
_ZN12ActorUnkICBS19func_ov080_02158c94Ev kind:function(arm,size=0x2b8) addr:0x02158c94
_ZN12ActorUnkICBS19func_ov080_02158f4cEv kind:function(arm,size=0x90) addr:0x02158f4c
_ZN12ActorUnkICBS19func_ov080_02158fdcEv kind:function(arm,size=0x3c8) addr:0x02158fdc
_ZN12ActorUnkICBS19func_ov080_021593a4Ev kind:function(arm,size=0x6c) addr:0x021593a4
_ZN12ActorUnkICBS19func_ov080_02159410Ev kind:function(arm,size=0x9c) addr:0x02159410
_ZN12ActorUnkICBS19func_ov080_021594acEv kind:function(arm,size=0x108) addr:0x021594ac
_ZN12ActorUnkICBS19func_ov080_021595b4Ev kind:function(arm,size=0x338) addr:0x021595b4
_ZN12ActorUnkICBS19func_ov080_021598ecEv kind:function(arm,size=0xa8) addr:0x021598ec
_ZN12ActorUnkICBS19func_ov080_02159994Ev kind:function(arm,size=0x60) addr:0x02159994
_ZN12ActorUnkICBS19func_ov080_021599f4Ev kind:function(arm,size=0xf4) addr:0x021599f4
_ZN12ActorUnkICBS19func_ov080_02159ae8Ev kind:function(arm,size=0x208) addr:0x02159ae8
_ZN12ActorUnkICBS19func_ov080_02159cf0Ev kind:function(arm,size=0x80) addr:0x02159cf0
_ZN12ActorUnkICBS19func_ov080_02159d70Ev kind:function(arm,size=0x164) addr:0x02159d70
_ZN12ActorUnkICBS19func_ov080_02159ed4Ev kind:function(arm,size=0x98) addr:0x02159ed4
_ZN12ActorUnkICBS19func_ov080_02159f6cEv kind:function(arm,size=0x1690) addr:0x02159f6c
_ZN12ActorUnkICBS19func_ov080_0215b5fcEv kind:function(arm,size=0xf0) addr:0x0215b5fc
_ZN12ActorUnkICBS19func_ov080_0215b6ecEv kind:function(arm,size=0x178) addr:0x0215b6ec
_ZN12ActorUnkICBS19func_ov080_0215b864Ev kind:function(arm,size=0x19c) addr:0x0215b864
_ZN12ActorUnkICBS19func_ov080_0215ba00Ev kind:function(arm,size=0x4e0) addr:0x0215ba00
_ZN12ActorUnkICBS19func_ov080_0215bee0Ev kind:function(arm,size=0x118) addr:0x0215bee0
_ZN12ActorUnkICBS19func_ov080_0215bff8Ev kind:function(arm,size=0xb4) addr:0x0215bff8
_ZN12ActorUnkICBS19func_ov080_0215c0acEv kind:function(arm,size=0x40) addr:0x0215c0ac
_ZN12ActorUnkICBS19func_ov080_0215c0ecEv kind:function(arm,size=0x54) addr:0x0215c0ec
_ZN12ActorUnkICBS19func_ov080_0215c140Ev kind:function(arm,size=0x54) addr:0x0215c140
_ZN12ActorUnkICBS19func_ov080_0215c194Ev kind:function(arm,size=0x70) addr:0x0215c194
_ZN12ActorUnkICBS19func_ov080_0215c204Ev kind:function(arm,size=0xa0) addr:0x0215c204
_ZN12ActorUnkICBS19func_ov080_0215c2a4Ev kind:function(arm,size=0xdc) addr:0x0215c2a4
_ZN12ActorUnkICBS19func_ov080_0215c380Ev kind:function(arm,size=0x60) addr:0x0215c380
_ZN12ActorUnkICBS19func_ov080_0215c3e0Ev kind:function(arm,size=0x54) addr:0x0215c3e0
_ZN12ActorUnkICBS19func_ov080_0215c434Ev kind:function(arm,size=0x84) addr:0x0215c434
_ZN12ActorUnkICBS19func_ov080_0215c4b8Ev kind:function(arm,size=0x2c) addr:0x0215c4b8
_ZN12ActorUnkICBS19func_ov080_0215c4e4Ev kind:function(arm,size=0x34) addr:0x0215c4e4
_ZN12ActorUnkICBS19func_ov080_0215c518Ev kind:function(arm,size=0x70) addr:0x0215c518
_ZN12ActorUnkICBS19func_ov080_0215c588Ev kind:function(arm,size=0x4c) addr:0x0215c588
_ZN12ActorUnkICBS19func_ov080_0215c5d4Ev kind:function(arm,size=0x48) addr:0x0215c5d4
_ZN12ActorUnkICBS19func_ov080_0215c61cEv kind:function(arm,size=0x5c) addr:0x0215c61c
_ZN12ActorUnkICBS19func_ov080_0215c678Ev kind:function(arm,size=0x60) addr:0x0215c678
_ZN12ActorUnkICBS19func_ov080_0215c6d8Ev kind:function(arm,size=0x1c) addr:0x0215c6d8
_ZN12ActorUnkICBS19func_ov080_0215c6f4Ev kind:function(arm,size=0x30) addr:0x0215c6f4
_ZN12ActorUnkICBS19func_ov080_0215c724Ev kind:function(arm,size=0x40) addr:0x0215c724
_ZN12ActorUnkICBS19func_ov080_0215c764Ev kind:function(arm,size=0x3b4) addr:0x0215c764
_ZN12ActorUnkICBS19func_ov080_0215cb18Ev kind:function(arm,size=0x160) addr:0x0215cb18
_ZN12ActorUnkICBS19func_ov080_0215cc78Ev kind:function(arm,size=0x9c) addr:0x0215cc78
_ZN12ActorUnkICBS19func_ov080_0215cd14Ev kind:function(arm,size=0x24) addr:0x0215cd14
_ZN12ActorUnkICBS19func_ov080_0215cd38Ev kind:function(arm,size=0x11c) addr:0x0215cd38
_ZN12ActorUnkICBS19func_ov080_0215ce54Ev kind:function(arm,size=0x38) addr:0x0215ce54
_ZN12ActorUnkICBS19func_ov080_0215ce8cEv kind:function(arm,size=0xd4) addr:0x0215ce8c
_ZN12ActorUnkICBS19func_ov080_0215cf60Ev kind:function(arm,size=0x84) addr:0x0215cf60
_ZN12ActorUnkICBS19func_ov080_0215cfe4Ev kind:function(arm,size=0x5c) addr:0x0215cfe4
_ZN12ActorUnkICBS19func_ov080_0215d040Ev kind:function(arm,size=0x30) addr:0x0215d040
_ZN12ActorUnkICBS19func_ov080_0215d070Ev kind:function(arm,size=0x4c4) addr:0x0215d070
_ZN12ActorUnkICBS19func_ov080_0215d534Ev kind:function(arm,size=0x68) addr:0x0215d534
_ZN12ActorUnkICBS19func_ov080_0215d59cEv kind:function(arm,size=0x64) addr:0x0215d59c
_ZN12ActorUnkICBS19func_ov080_0215d600Ev kind:function(arm,size=0x1c) addr:0x0215d600
_ZN12ActorUnkICBS19func_ov080_0215d61cEv kind:function(arm,size=0x35c) addr:0x0215d61c
_ZN12ActorUnkICBS19func_ov080_0215d978Ev kind:function(arm,size=0x110) addr:0x0215d978
_ZN12ActorUnkICBS19func_ov080_0215da88Ev kind:function(arm,size=0x90) addr:0x0215da88
_ZN12ActorUnkICBS19func_ov080_0215db18Ev kind:function(arm,size=0x5c) addr:0x0215db18
_ZN12ActorUnkICBS19func_ov080_0215db74Ev kind:function(arm,size=0x34) addr:0x0215db74
_ZN12ActorUnkICBS19func_ov080_0215dba8Ev kind:function(arm,size=0x230) addr:0x0215dba8
_ZN12ActorUnkICBS19func_ov080_0215ddd8Ev kind:function(arm,size=0xec) addr:0x0215ddd8
_ZN12ActorUnkICBS19func_ov080_0215dec4Ev kind:function(arm,size=0x13c) addr:0x0215dec4
_ZN12ActorUnkICBS19func_ov080_0215e000Ev kind:function(arm,size=0x68) addr:0x0215e000
_ZN12ActorUnkICBS19func_ov080_0215e068Ev kind:function(arm,size=0x1c) addr:0x0215e068
_ZN12ActorUnkICBS19func_ov080_0215e084Ev kind:function(arm,size=0x74) addr:0x0215e084
_ZN12ActorUnkICBS19func_ov080_0215e0f8Ev kind:function(arm,size=0x11c) addr:0x0215e0f8
_ZN12ActorUnkICBS19func_ov080_0215e214Ev kind:function(arm,size=0x58) addr:0x0215e214
_ZN12ActorUnkICBS19func_ov080_0215e26cEv kind:function(arm,size=0x14) addr:0x0215e26c
_ZN12ActorUnkICBS19func_ov080_0215e280Ev kind:function(arm,size=0xb0) addr:0x0215e280
_ZN12ActorUnkICBS19func_ov080_0215e330Ev kind:function(arm,size=0x38) addr:0x0215e330
_ZN12ActorUnkICBS19func_ov080_0215e368Ev kind:function(arm,size=0x374) addr:0x0215e368
_ZN12ActorUnkICBS19func_ov080_0215e6dcEv kind:function(arm,size=0xc) addr:0x0215e6dc
_ZN12ActorUnkICBS19func_ov080_0215e6e8Ev kind:function(arm,size=0x38) addr:0x0215e6e8
_ZN12ActorUnkICBS19func_ov080_0215e720Ev kind:function(arm,size=0x30) addr:0x0215e720
_ZN12ActorUnkICBS19func_ov080_0215e750Ev kind:function(arm,size=0x1f8) addr:0x0215e750
_ZN12ActorUnkICBS19func_ov080_0215e948Ev kind:function(arm,size=0x24) addr:0x0215e948
_ZN12ActorUnkICBS19func_ov080_0215e96cEv kind:function(arm,size=0x2c) addr:0x0215e96c
_ZN12ActorUnkICBS19func_ov080_0215e998Ev kind:function(arm,size=0xc) addr:0x0215e998
_ZN12ActorUnkICBS19func_ov080_0215e9a4Ev kind:function(arm,size=0x1c) addr:0x0215e9a4
_ZN12ActorUnkICBS19func_ov080_0215e9c0Ev kind:function(arm,size=0x1c) addr:0x0215e9c0
_ZN19ActorProfileUnkICBSD1Ev kind:function(arm,size=0x14) addr:0x0215e9dc
_ZN19ActorProfileUnkICBA10GetProfileEv kind:function(arm,size=0xc) addr:0x0215e9f0
_ZN19ActorProfileUnkICBA6CreateEv kind:function(arm,size=0x24) addr:0x0215e9fc
_ZN19ActorProfileUnkICBAC1Ev kind:function(arm,size=0x8c) addr:0x0215ea20
_ZN12ActorUnkICBA19func_ov080_0215eaacEv kind:function(arm,size=0xf0) addr:0x0215eaac
_ZN12ActorUnkICBA19func_ov080_0215eb9cEv kind:function(arm,size=0x44) addr:0x0215eb9c
_ZN12ActorUnkICBAD1Ev kind:function(arm,size=0x14) addr:0x0215ebe0
_ZN12ActorUnkICBAD0Ev kind:function(arm,size=0x1c) addr:0x0215ebf4
_ZN12ActorUnkICBA19func_ov080_0215ec10Ev kind:function(arm,size=0x34) addr:0x0215ec10
_ZN12ActorUnkICBA19func_ov080_0215ec44Ev kind:function(arm,size=0x1c4) addr:0x0215ec44
_ZN12ActorUnkICBAC1Ev kind:function(arm,size=0x208) addr:0x0215ee08
_ZN12ActorUnkICBA19func_ov080_0215f010Ev kind:function(arm,size=0x14) addr:0x0215f010
_ZN12ActorUnkICBA19func_ov080_0215f024Ev kind:function(arm,size=0x14) addr:0x0215f024
_ZN12ActorUnkICBA19func_ov080_0215f038Ev kind:function(arm,size=0x14) addr:0x0215f038
_ZN12ActorUnkICBA19func_ov080_0215f04cEv kind:function(arm,size=0xcc) addr:0x0215f04c
_ZN12ActorUnkICBA19func_ov080_0215f118Ev kind:function(arm,size=0xd4) addr:0x0215f118
_ZN12ActorUnkICBA19func_ov080_0215f1ecEv kind:function(arm,size=0xbc) addr:0x0215f1ec
_ZN12ActorUnkICBA19func_ov080_0215f2a8Ev kind:function(arm,size=0x48) addr:0x0215f2a8
_ZN12ActorUnkICBA19func_ov080_0215f2f0Ev kind:function(arm,size=0x2fc) addr:0x0215f2f0
_ZN12ActorUnkICBA19func_ov080_0215f5ecEv kind:function(arm,size=0xf8) addr:0x0215f5ec
_ZN12ActorUnkICBA19func_ov080_0215f6e4Ev kind:function(arm,size=0x4) addr:0x0215f6e4
_ZN12ActorUnkICBA19func_ov080_0215f6e8Ev kind:function(arm,size=0x204) addr:0x0215f6e8
_ZN12ActorUnkICBA19func_ov080_0215f8ecEv kind:function(arm,size=0x3b4) addr:0x0215f8ec
_ZN12ActorUnkICBA19func_ov080_0215fca0Ev kind:function(arm,size=0x538) addr:0x0215fca0
_ZN12ActorUnkICBA19func_ov080_021601d8Ev kind:function(arm,size=0x1d8) addr:0x021601d8
_ZN12ActorUnkICBA19func_ov080_021603b0Ev kind:function(arm,size=0x34) addr:0x021603b0
_ZN12ActorUnkICBA19func_ov080_021603e4Ev kind:function(arm,size=0x34) addr:0x021603e4
_ZN12ActorUnkICBA19func_ov080_02160418Ev kind:function(arm,size=0x110) addr:0x02160418
_ZN12ActorUnkICBA19func_ov080_02160528Ev kind:function(arm,size=0x38) addr:0x02160528
_ZN12ActorUnkICBA19func_ov080_02160560Ev kind:function(arm,size=0x44) addr:0x02160560
_ZN12ActorUnkICBA19func_ov080_021605a4Ev kind:function(arm,size=0xb4) addr:0x021605a4
_ZN12ActorUnkICBA19func_ov080_02160658Ev kind:function(arm,size=0x1c) addr:0x02160658
_ZN12ActorUnkICBA19func_ov080_02160674Ev kind:function(arm,size=0x1c) addr:0x02160674
_ZN12ActorUnkICBA19func_ov080_02160690Ev kind:function(arm,size=0x1c) addr:0x02160690
_ZN19ActorProfileUnkICBAD1Ev kind:function(arm,size=0x14) addr:0x021606ac
func_ov080_021606c0 kind:function(arm,size=0x78) addr:0x021606c0
func_ov080_02160738 kind:function(arm,size=0x9c) addr:0x02160738
func_ov080_021607d4 kind:function(arm,size=0x88) addr:0x021607d4
func_ov080_0216085c kind:function(arm,size=0x10) addr:0x0216085c
func_ov080_0216086c kind:function(arm,size=0x10) addr:0x0216086c
func_ov080_0216087c kind:function(arm,size=0x80) addr:0x0216087c
_ZN23MapObjectProfileUnkSTSS10GetProfileEv kind:function(arm,size=0xc) addr:0x021608fc
_ZN23MapObjectProfileUnkSTSS6CreateEv kind:function(arm,size=0x24) addr:0x02160908
_ZN23MapObjectProfileUnkSTSSC1Ev kind:function(arm,size=0x4c) addr:0x0216092c
_ZN16MapObjectUnkSTSSC1Ev kind:function(arm,size=0x5c) addr:0x02160978
_ZN16MapObjectUnkSTSS19func_ov080_021609d4Ev kind:function(arm,size=0xa8) addr:0x021609d4
_ZN16MapObjectUnkSTSS19func_ov080_02160a7cEv kind:function(arm,size=0x54) addr:0x02160a7c
_ZN16MapObjectUnkSTSS19func_ov080_02160ad0Ev kind:function(arm,size=0x60) addr:0x02160ad0
_ZN16MapObjectUnkSTSSD1Ev kind:function(arm,size=0x28) addr:0x02160b30
_ZN16MapObjectUnkSTSSD0Ev kind:function(arm,size=0x30) addr:0x02160b58
_ZN23MapObjectProfileUnkSTSSD1Ev kind:function(arm,size=0x14) addr:0x02160b88
_ZN19func_ov080_02160b9cD0Ev kind:function(arm,size=0x1c) addr:0x02160b9c
func_ov080_02160bb8 kind:function(arm,size=0x10) addr:0x02160bb8
_ZN19ActorProfileUnkRBSN10GetProfileEv kind:function(arm,size=0xc) addr:0x02160bc8
_ZN19ActorProfileUnkRBSN6CreateEv kind:function(arm,size=0x24) addr:0x02160bd4
_ZN19ActorProfileUnkRBSNC1Ev kind:function(arm,size=0x28) addr:0x02160bf8
_ZN12ActorUnkRBSNC1Ev kind:function(arm,size=0x74) addr:0x02160c20
_ZN12ActorUnkRBSN19func_ov080_02160c94Ev kind:function(arm,size=0x14) addr:0x02160c94
_ZN12ActorUnkRBSN19func_ov080_02160ca8Ev kind:function(arm,size=0x68) addr:0x02160ca8
_ZN12ActorUnkRBSN19func_ov080_02160d10Ev kind:function(arm,size=0x4) addr:0x02160d10
_ZN12ActorUnkRBSN19func_ov080_02160d14Ev kind:function(arm,size=0x14) addr:0x02160d14
_ZN12ActorUnkRBSN19func_ov080_02160d28Ev kind:function(arm,size=0x14) addr:0x02160d28
_ZN12ActorUnkRBSN19func_ov080_02160d3cEv kind:function(arm,size=0x50) addr:0x02160d3c
_ZN12ActorUnkRBSN19func_ov080_02160d8cEv kind:function(arm,size=0x24) addr:0x02160d8c
_ZN12ActorUnkRBSN19func_ov080_02160db0Ev kind:function(arm,size=0x10) addr:0x02160db0
_ZN12ActorUnkRBSN19func_ov080_02160dc0Ev kind:function(arm,size=0x8) addr:0x02160dc0
_ZN12ActorUnkRBSND0Ev kind:function(arm,size=0x1c) addr:0x02160dc8
_ZN12ActorUnkRBSND1Ev kind:function(arm,size=0x28) addr:0x02160de4
_ZN12ActorUnkRBSN19func_ov080_02160e0cEv kind:function(arm,size=0x30) addr:0x02160e0c
_ZN19ActorProfileUnkRBSND1Ev kind:function(arm,size=0x14) addr:0x02160e3c
data_ov080_02160e50 kind:data(any) addr:0x02160e50
data_ov080_02160e56 kind:data(any) addr:0x02160e56
data_ov080_02160e5c kind:data(any) addr:0x02160e5c
data_ov080_02160e62 kind:data(any) addr:0x02160e62
data_ov080_02160e68 kind:data(any) addr:0x02160e68
data_ov080_02160e6e kind:data(any) addr:0x02160e6e
data_ov080_02160e74 kind:data(any) addr:0x02160e74
data_ov080_02160e7c kind:data(any) addr:0x02160e7c
data_ov080_02160e88 kind:data(any) addr:0x02160e88
data_ov080_02160e94 kind:data(any) addr:0x02160e94
data_ov080_02160ea0 kind:data(any) addr:0x02160ea0
data_ov080_02160eac kind:data(any) addr:0x02160eac
data_ov080_02160ec4 kind:data(any) addr:0x02160ec4
data_ov080_02160ed0 kind:data(any) addr:0x02160ed0
data_ov080_02160edc kind:data(any) addr:0x02160edc
data_ov080_02160ee0 kind:data(any) addr:0x02160ee0
data_ov080_02160ee4 kind:data(any) addr:0x02160ee4
data_ov080_02160ef0 kind:data(any) addr:0x02160ef0
data_ov080_02160efc kind:data(any) addr:0x02160efc
__sinit_ActorUnkICBS.cpp kind:function(arm,size=0x564) addr:0x02160f0c
__sinit_ActorUnkICBA.cpp kind:function(arm,size=0x74) addr:0x02161470
__sinit_MapObjectUnkSTSS.cpp kind:function(arm,size=0x50) addr:0x021614e4
__sinit_ActorUnkRBSN.cpp kind:function(arm,size=0x50) addr:0x02161534
.p__sinit_ActorUnkICBS.cpp kind:data(word) addr:0x02161584
.p__sinit_ActorUnkICBA.cpp kind:data(word) addr:0x02161588
.p__sinit_MapObjectUnkSTSS.cpp kind:data(word) addr:0x0216158c
.p__sinit_ActorUnkRBSN.cpp kind:data(word) addr:0x02161590
data_ov080_021615a0 kind:data(any) addr:0x021615a0
data_ov080_021615b4 kind:data(any) addr:0x021615b4
_ZTV19data_ov080_021615c8 kind:data(any) addr:0x021615c8
data_ov080_021615f4 kind:data(any) addr:0x021615f4
_ZTV19data_ov080_02161638 kind:data(any) addr:0x02161638
data_ov080_02161698 kind:data(any) addr:0x02161698
data_ov080_0216169c kind:data(any) addr:0x0216169c
data_ov080_021616a0 kind:data(any) addr:0x021616a0
data_ov080_021616a4 kind:data(any) addr:0x021616a4
data_ov080_021616b0 kind:data(any) addr:0x021616b0
data_ov080_021616bc kind:data(any) addr:0x021616bc
data_ov080_021616c8 kind:data(any) addr:0x021616c8
data_ov080_021616d4 kind:data(any) addr:0x021616d4
data_ov080_021616e0 kind:data(any) addr:0x021616e0
data_ov080_021616ec kind:data(any) addr:0x021616ec
data_ov080_021616f8 kind:data(any) addr:0x021616f8
data_ov080_02161704 kind:data(any) addr:0x02161704
data_ov080_02161710 kind:data(any) addr:0x02161710
data_ov080_021617e8 kind:data(any) addr:0x021617e8
data_ov080_021618c0 kind:data(any) addr:0x021618c0
data_ov080_021618cc kind:data(any) addr:0x021618cc
data_ov080_021618d8 kind:data(any) addr:0x021618d8
data_ov080_021618e4 kind:data(any) addr:0x021618e4
data_ov080_021618f0 kind:data(any) addr:0x021618f0
data_ov080_021618fc kind:data(any) addr:0x021618fc
data_ov080_02161908 kind:data(any) addr:0x02161908
data_ov080_02161914 kind:data(any) addr:0x02161914
data_ov080_02161920 kind:data(any) addr:0x02161920
data_ov080_0216192c kind:data(any) addr:0x0216192c
data_ov080_02161938 kind:data(any) addr:0x02161938
data_ov080_02161944 kind:data(any) addr:0x02161944
data_ov080_02161950 kind:data(any) addr:0x02161950
data_ov080_0216195c kind:data(any) addr:0x0216195c
data_ov080_02161968 kind:data(any) addr:0x02161968
data_ov080_02161974 kind:data(any) addr:0x02161974
data_ov080_02161980 kind:data(any) addr:0x02161980
data_ov080_0216198c kind:data(any) addr:0x0216198c
data_ov080_02161998 kind:data(any) addr:0x02161998
data_ov080_021619a4 kind:data(any) addr:0x021619a4
data_ov080_021619b0 kind:data(any) addr:0x021619b0
data_ov080_021619bc kind:data(any) addr:0x021619bc
data_ov080_021619c8 kind:data(any) addr:0x021619c8
data_ov080_021619d4 kind:data(any) addr:0x021619d4
data_ov080_021619e0 kind:data(any) addr:0x021619e0
data_ov080_021619ec kind:data(any) addr:0x021619ec
data_ov080_021619f8 kind:data(any) addr:0x021619f8
data_ov080_02161a04 kind:data(any) addr:0x02161a04
data_ov080_02161a10 kind:data(any) addr:0x02161a10
data_ov080_02161a1c kind:data(any) addr:0x02161a1c
data_ov080_02161a28 kind:data(any) addr:0x02161a28
data_ov080_02161a34 kind:data(any) addr:0x02161a34
data_ov080_02161a40 kind:data(any) addr:0x02161a40
data_ov080_02161a4c kind:data(any) addr:0x02161a4c
data_ov080_02161a58 kind:data(any) addr:0x02161a58
data_ov080_02161a64 kind:data(any) addr:0x02161a64
data_ov080_02161a70 kind:data(any) addr:0x02161a70
data_ov080_02161a88 kind:data(any) addr:0x02161a88
data_ov080_02161aa0 kind:data(any) addr:0x02161aa0
data_ov080_02161ab8 kind:data(any) addr:0x02161ab8
data_ov080_02161ad0 kind:data(any) addr:0x02161ad0
data_ov080_02161ae8 kind:data(any) addr:0x02161ae8
data_ov080_02161b00 kind:data(any) addr:0x02161b00
data_ov080_02161b18 kind:data(any) addr:0x02161b18
data_ov080_02161b30 kind:data(any) addr:0x02161b30
data_ov080_02161b48 kind:data(any) addr:0x02161b48
data_ov080_02161b60 kind:data(any) addr:0x02161b60
data_ov080_02161b68 kind:data(any) addr:0x02161b68 ambiguous
data_ov080_02161b78 kind:data(any) addr:0x02161b78
data_ov080_02161b90 kind:data(any) addr:0x02161b90
data_ov080_02161ba8 kind:data(any) addr:0x02161ba8
data_ov080_02161bc0 kind:data(any) addr:0x02161bc0
data_ov080_02161bd8 kind:data(any) addr:0x02161bd8
data_ov080_02161bf0 kind:data(any) addr:0x02161bf0
data_ov080_02161c08 kind:data(any) addr:0x02161c08
data_ov080_02161c20 kind:data(any) addr:0x02161c20
data_ov080_02161c38 kind:data(any) addr:0x02161c38
data_ov080_02161c50 kind:data(any) addr:0x02161c50
data_ov080_02161c70 kind:data(any) addr:0x02161c70
data_ov080_02161c7c kind:data(any) addr:0x02161c7c
data_ov080_02161c80 kind:data(any) addr:0x02161c80
data_ov080_02161c90 kind:data(any) addr:0x02161c90
data_ov080_02161ca8 kind:data(any) addr:0x02161ca8
data_ov080_02161cc0 kind:data(any) addr:0x02161cc0
data_ov080_02161ce0 kind:data(any) addr:0x02161ce0
data_ov080_02161cf4 kind:data(any) addr:0x02161cf4
data_ov080_02161d10 kind:data(any) addr:0x02161d10
_ZTV19data_ov080_02161d24 kind:data(any) addr:0x02161d24
data_ov080_02161d50 kind:data(any) addr:0x02161d50
data_ov080_02161d74 kind:data(any) addr:0x02161d74
data_ov080_02161d9c kind:data(any) addr:0x02161d9c
_ZTV19data_ov080_02161de0 kind:data(any) addr:0x02161de0
data_ov080_02161e44 kind:data(any) addr:0x02161e44
data_ov080_02161e6c kind:data(any) addr:0x02161e6c
data_ov080_02161e74 kind:data(any) addr:0x02161e74 ambiguous
data_ov080_02161edc kind:data(any) addr:0x02161edc
data_ov080_02161eec kind:data(any) addr:0x02161eec
_ZTV19data_ov080_02161f04 kind:data(any) addr:0x02161f04
data_ov080_02161f30 kind:data(any) addr:0x02161f30
_ZTV19data_ov080_02161f70 kind:data(any) addr:0x02161f70
data_ov080_02161fe0 kind:bss addr:0x02161fe0
data_ov080_02161fe4 kind:bss addr:0x02161fe4
data_ov080_02161ff0 kind:bss addr:0x02161ff0
sActorProfileUnkICBS kind:bss addr:0x02161ffc
data_ov080_02162000 kind:bss addr:0x02162000
data_ov080_021620a4 kind:bss addr:0x021620a4 ambiguous
data_ov080_021620d4 kind:bss addr:0x021620d4
data_ov080_021621c9 kind:bss addr:0x021621c9 ambiguous
data_ov080_02162274 kind:bss addr:0x02162274 ambiguous
data_ov080_02162284 kind:bss addr:0x02162284
data_ov080_02162288 kind:bss addr:0x02162288
sActorProfileUnkICBA kind:bss addr:0x02162294
data_ov080_02162358 kind:bss addr:0x02162358 ambiguous
data_ov080_0216236c kind:bss addr:0x0216236c
data_ov080_0216238c kind:bss addr:0x0216238c
data_ov080_02162390 kind:bss addr:0x02162390
sMapObjectProfileUnkSTSS kind:bss addr:0x0216239c
data_ov080_02162404 kind:bss addr:0x02162404
data_ov080_02162408 kind:bss addr:0x02162408
sActorProfileUnkRBSN kind:bss addr:0x02162414
