func_ov098_02181040 kind:function(arm,size=0x30) addr:0x02181040
func_ov098_02181070 kind:function(arm,size=0x68) addr:0x02181070
_ZN19ActorProfileUnkEFWV10GetProfileEv kind:function(arm,size=0xc) addr:0x021810d8
_ZN19ActorProfileUnkEFWV6CreateEv kind:function(arm,size=0x24) addr:0x021810e4
_ZN19ActorProfileUnkEFWVC1Ev kind:function(arm,size=0x74) addr:0x02181108
_ZN12ActorUnkEFWV19func_ov098_0218117cEv kind:function(arm,size=0x9c) addr:0x0218117c
_ZN12ActorUnkEFWV19func_ov098_02181218Ev kind:function(arm,size=0x14) addr:0x02181218
_ZN12ActorUnkEFWV19func_ov098_0218122cEv kind:function(arm,size=0x14) addr:0x0218122c
_ZN12ActorUnkEFWVC1Ev kind:function(arm,size=0x9c) addr:0x02181240
_ZN12ActorUnkEFWV19func_ov098_021812dcEv kind:function(arm,size=0x9c) addr:0x021812dc
_ZN12ActorUnkEFWV19func_ov098_02181378Ev kind:function(arm,size=0x50) addr:0x02181378
_ZN12ActorUnkEFWV19func_ov098_021813c8Ev kind:function(arm,size=0x14) addr:0x021813c8
_ZN12ActorUnkEFWV19func_ov098_021813dcEv kind:function(arm,size=0x34) addr:0x021813dc
_ZN12ActorUnkEFWV19func_ov098_02181410Ev kind:function(arm,size=0x1c) addr:0x02181410
_ZN12ActorUnkEFWV19func_ov098_0218142cEv kind:function(arm,size=0x16c) addr:0x0218142c
_ZN12ActorUnkEFWVD0Ev kind:function(arm,size=0x38) addr:0x02181598
_ZN12ActorUnkEFWVD2Ev kind:function(arm,size=0x30) addr:0x021815d0
_ZN12ActorUnkEFWV19func_ov098_02181600Ev kind:function(arm,size=0x24) addr:0x02181600
_ZN12ActorUnkEFWV19func_ov098_02181624Ev kind:function(arm,size=0x10) addr:0x02181624
_ZN12ActorUnkEFWV19func_ov098_02181634Ev kind:function(arm,size=0x8) addr:0x02181634
_ZN12ActorUnkEFWV19func_ov098_0218163cEv kind:function(arm,size=0x1c) addr:0x0218163c
_ZN12ActorUnkEFWV19func_ov098_02181658Ev kind:function(arm,size=0x1c) addr:0x02181658
_ZN19ActorProfileUnkEFWVD1Ev kind:function(arm,size=0x14) addr:0x02181674
_ZN19ActorProfileUnkEFWI10GetProfileEv kind:function(arm,size=0xc) addr:0x02181688
_ZN19ActorProfileUnkEFWI6CreateEv kind:function(arm,size=0x24) addr:0x02181694
_ZN19ActorProfileUnkEFWIC1Ev kind:function(arm,size=0x60) addr:0x021816b8
_ZN12ActorUnkEFWIC1Ev kind:function(arm,size=0x20) addr:0x02181718
_ZN12ActorUnkEFWI19func_ov098_02181738Ev kind:function(arm,size=0x9c) addr:0x02181738
_ZN12ActorUnkEFWI19func_ov098_021817d4Ev kind:function(arm,size=0x1c) addr:0x021817d4
_ZN12ActorUnkEFWID1Ev kind:function(arm,size=0x30) addr:0x021817f0
_ZN12ActorUnkEFWID0Ev kind:function(arm,size=0x38) addr:0x02181820
_ZN19ActorProfileUnkEFWID1Ev kind:function(arm,size=0x14) addr:0x02181858
_ZN19ActorProfileUnkEFRP10GetProfileEv kind:function(arm,size=0xc) addr:0x0218186c
_ZN19ActorProfileUnkEFRP6CreateEv kind:function(arm,size=0x24) addr:0x02181878
_ZN19ActorProfileUnkEFRPC1Ev kind:function(arm,size=0x74) addr:0x0218189c
_ZN12ActorUnkEFRP19func_ov098_02181910Ev kind:function(arm,size=0x90) addr:0x02181910
_ZN12ActorUnkEFRPC1Ev kind:function(arm,size=0x90) addr:0x021819a0
_ZN12ActorUnkEFRP19func_ov098_02181a30Ev kind:function(arm,size=0x9c) addr:0x02181a30
_ZN12ActorUnkEFRP19func_ov098_02181accEv kind:function(arm,size=0x50) addr:0x02181acc
_ZN12ActorUnkEFRP19func_ov098_02181b1cEv kind:function(arm,size=0x14) addr:0x02181b1c
_ZN12ActorUnkEFRP19func_ov098_02181b30Ev kind:function(arm,size=0x58) addr:0x02181b30
_ZN12ActorUnkEFRP19func_ov098_02181b88Ev kind:function(arm,size=0x1c) addr:0x02181b88
_ZN12ActorUnkEFRP19func_ov098_02181ba4Ev kind:function(arm,size=0x16c) addr:0x02181ba4
_ZN12ActorUnkEFRPD0Ev kind:function(arm,size=0x38) addr:0x02181d10
_ZN12ActorUnkEFRPD2Ev kind:function(arm,size=0x30) addr:0x02181d48
_ZN19ActorProfileUnkEFRPD1Ev kind:function(arm,size=0x14) addr:0x02181d78
_ZN19ActorProfileUnkEFRI10GetProfileEv kind:function(arm,size=0xc) addr:0x02181d8c
_ZN19ActorProfileUnkEFRI6CreateEv kind:function(arm,size=0x24) addr:0x02181d98
_ZN19ActorProfileUnkEFRIC1Ev kind:function(arm,size=0x60) addr:0x02181dbc
_ZN12ActorUnkEFRIC1Ev kind:function(arm,size=0x20) addr:0x02181e1c
_ZN12ActorUnkEFRI19func_ov098_02181e3cEv kind:function(arm,size=0x9c) addr:0x02181e3c
_ZN12ActorUnkEFRI19func_ov098_02181ed8Ev kind:function(arm,size=0x1c) addr:0x02181ed8
_ZN12ActorUnkEFRID1Ev kind:function(arm,size=0x30) addr:0x02181ef4
_ZN12ActorUnkEFRID0Ev kind:function(arm,size=0x38) addr:0x02181f24
_ZN19ActorProfileUnkEFRID1Ev kind:function(arm,size=0x14) addr:0x02181f5c
_ZN19ActorProfileUnkSEAT10GetProfileEv kind:function(arm,size=0xc) addr:0x02181f70
_ZN19ActorProfileUnkSEAT6CreateEv kind:function(arm,size=0x24) addr:0x02181f7c
_ZN19ActorProfileUnkSEATC1Ev kind:function(arm,size=0x28) addr:0x02181fa0
_ZN12ActorUnkSEATC1Ev kind:function(arm,size=0x128) addr:0x02181fc8
_ZN12ActorUnkSEAT19func_ov098_021820f0Ev kind:function(arm,size=0x20) addr:0x021820f0
_ZN12ActorUnkSEAT19func_ov098_02182110Ev kind:function(arm,size=0x1c) addr:0x02182110
_ZN12ActorUnkSEAT19func_ov098_0218212cEv kind:function(arm,size=0x14) addr:0x0218212c
_ZN12ActorUnkSEAT19func_ov098_02182140Ev kind:function(arm,size=0x20) addr:0x02182140
_ZN12ActorUnkSEATD1Ev kind:function(arm,size=0x20) addr:0x02182160
_ZN12ActorUnkSEATD0Ev kind:function(arm,size=0x28) addr:0x02182180
_ZN19ActorProfileUnkSEATD1Ev kind:function(arm,size=0x14) addr:0x021821a8
data_ov098_021821bc kind:data(any) addr:0x021821bc
__sinit_ActorUnkEFWV.cpp kind:function(arm,size=0x50) addr:0x021821d0
__sinit_ActorUnkEFWI.cpp kind:function(arm,size=0x50) addr:0x02182220
__sinit_ActorUnkEFRP.cpp kind:function(arm,size=0x50) addr:0x02182270
__sinit_ActorUnkEFRI.cpp kind:function(arm,size=0x50) addr:0x021822c0
__sinit_ActorUnkSEAT.cpp kind:function(arm,size=0x50) addr:0x02182310
.p__sinit_ActorUnkEFWV.cpp kind:data(word) addr:0x02182360
.p__sinit_ActorUnkEFWI.cpp kind:data(word) addr:0x02182364
.p__sinit_ActorUnkEFRP.cpp kind:data(word) addr:0x02182368
.p__sinit_ActorUnkEFRI.cpp kind:data(word) addr:0x0218236c
.p__sinit_ActorUnkSEAT.cpp kind:data(word) addr:0x02182370
data_ov098_02182388 kind:data(any) addr:0x02182388
_ZTV19data_ov098_0218238c kind:data(any) addr:0x0218238c
data_ov098_021823b0 kind:data(any) addr:0x021823b0
data_ov098_021823c8 kind:data(any) addr:0x021823c8
data_ov098_021823e8 kind:data(any) addr:0x021823e8
data_ov098_02182430 kind:data(any) addr:0x02182430
_ZTV19data_ov098_02182470 kind:data(any) addr:0x02182470
_ZTV19data_ov098_021824d0 kind:data(any) addr:0x021824d0
data_ov098_021824f4 kind:data(any) addr:0x021824f4
data_ov098_0218250c kind:data(any) addr:0x0218250c
_ZTV19data_ov098_02182524 kind:data(any) addr:0x02182524
_ZTV19data_ov098_02182584 kind:data(any) addr:0x02182584
data_ov098_021825a8 kind:data(any) addr:0x021825a8
data_ov098_021825c0 kind:data(any) addr:0x021825c0
_ZTV19data_ov098_021825d8 kind:data(any) addr:0x021825d8
_ZTV19data_ov098_02182638 kind:data(any) addr:0x02182638
data_ov098_0218265c kind:data(any) addr:0x0218265c
data_ov098_02182674 kind:data(any) addr:0x02182674
_ZTV19data_ov098_0218268c kind:data(any) addr:0x0218268c
_ZTV19data_ov098_021826ec kind:data(any) addr:0x021826ec
_ZTV19data_ov098_02182710 kind:data(any) addr:0x02182710
data_ov098_02182780 kind:bss addr:0x02182780
data_ov098_02182784 kind:bss addr:0x02182784
sActorProfileUnkEFWV kind:bss addr:0x02182790
data_ov098_02182868 kind:bss addr:0x02182868
data_ov098_0218286c kind:bss addr:0x0218286c
sActorProfileUnkEFWI kind:bss addr:0x02182878
data_ov098_02182950 kind:bss addr:0x02182950
data_ov098_02182954 kind:bss addr:0x02182954
sActorProfileUnkEFRP kind:bss addr:0x02182960
data_ov098_02182a38 kind:bss addr:0x02182a38
data_ov098_02182a3c kind:bss addr:0x02182a3c
sActorProfileUnkEFRI kind:bss addr:0x02182a48
data_ov098_02182b20 kind:bss addr:0x02182b20
data_ov098_02182b24 kind:bss addr:0x02182b24
sActorProfileUnkSEAT kind:bss addr:0x02182b30
data_ov098_02182b6c kind:bss addr:0x02182b6c
