_ZN19ActorProfileUnkOCTS10GetProfileEv kind:function(arm,size=0xc) addr:0x021234c0
_ZN19ActorProfileUnkOCTS6CreateEv kind:function(arm,size=0x24) addr:0x021234cc
_ZN19ActorProfileUnkOCTSC1Ev kind:function(arm,size=0x48) addr:0x021234f0
_ZN12ActorUnkOCTSC1Ev kind:function(arm,size=0xc8) addr:0x02123538
_ZN12ActorUnkOCTS19func_ov042_02123600Ev kind:function(arm,size=0x14) addr:0x02123600
_ZN12ActorUnkOCTS19func_ov042_02123614Ev kind:function(arm,size=0x84) addr:0x02123614
_ZN12ActorUnkOCTS19func_ov042_02123698Ev kind:function(arm,size=0x244) addr:0x02123698
_ZN12ActorUnkOCTS19func_ov042_021238dcEv kind:function(arm,size=0xb0) addr:0x021238dc
_ZN12ActorUnkOCTS19func_ov042_0212398cEv kind:function(arm,size=0x64) addr:0x0212398c
_ZN12ActorUnkOCTS19func_ov042_021239f0Ev kind:function(arm,size=0x48) addr:0x021239f0
_ZN12ActorUnkOCTS19func_ov042_02123a38Ev kind:function(arm,size=0x38) addr:0x02123a38
_ZN12ActorUnkOCTS19func_ov042_02123a70Ev kind:function(arm,size=0xcc) addr:0x02123a70
_ZN12ActorUnkOCTS19func_ov042_02123b3cEv kind:function(arm,size=0x3c) addr:0x02123b3c
_ZN12ActorUnkOCTS19func_ov042_02123b78Ev kind:function(arm,size=0x4c) addr:0x02123b78
_ZN12ActorUnkOCTSD0Ev kind:function(arm,size=0x1c) addr:0x02123bc4
_ZN12ActorUnkOCTSD1Ev kind:function(arm,size=0x28) addr:0x02123be0
_ZN12ActorUnkOCTS19func_ov042_02123c08Ev kind:function(arm,size=0x30) addr:0x02123c08
_ZN19ActorProfileUnkOCTSD1Ev kind:function(arm,size=0x14) addr:0x02123c38
_ZN19ActorProfileUnkOCTA10GetProfileEv kind:function(arm,size=0xc) addr:0x02123c4c
_ZN19ActorProfileUnkOCTA6CreateEv kind:function(arm,size=0x24) addr:0x02123c58
_ZN19ActorProfileUnkOCTAC1Ev kind:function(arm,size=0x54) addr:0x02123c7c
_ZN12ActorUnkOCTAC1Ev kind:function(arm,size=0x17c) addr:0x02123cd0
_ZN12ActorUnkOCTA19func_ov042_02123e4cEv kind:function(arm,size=0x14) addr:0x02123e4c
_ZN12ActorUnkOCTA19func_ov042_02123e60Ev kind:function(arm,size=0x28) addr:0x02123e60
_ZN12ActorUnkOCTA19func_ov042_02123e88Ev kind:function(arm,size=0x70) addr:0x02123e88
_ZN12ActorUnkOCTA19func_ov042_02123ef8Ev kind:function(arm,size=0x20) addr:0x02123ef8
_ZN12ActorUnkOCTA19func_ov042_02123f18Ev kind:function(arm,size=0x48) addr:0x02123f18
_ZN12ActorUnkOCTA19func_ov042_02123f60Ev kind:function(arm,size=0x26c) addr:0x02123f60
_ZN12ActorUnkOCTA19func_ov042_021241ccEv kind:function(arm,size=0x16c) addr:0x021241cc
_ZN12ActorUnkOCTA19func_ov042_02124338Ev kind:function(arm,size=0xbc) addr:0x02124338
_ZN12ActorUnkOCTA19func_ov042_021243f4Ev kind:function(arm,size=0xe4) addr:0x021243f4
_ZN12ActorUnkOCTA19func_ov042_021244d8Ev kind:function(arm,size=0x11c) addr:0x021244d8
_ZN12ActorUnkOCTA19func_ov042_021245f4Ev kind:function(arm,size=0xb4) addr:0x021245f4
_ZN12ActorUnkOCTA19func_ov042_021246a8Ev kind:function(arm,size=0x38) addr:0x021246a8
_ZN12ActorUnkOCTA19func_ov042_021246e0Ev kind:function(arm,size=0x6c) addr:0x021246e0
_ZN12ActorUnkOCTA19func_ov042_0212474cEv kind:function(arm,size=0xb4) addr:0x0212474c
_ZN12ActorUnkOCTA19func_ov042_02124800Ev kind:function(arm,size=0x8c) addr:0x02124800
_ZN12ActorUnkOCTA19func_ov042_0212488cEv kind:function(arm,size=0x24) addr:0x0212488c
_ZN12ActorUnkOCTA19func_ov042_021248b0Ev kind:function(arm,size=0x94) addr:0x021248b0
_ZN12ActorUnkOCTA19func_ov042_02124944Ev kind:function(arm,size=0x54) addr:0x02124944
_ZN12ActorUnkOCTA19func_ov042_02124998Ev kind:function(arm,size=0x74) addr:0x02124998
_ZN12ActorUnkOCTA19func_ov042_02124a0cEv kind:function(arm,size=0x238) addr:0x02124a0c
_ZN12ActorUnkOCTA19func_ov042_02124c44Ev kind:function(arm,size=0x6c) addr:0x02124c44
_ZN12ActorUnkOCTA19func_ov042_02124cb0Ev kind:function(arm,size=0xfc) addr:0x02124cb0
_ZN12ActorUnkOCTA19func_ov042_02124dacEv kind:function(arm,size=0x78) addr:0x02124dac
_ZN12ActorUnkOCTA19func_ov042_02124e24Ev kind:function(arm,size=0x13c) addr:0x02124e24
_ZN12ActorUnkOCTA19func_ov042_02124f60Ev kind:function(arm,size=0xc8) addr:0x02124f60
_ZN12ActorUnkOCTA19func_ov042_02125028Ev kind:function(arm,size=0x24) addr:0x02125028
_ZN12ActorUnkOCTA19func_ov042_0212504cEv kind:function(arm,size=0x2c) addr:0x0212504c
_ZN12ActorUnkOCTAD0Ev kind:function(arm,size=0x1c) addr:0x02125078
_ZN12ActorUnkOCTA19func_ov042_02125094Ev kind:function(arm,size=0x7c) addr:0x02125094
_ZN12ActorUnkOCTA19func_ov042_02125110Ev kind:function(arm,size=0x84) addr:0x02125110
_ZN19ActorProfileUnkOCTAD1Ev kind:function(arm,size=0x14) addr:0x02125194
_ZN19ActorProfileUnkMIFR10GetProfileEv kind:function(arm,size=0xc) addr:0x021251a8
_ZN19ActorProfileUnkMIFR6CreateEv kind:function(arm,size=0x24) addr:0x021251b4
_ZN19ActorProfileUnkMIFRC1Ev kind:function(arm,size=0x4c) addr:0x021251d8
_ZN12ActorUnkMIFR19func_ov042_02125224Ev kind:function(arm,size=0x34) addr:0x02125224
_ZN12ActorUnkMIFRC1Ev kind:function(arm,size=0x124) addr:0x02125258
_ZN12ActorUnkMIFR19func_ov042_0212537cEv kind:function(arm,size=0x14) addr:0x0212537c
_ZN12ActorUnkMIFR19func_ov042_02125390Ev kind:function(arm,size=0x14) addr:0x02125390
_ZN12ActorUnkMIFR19func_ov042_021253a4Ev kind:function(arm,size=0x40) addr:0x021253a4
_ZN12ActorUnkMIFR19func_ov042_021253e4Ev kind:function(arm,size=0x6c) addr:0x021253e4
_ZN12ActorUnkMIFR19func_ov042_02125450Ev kind:function(arm,size=0x70) addr:0x02125450
_ZN12ActorUnkMIFR19func_ov042_021254c0Ev kind:function(arm,size=0x160) addr:0x021254c0
_ZN12ActorUnkMIFR19func_ov042_02125620Ev kind:function(arm,size=0x10) addr:0x02125620
_ZN12ActorUnkMIFR19func_ov042_02125630Ev kind:function(arm,size=0x6c) addr:0x02125630
_ZN12ActorUnkMIFR19func_ov042_0212569cEv kind:function(arm,size=0x10) addr:0x0212569c
_ZN12ActorUnkMIFR19func_ov042_021256acEv kind:function(arm,size=0xe0) addr:0x021256ac
_ZN12ActorUnkMIFR19func_ov042_0212578cEv kind:function(arm,size=0x78) addr:0x0212578c
_ZN12ActorUnkMIFR19func_ov042_02125804Ev kind:function(arm,size=0x90) addr:0x02125804
_ZN12ActorUnkMIFR19func_ov042_02125894Ev kind:function(arm,size=0x1c) addr:0x02125894
_ZN12ActorUnkMIFR19func_ov042_021258b0Ev kind:function(arm,size=0x74) addr:0x021258b0
_ZN12ActorUnkMIFR19func_ov042_02125924Ev kind:function(arm,size=0x448) addr:0x02125924
_ZN12ActorUnkMIFR19func_ov042_02125d6cEv kind:function(arm,size=0x128) addr:0x02125d6c
_ZN12ActorUnkMIFR19func_ov042_02125e94Ev kind:function(arm,size=0x1c) addr:0x02125e94
_ZN12ActorUnkMIFR19func_ov042_02125eb0Ev kind:function(arm,size=0xf8) addr:0x02125eb0
_ZN12ActorUnkMIFR19func_ov042_02125fa8Ev kind:function(arm,size=0x80) addr:0x02125fa8
_ZN12ActorUnkMIFR19func_ov042_02126028Ev kind:function(arm,size=0x13c) addr:0x02126028
_ZN12ActorUnkMIFR19func_ov042_02126164Ev kind:function(arm,size=0x2c) addr:0x02126164
_ZN12ActorUnkMIFR19func_ov042_02126190Ev kind:function(arm,size=0x138) addr:0x02126190
_ZN12ActorUnkMIFR19func_ov042_021262c8Ev kind:function(arm,size=0x33c) addr:0x021262c8
_ZN12ActorUnkMIFR19func_ov042_02126604Ev kind:function(arm,size=0x2ac) addr:0x02126604
_ZN12ActorUnkMIFRD0Ev kind:function(arm,size=0x1c) addr:0x021268b0
_ZN12ActorUnkMIFR19func_ov042_021268ccEv kind:function(arm,size=0x1c) addr:0x021268cc
_ZN12ActorUnkMIFRD1Ev kind:function(arm,size=0x30) addr:0x021268e8
_ZN12ActorUnkMIFR19func_ov042_02126918Ev kind:function(arm,size=0x38) addr:0x02126918
_ZN19ActorProfileUnkMIFRD1Ev kind:function(arm,size=0x14) addr:0x02126950
func_ov042_02126964 kind:function(arm,size=0x138) addr:0x02126964
func_ov042_02126a9c kind:function(arm,size=0x68) addr:0x02126a9c
func_ov042_02126b04 kind:function(arm,size=0x38) addr:0x02126b04
func_ov042_02126b3c kind:function(arm,size=0x9c) addr:0x02126b3c
func_ov042_02126bd8 kind:function(arm,size=0x38) addr:0x02126bd8
func_ov042_02126c10 kind:function(arm,size=0x90) addr:0x02126c10
func_ov042_02126ca0 kind:function(arm,size=0x6dc) addr:0x02126ca0
func_ov042_0212737c kind:function(arm,size=0x94) addr:0x0212737c
func_ov042_02127410 kind:function(arm,size=0x74) addr:0x02127410
func_ov042_02127484 kind:function(arm,size=0x90) addr:0x02127484
func_ov042_02127514 kind:function(arm,size=0x490) addr:0x02127514
func_ov042_021279a4 kind:function(arm,size=0xd0) addr:0x021279a4
func_ov042_02127a74 kind:function(arm,size=0x20) addr:0x02127a74
func_ov042_02127a94 kind:function(arm,size=0xb4) addr:0x02127a94
func_ov042_02127b48 kind:function(arm,size=0xfc) addr:0x02127b48
func_ov042_02127c44 kind:function(arm,size=0x1b8) addr:0x02127c44
func_ov042_02127dfc kind:function(arm,size=0x11c) addr:0x02127dfc
func_ov042_02127f18 kind:function(arm,size=0x20) addr:0x02127f18
func_ov042_02127f38 kind:function(arm,size=0x37c) addr:0x02127f38
func_ov042_021282b4 kind:function(arm,size=0x2c) addr:0x021282b4
func_ov042_021282e0 kind:function(arm,size=0x130) addr:0x021282e0
func_ov042_02128410 kind:function(arm,size=0x50) addr:0x02128410
func_ov042_02128460 kind:function(arm,size=0x74) addr:0x02128460
func_ov042_021284d4 kind:function(arm,size=0x310) addr:0x021284d4
func_ov042_021287e4 kind:function(arm,size=0xc) addr:0x021287e4
func_ov042_021287f0 kind:function(arm,size=0x9c) addr:0x021287f0
_ZN19func_ov042_0212888cD1Ev kind:function(arm,size=0x14) addr:0x0212888c
_ZN19func_ov042_021288a0D0Ev kind:function(arm,size=0x1c) addr:0x021288a0
_ZN19ActorProfileUnkPHEY10GetProfileEv kind:function(arm,size=0xc) addr:0x021288bc
_ZN19ActorProfileUnkPHEY6CreateEv kind:function(arm,size=0x24) addr:0x021288c8
_ZN19ActorProfileUnkPHEYC1Ev kind:function(arm,size=0x4c) addr:0x021288ec
_ZN12ActorUnkPHEYC1Ev kind:function(arm,size=0x1f8) addr:0x02128938
_ZN12ActorUnkPHEY19func_ov042_02128b30Ev kind:function(arm,size=0x14) addr:0x02128b30
_ZN12ActorUnkPHEY19func_ov042_02128b44Ev kind:function(arm,size=0x8c) addr:0x02128b44
_ZN12ActorUnkPHEY19func_ov042_02128bd0Ev kind:function(arm,size=0x4c) addr:0x02128bd0
_ZN12ActorUnkPHEY19func_ov042_02128c1cEv kind:function(arm,size=0x224) addr:0x02128c1c
_ZN12ActorUnkPHEY19func_ov042_02128e40Ev kind:function(arm,size=0x208) addr:0x02128e40
_ZN12ActorUnkPHEY19func_ov042_02129048Ev kind:function(arm,size=0xa4) addr:0x02129048
_ZN12ActorUnkPHEY19func_ov042_021290ecEv kind:function(arm,size=0x14) addr:0x021290ec
_ZN12ActorUnkPHEY19func_ov042_02129100Ev kind:function(arm,size=0x10) addr:0x02129100
_ZN12ActorUnkPHEY19func_ov042_02129110Ev kind:function(arm,size=0x3c) addr:0x02129110
_ZN12ActorUnkPHEY19func_ov042_0212914cEv kind:function(arm,size=0x48) addr:0x0212914c
_ZN12ActorUnkPHEY19func_ov042_02129194Ev kind:function(arm,size=0xe4) addr:0x02129194
_ZN12ActorUnkPHEY19func_ov042_02129278Ev kind:function(arm,size=0x60) addr:0x02129278
_ZN12ActorUnkPHEY19func_ov042_021292d8Ev kind:function(arm,size=0xec) addr:0x021292d8
_ZN12ActorUnkPHEY19func_ov042_021293c4Ev kind:function(arm,size=0xc8) addr:0x021293c4
_ZN12ActorUnkPHEY19func_ov042_0212948cEv kind:function(arm,size=0xb4) addr:0x0212948c
_ZN12ActorUnkPHEY19func_ov042_02129540Ev kind:function(arm,size=0x140) addr:0x02129540
_ZN12ActorUnkPHEY19func_ov042_02129680Ev kind:function(arm,size=0x128) addr:0x02129680
_ZN12ActorUnkPHEY19func_ov042_021297a8Ev kind:function(arm,size=0x2e0) addr:0x021297a8
_ZN12ActorUnkPHEY19func_ov042_02129a88Ev kind:function(arm,size=0x138) addr:0x02129a88
_ZN12ActorUnkPHEY19func_ov042_02129bc0Ev kind:function(arm,size=0x2bc) addr:0x02129bc0
_ZN12ActorUnkPHEY19func_ov042_02129e7cEv kind:function(arm,size=0xe4) addr:0x02129e7c
_ZN12ActorUnkPHEY19func_ov042_02129f60Ev kind:function(arm,size=0x54) addr:0x02129f60
_ZN12ActorUnkPHEY19func_ov042_02129fb4Ev kind:function(arm,size=0x90) addr:0x02129fb4
_ZN12ActorUnkPHEY19func_ov042_0212a044Ev kind:function(arm,size=0x144) addr:0x0212a044
_ZN12ActorUnkPHEY19func_ov042_0212a188Ev kind:function(arm,size=0xcc) addr:0x0212a188
_ZN12ActorUnkPHEY19func_ov042_0212a254Ev kind:function(arm,size=0x18c) addr:0x0212a254
_ZN12ActorUnkPHEY19func_ov042_0212a3e0Ev kind:function(arm,size=0x38) addr:0x0212a3e0
_ZN12ActorUnkPHEY19func_ov042_0212a418Ev kind:function(arm,size=0x64) addr:0x0212a418
_ZN12ActorUnkPHEY19func_ov042_0212a47cEv kind:function(arm,size=0x5c) addr:0x0212a47c
_ZN12ActorUnkPHEY19func_ov042_0212a4d8Ev kind:function(arm,size=0x54) addr:0x0212a4d8
_ZN12ActorUnkPHEY19func_ov042_0212a52cEv kind:function(arm,size=0x58) addr:0x0212a52c
_ZN12ActorUnkPHEY19func_ov042_0212a584Ev kind:function(arm,size=0x70) addr:0x0212a584
_ZN12ActorUnkPHEY19func_ov042_0212a5f4Ev kind:function(arm,size=0x88) addr:0x0212a5f4
_ZN12ActorUnkPHEY19func_ov042_0212a67cEv kind:function(arm,size=0x48) addr:0x0212a67c
_ZN12ActorUnkPHEY19func_ov042_0212a6c4Ev kind:function(arm,size=0xb8) addr:0x0212a6c4
_ZN12ActorUnkPHEY19func_ov042_0212a77cEv kind:function(arm,size=0x1cc) addr:0x0212a77c
_ZN12ActorUnkPHEY19func_ov042_0212a948Ev kind:function(arm,size=0x18) addr:0x0212a948
_ZN12ActorUnkPHEY19func_ov042_0212a960Ev kind:function(arm,size=0x1b4) addr:0x0212a960
_ZN12ActorUnkPHEY19func_ov042_0212ab14Ev kind:function(arm,size=0xa4) addr:0x0212ab14
_ZN12ActorUnkPHEY19func_ov042_0212abb8Ev kind:function(arm,size=0xb0) addr:0x0212abb8
_ZN12ActorUnkPHEY19func_ov042_0212ac68Ev kind:function(arm,size=0x13c) addr:0x0212ac68
_ZN12ActorUnkPHEY19func_ov042_0212ada4Ev kind:function(arm,size=0x80) addr:0x0212ada4
_ZN12ActorUnkPHEY19func_ov042_0212ae24Ev kind:function(arm,size=0x64) addr:0x0212ae24
_ZN12ActorUnkPHEY19func_ov042_0212ae88Ev kind:function(arm,size=0x118) addr:0x0212ae88
_ZN12ActorUnkPHEY19func_ov042_0212afa0Ev kind:function(arm,size=0x6c) addr:0x0212afa0
_ZN12ActorUnkPHEY19func_ov042_0212b00cEv kind:function(arm,size=0xf0) addr:0x0212b00c
_ZN12ActorUnkPHEY19func_ov042_0212b0fcEv kind:function(arm,size=0x28) addr:0x0212b0fc
_ZN12ActorUnkPHEY19func_ov042_0212b124Ev kind:function(arm,size=0x18) addr:0x0212b124
_ZN12ActorUnkPHEY19func_ov042_0212b13cEv kind:function(arm,size=0x120) addr:0x0212b13c
_ZN12ActorUnkPHEY19func_ov042_0212b25cEv kind:function(arm,size=0x80) addr:0x0212b25c
_ZN12ActorUnkPHEY19func_ov042_0212b2dcEv kind:function(arm,size=0x1b0) addr:0x0212b2dc
_ZN12ActorUnkPHEY19func_ov042_0212b48cEv kind:function(arm,size=0x54) addr:0x0212b48c
_ZN12ActorUnkPHEY19func_ov042_0212b4e0Ev kind:function(arm,size=0x24) addr:0x0212b4e0
_ZN12ActorUnkPHEY19func_ov042_0212b504Ev kind:function(arm,size=0x10) addr:0x0212b504
_ZN12ActorUnkPHEY19func_ov042_0212b514Ev kind:function(arm,size=0x8) addr:0x0212b514
_ZN12ActorUnkPHEYD0Ev kind:function(arm,size=0x1c) addr:0x0212b51c
_ZN12ActorUnkPHEY19func_ov042_0212b538Ev kind:function(arm,size=0x7c) addr:0x0212b538
_ZN12ActorUnkPHEY19func_ov042_0212b5b4Ev kind:function(arm,size=0x84) addr:0x0212b5b4
_ZN19ActorProfileUnkPHEYD1Ev kind:function(arm,size=0x14) addr:0x0212b638
_ZN23MapObjectProfileUnkSWRA10GetProfileEv kind:function(arm,size=0xc) addr:0x0212b64c
_ZN23MapObjectProfileUnkSWRA6CreateEv kind:function(arm,size=0x24) addr:0x0212b658
_ZN23MapObjectProfileUnkSWRAC1Ev kind:function(arm,size=0xa0) addr:0x0212b67c
_ZN16MapObjectUnkSWRAC1Ev kind:function(arm,size=0x104) addr:0x0212b71c
_ZN16MapObjectUnkSWRA19func_ov042_0212b820Ev kind:function(arm,size=0xc0) addr:0x0212b820
_ZN16MapObjectUnkSWRA19func_ov042_0212b8e0Ev kind:function(arm,size=0x4) addr:0x0212b8e0
_ZN16MapObjectUnkSWRA19func_ov042_0212b8e4Ev kind:function(arm,size=0x44) addr:0x0212b8e4
_ZN16MapObjectUnkSWRA19func_ov042_0212b928Ev kind:function(arm,size=0x90) addr:0x0212b928
_ZN16MapObjectUnkSWRA19func_ov042_0212b9b8Ev kind:function(arm,size=0x60) addr:0x0212b9b8
_ZN16MapObjectUnkSWRAD1Ev kind:function(arm,size=0x20) addr:0x0212ba18
_ZN16MapObjectUnkSWRAD0Ev kind:function(arm,size=0x28) addr:0x0212ba38
_ZN23MapObjectProfileUnkSWRAD1Ev kind:function(arm,size=0x14) addr:0x0212ba60
data_ov042_0212ba74 kind:data(any) addr:0x0212ba74
data_ov042_0212ba84 kind:data(any) addr:0x0212ba84
data_ov042_0212ba94 kind:data(any) addr:0x0212ba94
data_ov042_0212baac kind:data(any) addr:0x0212baac
data_ov042_0212babc kind:data(any) addr:0x0212babc
data_ov042_0212bad4 kind:data(any) addr:0x0212bad4
__sinit_ActorUnkOCTS.cpp kind:function(arm,size=0x50) addr:0x0212bae4
__sinit_ActorUnkOCTA.cpp kind:function(arm,size=0x6c) addr:0x0212bb34
__sinit_ActorUnkMIFR.cpp kind:function(arm,size=0x50) addr:0x0212bba0
__sinit_ov042_0212bbf0 kind:function(arm,size=0x18) addr:0x0212bbf0
__sinit_ActorUnkPHEY.cpp kind:function(arm,size=0x6c) addr:0x0212bc08
__sinit_MapObjectUnkSWRA.cpp kind:function(arm,size=0x50) addr:0x0212bc74
.p__sinit_ActorUnkOCTS.cpp kind:data(word) addr:0x0212bcc4
.p__sinit_ActorUnkOCTA.cpp kind:data(word) addr:0x0212bcc8
.p__sinit_ActorUnkMIFR.cpp kind:data(word) addr:0x0212bccc
.p__sinit_ov042_0212bbf0 kind:data(word) addr:0x0212bcd0
.p__sinit_ActorUnkPHEY.cpp kind:data(word) addr:0x0212bcd4
.p__sinit_MapObjectUnkSWRA.cpp kind:data(word) addr:0x0212bcd8
data_ov042_0212bce8 kind:data(any) addr:0x0212bce8
_ZTV19data_ov042_0212bcfc kind:data(any) addr:0x0212bcfc
_ZTV19data_ov042_0212bd20 kind:data(any) addr:0x0212bd20
_ZTV19data_ov042_0212bd40 kind:data(any) addr:0x0212bd40 ambiguous
data_ov042_0212bd7c kind:data(any) addr:0x0212bd7c
data_ov042_0212bd88 kind:data(any) addr:0x0212bd88
data_ov042_0212bda0 kind:data(any) addr:0x0212bda0
data_ov042_0212bdb8 kind:data(any) addr:0x0212bdb8
data_ov042_0212bdf0 kind:data(any) addr:0x0212bdf0
_ZTV19data_ov042_0212be28 kind:data(any) addr:0x0212be28
data_ov042_0212be54 kind:data(any) addr:0x0212be54
_ZTV19data_ov042_0212be98 kind:data(any) addr:0x0212be98
data_ov042_0212bf00 kind:data(any) addr:0x0212bf00
data_ov042_0212bf14 kind:data(any) addr:0x0212bf14
data_ov042_0212bf34 kind:data(any) addr:0x0212bf34
_ZTV19data_ov042_0212bf54 kind:data(any) addr:0x0212bf54
data_ov042_0212bf80 kind:data(any) addr:0x0212bf80
_ZTV19data_ov042_0212bfa4 kind:data(any) addr:0x0212bfa4
_ZTV19data_ov042_0212c004 kind:data(any) addr:0x0212c004
data_ov042_0212c0b8 kind:data(any) addr:0x0212c0b8
data_ov042_0212c1a8 kind:data(any) addr:0x0212c1a8 ambiguous
data_ov042_0212c1c8 kind:data(any) addr:0x0212c1c8
data_ov042_0212c2d8 kind:data(any) addr:0x0212c2d8
_ZTV19data_ov042_0212c2e4 kind:data(any) addr:0x0212c2e4
data_ov042_0212c310 kind:data(any) addr:0x0212c310
_ZTV19data_ov042_0212c350 kind:data(any) addr:0x0212c350
data_ov042_0212c3b0 kind:data(any) addr:0x0212c3b0
data_ov042_0212c3c8 kind:data(any) addr:0x0212c3c8
data_ov042_0212c3e0 kind:data(any) addr:0x0212c3e0
data_ov042_0212c3f8 kind:data(any) addr:0x0212c3f8
data_ov042_0212c410 kind:data(any) addr:0x0212c410
data_ov042_0212c428 kind:data(any) addr:0x0212c428
data_ov042_0212c4a8 kind:data(any) addr:0x0212c4a8
data_ov042_0212c528 kind:data(any) addr:0x0212c528
data_ov042_0212c540 kind:data(any) addr:0x0212c540
data_ov042_0212c570 kind:data(any) addr:0x0212c570
data_ov042_0212c588 kind:data(any) addr:0x0212c588
data_ov042_0212c5a0 kind:data(any) addr:0x0212c5a0
data_ov042_0212c5c0 kind:data(any) addr:0x0212c5c0
data_ov042_0212c5dc kind:data(any) addr:0x0212c5dc
data_ov042_0212c5f8 kind:data(any) addr:0x0212c5f8
data_ov042_0212c620 kind:data(any) addr:0x0212c620
data_ov042_0212c644 kind:data(any) addr:0x0212c644 ambiguous
data_ov042_0212c660 kind:bss addr:0x0212c660
data_ov042_0212c664 kind:bss addr:0x0212c664
sActorProfileUnkOCTS kind:bss addr:0x0212c670
data_ov042_0212c748 kind:bss addr:0x0212c748
data_ov042_0212c74c kind:bss addr:0x0212c74c
sActorProfileUnkOCTA kind:bss addr:0x0212c758
data_ov042_0212c788 kind:bss addr:0x0212c788 ambiguous
data_ov042_0212c7d0 kind:bss addr:0x0212c7d0 ambiguous
data_ov042_0212c830 kind:bss addr:0x0212c830
data_ov042_0212c834 kind:bss addr:0x0212c834
data_ov042_0212c83c kind:bss addr:0x0212c83c ambiguous
sActorProfileUnkMIFR kind:bss addr:0x0212c840
data_ov042_0212c888 kind:bss addr:0x0212c888 ambiguous
data_ov042_0212c8d8 kind:bss addr:0x0212c8d8 ambiguous
data_ov042_0212c918 kind:bss addr:0x0212c918
data_ov042_0212c924 kind:bss addr:0x0212c924
data_ov042_0212c928 kind:bss addr:0x0212c928
sActorProfileUnkPHEY kind:bss addr:0x0212c934
data_ov042_0212ca0c kind:bss addr:0x0212ca0c
data_ov042_0212ca10 kind:bss addr:0x0212ca10
sMapObjectProfileUnkSWRA kind:bss addr:0x0212ca1c
data_ov042_0212ca3c kind:bss addr:0x0212ca3c
data_ov042_0212caf0 kind:bss addr:0x0212caf0
