_ZN19ActorProfileUnkRBL110GetProfileEv kind:function(arm,size=0xc) addr:0x02152c20
_ZN19ActorProfileUnkRBL16CreateEv kind:function(arm,size=0x24) addr:0x02152c2c
_ZN19ActorProfileUnkRBL1C1Ev kind:function(arm,size=0x34) addr:0x02152c50
_ZN12ActorUnkRBL119func_ov074_02152c84Ev kind:function(arm,size=0x14) addr:0x02152c84
_ZN12ActorUnkRBL119func_ov074_02152c98Ev kind:function(arm,size=0x244) addr:0x02152c98
_ZN12ActorUnkRBL119func_ov074_02152edcEv kind:function(arm,size=0x90) addr:0x02152edc
_ZN12ActorUnkRBL1C1Ev kind:function(arm,size=0x20c) addr:0x02152f6c
_ZN12ActorUnkRBL119func_ov074_02153178Ev kind:function(arm,size=0x14) addr:0x02153178
_ZN12ActorUnkRBL119func_ov074_0215318cEv kind:function(arm,size=0x14) addr:0x0215318c
_ZN12ActorUnkRBL119func_ov074_021531a0Ev kind:function(arm,size=0x1f4) addr:0x021531a0
_ZN12ActorUnkRBL119func_ov074_02153394Ev kind:function(arm,size=0x40) addr:0x02153394
_ZN12ActorUnkRBL119func_ov074_021533d4Ev kind:function(arm,size=0xa4) addr:0x021533d4
_ZN12ActorUnkRBL119func_ov074_02153478Ev kind:function(arm,size=0x5c) addr:0x02153478
_ZN12ActorUnkRBL119func_ov074_021534d4Ev kind:function(arm,size=0x17c) addr:0x021534d4
_ZN12ActorUnkRBL119func_ov074_02153650Ev kind:function(arm,size=0xb4) addr:0x02153650
_ZN12ActorUnkRBL119func_ov074_02153704Ev kind:function(arm,size=0x68) addr:0x02153704
_ZN12ActorUnkRBL119func_ov074_0215376cEv kind:function(arm,size=0xa0) addr:0x0215376c
_ZN12ActorUnkRBL119func_ov074_0215380cEv kind:function(arm,size=0x44) addr:0x0215380c
_ZN12ActorUnkRBL119func_ov074_02153850Ev kind:function(arm,size=0x78) addr:0x02153850
_ZN12ActorUnkRBL119func_ov074_021538c8Ev kind:function(arm,size=0x78) addr:0x021538c8
_ZN12ActorUnkRBL119func_ov074_02153940Ev kind:function(arm,size=0x70) addr:0x02153940
_ZN12ActorUnkRBL119func_ov074_021539b0Ev kind:function(arm,size=0x64) addr:0x021539b0
_ZN12ActorUnkRBL119func_ov074_02153a14Ev kind:function(arm,size=0x24) addr:0x02153a14
_ZN12ActorUnkRBL119func_ov074_02153a38Ev kind:function(arm,size=0x10) addr:0x02153a38
_ZN12ActorUnkRBL119func_ov074_02153a48Ev kind:function(arm,size=0x8) addr:0x02153a48
_ZN12ActorUnkRBL1D0Ev kind:function(arm,size=0x1c) addr:0x02153a50
_ZN12ActorUnkRBL119func_ov074_02153a6cEv kind:function(arm,size=0x1c) addr:0x02153a6c
_ZN12ActorUnkRBL1D1Ev kind:function(arm,size=0x48) addr:0x02153a88
_ZN12ActorUnkRBL119func_ov074_02153ad0Ev kind:function(arm,size=0x50) addr:0x02153ad0
_ZN19ActorProfileUnkRBL1D1Ev kind:function(arm,size=0x14) addr:0x02153b20
_ZN19ActorProfileUnkMAGR10GetProfileEv kind:function(arm,size=0xc) addr:0x02153b34
_ZN19ActorProfileUnkMAGR6CreateEv kind:function(arm,size=0x24) addr:0x02153b40
_ZN19ActorProfileUnkMAGRC1Ev kind:function(arm,size=0x28) addr:0x02153b64
_ZN12ActorUnkMAGR19func_ov074_02153b8cEv kind:function(arm,size=0x14) addr:0x02153b8c
_ZN12ActorUnkMAGR19func_ov074_02153ba0Ev kind:function(arm,size=0x244) addr:0x02153ba0
_ZN12ActorUnkMAGR19func_ov074_02153de4Ev kind:function(arm,size=0x248) addr:0x02153de4
_ZN12ActorUnkMAGR19func_ov074_0215402cEv kind:function(arm,size=0x24c) addr:0x0215402c
_ZN12ActorUnkMAGR19func_ov074_02154278Ev kind:function(arm,size=0xf4) addr:0x02154278
_ZN12ActorUnkMAGRD1Ev kind:function(arm,size=0x14) addr:0x0215436c
_ZN12ActorUnkMAGRD0Ev kind:function(arm,size=0x1c) addr:0x02154380
_ZN12ActorUnkMAGR19func_ov074_0215439cEv kind:function(arm,size=0x1c4) addr:0x0215439c
_ZN12ActorUnkMAGR19func_ov074_02154560Ev kind:function(arm,size=0x9c) addr:0x02154560
_ZN12ActorUnkMAGR19func_ov074_021545fcEv kind:function(arm,size=0x14) addr:0x021545fc
_ZN12ActorUnkMAGR19func_ov074_02154610Ev kind:function(arm,size=0x1c) addr:0x02154610
_ZN12ActorUnkMAGR19func_ov074_0215462cEv kind:function(arm,size=0x5c) addr:0x0215462c
_ZN12ActorUnkMAGRC1Ev kind:function(arm,size=0x118) addr:0x02154688
_ZN12ActorUnkMAGR19func_ov074_021547a0Ev kind:function(arm,size=0x48) addr:0x021547a0
_ZN12ActorUnkMAGR19func_ov074_021547e8Ev kind:function(arm,size=0x50) addr:0x021547e8
_ZN12ActorUnkMAGR19func_ov074_02154838Ev kind:function(arm,size=0x1b8) addr:0x02154838
_ZN12ActorUnkMAGR19func_ov074_021549f0Ev kind:function(arm,size=0xc0) addr:0x021549f0
_ZN12ActorUnkMAGR19func_ov074_02154ab0Ev kind:function(arm,size=0x50) addr:0x02154ab0
_ZN12ActorUnkMAGR19func_ov074_02154b00Ev kind:function(arm,size=0x94) addr:0x02154b00
_ZN12ActorUnkMAGR19func_ov074_02154b94Ev kind:function(arm,size=0xc8) addr:0x02154b94
_ZN12ActorUnkMAGR19func_ov074_02154c5cEv kind:function(arm,size=0x38) addr:0x02154c5c
_ZN12ActorUnkMAGR19func_ov074_02154c94Ev kind:function(arm,size=0x14) addr:0x02154c94
_ZN12ActorUnkMAGR19func_ov074_02154ca8Ev kind:function(arm,size=0x168) addr:0x02154ca8
_ZN12ActorUnkMAGR19func_ov074_02154e10Ev kind:function(arm,size=0x48) addr:0x02154e10
_ZN19ActorProfileUnkMAGRD1Ev kind:function(arm,size=0x14) addr:0x02154e58
_ZN19ActorProfileUnkZLBS10GetProfileEv kind:function(arm,size=0xc) addr:0x02154e6c
_ZN19ActorProfileUnkZLBS6CreateEv kind:function(arm,size=0x24) addr:0x02154e78
_ZN19ActorProfileUnkZLBSC1Ev kind:function(arm,size=0x68) addr:0x02154e9c
_ZN12ActorUnkZLBSC1Ev kind:function(arm,size=0x318) addr:0x02154f04
_ZN12ActorUnkZLBS19func_ov074_0215521cEv kind:function(arm,size=0x14) addr:0x0215521c
_ZN12ActorUnkZLBS19func_ov074_02155230Ev kind:function(arm,size=0xec) addr:0x02155230
_ZN12ActorUnkZLBSD0Ev kind:function(arm,size=0xf4) addr:0x0215531c
_ZN12ActorUnkZLBS19func_ov074_02155410Ev kind:function(arm,size=0xe4) addr:0x02155410
_ZN12ActorUnkZLBS19func_ov074_021554f4Ev kind:function(arm,size=0x34) addr:0x021554f4
_ZN12ActorUnkZLBS19func_ov074_02155528Ev kind:function(arm,size=0x60) addr:0x02155528
_ZN12ActorUnkZLBS19func_ov074_02155588Ev kind:function(arm,size=0x40) addr:0x02155588
_ZN12ActorUnkZLBS19func_ov074_021555c8Ev kind:function(arm,size=0x278) addr:0x021555c8
_ZN12ActorUnkZLBS19func_ov074_02155840Ev kind:function(arm,size=0x34) addr:0x02155840
_ZN12ActorUnkZLBS19func_ov074_02155874Ev kind:function(arm,size=0x174) addr:0x02155874
_ZN12ActorUnkZLBS19func_ov074_021559e8Ev kind:function(arm,size=0x4) addr:0x021559e8
_ZN12ActorUnkZLBS19func_ov074_021559ecEv kind:function(arm,size=0x4) addr:0x021559ec
_ZN12ActorUnkZLBS19func_ov074_021559f0Ev kind:function(arm,size=0x3c) addr:0x021559f0
_ZN12ActorUnkZLBS19func_ov074_02155a2cEv kind:function(arm,size=0x1c) addr:0x02155a2c
_ZN12ActorUnkZLBS19func_ov074_02155a48Ev kind:function(arm,size=0x90) addr:0x02155a48
_ZN12ActorUnkZLBS19func_ov074_02155ad8Ev kind:function(arm,size=0x34) addr:0x02155ad8
_ZN12ActorUnkZLBS19func_ov074_02155b0cEv kind:function(arm,size=0x100) addr:0x02155b0c
_ZN12ActorUnkZLBS19func_ov074_02155c0cEv kind:function(arm,size=0x178) addr:0x02155c0c
_ZN12ActorUnkZLBS19func_ov074_02155d84Ev kind:function(arm,size=0x98) addr:0x02155d84
_ZN12ActorUnkZLBS19func_ov074_02155e1cEv kind:function(arm,size=0x124) addr:0x02155e1c
_ZN12ActorUnkZLBS19func_ov074_02155f40Ev kind:function(arm,size=0x4c) addr:0x02155f40
_ZN12ActorUnkZLBS19func_ov074_02155f8cEv kind:function(arm,size=0x228) addr:0x02155f8c
_ZN12ActorUnkZLBS19func_ov074_021561b4Ev kind:function(arm,size=0x14c) addr:0x021561b4
_ZN12ActorUnkZLBS19func_ov074_02156300Ev kind:function(arm,size=0x88) addr:0x02156300
_ZN12ActorUnkZLBS19func_ov074_02156388Ev kind:function(arm,size=0x64) addr:0x02156388
_ZN12ActorUnkZLBS19func_ov074_021563ecEv kind:function(arm,size=0x244) addr:0x021563ec
_ZN12ActorUnkZLBS19func_ov074_02156630Ev kind:function(arm,size=0x218) addr:0x02156630
_ZN12ActorUnkZLBS19func_ov074_02156848Ev kind:function(arm,size=0x1d0) addr:0x02156848
_ZN12ActorUnkZLBS19func_ov074_02156a18Ev kind:function(arm,size=0x2c) addr:0x02156a18
_ZN12ActorUnkZLBS19func_ov074_02156a44Ev kind:function(arm,size=0x364) addr:0x02156a44
_ZN12ActorUnkZLBS19func_ov074_02156da8Ev kind:function(arm,size=0x60) addr:0x02156da8
_ZN12ActorUnkZLBS19func_ov074_02156e08Ev kind:function(arm,size=0x78) addr:0x02156e08
_ZN12ActorUnkZLBS19func_ov074_02156e80Ev kind:function(arm,size=0x7c) addr:0x02156e80
_ZN12ActorUnkZLBS19func_ov074_02156efcEv kind:function(arm,size=0x54) addr:0x02156efc
_ZN12ActorUnkZLBS19func_ov074_02156f50Ev kind:function(arm,size=0x2c) addr:0x02156f50
_ZN12ActorUnkZLBS19func_ov074_02156f7cEv kind:function(arm,size=0xc4) addr:0x02156f7c
_ZN12ActorUnkZLBS19func_ov074_02157040Ev kind:function(arm,size=0x74) addr:0x02157040
_ZN12ActorUnkZLBS19func_ov074_021570b4Ev kind:function(arm,size=0x148) addr:0x021570b4
_ZN12ActorUnkZLBS19func_ov074_021571fcEv kind:function(arm,size=0x364) addr:0x021571fc
_ZN12ActorUnkZLBS19func_ov074_02157560Ev kind:function(arm,size=0x110) addr:0x02157560
_ZN12ActorUnkZLBS19func_ov074_02157670Ev kind:function(arm,size=0x24) addr:0x02157670
_ZN12ActorUnkZLBS19func_ov074_02157694Ev kind:function(arm,size=0x2c) addr:0x02157694
_ZN12ActorUnkZLBS19func_ov074_021576c0Ev kind:function(arm,size=0xc) addr:0x021576c0
_ZN12ActorUnkZLBS19func_ov074_021576ccEv kind:function(arm,size=0x1c) addr:0x021576cc
_ZN19ActorProfileUnkZLBSD1Ev kind:function(arm,size=0x14) addr:0x021576e8
_ZN19ActorProfileUnkZLBB10GetProfileEv kind:function(arm,size=0xc) addr:0x021576fc
_ZN19ActorProfileUnkZLBB6CreateEv kind:function(arm,size=0x24) addr:0x02157708
_ZN19ActorProfileUnkZLBBC1Ev kind:function(arm,size=0x44) addr:0x0215772c
_ZN12ActorUnkZLBBC1Ev kind:function(arm,size=0x1d0) addr:0x02157770
_ZN12ActorUnkZLBB19func_ov074_02157940Ev kind:function(arm,size=0x90) addr:0x02157940
_ZN12ActorUnkZLBB19func_ov074_021579d0Ev kind:function(arm,size=0x10) addr:0x021579d0
_ZN12ActorUnkZLBB19func_ov074_021579e0Ev kind:function(arm,size=0x48) addr:0x021579e0
_ZN12ActorUnkZLBB19func_ov074_02157a28Ev kind:function(arm,size=0x3e4) addr:0x02157a28
_ZN12ActorUnkZLBB19func_ov074_02157e0cEv kind:function(arm,size=0x90) addr:0x02157e0c
_ZN12ActorUnkZLBB19func_ov074_02157e9cEv kind:function(arm,size=0x4) addr:0x02157e9c
_ZN12ActorUnkZLBB19func_ov074_02157ea0Ev kind:function(arm,size=0x1f4) addr:0x02157ea0
_ZN12ActorUnkZLBB19func_ov074_02158094Ev kind:function(arm,size=0x44) addr:0x02158094
_ZN12ActorUnkZLBB19func_ov074_021580d8Ev kind:function(arm,size=0x14) addr:0x021580d8
_ZN12ActorUnkZLBB19func_ov074_021580ecEv kind:function(arm,size=0x6c) addr:0x021580ec
_ZN12ActorUnkZLBB19func_ov074_02158158Ev kind:function(arm,size=0x4) addr:0x02158158
_ZN12ActorUnkZLBB19func_ov074_0215815cEv kind:function(arm,size=0x3c) addr:0x0215815c
_ZN12ActorUnkZLBB19func_ov074_02158198Ev kind:function(arm,size=0x98) addr:0x02158198
_ZN12ActorUnkZLBB19func_ov074_02158230Ev kind:function(arm,size=0x804) addr:0x02158230
_ZN12ActorUnkZLBB19func_ov074_02158a34Ev kind:function(arm,size=0x70) addr:0x02158a34
_ZN12ActorUnkZLBBD1Ev kind:function(arm,size=0x74) addr:0x02158aa4
_ZN12ActorUnkZLBBD0Ev kind:function(arm,size=0x7c) addr:0x02158b18
_ZN19ActorProfileUnkZLBBD1Ev kind:function(arm,size=0x14) addr:0x02158b94
_ZN19ActorProfileUnkBSKM10GetProfileEv kind:function(arm,size=0xc) addr:0x02158ba8
_ZN19ActorProfileUnkBSKM6CreateEv kind:function(arm,size=0x28) addr:0x02158bb4
_ZN19ActorProfileUnkBSKMC1Ev kind:function(arm,size=0x68) addr:0x02158bdc
_ZN12ActorUnkBSKMC1Ev kind:function(arm,size=0x3a8) addr:0x02158c44
_ZN12ActorUnkBSKM19func_ov074_02158fecEv kind:function(arm,size=0x14) addr:0x02158fec
_ZN12ActorUnkBSKM19func_ov074_02159000Ev kind:function(arm,size=0x14) addr:0x02159000
_ZN12ActorUnkBSKMD1Ev kind:function(arm,size=0x70) addr:0x02159014
_ZN12ActorUnkBSKMD0Ev kind:function(arm,size=0x78) addr:0x02159084
_ZN12ActorUnkBSKM19func_ov074_021590fcEv kind:function(arm,size=0x178) addr:0x021590fc
_ZN12ActorUnkBSKM19func_ov074_02159274Ev kind:function(arm,size=0x40) addr:0x02159274
_ZN12ActorUnkBSKM19func_ov074_021592b4Ev kind:function(arm,size=0x104) addr:0x021592b4
_ZN12ActorUnkBSKM19func_ov074_021593b8Ev kind:function(arm,size=0x48) addr:0x021593b8
_ZN12ActorUnkBSKM19func_ov074_02159400Ev kind:function(arm,size=0x40) addr:0x02159400
_ZN12ActorUnkBSKM19func_ov074_02159440Ev kind:function(arm,size=0x478) addr:0x02159440
_ZN12ActorUnkBSKM19func_ov074_021598b8Ev kind:function(arm,size=0x300) addr:0x021598b8
_ZN12ActorUnkBSKM19func_ov074_02159bb8Ev kind:function(arm,size=0x680) addr:0x02159bb8
_ZN12ActorUnkBSKM19func_ov074_0215a238Ev kind:function(arm,size=0x4) addr:0x0215a238
_ZN12ActorUnkBSKM19func_ov074_0215a23cEv kind:function(arm,size=0x10) addr:0x0215a23c
_ZN12ActorUnkBSKM19func_ov074_0215a24cEv kind:function(arm,size=0x184) addr:0x0215a24c
_ZN12ActorUnkBSKM19func_ov074_0215a3d0Ev kind:function(arm,size=0x20) addr:0x0215a3d0
_ZN12ActorUnkBSKM19func_ov074_0215a3f0Ev kind:function(arm,size=0x34) addr:0x0215a3f0
_ZN12ActorUnkBSKM19func_ov074_0215a424Ev kind:function(arm,size=0xf4) addr:0x0215a424
_ZN12ActorUnkBSKM19func_ov074_0215a518Ev kind:function(arm,size=0x18) addr:0x0215a518
_ZN12ActorUnkBSKM19func_ov074_0215a530Ev kind:function(arm,size=0x54) addr:0x0215a530
_ZN12ActorUnkBSKM19func_ov074_0215a584Ev kind:function(arm,size=0x14) addr:0x0215a584
_ZN12ActorUnkBSKM19func_ov074_0215a598Ev kind:function(arm,size=0xe8) addr:0x0215a598
_ZN12ActorUnkBSKM19func_ov074_0215a680Ev kind:function(arm,size=0xe0) addr:0x0215a680
_ZN12ActorUnkBSKM19func_ov074_0215a760Ev kind:function(arm,size=0x1cc) addr:0x0215a760
_ZN12ActorUnkBSKM19func_ov074_0215a92cEv kind:function(arm,size=0x38) addr:0x0215a92c
_ZN12ActorUnkBSKM19func_ov074_0215a964Ev kind:function(arm,size=0x9c) addr:0x0215a964
_ZN12ActorUnkBSKM19func_ov074_0215aa00Ev kind:function(arm,size=0xe0) addr:0x0215aa00
_ZN12ActorUnkBSKM19func_ov074_0215aae0Ev kind:function(arm,size=0x214) addr:0x0215aae0
_ZN12ActorUnkBSKM19func_ov074_0215acf4Ev kind:function(arm,size=0x88) addr:0x0215acf4
_ZN12ActorUnkBSKM19func_ov074_0215ad7cEv kind:function(arm,size=0x38) addr:0x0215ad7c
_ZN12ActorUnkBSKM19func_ov074_0215adb4Ev kind:function(arm,size=0x94) addr:0x0215adb4
_ZN12ActorUnkBSKM19func_ov074_0215ae48Ev kind:function(arm,size=0x110) addr:0x0215ae48
_ZN12ActorUnkBSKM19func_ov074_0215af58Ev kind:function(arm,size=0x8c) addr:0x0215af58
_ZN12ActorUnkBSKM19func_ov074_0215afe4Ev kind:function(arm,size=0x50) addr:0x0215afe4
_ZN12ActorUnkBSKM19func_ov074_0215b034Ev kind:function(arm,size=0x64) addr:0x0215b034
_ZN12ActorUnkBSKM19func_ov074_0215b098Ev kind:function(arm,size=0x114) addr:0x0215b098
_ZN12ActorUnkBSKM19func_ov074_0215b1acEv kind:function(arm,size=0xec) addr:0x0215b1ac
_ZN12ActorUnkBSKM19func_ov074_0215b298Ev kind:function(arm,size=0x254) addr:0x0215b298
_ZN12ActorUnkBSKM19func_ov074_0215b4ecEv kind:function(arm,size=0xec) addr:0x0215b4ec
_ZN12ActorUnkBSKM19func_ov074_0215b5d8Ev kind:function(arm,size=0x184) addr:0x0215b5d8
_ZN12ActorUnkBSKM19func_ov074_0215b75cEv kind:function(arm,size=0x330) addr:0x0215b75c
_ZN12ActorUnkBSKM19func_ov074_0215ba8cEv kind:function(arm,size=0x44) addr:0x0215ba8c
_ZN12ActorUnkBSKM19func_ov074_0215bad0Ev kind:function(arm,size=0x180) addr:0x0215bad0
_ZN12ActorUnkBSKM19func_ov074_0215bc50Ev kind:function(arm,size=0x64) addr:0x0215bc50
_ZN12ActorUnkBSKM19func_ov074_0215bcb4Ev kind:function(arm,size=0x5c) addr:0x0215bcb4
_ZN12ActorUnkBSKM19func_ov074_0215bd10Ev kind:function(arm,size=0x11c) addr:0x0215bd10
_ZN12ActorUnkBSKM19func_ov074_0215be2cEv kind:function(arm,size=0x8c) addr:0x0215be2c
_ZN12ActorUnkBSKM19func_ov074_0215beb8Ev kind:function(arm,size=0xb8) addr:0x0215beb8
_ZN12ActorUnkBSKM19func_ov074_0215bf70Ev kind:function(arm,size=0xe8) addr:0x0215bf70
_ZN12ActorUnkBSKM19func_ov074_0215c058Ev kind:function(arm,size=0xb0) addr:0x0215c058
_ZN12ActorUnkBSKM19func_ov074_0215c108Ev kind:function(arm,size=0xfc) addr:0x0215c108
_ZN12ActorUnkBSKM19func_ov074_0215c204Ev kind:function(arm,size=0x140) addr:0x0215c204
_ZN12ActorUnkBSKM19func_ov074_0215c344Ev kind:function(arm,size=0x2ac) addr:0x0215c344
_ZN12ActorUnkBSKM19func_ov074_0215c5f0Ev kind:function(arm,size=0xc8) addr:0x0215c5f0
_ZN12ActorUnkBSKM19func_ov074_0215c6b8Ev kind:function(arm,size=0x100) addr:0x0215c6b8
_ZN12ActorUnkBSKM19func_ov074_0215c7b8Ev kind:function(arm,size=0x40) addr:0x0215c7b8
_ZN12ActorUnkBSKM19func_ov074_0215c7f8Ev kind:function(arm,size=0x27c) addr:0x0215c7f8
_ZN12ActorUnkBSKM19func_ov074_0215ca74Ev kind:function(arm,size=0x34) addr:0x0215ca74
_ZN12ActorUnkBSKM19func_ov074_0215caa8Ev kind:function(arm,size=0x368) addr:0x0215caa8
_ZN12ActorUnkBSKM19func_ov074_0215ce10Ev kind:function(arm,size=0x84) addr:0x0215ce10
_ZN12ActorUnkBSKM19func_ov074_0215ce94Ev kind:function(arm,size=0x9c) addr:0x0215ce94
_ZN12ActorUnkBSKM19func_ov074_0215cf30Ev kind:function(arm,size=0x80) addr:0x0215cf30
_ZN12ActorUnkBSKM19func_ov074_0215cfb0Ev kind:function(arm,size=0xa8) addr:0x0215cfb0
_ZN12ActorUnkBSKM19func_ov074_0215d058Ev kind:function(arm,size=0x15c) addr:0x0215d058
_ZN12ActorUnkBSKM19func_ov074_0215d1b4Ev kind:function(arm,size=0x114) addr:0x0215d1b4
_ZN12ActorUnkBSKM19func_ov074_0215d2c8Ev kind:function(arm,size=0x1b0) addr:0x0215d2c8
_ZN12ActorUnkBSKM19func_ov074_0215d478Ev kind:function(arm,size=0x128) addr:0x0215d478
_ZN12ActorUnkBSKM19func_ov074_0215d5a0Ev kind:function(arm,size=0x140) addr:0x0215d5a0
_ZN12ActorUnkBSKM19func_ov074_0215d6e0Ev kind:function(arm,size=0x1c) addr:0x0215d6e0
_ZN12ActorUnkBSKM19func_ov074_0215d6fcEv kind:function(arm,size=0x1c) addr:0x0215d6fc
_ZN12ActorUnkBSKM19func_ov074_0215d718Ev kind:function(arm,size=0x594) addr:0x0215d718
_ZN12ActorUnkBSKM19func_ov074_0215dcacEv kind:function(arm,size=0xd0) addr:0x0215dcac
_ZN12ActorUnkBSKM19func_ov074_0215dd7cEv kind:function(arm,size=0x198) addr:0x0215dd7c
_ZN12ActorUnkBSKM19func_ov074_0215df14Ev kind:function(arm,size=0x324) addr:0x0215df14
_ZN12ActorUnkBSKM19func_ov074_0215e238Ev kind:function(arm,size=0x42c) addr:0x0215e238
_ZN12ActorUnkBSKM19func_ov074_0215e664Ev kind:function(arm,size=0x94) addr:0x0215e664
_ZN12ActorUnkBSKM19func_ov074_0215e6f8Ev kind:function(arm,size=0x58) addr:0x0215e6f8
_ZN12ActorUnkBSKM19func_ov074_0215e750Ev kind:function(arm,size=0x54) addr:0x0215e750
_ZN12ActorUnkBSKM19func_ov074_0215e7a4Ev kind:function(arm,size=0x48) addr:0x0215e7a4
_ZN12ActorUnkBSKM19func_ov074_0215e7ecEv kind:function(arm,size=0x24) addr:0x0215e7ec
_ZN12ActorUnkBSKM19func_ov074_0215e810Ev kind:function(arm,size=0x38) addr:0x0215e810
_ZN12ActorUnkBSKM19func_ov074_0215e848Ev kind:function(arm,size=0x68) addr:0x0215e848
_ZN12ActorUnkBSKM19func_ov074_0215e8b0Ev kind:function(arm,size=0x34) addr:0x0215e8b0
_ZN12ActorUnkBSKM19func_ov074_0215e8e4Ev kind:function(arm,size=0xa8) addr:0x0215e8e4
_ZN12ActorUnkBSKM19func_ov074_0215e98cEv kind:function(arm,size=0x130) addr:0x0215e98c
_ZN12ActorUnkBSKM19func_ov074_0215eabcEv kind:function(arm,size=0x130) addr:0x0215eabc
_ZN12ActorUnkBSKM19func_ov074_0215ebecEv kind:function(arm,size=0x1c) addr:0x0215ebec
_ZN12ActorUnkBSKM19func_ov074_0215ec08Ev kind:function(arm,size=0x1c) addr:0x0215ec08
_ZN19ActorProfileUnkBSKMD1Ev kind:function(arm,size=0x14) addr:0x0215ec24
_ZN19ActorProfileUnkBKST10GetProfileEv kind:function(arm,size=0xc) addr:0x0215ec38
_ZN19ActorProfileUnkBKST6CreateEv kind:function(arm,size=0x24) addr:0x0215ec44
_ZN19ActorProfileUnkBKSTC1Ev kind:function(arm,size=0x40) addr:0x0215ec68
_ZN12ActorUnkBKSTC1Ev kind:function(arm,size=0x78) addr:0x0215eca8
_ZN12ActorUnkBKST19func_ov074_0215ed20Ev kind:function(arm,size=0x120) addr:0x0215ed20
_ZN12ActorUnkBKST19func_ov074_0215ee40Ev kind:function(arm,size=0x3c) addr:0x0215ee40
_ZN12ActorUnkBKST19func_ov074_0215ee7cEv kind:function(arm,size=0x44) addr:0x0215ee7c
_ZN12ActorUnkBKST19func_ov074_0215eec0Ev kind:function(arm,size=0x24) addr:0x0215eec0
_ZN12ActorUnkBKST19func_ov074_0215eee4Ev kind:function(arm,size=0x3c) addr:0x0215eee4
_ZN12ActorUnkBKST19func_ov074_0215ef20Ev kind:function(arm,size=0x124) addr:0x0215ef20
_ZN12ActorUnkBKST19func_ov074_0215f044Ev kind:function(arm,size=0x20) addr:0x0215f044
_ZN12ActorUnkBKST19func_ov074_0215f064Ev kind:function(arm,size=0x28) addr:0x0215f064
_ZN12ActorUnkBKST19func_ov074_0215f08cEv kind:function(arm,size=0x1c) addr:0x0215f08c
_ZN12ActorUnkBKST19func_ov074_0215f0a8Ev kind:function(arm,size=0x20) addr:0x0215f0a8
_ZN12ActorUnkBKST19func_ov074_0215f0c8Ev kind:function(arm,size=0x4) addr:0x0215f0c8
_ZN12ActorUnkBKST19func_ov074_0215f0ccEv kind:function(arm,size=0x20) addr:0x0215f0cc
_ZN12ActorUnkBKST19func_ov074_0215f0ecEv kind:function(arm,size=0x1c) addr:0x0215f0ec
_ZN12ActorUnkBKST19func_ov074_0215f108Ev kind:function(arm,size=0x4c) addr:0x0215f108
_ZN12ActorUnkBKST19func_ov074_0215f154Ev kind:function(arm,size=0x4) addr:0x0215f154
_ZN12ActorUnkBKST19func_ov074_0215f158Ev kind:function(arm,size=0x1c) addr:0x0215f158
_ZN12ActorUnkBKST19func_ov074_0215f174Ev kind:function(arm,size=0x40) addr:0x0215f174
_ZN12ActorUnkBKST19func_ov074_0215f1b4Ev kind:function(arm,size=0xc) addr:0x0215f1b4
_ZN12ActorUnkBKST19func_ov074_0215f1c0Ev kind:function(arm,size=0x2c) addr:0x0215f1c0
_ZN12ActorUnkBKST19func_ov074_0215f1ecEv kind:function(arm,size=0x8) addr:0x0215f1ec
_ZN12ActorUnkBKST19func_ov074_0215f1f4Ev kind:function(arm,size=0x5c) addr:0x0215f1f4
_ZN12ActorUnkBKST19func_ov074_0215f250Ev kind:function(arm,size=0x88) addr:0x0215f250
_ZN12ActorUnkBKST19func_ov074_0215f2d8Ev kind:function(arm,size=0x118) addr:0x0215f2d8
_ZN12ActorUnkBKST19func_ov074_0215f3f0Ev kind:function(arm,size=0x33c) addr:0x0215f3f0
_ZN12ActorUnkBKST19func_ov074_0215f72cEv kind:function(arm,size=0x234) addr:0x0215f72c
_ZN12ActorUnkBKSTD1Ev kind:function(arm,size=0x20) addr:0x0215f960
_ZN12ActorUnkBKSTD0Ev kind:function(arm,size=0x28) addr:0x0215f980
_ZN19ActorProfileUnkBKSTD1Ev kind:function(arm,size=0x14) addr:0x0215f9a8
_ZN19ActorProfileUnkKIMB10GetProfileEv kind:function(arm,size=0xc) addr:0x0215f9bc
_ZN19ActorProfileUnkKIMB6CreateEv kind:function(arm,size=0x24) addr:0x0215f9c8
_ZN19ActorProfileUnkKIMBC1Ev kind:function(arm,size=0x40) addr:0x0215f9ec
_ZN12ActorUnkKIMBC1Ev kind:function(arm,size=0x16c) addr:0x0215fa2c
_ZN12ActorUnkKIMB19func_ov074_0215fb98Ev kind:function(arm,size=0x14) addr:0x0215fb98
_ZN12ActorUnkKIMB19func_ov074_0215fbacEv kind:function(arm,size=0x78) addr:0x0215fbac
_ZN12ActorUnkKIMB19func_ov074_0215fc24Ev kind:function(arm,size=0x14) addr:0x0215fc24
_ZN12ActorUnkKIMB19func_ov074_0215fc38Ev kind:function(arm,size=0x48) addr:0x0215fc38
_ZN12ActorUnkKIMB19func_ov074_0215fc80Ev kind:function(arm,size=0xc8) addr:0x0215fc80
_ZN12ActorUnkKIMB19func_ov074_0215fd48Ev kind:function(arm,size=0x134) addr:0x0215fd48
_ZN12ActorUnkKIMB19func_ov074_0215fe7cEv kind:function(arm,size=0x14) addr:0x0215fe7c
_ZN12ActorUnkKIMB19func_ov074_0215fe90Ev kind:function(arm,size=0x54) addr:0x0215fe90
_ZN12ActorUnkKIMB19func_ov074_0215fee4Ev kind:function(arm,size=0x14) addr:0x0215fee4
_ZN12ActorUnkKIMB19func_ov074_0215fef8Ev kind:function(arm,size=0x64) addr:0x0215fef8
_ZN12ActorUnkKIMB19func_ov074_0215ff5cEv kind:function(arm,size=0x78) addr:0x0215ff5c
_ZN12ActorUnkKIMB19func_ov074_0215ffd4Ev kind:function(arm,size=0xfc) addr:0x0215ffd4
_ZN12ActorUnkKIMB19func_ov074_021600d0Ev kind:function(arm,size=0x7c) addr:0x021600d0
_ZN12ActorUnkKIMB19func_ov074_0216014cEv kind:function(arm,size=0x25c) addr:0x0216014c
_ZN12ActorUnkKIMB19func_ov074_021603a8Ev kind:function(arm,size=0x68) addr:0x021603a8
_ZN12ActorUnkKIMB19func_ov074_02160410Ev kind:function(arm,size=0x34) addr:0x02160410
_ZN12ActorUnkKIMB19func_ov074_02160444Ev kind:function(arm,size=0xa4) addr:0x02160444
_ZN12ActorUnkKIMB19func_ov074_021604e8Ev kind:function(arm,size=0x194) addr:0x021604e8
_ZN12ActorUnkKIMB19func_ov074_0216067cEv kind:function(arm,size=0xa8) addr:0x0216067c
_ZN12ActorUnkKIMB19func_ov074_02160724Ev kind:function(arm,size=0x14) addr:0x02160724
_ZN12ActorUnkKIMB19func_ov074_02160738Ev kind:function(arm,size=0x20) addr:0x02160738
_ZN12ActorUnkKIMB19func_ov074_02160758Ev kind:function(arm,size=0x98) addr:0x02160758
_ZN12ActorUnkKIMB19func_ov074_021607f0Ev kind:function(arm,size=0x4c) addr:0x021607f0
_ZN12ActorUnkKIMBD0Ev kind:function(arm,size=0x1c) addr:0x0216083c
_ZN12ActorUnkKIMBD1Ev kind:function(arm,size=0x40) addr:0x02160858
_ZN12ActorUnkKIMB19func_ov074_02160898Ev kind:function(arm,size=0x48) addr:0x02160898
_ZN19ActorProfileUnkKIMBD1Ev kind:function(arm,size=0x14) addr:0x021608e0
_ZN19ActorProfileUnkPPPM10GetProfileEv kind:function(arm,size=0xc) addr:0x021608f4
_ZN19ActorProfileUnkPPPM6CreateEv kind:function(arm,size=0x28) addr:0x02160900
_ZN19ActorProfileUnkPPPMC1Ev kind:function(arm,size=0x58) addr:0x02160928
_ZN12ActorUnkPPPMC1Ev kind:function(arm,size=0x338) addr:0x02160980
_ZN12ActorUnkPPPMD1Ev kind:function(arm,size=0x80) addr:0x02160cb8
_ZN12ActorUnkPPPMD0Ev kind:function(arm,size=0x88) addr:0x02160d38
_ZN12ActorUnkPPPM19func_ov074_02160dc0Ev kind:function(arm,size=0xb0) addr:0x02160dc0
_ZN12ActorUnkPPPM19func_ov074_02160e70Ev kind:function(arm,size=0x74) addr:0x02160e70
_ZN12ActorUnkPPPM19func_ov074_02160ee4Ev kind:function(arm,size=0x48) addr:0x02160ee4
_ZN12ActorUnkPPPM19func_ov074_02160f2cEv kind:function(arm,size=0x40) addr:0x02160f2c
_ZN12ActorUnkPPPM19func_ov074_02160f6cEv kind:function(arm,size=0x1c0) addr:0x02160f6c
_ZN12ActorUnkPPPM19func_ov074_0216112cEv kind:function(arm,size=0x60) addr:0x0216112c
_ZN12ActorUnkPPPM19func_ov074_0216118cEv kind:function(arm,size=0x268) addr:0x0216118c
_ZN12ActorUnkPPPM19func_ov074_021613f4Ev kind:function(arm,size=0x30) addr:0x021613f4
_ZN12ActorUnkPPPM19func_ov074_02161424Ev kind:function(arm,size=0x4) addr:0x02161424
_ZN12ActorUnkPPPM19func_ov074_02161428Ev kind:function(arm,size=0xcc) addr:0x02161428
_ZN12ActorUnkPPPM19func_ov074_021614f4Ev kind:function(arm,size=0x1ac) addr:0x021614f4
_ZN12ActorUnkPPPM19func_ov074_021616a0Ev kind:function(arm,size=0x14c) addr:0x021616a0
_ZN12ActorUnkPPPM19func_ov074_021617ecEv kind:function(arm,size=0x60) addr:0x021617ec
_ZN12ActorUnkPPPM19func_ov074_0216184cEv kind:function(arm,size=0x288) addr:0x0216184c
_ZN12ActorUnkPPPM19func_ov074_02161ad4Ev kind:function(arm,size=0x4c) addr:0x02161ad4
_ZN12ActorUnkPPPM19func_ov074_02161b20Ev kind:function(arm,size=0x38) addr:0x02161b20
_ZN12ActorUnkPPPM19func_ov074_02161b58Ev kind:function(arm,size=0x40) addr:0x02161b58
_ZN12ActorUnkPPPM19func_ov074_02161b98Ev kind:function(arm,size=0x48) addr:0x02161b98
_ZN12ActorUnkPPPM19func_ov074_02161be0Ev kind:function(arm,size=0x48) addr:0x02161be0
_ZN12ActorUnkPPPM19func_ov074_02161c28Ev kind:function(arm,size=0x114) addr:0x02161c28
_ZN12ActorUnkPPPM19func_ov074_02161d3cEv kind:function(arm,size=0x130) addr:0x02161d3c
_ZN12ActorUnkPPPM19func_ov074_02161e6cEv kind:function(arm,size=0x1c0) addr:0x02161e6c
_ZN12ActorUnkPPPM19func_ov074_0216202cEv kind:function(arm,size=0x48) addr:0x0216202c
_ZN12ActorUnkPPPM19func_ov074_02162074Ev kind:function(arm,size=0x118) addr:0x02162074
_ZN12ActorUnkPPPM19func_ov074_0216218cEv kind:function(arm,size=0x84) addr:0x0216218c
_ZN12ActorUnkPPPM19func_ov074_02162210Ev kind:function(arm,size=0xd4) addr:0x02162210
_ZN12ActorUnkPPPM19func_ov074_021622e4Ev kind:function(arm,size=0x158) addr:0x021622e4
_ZN12ActorUnkPPPM19func_ov074_0216243cEv kind:function(arm,size=0x80) addr:0x0216243c
_ZN12ActorUnkPPPM19func_ov074_021624bcEv kind:function(arm,size=0xf8) addr:0x021624bc
_ZN12ActorUnkPPPM19func_ov074_021625b4Ev kind:function(arm,size=0x78) addr:0x021625b4
_ZN12ActorUnkPPPM19func_ov074_0216262cEv kind:function(arm,size=0x10) addr:0x0216262c
_ZN12ActorUnkPPPM19func_ov074_0216263cEv kind:function(arm,size=0xe4) addr:0x0216263c
_ZN12ActorUnkPPPM19func_ov074_02162720Ev kind:function(arm,size=0x900) addr:0x02162720
_ZN12ActorUnkPPPM19func_ov074_02163020Ev kind:function(arm,size=0xa0) addr:0x02163020
_ZN12ActorUnkPPPM19func_ov074_021630c0Ev kind:function(arm,size=0x78) addr:0x021630c0
_ZN12ActorUnkPPPM19func_ov074_02163138Ev kind:function(arm,size=0xa0) addr:0x02163138
_ZN12ActorUnkPPPM19func_ov074_021631d8Ev kind:function(arm,size=0x80) addr:0x021631d8
_ZN12ActorUnkPPPM19func_ov074_02163258Ev kind:function(arm,size=0x338) addr:0x02163258
_ZN12ActorUnkPPPM19func_ov074_02163590Ev kind:function(arm,size=0x150) addr:0x02163590
_ZN12ActorUnkPPPM19func_ov074_021636e0Ev kind:function(arm,size=0x348) addr:0x021636e0
_ZN12ActorUnkPPPM19func_ov074_02163a28Ev kind:function(arm,size=0x80) addr:0x02163a28
_ZN12ActorUnkPPPM19func_ov074_02163aa8Ev kind:function(arm,size=0x24) addr:0x02163aa8
_ZN12ActorUnkPPPM19func_ov074_02163accEv kind:function(arm,size=0xb0) addr:0x02163acc
_ZN12ActorUnkPPPM19func_ov074_02163b7cEv kind:function(arm,size=0x18) addr:0x02163b7c
_ZN12ActorUnkPPPM19func_ov074_02163b94Ev kind:function(arm,size=0x24) addr:0x02163b94
_ZN12ActorUnkPPPM19func_ov074_02163bb8Ev kind:function(arm,size=0x1c) addr:0x02163bb8
_ZN12ActorUnkPPPM19func_ov074_02163bd4Ev kind:function(arm,size=0x1c) addr:0x02163bd4
_ZN12ActorUnkPPPM19func_ov074_02163bf0Ev kind:function(arm,size=0x1c) addr:0x02163bf0
_ZN12ActorUnkPPPM19func_ov074_02163c0cEv kind:function(arm,size=0x24) addr:0x02163c0c
_ZN12ActorUnkPPPM19func_ov074_02163c30Ev kind:function(arm,size=0x24) addr:0x02163c30
_ZN12ActorUnkPPPM19func_ov074_02163c54Ev kind:function(arm,size=0x24) addr:0x02163c54
_ZN12ActorUnkPPPM19func_ov074_02163c78Ev kind:function(arm,size=0xbc) addr:0x02163c78
_ZN12ActorUnkPPPM19func_ov074_02163d34Ev kind:function(arm,size=0x120) addr:0x02163d34
_ZN12ActorUnkPPPM19func_ov074_02163e54Ev kind:function(arm,size=0x30) addr:0x02163e54
_ZN19ActorProfileUnkPPPMD1Ev kind:function(arm,size=0x14) addr:0x02163e84
func_ov074_02163e98 kind:function(arm,size=0x208) addr:0x02163e98
data_ov074_021640a4 kind:data(any) addr:0x021640a4
data_ov074_021640c4 kind:data(any) addr:0x021640c4
data_ov074_021640e8 kind:data(any) addr:0x021640e8
data_ov074_021640f8 kind:data(any) addr:0x021640f8
data_ov074_02164108 kind:data(any) addr:0x02164108
data_ov074_02164128 kind:data(any) addr:0x02164128
data_ov074_02164148 kind:data(any) addr:0x02164148
data_ov074_0216416c kind:data(any) addr:0x0216416c
data_ov074_021641ac kind:data(any) addr:0x021641ac
data_ov074_021641bc kind:data(any) addr:0x021641bc
data_ov074_021641cc kind:data(any) addr:0x021641cc
data_ov074_021641f0 kind:data(any) addr:0x021641f0
data_ov074_02164200 kind:data(any) addr:0x02164200
data_ov074_02164210 kind:data(any) addr:0x02164210
data_ov074_02164224 kind:data(any) addr:0x02164224
data_ov074_0216429c kind:data(any) addr:0x0216429c
data_ov074_02164300 kind:data(any) addr:0x02164300 ambiguous
__sinit_ActorUnkRBL1.cpp kind:function(arm,size=0xc4) addr:0x0216441c
__sinit_ActorUnkMAGR.cpp kind:function(arm,size=0x84) addr:0x021644e0
__sinit_ActorUnkZLBS.cpp kind:function(arm,size=0x74) addr:0x02164564
__sinit_ActorUnkZLBB.cpp kind:function(arm,size=0x74) addr:0x021645d8
__sinit_ActorUnkBSKM.cpp kind:function(arm,size=0x74) addr:0x0216464c
__sinit_ActorUnkBKST.cpp kind:function(arm,size=0x50) addr:0x021646c0
__sinit_ActorUnkKIMB.cpp kind:function(arm,size=0x74) addr:0x02164710
__sinit_ActorUnkPPPM.cpp kind:function(arm,size=0x74) addr:0x02164784
.p__sinit_ActorUnkRBL1.cpp kind:data(word) addr:0x021647f8
.p__sinit_ActorUnkMAGR.cpp kind:data(word) addr:0x021647fc
.p__sinit_ActorUnkZLBS.cpp kind:data(word) addr:0x02164800
.p__sinit_ActorUnkZLBB.cpp kind:data(word) addr:0x02164804
.p__sinit_ActorUnkBSKM.cpp kind:data(word) addr:0x02164808
.p__sinit_ActorUnkBKST.cpp kind:data(word) addr:0x0216480c
.p__sinit_ActorUnkKIMB.cpp kind:data(word) addr:0x02164810
.p__sinit_ActorUnkPPPM.cpp kind:data(word) addr:0x02164814
data_ov074_02164820 kind:data(any) addr:0x02164820
data_ov074_02164828 kind:data(any) addr:0x02164828
data_ov074_02164830 kind:data(any) addr:0x02164830
data_ov074_0216488c kind:data(any) addr:0x0216488c
_ZTV19data_ov074_021648a4 kind:data(any) addr:0x021648a4
data_ov074_021648d0 kind:data(any) addr:0x021648d0
data_ov074_021648e4 kind:data(any) addr:0x021648e4 ambiguous
data_ov074_021648fc kind:data(any) addr:0x021648fc
_ZTV19data_ov074_0216493c kind:data(any) addr:0x0216493c
data_ov074_02164998 kind:data(any) addr:0x02164998
data_ov074_021649b8 kind:data(any) addr:0x021649b8
_ZTV19data_ov074_021649c4 kind:data(any) addr:0x021649c4
data_ov074_021649f0 kind:data(any) addr:0x021649f0
data_ov074_02164a08 kind:data(any) addr:0x02164a08 ambiguous
data_ov074_02164a18 kind:data(any) addr:0x02164a18
_ZTV19data_ov074_02164a3c kind:data(any) addr:0x02164a3c
data_ov074_02164a98 kind:data(any) addr:0x02164a98
_ZTV19data_ov074_02164aa4 kind:data(any) addr:0x02164aa4
data_ov074_02164ad0 kind:data(any) addr:0x02164ad0
data_ov074_02164b14 kind:data(any) addr:0x02164b14
data_ov074_02164b64 kind:data(any) addr:0x02164b64
data_ov074_02164bb4 kind:data(any) addr:0x02164bb4
data_ov074_02164bcc kind:data(any) addr:0x02164bcc
data_ov074_02164be4 kind:data(any) addr:0x02164be4
data_ov074_02164bfc kind:data(any) addr:0x02164bfc
_ZTV19data_ov074_02164c14 kind:data(any) addr:0x02164c14
data_ov074_02164c74 kind:data(any) addr:0x02164c74
data_ov074_02164d4c kind:data(any) addr:0x02164d4c
data_ov074_02164d58 kind:data(any) addr:0x02164d58
data_ov074_02164d70 kind:data(any) addr:0x02164d70
data_ov074_02164d90 kind:data(any) addr:0x02164d90
_ZTV19data_ov074_02164db0 kind:data(any) addr:0x02164db0
_ZTV19data_ov074_02164dd4 kind:data(any) addr:0x02164dd4
data_ov074_02164e30 kind:data(any) addr:0x02164e30
data_ov074_02164e3c kind:data(any) addr:0x02164e3c
data_ov074_02164e54 kind:data(any) addr:0x02164e54
_ZTV19data_ov074_02164e6c kind:data(any) addr:0x02164e6c
data_ov074_02164e98 kind:data(any) addr:0x02164e98
data_ov074_02164ec4 kind:data(any) addr:0x02164ec4
_ZTV19data_ov074_02164ee8 kind:data(any) addr:0x02164ee8
data_ov074_02164f48 kind:data(any) addr:0x02164f48
data_ov074_02164fd8 kind:data(any) addr:0x02164fd8
data_ov074_02165068 kind:data(any) addr:0x02165068
data_ov074_02165188 kind:data(any) addr:0x02165188
data_ov074_0216518c kind:data(any) addr:0x0216518c
data_ov074_02165194 kind:data(any) addr:0x02165194 ambiguous
data_ov074_021651bc kind:data(any) addr:0x021651bc
_ZTV19data_ov074_021651ec kind:data(any) addr:0x021651ec
_ZTV19data_ov074_02165210 kind:data(any) addr:0x02165210
_ZTV19data_ov074_02165240 kind:data(any) addr:0x02165240 ambiguous
data_ov074_02165274 kind:data(any) addr:0x02165274
data_ov074_02165280 kind:data(any) addr:0x02165280
data_ov074_02165298 kind:data(any) addr:0x02165298
data_ov074_021652c8 kind:data(any) addr:0x021652c8
_ZTV19data_ov074_021652f8 kind:data(any) addr:0x021652f8
data_ov074_02165324 kind:data(any) addr:0x02165324
_ZTV19data_ov074_02165368 kind:data(any) addr:0x02165368
data_ov074_021653c4 kind:data(any) addr:0x021653c4
_ZTV19data_ov074_021653d0 kind:data(any) addr:0x021653d0
data_ov074_021653f4 kind:data(any) addr:0x021653f4
data_ov074_0216540c kind:data(any) addr:0x0216540c
data_ov074_02165424 kind:data(any) addr:0x02165424
_ZTV19data_ov074_0216543c kind:data(any) addr:0x0216543c
data_ov074_0216549c kind:data(any) addr:0x0216549c
data_ov074_02165504 kind:data(any) addr:0x02165504
data_ov074_02165518 kind:data(any) addr:0x02165518 ambiguous
_ZGVN15ProfileInstanceI19ActorProfileUnkRBL1E8sProfileE kind:bss addr:0x02165580
@33363 kind:bss addr:0x02165584
_ZN15ProfileInstanceI19ActorProfileUnkRBL1E8sProfileE kind:bss addr:0x02165590
_ZGVN15ProfileInstanceI19ActorProfileUnkMAGRE8sProfileE kind:bss addr:0x02165668
@33369 kind:bss addr:0x0216566c
_ZN15ProfileInstanceI19ActorProfileUnkMAGRE8sProfileE kind:bss addr:0x02165678
_ZGVN15ProfileInstanceI19ActorProfileUnkZLBSE8sProfileE kind:bss addr:0x02165750
@33375 kind:bss addr:0x02165754
_ZN15ProfileInstanceI19ActorProfileUnkZLBSE8sProfileE kind:bss addr:0x02165760
_ZGVN15ProfileInstanceI19ActorProfileUnkZLBBE8sProfileE kind:bss addr:0x02165838
@33381 kind:bss addr:0x0216583c
_ZN15ProfileInstanceI19ActorProfileUnkZLBBE8sProfileE kind:bss addr:0x02165848
_ZGVN15ProfileInstanceI19ActorProfileUnkBSKME8sProfileE kind:bss addr:0x02165920
@33387 kind:bss addr:0x02165924
_ZN15ProfileInstanceI19ActorProfileUnkBSKME8sProfileE kind:bss addr:0x02165930
_ZGVN15ProfileInstanceI19ActorProfileUnkBKSTE8sProfileE kind:bss addr:0x02165a08
@33393 kind:bss addr:0x02165a0c
_ZN15ProfileInstanceI19ActorProfileUnkBKSTE8sProfileE kind:bss addr:0x02165a18
_ZGVN15ProfileInstanceI19ActorProfileUnkKIMBE8sProfileE kind:bss addr:0x02165a54
@33399 kind:bss addr:0x02165a58
_ZN15ProfileInstanceI19ActorProfileUnkKIMBE8sProfileE kind:bss addr:0x02165a64
data_ov074_02165b3c kind:bss addr:0x02165b3c
data_ov074_02165b40 kind:bss addr:0x02165b40
_ZN15ProfileInstanceI19ActorProfileUnkPPPME8sProfileE kind:bss addr:0x02165b4c
