_ZN19ActorProfileUnkPBSP10GetProfileEv kind:function(arm,size=0xc) addr:0x02159be0
_ZN19ActorProfileUnkPBSP6CreateEv kind:function(arm,size=0x24) addr:0x02159bec
_ZN19ActorProfileUnkPBSPC1Ev kind:function(arm,size=0x50) addr:0x02159c10
_ZN12ActorUnkPBSPC1Ev kind:function(arm,size=0x5c) addr:0x02159c60
_ZN12ActorUnkPBSPD1Ev kind:function(arm,size=0x24) addr:0x02159cbc
_ZN12ActorUnkPBSPD0Ev kind:function(arm,size=0x2c) addr:0x02159ce0
_ZN12ActorUnkPBSP19func_ov059_02157fccEv kind:function(arm,size=0x2c) addr:0x02159d0c
_ZN12ActorUnkPBSP19func_ov059_02157ff8Ev kind:function(arm,size=0x44) addr:0x02159d38
_ZN12ActorUnkPBSP19func_ov059_0215803cEv kind:function(arm,size=0xd4) addr:0x02159d7c
_ZN12ActorUnkPBSP19func_ov059_02158110Ev kind:function(arm,size=0x4) addr:0x02159e50
_ZN12ActorUnkPBSP19func_ov059_02158114Ev kind:function(arm,size=0x28) addr:0x02159e54
_ZN12ActorUnkPBSP19func_ov059_0215813cEv kind:function(arm,size=0xc) addr:0x02159e7c
_ZN12ActorUnkPBSP19func_ov059_02158148Ev kind:function(arm,size=0x50) addr:0x02159e88
_ZN12ActorUnkPBSP19func_ov059_02158198Ev kind:function(arm,size=0x4) addr:0x02159ed8
_ZN12ActorUnkPBSP19func_ov059_0215819cEv kind:function(arm,size=0x6c) addr:0x02159edc
_ZN12ActorUnkPBSP19func_ov059_02158208Ev kind:function(arm,size=0x4) addr:0x02159f48
_ZN12ActorUnkPBSP19func_ov059_0215820cEv kind:function(arm,size=0x44) addr:0x02159f4c
_ZN12ActorUnkPBSP19func_ov059_02158250Ev kind:function(arm,size=0x4) addr:0x02159f90
_ZN12ActorUnkPBSP19func_ov059_02158254Ev kind:function(arm,size=0xc0) addr:0x02159f94
_ZN12ActorUnkPBSP19func_ov059_02158314Ev kind:function(arm,size=0x28) addr:0x0215a054
_ZN12ActorUnkPBSP19func_ov059_0215833cEv kind:function(arm,size=0x94) addr:0x0215a07c
_ZN12ActorUnkPBSP19func_ov059_021583d0Ev kind:function(arm,size=0x2c) addr:0x0215a110
_ZN12ActorUnkPBSP19func_ov059_021583fcEv kind:function(arm,size=0xa4) addr:0x0215a13c
_ZN12ActorUnkPBSP19func_ov059_021584a0Ev kind:function(arm,size=0xc4) addr:0x0215a1e0
_ZN12ActorUnkPBSP19func_ov059_02158564Ev kind:function(arm,size=0x70) addr:0x0215a2a4
_ZN12ActorUnkPBSP19func_ov059_021585d4Ev kind:function(arm,size=0x74) addr:0x0215a314
_ZN12ActorUnkPBSP19func_ov059_02158648Ev kind:function(arm,size=0x60) addr:0x0215a388
_ZN12ActorUnkPBSP19func_ov059_021586a8Ev kind:function(arm,size=0xb4) addr:0x0215a3e8
_ZN12ActorUnkPBSP19func_ov059_0215875cEv kind:function(arm,size=0x6c) addr:0x0215a49c
_ZN12ActorUnkPBSP19func_ov059_021587c8Ev kind:function(arm,size=0x158) addr:0x0215a508
_ZN12ActorUnkPBSP19func_ov059_02158920Ev kind:function(arm,size=0x8c) addr:0x0215a660
_ZN12ActorUnkPBSP19func_ov059_021589acEv kind:function(arm,size=0x8) addr:0x0215a6ec
_ZN12ActorUnkPBSP19func_ov059_021589b4Ev kind:function(arm,size=0x80) addr:0x0215a6f4
_ZN12ActorUnkPBSP19func_ov059_02158a34Ev kind:function(arm,size=0x6c) addr:0x0215a774
_ZN12ActorUnkPBSP19func_ov059_02158aa0Ev kind:function(arm,size=0x90) addr:0x0215a7e0
_ZN12ActorUnkPBSP19func_ov059_02158b30Ev kind:function(arm,size=0xc) addr:0x0215a870
_ZN19ActorProfileUnkPBSPD1Ev kind:function(arm,size=0x14) addr:0x0215a87c
_ZN19ActorProfileUnkPSEM10GetProfileEv kind:function(arm,size=0xc) addr:0x0215a890
_ZN19ActorProfileUnkPSEM6CreateEv kind:function(arm,size=0x24) addr:0x0215a89c
_ZN19ActorProfileUnkPSEMC1Ev kind:function(arm,size=0x4c) addr:0x0215a8c0
_ZN12ActorUnkPSEMC1Ev kind:function(arm,size=0x218) addr:0x0215a90c
_ZN12ActorUnkPSEM19func_ov059_02158de4Ev kind:function(arm,size=0x14) addr:0x0215ab24
_ZN12ActorUnkPSEM19func_ov059_02158df8Ev kind:function(arm,size=0xa4) addr:0x0215ab38
_ZN12ActorUnkPSEM19func_ov059_02158e9cEv kind:function(arm,size=0x3c) addr:0x0215abdc
_ZN12ActorUnkPSEM19func_ov059_02158ed8Ev kind:function(arm,size=0x48) addr:0x0215ac18
_ZN12ActorUnkPSEM19func_ov059_02158f20Ev kind:function(arm,size=0x28c) addr:0x0215ac60
_ZN12ActorUnkPSEM19func_ov059_021591acEv kind:function(arm,size=0x140) addr:0x0215aeec
_ZN12ActorUnkPSEM19func_ov059_021592ecEv kind:function(arm,size=0x40) addr:0x0215b02c
_ZN12ActorUnkPSEM19func_ov059_0215932cEv kind:function(arm,size=0x1d0) addr:0x0215b06c
_ZN12ActorUnkPSEM19func_ov059_021594fcEv kind:function(arm,size=0x24) addr:0x0215b23c
_ZN12ActorUnkPSEM19func_ov059_02159520Ev kind:function(arm,size=0x134) addr:0x0215b260
_ZN12ActorUnkPSEM19func_ov059_02159654Ev kind:function(arm,size=0x29c) addr:0x0215b394
_ZN12ActorUnkPSEM19func_ov059_021598f0Ev kind:function(arm,size=0x78) addr:0x0215b630
_ZN12ActorUnkPSEM19func_ov059_02159968Ev kind:function(arm,size=0xc8) addr:0x0215b6a8
_ZN12ActorUnkPSEM19func_ov059_02159a30Ev kind:function(arm,size=0x88) addr:0x0215b770
_ZN12ActorUnkPSEM19func_ov059_02159ab8Ev kind:function(arm,size=0x1fc) addr:0x0215b7f8
_ZN12ActorUnkPSEM19func_ov059_02159cb4Ev kind:function(arm,size=0x88) addr:0x0215b9f4
_ZN12ActorUnkPSEM19func_ov059_02159d3cEv kind:function(arm,size=0x1cc) addr:0x0215ba7c
_ZN12ActorUnkPSEM19func_ov059_02159f08Ev kind:function(arm,size=0xa0) addr:0x0215bc48
_ZN12ActorUnkPSEM19func_ov059_02159fa8Ev kind:function(arm,size=0xe0) addr:0x0215bce8
_ZN12ActorUnkPSEM19func_ov059_0215a088Ev kind:function(arm,size=0xac) addr:0x0215bdc8
_ZN12ActorUnkPSEM19func_ov059_0215a134Ev kind:function(arm,size=0x104) addr:0x0215be74
_ZN12ActorUnkPSEM19func_ov059_0215a238Ev kind:function(arm,size=0x8c) addr:0x0215bf78
_ZN12ActorUnkPSEM19func_ov059_0215a2c4Ev kind:function(arm,size=0x268) addr:0x0215c004
_ZN12ActorUnkPSEM19func_ov059_0215a52cEv kind:function(arm,size=0xec) addr:0x0215c26c
_ZN12ActorUnkPSEM19func_ov059_0215a618Ev kind:function(arm,size=0x10c) addr:0x0215c358
_ZN12ActorUnkPSEM19func_ov059_0215a724Ev kind:function(arm,size=0x1fc) addr:0x0215c464
_ZN12ActorUnkPSEM19func_ov059_0215a920Ev kind:function(arm,size=0x254) addr:0x0215c660
_ZN12ActorUnkPSEM19func_ov059_0215ab74Ev kind:function(arm,size=0x64) addr:0x0215c8b4
_ZN12ActorUnkPSEM19func_ov059_0215abd8Ev kind:function(arm,size=0x280) addr:0x0215c918
_ZN12ActorUnkPSEM19func_ov059_0215ae58Ev kind:function(arm,size=0x198) addr:0x0215cb98
_ZN12ActorUnkPSEM19func_ov059_0215aff0Ev kind:function(arm,size=0x248) addr:0x0215cd30
_ZN12ActorUnkPSEM19func_ov059_0215b238Ev kind:function(arm,size=0x10) addr:0x0215cf78
_ZN12ActorUnkPSEM19func_ov059_0215b248Ev kind:function(arm,size=0x4c) addr:0x0215cf88
_ZN12ActorUnkPSEM19func_ov059_0215b294Ev kind:function(arm,size=0xb4) addr:0x0215cfd4
_ZN12ActorUnkPSEM19func_ov059_0215b348Ev kind:function(arm,size=0x28) addr:0x0215d088
_ZN12ActorUnkPSEM19func_ov059_0215b370Ev kind:function(arm,size=0xb0) addr:0x0215d0b0
_ZN12ActorUnkPSEM19func_ov059_0215b420Ev kind:function(arm,size=0x64) addr:0x0215d160
_ZN12ActorUnkPSEM19func_ov059_0215b484Ev kind:function(arm,size=0x2c) addr:0x0215d1c4
_ZN12ActorUnkPSEM19func_ov059_0215b4b0Ev kind:function(arm,size=0x41c) addr:0x0215d1f0
_ZN12ActorUnkPSEM19func_ov059_0215b8ccEv kind:function(arm,size=0x1dc) addr:0x0215d60c
_ZN12ActorUnkPSEM19func_ov059_0215baa8Ev kind:function(arm,size=0x5c) addr:0x0215d7e8
_ZN12ActorUnkPSEM19func_ov059_0215bb04Ev kind:function(arm,size=0x260) addr:0x0215d844
_ZN12ActorUnkPSEM19func_ov059_0215bd64Ev kind:function(arm,size=0x70) addr:0x0215daa4
_ZN12ActorUnkPSEM19func_ov059_0215bdd4Ev kind:function(arm,size=0xbc) addr:0x0215db14
_ZN12ActorUnkPSEM19func_ov059_0215be90Ev kind:function(arm,size=0x124) addr:0x0215dbd0
_ZN12ActorUnkPSEM19func_ov059_0215bfb4Ev kind:function(arm,size=0x30) addr:0x0215dcf4
_ZN12ActorUnkPSEM19func_ov059_0215bfe4Ev kind:function(arm,size=0x2c) addr:0x0215dd24
_ZN12ActorUnkPSEM19func_ov059_0215c010Ev kind:function(arm,size=0x64) addr:0x0215dd50
_ZN12ActorUnkPSEM19func_ov059_0215c074Ev kind:function(arm,size=0x30) addr:0x0215ddb4
_ZN12ActorUnkPSEM19func_ov059_0215c0a4Ev kind:function(arm,size=0x110) addr:0x0215dde4
_ZN12ActorUnkPSEM19func_ov059_0215c1b4Ev kind:function(arm,size=0x38) addr:0x0215def4
_ZN12ActorUnkPSEMD1Ev kind:function(arm,size=0x1c) addr:0x0215df2c
_ZN12ActorUnkPSEMD0Ev kind:function(arm,size=0x24) addr:0x0215df48
_ZN12ActorUnkPSEM19func_ov059_0215c22cEv kind:function(arm,size=0x7c) addr:0x0215df6c
_ZN12ActorUnkPSEM19func_ov059_0215c2a8Ev kind:function(arm,size=0x24) addr:0x0215dfe8
_ZN12ActorUnkPSEM19func_ov059_0215c2ccEv kind:function(arm,size=0x2c) addr:0x0215e00c
_ZN12ActorUnkPSEM19func_ov059_0215c2f8Ev kind:function(arm,size=0x1c) addr:0x0215e038
_ZN12ActorUnkPSEM19func_ov059_0215c314Ev kind:function(arm,size=0x84) addr:0x0215e054
_ZN12ActorUnkPSEM19func_ov059_0215c398Ev kind:function(arm,size=0x8c) addr:0x0215e0d8
_ZN19ActorProfileUnkPSEMD1Ev kind:function(arm,size=0x14) addr:0x0215e164
_ZN19ActorProfileUnkPSBS10GetProfileEv kind:function(arm,size=0xc) addr:0x0215e178
_ZN19ActorProfileUnkPSBS6CreateEv kind:function(arm,size=0x28) addr:0x0215e184
_ZN19ActorProfileUnkPSBSC1Ev kind:function(arm,size=0x58) addr:0x0215e1ac
_ZN12ActorUnkPSBSC1Ev kind:function(arm,size=0x330) addr:0x0215e204
_ZN12ActorUnkPSBS19func_ov059_0215c7f4Ev kind:function(arm,size=0x14) addr:0x0215e534
_ZN12ActorUnkPSBS19func_ov059_0215c808Ev kind:function(arm,size=0x17c) addr:0x0215e548
_ZN12ActorUnkPSBS19func_ov059_0215c984Ev kind:function(arm,size=0x2c) addr:0x0215e6c4
_ZN12ActorUnkPSBS19func_ov059_0215c9b0Ev kind:function(arm,size=0x48) addr:0x0215e6f0
_ZN12ActorUnkPSBS19func_ov059_0215c9f8Ev kind:function(arm,size=0x80) addr:0x0215e738
_ZN12ActorUnkPSBS19func_ov059_0215ca78Ev kind:function(arm,size=0x21c) addr:0x0215e7b8
_ZN12ActorUnkPSBS19func_ov059_0215cc94Ev kind:function(arm,size=0x350) addr:0x0215e9d4
_ZN12ActorUnkPSBS19func_ov059_0215cfccEv kind:function(arm,size=0x40) addr:0x0215ed24
_ZN12ActorUnkPSBS19func_ov059_0215d00cEv kind:function(arm,size=0x18) addr:0x0215ed64
_ZN12ActorUnkPSBS19func_ov059_0215d024Ev kind:function(arm,size=0x2b4) addr:0x0215ed7c
_ZN12ActorUnkPSBS19func_ov059_0215d2d8Ev kind:function(arm,size=0x80) addr:0x0215f030
_ZN12ActorUnkPSBS19func_ov059_0215d358Ev kind:function(arm,size=0x30) addr:0x0215f0b0
_ZN12ActorUnkPSBS19func_ov059_0215d388Ev kind:function(arm,size=0x8d8) addr:0x0215f0e0
_ZN12ActorUnkPSBS19func_ov059_0215dc60Ev kind:function(arm,size=0x2c) addr:0x0215f9b8
_ZN12ActorUnkPSBS19func_ov059_0215dc8cEv kind:function(arm,size=0x1fc) addr:0x0215f9e4
_ZN12ActorUnkPSBS19func_ov059_0215de74Ev kind:function(arm,size=0x134) addr:0x0215fbe0
_ZN12ActorUnkPSBS19func_ov059_0215dfa8Ev kind:function(arm,size=0x43c) addr:0x0215fd14
_ZN12ActorUnkPSBS19func_ov059_0215e3e4Ev kind:function(arm,size=0x6c) addr:0x02160150
_ZN12ActorUnkPSBS19func_ov059_0215e450Ev kind:function(arm,size=0x334) addr:0x021601bc
_ZN12ActorUnkPSBS19func_ov059_0215e784Ev kind:function(arm,size=0x4) addr:0x021604f0
_ZN12ActorUnkPSBS19func_ov059_0215e788Ev kind:function(arm,size=0x4) addr:0x021604f4
_ZN12ActorUnkPSBS19func_ov059_0215e78cEv kind:function(arm,size=0x10) addr:0x021604f8
_ZN12ActorUnkPSBS19func_ov059_0215e79cEv kind:function(arm,size=0x4) addr:0x02160508
_ZN12ActorUnkPSBS19func_ov059_0215e7a0Ev kind:function(arm,size=0x18) addr:0x0216050c
_ZN12ActorUnkPSBS19func_ov059_0215e7b8Ev kind:function(arm,size=0x598) addr:0x02160524
_ZN12ActorUnkPSBS19func_ov059_0215ed50Ev kind:function(arm,size=0x1f4) addr:0x02160abc
_ZN12ActorUnkPSBS19func_ov059_0215ef44Ev kind:function(arm,size=0x48c) addr:0x02160cb0
_ZN12ActorUnkPSBS19func_ov059_0215f3d0Ev kind:function(arm,size=0x5c) addr:0x0216113c
_ZN12ActorUnkPSBS19func_ov059_0215f42cEv kind:function(arm,size=0x2ac) addr:0x02161198
_ZN12ActorUnkPSBS19func_ov059_0215f6d8Ev kind:function(arm,size=0x68) addr:0x02161444
_ZN12ActorUnkPSBS19func_ov059_0215f740Ev kind:function(arm,size=0x34) addr:0x021614ac
_ZN12ActorUnkPSBS19func_ov059_0215f774Ev kind:function(arm,size=0x378) addr:0x021614e0
_ZN12ActorUnkPSBS19func_ov059_0215faecEv kind:function(arm,size=0xb8) addr:0x02161858
_ZN12ActorUnkPSBS19func_ov059_0215fba4Ev kind:function(arm,size=0x88) addr:0x02161910
_ZN12ActorUnkPSBS19func_ov059_0215fc2cEv kind:function(arm,size=0x6c) addr:0x02161998
_ZN12ActorUnkPSBS19func_ov059_0215fc98Ev kind:function(arm,size=0x248) addr:0x02161a04
_ZN12ActorUnkPSBS19func_ov059_0215fee0Ev kind:function(arm,size=0x18) addr:0x02161c4c
_ZN12ActorUnkPSBS19func_ov059_0215fef8Ev kind:function(arm,size=0x14c) addr:0x02161c64
_ZN12ActorUnkPSBS19func_ov059_02160044Ev kind:function(arm,size=0xfc) addr:0x02161db0
_ZN12ActorUnkPSBS19func_ov059_02160140Ev kind:function(arm,size=0x6c) addr:0x02161eac
_ZN12ActorUnkPSBS19func_ov059_021601acEv kind:function(arm,size=0x128) addr:0x02161f18
_ZN12ActorUnkPSBS19func_ov059_021602d4Ev kind:function(arm,size=0xb0) addr:0x02162040
_ZN12ActorUnkPSBSD0Ev kind:function(arm,size=0x1c) addr:0x021620f0
_ZN12ActorUnkPSBSD1Ev kind:function(arm,size=0x50) addr:0x0216210c
_ZN12ActorUnkPSBS19func_ov059_021603f0Ev kind:function(arm,size=0x58) addr:0x0216215c
_ZN19ActorProfileUnkPSBSD1Ev kind:function(arm,size=0x14) addr:0x021621b4
_ZN19ActorProfileUnkPSNP10GetProfileEv kind:function(thumb,size=0x8) addr:0x021621c8
_ZN19ActorProfileUnkPSNP6CreateEv kind:function(thumb,size=0x18) addr:0x021621d0
_ZN19ActorProfileUnkPSNPC1Ev kind:function(thumb,size=0x3c) addr:0x021621e8
_ZN12ActorUnkPSNP19func_ov059_021604b8Ev kind:function(thumb,size=0x110) addr:0x02162224
_ZN12ActorUnkPSNP19func_ov059_021605c8Ev kind:function(thumb,size=0xc) addr:0x02162334
_ZN12ActorUnkPSNP19func_ov059_021605d4Ev kind:function(thumb,size=0x34) addr:0x02162340
_ZN12ActorUnkPSNP19func_ov059_02160608Ev kind:function(thumb,size=0x3c) addr:0x02162374
_ZN12ActorUnkPSNP19func_ov059_02160644Ev kind:function(arm,size=0x54) addr:0x021623b0
_ZN12ActorUnkPSNP19func_ov059_02160698Ev kind:function(arm,size=0x88) addr:0x02162404
_ZN12ActorUnkPSNP19func_ov059_02160720Ev kind:function(arm,size=0x2c) addr:0x0216248c
_ZN12ActorUnkPSNP19func_ov059_0216074cEv kind:function(arm,size=0x50) addr:0x021624b8
_ZN12ActorUnkPSNP19func_ov059_0216079cEv kind:function(arm,size=0x16c) addr:0x02162508
_ZN12ActorUnkPSNP19func_ov059_02160908Ev kind:function(arm,size=0x14) addr:0x02162674
_ZN12ActorUnkPSNP19func_ov059_0216091cEv kind:function(arm,size=0x30) addr:0x02162688
_ZN12ActorUnkPSNP19func_ov059_0216094cEv kind:function(arm,size=0x4) addr:0x021626b8
_ZN12ActorUnkPSNP19func_ov059_02160950Ev kind:function(arm,size=0x30) addr:0x021626bc
_ZN12ActorUnkPSNP19func_ov059_02160980Ev kind:function(arm,size=0x3c) addr:0x021626ec
_ZN12ActorUnkPSNP19func_ov059_021609bcEv kind:function(arm,size=0x30) addr:0x02162728
_ZN12ActorUnkPSNP19func_ov059_021609ecEv kind:function(arm,size=0x4c) addr:0x02162758
_ZN12ActorUnkPSNP19func_ov059_02160a38Ev kind:function(arm,size=0x30) addr:0x021627a4
_ZN12ActorUnkPSNP19func_ov059_02160a68Ev kind:function(arm,size=0x10) addr:0x021627d4
_ZN12ActorUnkPSNP19func_ov059_02160a78Ev kind:function(arm,size=0x38) addr:0x021627e4
_ZN12ActorUnkPSNP19func_ov059_02160ab0Ev kind:function(arm,size=0x64) addr:0x0216281c
_ZN12ActorUnkPSNP19func_ov059_02160b14Ev kind:function(arm,size=0x34) addr:0x02162880
_ZN12ActorUnkPSNP19func_ov059_02160b48Ev kind:function(arm,size=0x5c) addr:0x021628b4
_ZN12ActorUnkPSNP19func_ov059_02160ba4Ev kind:function(arm,size=0x30) addr:0x02162910
_ZN12ActorUnkPSNP19func_ov059_02160bd4Ev kind:function(arm,size=0x44) addr:0x02162940
_ZN12ActorUnkPSNP19func_ov059_02160c18Ev kind:function(arm,size=0x18) addr:0x02162984
_ZN12ActorUnkPSNP19func_ov059_02160c30Ev kind:function(arm,size=0x18) addr:0x0216299c
_ZN12ActorUnkPSNP19func_ov059_02160c48Ev kind:function(arm,size=0x64) addr:0x021629b4
_ZN12ActorUnkPSNP19func_ov059_02160cacEv kind:function(arm,size=0x4) addr:0x02162a18
_ZN12ActorUnkPSNP19func_ov059_02160cb0Ev kind:function(arm,size=0x18) addr:0x02162a1c
_ZN12ActorUnkPSNP19func_ov059_02160cc8Ev kind:function(arm,size=0x40) addr:0x02162a34
_ZN12ActorUnkPSNP19func_ov059_02160d08Ev kind:function(arm,size=0x90) addr:0x02162a74
_ZN12ActorUnkPSNPD0Ev kind:function(arm,size=0x1c) addr:0x02162b04
_ZN12ActorUnkPSNP19func_ov059_02160db4Ev kind:function(arm,size=0x28) addr:0x02162b20
_ZN12ActorUnkPSNPD2Ev kind:function(arm,size=0x20) addr:0x02162b48
_ZN19ActorProfileUnkPSNPD1Ev kind:function(arm,size=0x14) addr:0x02162b68
_ZN19ActorProfileUnkCAGE10GetProfileEv kind:function(arm,size=0xc) addr:0x02162b7c
_ZN19ActorProfileUnkCAGE6CreateEv kind:function(arm,size=0x24) addr:0x02162b88
_ZN19ActorProfileUnkCAGEC1Ev kind:function(arm,size=0x44) addr:0x02162bac
_ZN12ActorUnkCAGEC1Ev kind:function(arm,size=0xe0) addr:0x02162bf0
_ZN12ActorUnkCAGE19func_ov059_02160f64Ev kind:function(arm,size=0x30) addr:0x02162cd0
_ZN12ActorUnkCAGE19func_ov059_02160f94Ev kind:function(arm,size=0x3c) addr:0x02162d00
_ZN12ActorUnkCAGE19func_ov059_02160fd0Ev kind:function(arm,size=0x64) addr:0x02162d3c
_ZN12ActorUnkCAGE19func_ov059_02161034Ev kind:function(arm,size=0x14) addr:0x02162da0
_ZN12ActorUnkCAGE19func_ov059_02161048Ev kind:function(arm,size=0x14) addr:0x02162db4
_ZN12ActorUnkCAGE19func_ov059_0216105cEv kind:function(arm,size=0x4) addr:0x02162dc8
_ZN12ActorUnkCAGE19func_ov059_02161060Ev kind:function(arm,size=0x20) addr:0x02162dcc
_ZN12ActorUnkCAGE19func_ov059_02161080Ev kind:function(arm,size=0x64) addr:0x02162dec
_ZN12ActorUnkCAGE19func_ov059_021610e4Ev kind:function(arm,size=0x4) addr:0x02162e50
_ZN12ActorUnkCAGE19func_ov059_021610e8Ev kind:function(arm,size=0x4) addr:0x02162e54
_ZN12ActorUnkCAGE19func_ov059_021610ecEv kind:function(arm,size=0x78) addr:0x02162e58
_ZN12ActorUnkCAGE19func_ov059_02161164Ev kind:function(arm,size=0xac) addr:0x02162ed0
_ZN12ActorUnkCAGE19func_ov059_02161210Ev kind:function(arm,size=0x14) addr:0x02162f7c
_ZN12ActorUnkCAGE19func_ov059_02161224Ev kind:function(arm,size=0x16c) addr:0x02162f90
_ZN12ActorUnkCAGE19func_ov059_02161390Ev kind:function(arm,size=0x2c) addr:0x021630fc
_ZN12ActorUnkCAGE19func_ov059_021613bcEv kind:function(arm,size=0x8c) addr:0x02163128
_ZN12ActorUnkCAGE19func_ov059_02161448Ev kind:function(arm,size=0x28) addr:0x021631b4
_ZN12ActorUnkCAGED1Ev kind:function(arm,size=0x28) addr:0x021631dc
_ZN12ActorUnkCAGED0Ev kind:function(arm,size=0x30) addr:0x02163204
_ZN19ActorProfileUnkCAGED1Ev kind:function(arm,size=0x14) addr:0x02163234
func_ov059_02163248 kind:function(arm,size=0x20) addr:0x02163248
func_ov059_02163268 kind:function(arm,size=0x1c) addr:0x02163268
func_ov059_02163284 kind:function(arm,size=0x24) addr:0x02163284
_ZN19ActorProfileUnkRMVT10GetProfileEv kind:function(arm,size=0xc) addr:0x021632a8
_ZN19ActorProfileUnkRMVT6CreateEv kind:function(arm,size=0x24) addr:0x021632b4
_ZN19ActorProfileUnkRMVTC1Ev kind:function(arm,size=0x40) addr:0x021632d8
_ZN12ActorUnkRMVTC1Ev kind:function(arm,size=0xf0) addr:0x02163318
_ZN12ActorUnkRMVT19func_ov059_0216169cEv kind:function(arm,size=0x1c) addr:0x02163408
_ZN12ActorUnkRMVT19func_ov059_021616b8Ev kind:function(arm,size=0x14) addr:0x02163424
_ZN12ActorUnkRMVT19func_ov059_021616ccEv kind:function(arm,size=0x184) addr:0x02163438
_ZN12ActorUnkRMVT19func_ov059_02161850Ev kind:function(arm,size=0x4) addr:0x021635bc
_ZN12ActorUnkRMVT19func_ov059_02161854Ev kind:function(arm,size=0x14) addr:0x021635c0
_ZN12ActorUnkRMVT19func_ov059_02161868Ev kind:function(arm,size=0x84) addr:0x021635d4
_ZN12ActorUnkRMVT19func_ov059_021618ecEv kind:function(arm,size=0xf4) addr:0x02163658
_ZN12ActorUnkRMVT19func_ov059_021619e0Ev kind:function(arm,size=0x18) addr:0x0216374c
_ZN12ActorUnkRMVT19func_ov059_021619f8Ev kind:function(arm,size=0x78) addr:0x02163764
_ZN12ActorUnkRMVTD1Ev kind:function(arm,size=0x38) addr:0x021637dc
_ZN12ActorUnkRMVTD0Ev kind:function(arm,size=0x40) addr:0x02163814
_ZN19ActorProfileUnkRMVTD1Ev kind:function(arm,size=0x14) addr:0x02163854
func_ov059_02163868 kind:function(arm,size=0x20) addr:0x02163868
func_ov059_02163888 kind:function(arm,size=0x40) addr:0x02163888
func_ov059_021638c8 kind:function(arm,size=0x4) addr:0x021638c8
func_ov059_021638cc kind:function(arm,size=0x4) addr:0x021638cc
func_ov059_021638d0 kind:function(arm,size=0x14) addr:0x021638d0
func_ov059_021638e4 kind:function(arm,size=0xc) addr:0x021638e4
_ZN19func_ov059_021638f0D1Ev kind:function(arm,size=0x20) addr:0x021638f0
_ZN19func_ov059_02163910D0Ev kind:function(arm,size=0x28) addr:0x02163910
_ZN19ActorProfileUnkRMVF10GetProfileEv kind:function(arm,size=0xc) addr:0x02163938
_ZN19ActorProfileUnkRMVF6CreateEv kind:function(arm,size=0x24) addr:0x02163944
_ZN19ActorProfileUnkRMVFC1Ev kind:function(arm,size=0x28) addr:0x02163968
_ZN12ActorUnkRMVFC1Ev kind:function(arm,size=0xc0) addr:0x02163990
_ZN12ActorUnkRMVF19func_ov059_02161ce4Ev kind:function(arm,size=0x14) addr:0x02163a50
_ZN12ActorUnkRMVF19func_ov059_02161cf8Ev kind:function(arm,size=0xa0) addr:0x02163a64
_ZN12ActorUnkRMVF19func_ov059_02161d98Ev kind:function(arm,size=0x2c) addr:0x02163b04
_ZN12ActorUnkRMVF19func_ov059_02161dc4Ev kind:function(arm,size=0x50) addr:0x02163b30
_ZN12ActorUnkRMVF19func_ov059_02161e14Ev kind:function(arm,size=0x8) addr:0x02163b80
_ZN12ActorUnkRMVF19func_ov059_02161e1cEv kind:function(arm,size=0x24) addr:0x02163b88
_ZN12ActorUnkRMVF19func_ov059_02161e40Ev kind:function(arm,size=0x10) addr:0x02163bac
_ZN12ActorUnkRMVF19func_ov059_02161e50Ev kind:function(arm,size=0x8) addr:0x02163bbc
_ZN12ActorUnkRMVFD0Ev kind:function(arm,size=0x1c) addr:0x02163bc4
_ZN12ActorUnkRMVFD1Ev kind:function(arm,size=0x30) addr:0x02163be0
_ZN12ActorUnkRMVF19func_ov059_02161ea4Ev kind:function(arm,size=0x38) addr:0x02163c10
_ZN19ActorProfileUnkRMVFD1Ev kind:function(arm,size=0x14) addr:0x02163c48
_ZN19ActorProfileUnkRMVS10GetProfileEv kind:function(arm,size=0xc) addr:0x02163c5c
_ZN19ActorProfileUnkRMVS6CreateEv kind:function(arm,size=0x24) addr:0x02163c68
_ZN19ActorProfileUnkRMVSC1Ev kind:function(arm,size=0x28) addr:0x02163c8c
_ZN12ActorUnkRMVSC1Ev kind:function(arm,size=0xc0) addr:0x02163cb4
_ZN12ActorUnkRMVS19func_ov059_02162008Ev kind:function(arm,size=0xa0) addr:0x02163d74
_ZN12ActorUnkRMVS19func_ov059_021620a8Ev kind:function(arm,size=0x2c) addr:0x02163e14
_ZN12ActorUnkRMVS19func_ov059_021620d4Ev kind:function(arm,size=0x50) addr:0x02163e40
_ZN12ActorUnkRMVS19func_ov059_02162124Ev kind:function(arm,size=0x8) addr:0x02163e90
_ZN12ActorUnkRMVSD1Ev kind:function(arm,size=0x30) addr:0x02163e98
_ZN12ActorUnkRMVSD0Ev kind:function(arm,size=0x38) addr:0x02163ec8
_ZN19ActorProfileUnkRMVSD1Ev kind:function(arm,size=0x14) addr:0x02163f00
_ZN19ActorProfileUnkRMVW10GetProfileEv kind:function(arm,size=0xc) addr:0x02163f14
_ZN19ActorProfileUnkRMVW6CreateEv kind:function(arm,size=0x24) addr:0x02163f20
_ZN19ActorProfileUnkRMVWC1Ev kind:function(arm,size=0x28) addr:0x02163f44
_ZN12ActorUnkRMVWC1Ev kind:function(arm,size=0xc0) addr:0x02163f6c
_ZN12ActorUnkRMVW19func_ov059_021622c0Ev kind:function(arm,size=0xa0) addr:0x0216402c
_ZN12ActorUnkRMVW19func_ov059_02162360Ev kind:function(arm,size=0x2c) addr:0x021640cc
_ZN12ActorUnkRMVW19func_ov059_0216238cEv kind:function(arm,size=0x50) addr:0x021640f8
_ZN12ActorUnkRMVW19func_ov059_021623dcEv kind:function(arm,size=0x8) addr:0x02164148
_ZN12ActorUnkRMVWD1Ev kind:function(arm,size=0x30) addr:0x02164150
_ZN12ActorUnkRMVWD0Ev kind:function(arm,size=0x38) addr:0x02164180
_ZN19ActorProfileUnkRMVWD1Ev kind:function(arm,size=0x14) addr:0x021641b8
_ZN19ActorProfileUnkRMVV10GetProfileEv kind:function(arm,size=0xc) addr:0x021641cc
_ZN19ActorProfileUnkRMVV6CreateEv kind:function(arm,size=0x24) addr:0x021641d8
_ZN19ActorProfileUnkRMVVC1Ev kind:function(arm,size=0x28) addr:0x021641fc
_ZN12ActorUnkRMVVC1Ev kind:function(arm,size=0xc0) addr:0x02164224
_ZN12ActorUnkRMVV19func_ov059_02162578Ev kind:function(arm,size=0xa0) addr:0x021642e4
_ZN12ActorUnkRMVV19func_ov059_02162618Ev kind:function(arm,size=0x2c) addr:0x02164384
_ZN12ActorUnkRMVV19func_ov059_02162644Ev kind:function(arm,size=0x50) addr:0x021643b0
_ZN12ActorUnkRMVV19func_ov059_02162694Ev kind:function(arm,size=0x8) addr:0x02164400
_ZN12ActorUnkRMVVD1Ev kind:function(arm,size=0x30) addr:0x02164408
_ZN12ActorUnkRMVVD0Ev kind:function(arm,size=0x38) addr:0x02164438
_ZN19ActorProfileUnkRMVVD1Ev kind:function(arm,size=0x14) addr:0x02164470
_ZN19ActorProfileUnkRMVD10GetProfileEv kind:function(arm,size=0xc) addr:0x02164484
_ZN19ActorProfileUnkRMVD6CreateEv kind:function(arm,size=0x24) addr:0x02164490
_ZN19ActorProfileUnkRMVDC1Ev kind:function(arm,size=0x28) addr:0x021644b4
_ZN12ActorUnkRMVDC1Ev kind:function(arm,size=0xc0) addr:0x021644dc
_ZN12ActorUnkRMVD19func_ov059_02162830Ev kind:function(arm,size=0xa0) addr:0x0216459c
_ZN12ActorUnkRMVD19func_ov059_021628d0Ev kind:function(arm,size=0x2c) addr:0x0216463c
_ZN12ActorUnkRMVD19func_ov059_021628fcEv kind:function(arm,size=0x50) addr:0x02164668
_ZN12ActorUnkRMVD19func_ov059_0216294cEv kind:function(arm,size=0x8) addr:0x021646b8
_ZN12ActorUnkRMVDD1Ev kind:function(arm,size=0x30) addr:0x021646c0
_ZN12ActorUnkRMVDD0Ev kind:function(arm,size=0x38) addr:0x021646f0
_ZN19ActorProfileUnkRMVDD1Ev kind:function(arm,size=0x14) addr:0x02164728
_ZN19ActorProfileUnkRMTR10GetProfileEv kind:function(arm,size=0xc) addr:0x0216473c
_ZN19ActorProfileUnkRMTR6CreateEv kind:function(arm,size=0x24) addr:0x02164748
_ZN19ActorProfileUnkRMTRC1Ev kind:function(arm,size=0x28) addr:0x0216476c
_ZN12ActorUnkRMTRC1Ev kind:function(arm,size=0x74) addr:0x02164794
_ZN12ActorUnkRMTR19func_ov059_02162a9cEv kind:function(arm,size=0x38) addr:0x02164808
_ZN12ActorUnkRMTR19func_ov059_02162ad4Ev kind:function(arm,size=0x20) addr:0x02164840
_ZN12ActorUnkRMTR19func_ov059_02162af4Ev kind:function(arm,size=0x28) addr:0x02164860
_ZN12ActorUnkRMTRD1Ev kind:function(arm,size=0x20) addr:0x02164888
_ZN12ActorUnkRMTRD0Ev kind:function(arm,size=0x28) addr:0x021648a8
_ZN19ActorProfileUnkRMTRD1Ev kind:function(arm,size=0x14) addr:0x021648d0
_ZN19ActorProfileUnkRMTB10GetProfileEv kind:function(arm,size=0xc) addr:0x021648e4
_ZN19ActorProfileUnkRMTB6CreateEv kind:function(arm,size=0x24) addr:0x021648f0
_ZN19ActorProfileUnkRMTBC1Ev kind:function(arm,size=0x28) addr:0x02164914
_ZN12ActorUnkRMTBC1Ev kind:function(arm,size=0x20) addr:0x0216493c
_ZN12ActorUnkRMTB19func_ov059_02162bf0Ev kind:function(arm,size=0x50) addr:0x0216495c
_ZN12ActorUnkRMTBD1Ev kind:function(arm,size=0x20) addr:0x021649ac
_ZN12ActorUnkRMTBD0Ev kind:function(arm,size=0x28) addr:0x021649cc
_ZN19ActorProfileUnkRMTBD1Ev kind:function(arm,size=0x14) addr:0x021649f4
_ZN23MapObjectProfileUnkEXTR10GetProfileEv kind:function(arm,size=0xc) addr:0x02164a08
_ZN23MapObjectProfileUnkEXTR6CreateEv kind:function(arm,size=0x24) addr:0x02164a14
_ZN23MapObjectProfileUnkEXTRC1Ev kind:function(arm,size=0x44) addr:0x02164a38
_ZN16MapObjectUnkEXTRC1Ev kind:function(arm,size=0x34) addr:0x02164a7c
_ZN16MapObjectUnkEXTR19func_ov059_02162d44Ev kind:function(arm,size=0xc0) addr:0x02164ab0
_ZN16MapObjectUnkEXTRD1Ev kind:function(arm,size=0x14) addr:0x02164b70
_ZN16MapObjectUnkEXTRD0Ev kind:function(arm,size=0x1c) addr:0x02164b84
_ZN23MapObjectProfileUnkEXTRD1Ev kind:function(arm,size=0x14) addr:0x02164ba0
data_ov059_02164bb8 kind:data(any) addr:0x02164bb8
data_ov059_02164bbc kind:data(any) addr:0x02164bbc
data_ov059_02164bc0 kind:data(any) addr:0x02164bc0
data_ov059_02164bc4 kind:data(any) addr:0x02164bc4
data_ov059_02164bc8 kind:data(any) addr:0x02164bc8
data_ov059_02164bd8 kind:data(any) addr:0x02164bd8
__sinit_ActorUnkPBSP.cpp kind:function(arm,size=0x50) addr:0x02164c18
__sinit_ActorUnkPSEM.cpp kind:function(arm,size=0x8c) addr:0x02164c68
__sinit_ActorUnkPSBS.cpp kind:function(arm,size=0x78) addr:0x02164cf4
__sinit_ActorUnkPSNP.cpp kind:function(arm,size=0x5c) addr:0x02164d6c
__sinit_ActorUnkCAGE.cpp kind:function(arm,size=0x50) addr:0x02164dc8
__sinit_ActorUnkRMVT.cpp kind:function(arm,size=0x68) addr:0x02164e18
__sinit_ActorUnkRMVF.cpp kind:function(arm,size=0x50) addr:0x02164e80
__sinit_ActorUnkRMVS.cpp kind:function(arm,size=0x50) addr:0x02164ed0
__sinit_ActorUnkRMVW.cpp kind:function(arm,size=0x50) addr:0x02164f20
__sinit_ActorUnkRMVV.cpp kind:function(arm,size=0x50) addr:0x02164f70
__sinit_ActorUnkRMVD.cpp kind:function(arm,size=0x50) addr:0x02164fc0
__sinit_ActorUnkRMTR.cpp kind:function(arm,size=0x50) addr:0x02165010
__sinit_ActorUnkRMTB.cpp kind:function(arm,size=0x50) addr:0x02165060
__sinit_MapObjectUnkEXTR.cpp kind:function(arm,size=0x50) addr:0x021650b0
.p__sinit_ActorUnkPBSP.cpp kind:data(word) addr:0x02165100
.p__sinit_ActorUnkPSEM.cpp kind:data(word) addr:0x02165104
.p__sinit_ActorUnkPSBS.cpp kind:data(word) addr:0x02165108
.p__sinit_ActorUnkPSNP.cpp kind:data(word) addr:0x0216510c
.p__sinit_ActorUnkCAGE.cpp kind:data(word) addr:0x02165110
.p__sinit_ActorUnkRMVT.cpp kind:data(word) addr:0x02165114
.p__sinit_ActorUnkRMVF.cpp kind:data(word) addr:0x02165118
.p__sinit_ActorUnkRMVS.cpp kind:data(word) addr:0x0216511c
.p__sinit_ActorUnkRMVW.cpp kind:data(word) addr:0x02165120
.p__sinit_ActorUnkRMVV.cpp kind:data(word) addr:0x02165124
.p__sinit_ActorUnkRMVD.cpp kind:data(word) addr:0x02165128
.p__sinit_ActorUnkRMTR.cpp kind:data(word) addr:0x0216512c
.p__sinit_ActorUnkRMTB.cpp kind:data(word) addr:0x02165130
.p__sinit_MapObjectUnkEXTR.cpp kind:data(word) addr:0x02165134
_ZTV19data_ov059_02165140 kind:data(any) addr:0x02165140
data_ov059_02165164 kind:data(any) addr:0x02165164
data_ov059_0216518c kind:data(any) addr:0x0216518c
data_ov059_02165194 kind:data(any) addr:0x02165194 ambiguous
_ZTV19data_ov059_021651b4 kind:data(any) addr:0x021651b4
data_ov059_02165214 kind:data(any) addr:0x02165214
data_ov059_02165220 kind:data(any) addr:0x02165220
data_ov059_02165234 kind:data(any) addr:0x02165234
data_ov059_02165248 kind:data(any) addr:0x02165248 ambiguous
_ZTV19data_ov059_02165248 kind:data(any) addr:0x02165248
data_ov059_02165274 kind:data(any) addr:0x02165274
_ZTV19data_ov059_021652b8 kind:data(any) addr:0x021652b8
data_ov059_02165318 kind:data(any) addr:0x02165318
data_ov059_02165388 kind:data(any) addr:0x02165388
data_ov059_021653f8 kind:data(any) addr:0x021653f8
data_ov059_02165410 kind:data(any) addr:0x02165410
data_ov059_02165458 kind:data(any) addr:0x02165458
data_ov059_02165470 kind:data(any) addr:0x02165470
data_ov059_021654a0 kind:data(any) addr:0x021654a0
data_ov059_021654b8 kind:data(any) addr:0x021654b8
data_ov059_021654d0 kind:data(any) addr:0x021654d0
_ZTV19data_ov059_021654dc kind:data(any) addr:0x021654dc
data_ov059_02165508 kind:data(any) addr:0x02165508
data_ov059_02165518 kind:data(any) addr:0x02165518 ambiguous
data_ov059_0216552c kind:data(any) addr:0x0216552c
data_ov059_0216556c kind:data(any) addr:0x0216556c
_ZTV19data_ov059_021655ac kind:data(any) addr:0x021655ac
data_ov059_0216560c kind:data(any) addr:0x0216560c
data_ov059_02165624 kind:data(any) addr:0x02165624
data_ov059_02165684 kind:data(any) addr:0x02165684
_ZTV19data_ov059_021656fc kind:data(any) addr:0x021656fc
data_ov059_02165720 kind:data(any) addr:0x02165720
data_ov059_02165750 kind:data(any) addr:0x02165750
_ZTV19data_ov059_02165780 kind:data(any) addr:0x02165780
_ZTV19data_ov059_021657b4 kind:data(any) addr:0x021657b4
_ZTV19data_ov059_02165878 kind:data(any) addr:0x02165878
_ZTV19data_ov059_0216593c kind:data(any) addr:0x0216593c
data_ov059_02165960 kind:data(any) addr:0x02165960
data_ov059_02165988 kind:data(any) addr:0x02165988
_ZTV19data_ov059_021659b0 kind:data(any) addr:0x021659b0
data_ov059_02165a0c kind:data(any) addr:0x02165a0c
data_ov059_02165a20 kind:data(any) addr:0x02165a20
_ZTV19data_ov059_02165a3c kind:data(any) addr:0x02165a3c
_ZTV19data_ov059_02165a60 kind:data(any) addr:0x02165a60
_ZTV19data_ov059_02165abc kind:data(any) addr:0x02165abc
_ZTV19data_ov059_02165b20 kind:data(any) addr:0x02165b20
data_ov059_02165b44 kind:data(any) addr:0x02165b44
data_ov059_02165b5c kind:data(any) addr:0x02165b5c
data_ov059_02165b7c kind:data(any) addr:0x02165b7c
_ZTV19data_ov059_02165bbc kind:data(any) addr:0x02165bbc
_ZTV19data_ov059_02165c20 kind:data(any) addr:0x02165c20
data_ov059_02165c44 kind:data(any) addr:0x02165c44
data_ov059_02165c5c kind:data(any) addr:0x02165c5c
_ZTV19data_ov059_02165c74 kind:data(any) addr:0x02165c74
_ZTV19data_ov059_02165cd8 kind:data(any) addr:0x02165cd8
data_ov059_02165cfc kind:data(any) addr:0x02165cfc
data_ov059_02165d14 kind:data(any) addr:0x02165d14
_ZTV19data_ov059_02165d2c kind:data(any) addr:0x02165d2c
_ZTV19data_ov059_02165d90 kind:data(any) addr:0x02165d90
data_ov059_02165db4 kind:data(any) addr:0x02165db4
data_ov059_02165dcc kind:data(any) addr:0x02165dcc
_ZTV19data_ov059_02165de4 kind:data(any) addr:0x02165de4
_ZTV19data_ov059_02165e48 kind:data(any) addr:0x02165e48
data_ov059_02165e6c kind:data(any) addr:0x02165e6c
data_ov059_02165e84 kind:data(any) addr:0x02165e84
_ZTV19data_ov059_02165e9c kind:data(any) addr:0x02165e9c
_ZTV19data_ov059_02165f00 kind:data(any) addr:0x02165f00
_ZTV19data_ov059_02165f24 kind:data(any) addr:0x02165f24
_ZTV19data_ov059_02165f80 kind:data(any) addr:0x02165f80
_ZTV19data_ov059_02165fa4 kind:data(any) addr:0x02165fa4
_ZTV19data_ov059_02165fe0 kind:data(any) addr:0x02165fe0 ambiguous
_ZTV19data_ov059_02165fe8 kind:data(any) addr:0x02165fe8 ambiguous
data_ov059_0216600c kind:data(any) addr:0x0216600c
data_ov059_02166028 kind:data(any) addr:0x02166028
data_ov059_02166040 kind:data(any) addr:0x02166040 ambiguous
data_ov059_02166050 kind:data(any) addr:0x02166050
data_ov059_02166054 kind:data(any) addr:0x02166054 ambiguous
data_ov059_021660a0 kind:bss addr:0x021660a0
data_ov059_021660a4 kind:bss addr:0x021660a4
sActorProfileUnkPBSP kind:bss addr:0x021660b0
data_ov059_021660ec kind:bss addr:0x021660ec
data_ov059_021660f0 kind:bss addr:0x021660f0
data_ov059_021660fc kind:bss addr:0x021660fc
sActorProfileUnkPSEM kind:bss addr:0x02166108
data_ov059_0216611c kind:bss addr:0x0216611c ambiguous
data_ov059_021661e0 kind:bss addr:0x021661e0
data_ov059_021661e4 kind:bss addr:0x021661e4
data_ov059_021661f0 kind:bss addr:0x021661f0
sActorProfileUnkPSBS kind:bss addr:0x021661fc
data_ov059_021662d4 kind:bss addr:0x021662d4
data_ov059_021662d8 kind:bss addr:0x021662d8
data_ov059_021662e4 kind:bss addr:0x021662e4
sActorProfileUnkPSNP kind:bss addr:0x021662f0
data_ov059_021663a4 kind:bss addr:0x021663a4 ambiguous
data_ov059_021663c8 kind:bss addr:0x021663c8
data_ov059_021663cc kind:bss addr:0x021663cc
sActorProfileUnkCAGE kind:bss addr:0x021663d8
data_ov059_021664b0 kind:bss addr:0x021664b0
data_ov059_021664b4 kind:bss addr:0x021664b4
sActorProfileUnkRMVT kind:bss addr:0x021664c0
data_ov059_02166598 kind:bss addr:0x02166598
data_ov059_0216659c kind:bss addr:0x0216659c
sActorProfileUnkRMVF kind:bss addr:0x021665a8
data_ov059_02166680 kind:bss addr:0x02166680
data_ov059_02166684 kind:bss addr:0x02166684
sActorProfileUnkRMVS kind:bss addr:0x02166690
data_ov059_02166768 kind:bss addr:0x02166768
data_ov059_0216676c kind:bss addr:0x0216676c
sActorProfileUnkRMVW kind:bss addr:0x02166778
data_ov059_02166850 kind:bss addr:0x02166850
data_ov059_02166854 kind:bss addr:0x02166854
sActorProfileUnkRMVV kind:bss addr:0x02166860
data_ov059_021668f0 kind:bss addr:0x021668f0 ambiguous
data_ov059_02166938 kind:bss addr:0x02166938
data_ov059_0216693c kind:bss addr:0x0216693c
sActorProfileUnkRMVD kind:bss addr:0x02166948
data_ov059_02166a20 kind:bss addr:0x02166a20
data_ov059_02166a24 kind:bss addr:0x02166a24
sActorProfileUnkRMTR kind:bss addr:0x02166a30
data_ov059_02166b08 kind:bss addr:0x02166b08
data_ov059_02166b0c kind:bss addr:0x02166b0c
sActorProfileUnkRMTB kind:bss addr:0x02166b18
data_ov059_02166bf0 kind:bss addr:0x02166bf0
data_ov059_02166bf4 kind:bss addr:0x02166bf4
sMapObjectProfileUnkEXTR kind:bss addr:0x02166c00
