_ZN19ActorProfileUnkRBL110GetProfileEv kind:function(arm,size=0xc) addr:0x02150c00
_ZN19ActorProfileUnkRBL16CreateEv kind:function(arm,size=0x24) addr:0x02150c0c
_ZN19ActorProfileUnkRBL1C1Ev kind:function(arm,size=0x34) addr:0x02150c30
_ZN12ActorUnkRBL119func_ov074_02150c64Ev kind:function(arm,size=0x14) addr:0x02150c64
_ZN12ActorUnkRBL119func_ov074_02150c78Ev kind:function(arm,size=0x244) addr:0x02150c78
_ZN12ActorUnkRBL119func_ov074_02150ebcEv kind:function(arm,size=0x90) addr:0x02150ebc
_ZN12ActorUnkRBL1C1Ev kind:function(arm,size=0x20c) addr:0x02150f4c
_ZN12ActorUnkRBL119func_ov074_02151158Ev kind:function(arm,size=0x14) addr:0x02151158
_ZN12ActorUnkRBL119func_ov074_0215116cEv kind:function(arm,size=0x14) addr:0x0215116c
_ZN12ActorUnkRBL119func_ov074_02151180Ev kind:function(arm,size=0x1f4) addr:0x02151180
_ZN12ActorUnkRBL119func_ov074_02151374Ev kind:function(arm,size=0x40) addr:0x02151374
_ZN12ActorUnkRBL119func_ov074_021513b4Ev kind:function(arm,size=0xa4) addr:0x021513b4
_ZN12ActorUnkRBL119func_ov074_02151458Ev kind:function(arm,size=0x5c) addr:0x02151458
_ZN12ActorUnkRBL119func_ov074_021514b4Ev kind:function(arm,size=0x17c) addr:0x021514b4
_ZN12ActorUnkRBL119func_ov074_02151630Ev kind:function(arm,size=0xb4) addr:0x02151630
_ZN12ActorUnkRBL119func_ov074_021516e4Ev kind:function(arm,size=0x68) addr:0x021516e4
_ZN12ActorUnkRBL119func_ov074_0215174cEv kind:function(arm,size=0xa0) addr:0x0215174c
_ZN12ActorUnkRBL119func_ov074_021517ecEv kind:function(arm,size=0x44) addr:0x021517ec
_ZN12ActorUnkRBL119func_ov074_02151830Ev kind:function(arm,size=0x78) addr:0x02151830
_ZN12ActorUnkRBL119func_ov074_021518a8Ev kind:function(arm,size=0x78) addr:0x021518a8
_ZN12ActorUnkRBL119func_ov074_02151920Ev kind:function(arm,size=0x70) addr:0x02151920
_ZN12ActorUnkRBL119func_ov074_02151990Ev kind:function(arm,size=0x64) addr:0x02151990
_ZN12ActorUnkRBL119func_ov074_021519f4Ev kind:function(arm,size=0x24) addr:0x021519f4
_ZN12ActorUnkRBL119func_ov074_02151a18Ev kind:function(arm,size=0x10) addr:0x02151a18
_ZN12ActorUnkRBL119func_ov074_02151a28Ev kind:function(arm,size=0x8) addr:0x02151a28
_ZN12ActorUnkRBL1D0Ev kind:function(arm,size=0x1c) addr:0x02151a30
_ZN12ActorUnkRBL119func_ov074_02151a4cEv kind:function(arm,size=0x1c) addr:0x02151a4c
_ZN12ActorUnkRBL1D1Ev kind:function(arm,size=0x48) addr:0x02151a68
_ZN12ActorUnkRBL119func_ov074_02151ab0Ev kind:function(arm,size=0x50) addr:0x02151ab0
_ZN19ActorProfileUnkRBL1D1Ev kind:function(arm,size=0x14) addr:0x02151b00
_ZN19ActorProfileUnkMAGR10GetProfileEv kind:function(arm,size=0xc) addr:0x02151b14
_ZN19ActorProfileUnkMAGR6CreateEv kind:function(arm,size=0x24) addr:0x02151b20
_ZN19ActorProfileUnkMAGRC1Ev kind:function(arm,size=0x28) addr:0x02151b44
_ZN12ActorUnkMAGR19func_ov074_02151b6cEv kind:function(arm,size=0x14) addr:0x02151b6c
_ZN12ActorUnkMAGR19func_ov074_02151b80Ev kind:function(arm,size=0x244) addr:0x02151b80
_ZN12ActorUnkMAGR19func_ov074_02151dc4Ev kind:function(arm,size=0x248) addr:0x02151dc4
_ZN12ActorUnkMAGR19func_ov074_0215200cEv kind:function(arm,size=0x24c) addr:0x0215200c
_ZN12ActorUnkMAGR19func_ov074_02152258Ev kind:function(arm,size=0xf4) addr:0x02152258
_ZN12ActorUnkMAGRD1Ev kind:function(arm,size=0x14) addr:0x0215234c
_ZN12ActorUnkMAGRD0Ev kind:function(arm,size=0x1c) addr:0x02152360
_ZN12ActorUnkMAGR19func_ov074_0215237cEv kind:function(arm,size=0x1c4) addr:0x0215237c
_ZN12ActorUnkMAGR19func_ov074_02152540Ev kind:function(arm,size=0x9c) addr:0x02152540
_ZN12ActorUnkMAGR19func_ov074_021525dcEv kind:function(arm,size=0x14) addr:0x021525dc
_ZN12ActorUnkMAGR19func_ov074_021525f0Ev kind:function(arm,size=0x1c) addr:0x021525f0
_ZN12ActorUnkMAGR19func_ov074_0215260cEv kind:function(arm,size=0x5c) addr:0x0215260c
_ZN12ActorUnkMAGRC1Ev kind:function(arm,size=0x118) addr:0x02152668
_ZN12ActorUnkMAGR19func_ov074_02152780Ev kind:function(arm,size=0x48) addr:0x02152780
_ZN12ActorUnkMAGR19func_ov074_021527c8Ev kind:function(arm,size=0x50) addr:0x021527c8
_ZN12ActorUnkMAGR19func_ov074_02152818Ev kind:function(arm,size=0x1b8) addr:0x02152818
_ZN12ActorUnkMAGR19func_ov074_021529d0Ev kind:function(arm,size=0xc0) addr:0x021529d0
_ZN12ActorUnkMAGR19func_ov074_02152a90Ev kind:function(arm,size=0x50) addr:0x02152a90
_ZN12ActorUnkMAGR19func_ov074_02152ae0Ev kind:function(arm,size=0x94) addr:0x02152ae0
_ZN12ActorUnkMAGR19func_ov074_02152b74Ev kind:function(arm,size=0xc8) addr:0x02152b74
_ZN12ActorUnkMAGR19func_ov074_02152c3cEv kind:function(arm,size=0x38) addr:0x02152c3c
_ZN12ActorUnkMAGR19func_ov074_02152c74Ev kind:function(arm,size=0x14) addr:0x02152c74
_ZN12ActorUnkMAGR19func_ov074_02152c88Ev kind:function(arm,size=0x168) addr:0x02152c88
_ZN12ActorUnkMAGR19func_ov074_02152df0Ev kind:function(arm,size=0x48) addr:0x02152df0
_ZN19ActorProfileUnkMAGRD1Ev kind:function(arm,size=0x14) addr:0x02152e38
_ZN19ActorProfileUnkZLBS10GetProfileEv kind:function(arm,size=0xc) addr:0x02152e4c
_ZN19ActorProfileUnkZLBS6CreateEv kind:function(arm,size=0x24) addr:0x02152e58
_ZN19ActorProfileUnkZLBSC1Ev kind:function(arm,size=0x68) addr:0x02152e7c
_ZN12ActorUnkZLBSC1Ev kind:function(arm,size=0x318) addr:0x02152ee4
_ZN12ActorUnkZLBS19func_ov074_021531fcEv kind:function(arm,size=0x14) addr:0x021531fc
_ZN12ActorUnkZLBS19func_ov074_02153210Ev kind:function(arm,size=0xec) addr:0x02153210
_ZN12ActorUnkZLBSD0Ev kind:function(arm,size=0xf4) addr:0x021532fc
_ZN12ActorUnkZLBS19func_ov074_021533f0Ev kind:function(arm,size=0xe4) addr:0x021533f0
_ZN12ActorUnkZLBS19func_ov074_021534d4Ev kind:function(arm,size=0x34) addr:0x021534d4
_ZN12ActorUnkZLBS19func_ov074_02153508Ev kind:function(arm,size=0x60) addr:0x02153508
_ZN12ActorUnkZLBS19func_ov074_02153568Ev kind:function(arm,size=0x40) addr:0x02153568
_ZN12ActorUnkZLBS19func_ov074_021535a8Ev kind:function(arm,size=0x278) addr:0x021535a8
_ZN12ActorUnkZLBS19func_ov074_02153820Ev kind:function(arm,size=0x34) addr:0x02153820
_ZN12ActorUnkZLBS19func_ov074_02153854Ev kind:function(arm,size=0x174) addr:0x02153854
_ZN12ActorUnkZLBS19func_ov074_021539c8Ev kind:function(arm,size=0x4) addr:0x021539c8
_ZN12ActorUnkZLBS19func_ov074_021539ccEv kind:function(arm,size=0x4) addr:0x021539cc
_ZN12ActorUnkZLBS19func_ov074_021539d0Ev kind:function(arm,size=0x3c) addr:0x021539d0
_ZN12ActorUnkZLBS19func_ov074_02153a0cEv kind:function(arm,size=0x1c) addr:0x02153a0c
_ZN12ActorUnkZLBS19func_ov074_02153a28Ev kind:function(arm,size=0x90) addr:0x02153a28
_ZN12ActorUnkZLBS19func_ov074_02153ab8Ev kind:function(arm,size=0x34) addr:0x02153ab8
_ZN12ActorUnkZLBS19func_ov074_02153aecEv kind:function(arm,size=0x100) addr:0x02153aec
_ZN12ActorUnkZLBS19func_ov074_02153becEv kind:function(arm,size=0x178) addr:0x02153bec
_ZN12ActorUnkZLBS19func_ov074_02153d64Ev kind:function(arm,size=0x98) addr:0x02153d64
_ZN12ActorUnkZLBS19func_ov074_02153dfcEv kind:function(arm,size=0x124) addr:0x02153dfc
_ZN12ActorUnkZLBS19func_ov074_02153f20Ev kind:function(arm,size=0x4c) addr:0x02153f20
_ZN12ActorUnkZLBS19func_ov074_02153f6cEv kind:function(arm,size=0x228) addr:0x02153f6c
_ZN12ActorUnkZLBS19func_ov074_02154194Ev kind:function(arm,size=0x14c) addr:0x02154194
_ZN12ActorUnkZLBS19func_ov074_021542e0Ev kind:function(arm,size=0x88) addr:0x021542e0
_ZN12ActorUnkZLBS19func_ov074_02154368Ev kind:function(arm,size=0x64) addr:0x02154368
_ZN12ActorUnkZLBS19func_ov074_021543ccEv kind:function(arm,size=0x244) addr:0x021543cc
_ZN12ActorUnkZLBS19func_ov074_02154610Ev kind:function(arm,size=0x218) addr:0x02154610
_ZN12ActorUnkZLBS19func_ov074_02154828Ev kind:function(arm,size=0x1d0) addr:0x02154828
_ZN12ActorUnkZLBS19func_ov074_021549f8Ev kind:function(arm,size=0x2c) addr:0x021549f8
_ZN12ActorUnkZLBS19func_ov074_02154a24Ev kind:function(arm,size=0x364) addr:0x02154a24
_ZN12ActorUnkZLBS19func_ov074_02154d88Ev kind:function(arm,size=0x60) addr:0x02154d88
_ZN12ActorUnkZLBS19func_ov074_02154de8Ev kind:function(arm,size=0x78) addr:0x02154de8
_ZN12ActorUnkZLBS19func_ov074_02154e60Ev kind:function(arm,size=0x7c) addr:0x02154e60
_ZN12ActorUnkZLBS19func_ov074_02154edcEv kind:function(arm,size=0x54) addr:0x02154edc
_ZN12ActorUnkZLBS19func_ov074_02154f30Ev kind:function(arm,size=0x2c) addr:0x02154f30
_ZN12ActorUnkZLBS19func_ov074_02154f5cEv kind:function(arm,size=0xc4) addr:0x02154f5c
_ZN12ActorUnkZLBS19func_ov074_02155020Ev kind:function(arm,size=0x74) addr:0x02155020
_ZN12ActorUnkZLBS19func_ov074_02155094Ev kind:function(arm,size=0x148) addr:0x02155094
_ZN12ActorUnkZLBS19func_ov074_021551dcEv kind:function(arm,size=0x364) addr:0x021551dc
_ZN12ActorUnkZLBS19func_ov074_02155540Ev kind:function(arm,size=0x110) addr:0x02155540
_ZN12ActorUnkZLBS19func_ov074_02155650Ev kind:function(arm,size=0x24) addr:0x02155650
_ZN12ActorUnkZLBS19func_ov074_02155674Ev kind:function(arm,size=0x2c) addr:0x02155674
_ZN12ActorUnkZLBS19func_ov074_021556a0Ev kind:function(arm,size=0xc) addr:0x021556a0
_ZN12ActorUnkZLBS19func_ov074_021556acEv kind:function(arm,size=0x1c) addr:0x021556ac
_ZN19ActorProfileUnkZLBSD1Ev kind:function(arm,size=0x14) addr:0x021556c8
_ZN19ActorProfileUnkZLBB10GetProfileEv kind:function(arm,size=0xc) addr:0x021556dc
_ZN19ActorProfileUnkZLBB6CreateEv kind:function(arm,size=0x24) addr:0x021556e8
_ZN19ActorProfileUnkZLBBC1Ev kind:function(arm,size=0x44) addr:0x0215570c
_ZN12ActorUnkZLBBC1Ev kind:function(arm,size=0x1d0) addr:0x02155750
_ZN12ActorUnkZLBB19func_ov074_02155920Ev kind:function(arm,size=0x90) addr:0x02155920
_ZN12ActorUnkZLBB19func_ov074_021559b0Ev kind:function(arm,size=0x10) addr:0x021559b0
_ZN12ActorUnkZLBB19func_ov074_021559c0Ev kind:function(arm,size=0x48) addr:0x021559c0
_ZN12ActorUnkZLBB19func_ov074_02155a08Ev kind:function(arm,size=0x3e4) addr:0x02155a08
_ZN12ActorUnkZLBB19func_ov074_02155decEv kind:function(arm,size=0x90) addr:0x02155dec
_ZN12ActorUnkZLBB19func_ov074_02155e7cEv kind:function(arm,size=0x4) addr:0x02155e7c
_ZN12ActorUnkZLBB19func_ov074_02155e80Ev kind:function(arm,size=0x1f4) addr:0x02155e80
_ZN12ActorUnkZLBB19func_ov074_02156074Ev kind:function(arm,size=0x44) addr:0x02156074
_ZN12ActorUnkZLBB19func_ov074_021560b8Ev kind:function(arm,size=0x14) addr:0x021560b8
_ZN12ActorUnkZLBB19func_ov074_021560ccEv kind:function(arm,size=0x6c) addr:0x021560cc
_ZN12ActorUnkZLBB19func_ov074_02156138Ev kind:function(arm,size=0x4) addr:0x02156138
_ZN12ActorUnkZLBB19func_ov074_0215613cEv kind:function(arm,size=0x3c) addr:0x0215613c
_ZN12ActorUnkZLBB19func_ov074_02156178Ev kind:function(arm,size=0x98) addr:0x02156178
_ZN12ActorUnkZLBB19func_ov074_02156210Ev kind:function(arm,size=0x804) addr:0x02156210
_ZN12ActorUnkZLBB19func_ov074_02156a14Ev kind:function(arm,size=0x70) addr:0x02156a14
_ZN12ActorUnkZLBBD1Ev kind:function(arm,size=0x74) addr:0x02156a84
_ZN12ActorUnkZLBBD0Ev kind:function(arm,size=0x7c) addr:0x02156af8
_ZN19ActorProfileUnkZLBBD1Ev kind:function(arm,size=0x14) addr:0x02156b74
_ZN19ActorProfileUnkBSKM10GetProfileEv kind:function(arm,size=0xc) addr:0x02156b88
_ZN19ActorProfileUnkBSKM6CreateEv kind:function(arm,size=0x28) addr:0x02156b94
_ZN19ActorProfileUnkBSKMC1Ev kind:function(arm,size=0x68) addr:0x02156bbc
_ZN12ActorUnkBSKMC1Ev kind:function(arm,size=0x398) addr:0x02156c24
_ZN12ActorUnkBSKM19func_ov074_02156fbcEv kind:function(arm,size=0x14) addr:0x02156fbc
_ZN12ActorUnkBSKM19func_ov074_02156fd0Ev kind:function(arm,size=0x14) addr:0x02156fd0
_ZN12ActorUnkBSKMD1Ev kind:function(arm,size=0x6c) addr:0x02156fe4
_ZN12ActorUnkBSKMD0Ev kind:function(arm,size=0x74) addr:0x02157050
_ZN12ActorUnkBSKM19func_ov074_021570c4Ev kind:function(arm,size=0x178) addr:0x021570c4
_ZN12ActorUnkBSKM19func_ov074_0215723cEv kind:function(arm,size=0x40) addr:0x0215723c
_ZN12ActorUnkBSKM19func_ov074_0215727cEv kind:function(arm,size=0x104) addr:0x0215727c
_ZN12ActorUnkBSKM19func_ov074_02157380Ev kind:function(arm,size=0x48) addr:0x02157380
_ZN12ActorUnkBSKM19func_ov074_021573c8Ev kind:function(arm,size=0x40) addr:0x021573c8
_ZN12ActorUnkBSKM19func_ov074_02157408Ev kind:function(arm,size=0x3ac) addr:0x02157408
_ZN12ActorUnkBSKM19func_ov074_021577b4Ev kind:function(arm,size=0x2fc) addr:0x021577b4
_ZN12ActorUnkBSKM19func_ov074_02157ab0Ev kind:function(arm,size=0x67c) addr:0x02157ab0
_ZN12ActorUnkBSKM19func_ov074_0215812cEv kind:function(arm,size=0x4) addr:0x0215812c
_ZN12ActorUnkBSKM19func_ov074_02158130Ev kind:function(arm,size=0x10) addr:0x02158130
_ZN12ActorUnkBSKM19func_ov074_02158140Ev kind:function(arm,size=0x184) addr:0x02158140
_ZN12ActorUnkBSKM19func_ov074_021582c4Ev kind:function(arm,size=0x20) addr:0x021582c4
_ZN12ActorUnkBSKM19func_ov074_021582e4Ev kind:function(arm,size=0x34) addr:0x021582e4
_ZN12ActorUnkBSKM19func_ov074_02158318Ev kind:function(arm,size=0xf4) addr:0x02158318
_ZN12ActorUnkBSKM19func_ov074_0215840cEv kind:function(arm,size=0x18) addr:0x0215840c
_ZN12ActorUnkBSKM19func_ov074_02158424Ev kind:function(arm,size=0x54) addr:0x02158424
_ZN12ActorUnkBSKM19func_ov074_02158478Ev kind:function(arm,size=0x14) addr:0x02158478
_ZN12ActorUnkBSKM19func_ov074_0215848cEv kind:function(arm,size=0xcc) addr:0x0215848c
_ZN12ActorUnkBSKM19func_ov074_02158558Ev kind:function(arm,size=0xe0) addr:0x02158558
_ZN12ActorUnkBSKM19func_ov074_02158638Ev kind:function(arm,size=0x1f4) addr:0x02158638
_ZN12ActorUnkBSKM19func_ov074_0215882cEv kind:function(arm,size=0x38) addr:0x0215882c
_ZN12ActorUnkBSKM19func_ov074_02158864Ev kind:function(arm,size=0xb4) addr:0x02158864
_ZN12ActorUnkBSKM19func_ov074_02158918Ev kind:function(arm,size=0xe0) addr:0x02158918
_ZN12ActorUnkBSKM19func_ov074_021589f8Ev kind:function(arm,size=0x214) addr:0x021589f8
_ZN12ActorUnkBSKM19func_ov074_02158c0cEv kind:function(arm,size=0x88) addr:0x02158c0c
_ZN12ActorUnkBSKM19func_ov074_02158c94Ev kind:function(arm,size=0x38) addr:0x02158c94
_ZN12ActorUnkBSKM19func_ov074_02158cccEv kind:function(arm,size=0x94) addr:0x02158ccc
_ZN12ActorUnkBSKM19func_ov074_02158d60Ev kind:function(arm,size=0x110) addr:0x02158d60
_ZN12ActorUnkBSKM19func_ov074_02158e70Ev kind:function(arm,size=0x90) addr:0x02158e70
_ZN12ActorUnkBSKM19func_ov074_02158f00Ev kind:function(arm,size=0x50) addr:0x02158f00
_ZN12ActorUnkBSKM19func_ov074_02158f50Ev kind:function(arm,size=0x64) addr:0x02158f50
_ZN12ActorUnkBSKM19func_ov074_02158fb4Ev kind:function(arm,size=0x118) addr:0x02158fb4
_ZN12ActorUnkBSKM19func_ov074_021590ccEv kind:function(arm,size=0xec) addr:0x021590cc
_ZN12ActorUnkBSKM19func_ov074_021591b8Ev kind:function(arm,size=0x254) addr:0x021591b8
_ZN12ActorUnkBSKM19func_ov074_0215940cEv kind:function(arm,size=0xec) addr:0x0215940c
_ZN12ActorUnkBSKM19func_ov074_021594f8Ev kind:function(arm,size=0x184) addr:0x021594f8
_ZN12ActorUnkBSKM19func_ov074_0215967cEv kind:function(arm,size=0x308) addr:0x0215967c
_ZN12ActorUnkBSKM19func_ov074_02159984Ev kind:function(arm,size=0x44) addr:0x02159984
_ZN12ActorUnkBSKM19func_ov074_021599c8Ev kind:function(arm,size=0x17c) addr:0x021599c8
_ZN12ActorUnkBSKM19func_ov074_02159b44Ev kind:function(arm,size=0x60) addr:0x02159b44
_ZN12ActorUnkBSKM19func_ov074_02159ba4Ev kind:function(arm,size=0x5c) addr:0x02159ba4
_ZN12ActorUnkBSKM19func_ov074_02159c00Ev kind:function(arm,size=0x11c) addr:0x02159c00
_ZN12ActorUnkBSKM19func_ov074_02159d1cEv kind:function(arm,size=0x8c) addr:0x02159d1c
_ZN12ActorUnkBSKM19func_ov074_02159da8Ev kind:function(arm,size=0xb8) addr:0x02159da8
_ZN12ActorUnkBSKM19func_ov074_02159e60Ev kind:function(arm,size=0xec) addr:0x02159e60
_ZN12ActorUnkBSKM19func_ov074_02159f4cEv kind:function(arm,size=0xb0) addr:0x02159f4c
_ZN12ActorUnkBSKM19func_ov074_02159ffcEv kind:function(arm,size=0xfc) addr:0x02159ffc
_ZN12ActorUnkBSKM19func_ov074_0215a0f8Ev kind:function(arm,size=0x140) addr:0x0215a0f8
_ZN12ActorUnkBSKM19func_ov074_0215a238Ev kind:function(arm,size=0x2ac) addr:0x0215a238
_ZN12ActorUnkBSKM19func_ov074_0215a4e4Ev kind:function(arm,size=0xc8) addr:0x0215a4e4
_ZN12ActorUnkBSKM19func_ov074_0215a5acEv kind:function(arm,size=0x100) addr:0x0215a5ac
_ZN12ActorUnkBSKM19func_ov074_0215a6acEv kind:function(arm,size=0x40) addr:0x0215a6ac
_ZN12ActorUnkBSKM19func_ov074_0215a6ecEv kind:function(arm,size=0x27c) addr:0x0215a6ec
_ZN12ActorUnkBSKM19func_ov074_0215a968Ev kind:function(arm,size=0x3c) addr:0x0215a968
_ZN12ActorUnkBSKM19func_ov074_0215a9a4Ev kind:function(arm,size=0x368) addr:0x0215a9a4
_ZN12ActorUnkBSKM19func_ov074_0215ad0cEv kind:function(arm,size=0x84) addr:0x0215ad0c
_ZN12ActorUnkBSKM19func_ov074_0215ad90Ev kind:function(arm,size=0x9c) addr:0x0215ad90
_ZN12ActorUnkBSKM19func_ov074_0215ae2cEv kind:function(arm,size=0x80) addr:0x0215ae2c
_ZN12ActorUnkBSKM19func_ov074_0215aeacEv kind:function(arm,size=0xa8) addr:0x0215aeac
_ZN12ActorUnkBSKM19func_ov074_0215af54Ev kind:function(arm,size=0x15c) addr:0x0215af54
_ZN12ActorUnkBSKM19func_ov074_0215b0b0Ev kind:function(arm,size=0x114) addr:0x0215b0b0
_ZN12ActorUnkBSKM19func_ov074_0215b1c4Ev kind:function(arm,size=0x1b0) addr:0x0215b1c4
_ZN12ActorUnkBSKM19func_ov074_0215b374Ev kind:function(arm,size=0x128) addr:0x0215b374
_ZN12ActorUnkBSKM19func_ov074_0215b49cEv kind:function(arm,size=0x140) addr:0x0215b49c
_ZN12ActorUnkBSKM19func_ov074_0215b5dcEv kind:function(arm,size=0x1c) addr:0x0215b5dc
_ZN12ActorUnkBSKM19func_ov074_0215b5f8Ev kind:function(arm,size=0x1c) addr:0x0215b5f8
_ZN12ActorUnkBSKM19func_ov074_0215b614Ev kind:function(arm,size=0x594) addr:0x0215b614
_ZN12ActorUnkBSKM19func_ov074_0215bba8Ev kind:function(arm,size=0xd4) addr:0x0215bba8
_ZN12ActorUnkBSKM19func_ov074_0215bc7cEv kind:function(arm,size=0x190) addr:0x0215bc7c
_ZN12ActorUnkBSKM19func_ov074_0215be0cEv kind:function(arm,size=0x324) addr:0x0215be0c
_ZN12ActorUnkBSKM19func_ov074_0215c130Ev kind:function(arm,size=0x3f8) addr:0x0215c130
_ZN12ActorUnkBSKM19func_ov074_0215c528Ev kind:function(arm,size=0x94) addr:0x0215c528
_ZN12ActorUnkBSKM19func_ov074_0215c5bcEv kind:function(arm,size=0x58) addr:0x0215c5bc
_ZN12ActorUnkBSKM19func_ov074_0215c614Ev kind:function(arm,size=0x54) addr:0x0215c614
_ZN12ActorUnkBSKM19func_ov074_0215c668Ev kind:function(arm,size=0x48) addr:0x0215c668
_ZN12ActorUnkBSKM19func_ov074_0215c6b0Ev kind:function(arm,size=0x24) addr:0x0215c6b0
_ZN12ActorUnkBSKM19func_ov074_0215c6d4Ev kind:function(arm,size=0x38) addr:0x0215c6d4
_ZN12ActorUnkBSKM19func_ov074_0215c70cEv kind:function(arm,size=0x68) addr:0x0215c70c
_ZN12ActorUnkBSKM19func_ov074_0215c774Ev kind:function(arm,size=0x34) addr:0x0215c774
_ZN12ActorUnkBSKM19func_ov074_0215c7a8Ev kind:function(arm,size=0xa8) addr:0x0215c7a8
_ZN12ActorUnkBSKM19func_ov074_0215c850Ev kind:function(arm,size=0x130) addr:0x0215c850
_ZN12ActorUnkBSKM19func_ov074_0215c980Ev kind:function(arm,size=0x1c) addr:0x0215c980
_ZN12ActorUnkBSKM19func_ov074_0215c99cEv kind:function(arm,size=0x1c) addr:0x0215c99c
_ZN19ActorProfileUnkBSKMD1Ev kind:function(arm,size=0x14) addr:0x0215c9b8
_ZN19ActorProfileUnkBKST10GetProfileEv kind:function(arm,size=0xc) addr:0x0215c9cc
_ZN19ActorProfileUnkBKST6CreateEv kind:function(arm,size=0x24) addr:0x0215c9d8
_ZN19ActorProfileUnkBKSTC1Ev kind:function(arm,size=0x40) addr:0x0215c9fc
_ZN12ActorUnkBKSTC1Ev kind:function(arm,size=0x78) addr:0x0215ca3c
_ZN12ActorUnkBKST19func_ov074_0215cab4Ev kind:function(arm,size=0x120) addr:0x0215cab4
_ZN12ActorUnkBKST19func_ov074_0215cbd4Ev kind:function(arm,size=0x3c) addr:0x0215cbd4
_ZN12ActorUnkBKST19func_ov074_0215cc10Ev kind:function(arm,size=0x44) addr:0x0215cc10
_ZN12ActorUnkBKST19func_ov074_0215cc54Ev kind:function(arm,size=0x24) addr:0x0215cc54
_ZN12ActorUnkBKST19func_ov074_0215cc78Ev kind:function(arm,size=0x3c) addr:0x0215cc78
_ZN12ActorUnkBKST19func_ov074_0215ccb4Ev kind:function(arm,size=0x124) addr:0x0215ccb4
_ZN12ActorUnkBKST19func_ov074_0215cdd8Ev kind:function(arm,size=0x20) addr:0x0215cdd8
_ZN12ActorUnkBKST19func_ov074_0215cdf8Ev kind:function(arm,size=0x28) addr:0x0215cdf8
_ZN12ActorUnkBKST19func_ov074_0215ce20Ev kind:function(arm,size=0x1c) addr:0x0215ce20
_ZN12ActorUnkBKST19func_ov074_0215ce3cEv kind:function(arm,size=0x20) addr:0x0215ce3c
_ZN12ActorUnkBKST19func_ov074_0215ce5cEv kind:function(arm,size=0x4) addr:0x0215ce5c
_ZN12ActorUnkBKST19func_ov074_0215ce60Ev kind:function(arm,size=0x20) addr:0x0215ce60
_ZN12ActorUnkBKST19func_ov074_0215ce80Ev kind:function(arm,size=0x1c) addr:0x0215ce80
_ZN12ActorUnkBKST19func_ov074_0215ce9cEv kind:function(arm,size=0x4c) addr:0x0215ce9c
_ZN12ActorUnkBKST19func_ov074_0215cee8Ev kind:function(arm,size=0x4) addr:0x0215cee8
_ZN12ActorUnkBKST19func_ov074_0215ceecEv kind:function(arm,size=0x1c) addr:0x0215ceec
_ZN12ActorUnkBKST19func_ov074_0215cf08Ev kind:function(arm,size=0x40) addr:0x0215cf08
_ZN12ActorUnkBKST19func_ov074_0215cf48Ev kind:function(arm,size=0xc) addr:0x0215cf48
_ZN12ActorUnkBKST19func_ov074_0215cf54Ev kind:function(arm,size=0x2c) addr:0x0215cf54
_ZN12ActorUnkBKST19func_ov074_0215cf80Ev kind:function(arm,size=0x8) addr:0x0215cf80
_ZN12ActorUnkBKST19func_ov074_0215cf88Ev kind:function(arm,size=0x5c) addr:0x0215cf88
_ZN12ActorUnkBKST19func_ov074_0215cfe4Ev kind:function(arm,size=0x88) addr:0x0215cfe4
_ZN12ActorUnkBKST19func_ov074_0215d06cEv kind:function(arm,size=0x118) addr:0x0215d06c
_ZN12ActorUnkBKST19func_ov074_0215d184Ev kind:function(arm,size=0x33c) addr:0x0215d184
_ZN12ActorUnkBKST19func_ov074_0215d4c0Ev kind:function(arm,size=0x234) addr:0x0215d4c0
_ZN12ActorUnkBKSTD1Ev kind:function(arm,size=0x20) addr:0x0215d6f4
_ZN12ActorUnkBKSTD0Ev kind:function(arm,size=0x28) addr:0x0215d714
_ZN19ActorProfileUnkBKSTD1Ev kind:function(arm,size=0x14) addr:0x0215d73c
_ZN19ActorProfileUnkKIMB10GetProfileEv kind:function(arm,size=0xc) addr:0x0215d750
_ZN19ActorProfileUnkKIMB6CreateEv kind:function(arm,size=0x24) addr:0x0215d75c
_ZN19ActorProfileUnkKIMBC1Ev kind:function(arm,size=0x40) addr:0x0215d780
_ZN12ActorUnkKIMBC1Ev kind:function(arm,size=0x16c) addr:0x0215d7c0
_ZN12ActorUnkKIMB19func_ov074_0215d92cEv kind:function(arm,size=0x14) addr:0x0215d92c
_ZN12ActorUnkKIMB19func_ov074_0215d940Ev kind:function(arm,size=0x78) addr:0x0215d940
_ZN12ActorUnkKIMB19func_ov074_0215d9b8Ev kind:function(arm,size=0x14) addr:0x0215d9b8
_ZN12ActorUnkKIMB19func_ov074_0215d9ccEv kind:function(arm,size=0x48) addr:0x0215d9cc
_ZN12ActorUnkKIMB19func_ov074_0215da14Ev kind:function(arm,size=0xc8) addr:0x0215da14
_ZN12ActorUnkKIMB19func_ov074_0215dadcEv kind:function(arm,size=0x134) addr:0x0215dadc
_ZN12ActorUnkKIMB19func_ov074_0215dc10Ev kind:function(arm,size=0x14) addr:0x0215dc10
_ZN12ActorUnkKIMB19func_ov074_0215dc24Ev kind:function(arm,size=0x54) addr:0x0215dc24
_ZN12ActorUnkKIMB19func_ov074_0215dc78Ev kind:function(arm,size=0x14) addr:0x0215dc78
_ZN12ActorUnkKIMB19func_ov074_0215dc8cEv kind:function(arm,size=0x64) addr:0x0215dc8c
_ZN12ActorUnkKIMB19func_ov074_0215dcf0Ev kind:function(arm,size=0x78) addr:0x0215dcf0
_ZN12ActorUnkKIMB19func_ov074_0215dd68Ev kind:function(arm,size=0xfc) addr:0x0215dd68
_ZN12ActorUnkKIMB19func_ov074_0215de64Ev kind:function(arm,size=0x7c) addr:0x0215de64
_ZN12ActorUnkKIMB19func_ov074_0215dee0Ev kind:function(arm,size=0x25c) addr:0x0215dee0
_ZN12ActorUnkKIMB19func_ov074_0215e13cEv kind:function(arm,size=0x68) addr:0x0215e13c
_ZN12ActorUnkKIMB19func_ov074_0215e1a4Ev kind:function(arm,size=0x34) addr:0x0215e1a4
_ZN12ActorUnkKIMB19func_ov074_0215e1d8Ev kind:function(arm,size=0xa4) addr:0x0215e1d8
_ZN12ActorUnkKIMB19func_ov074_0215e27cEv kind:function(arm,size=0x194) addr:0x0215e27c
_ZN12ActorUnkKIMB19func_ov074_0215e410Ev kind:function(arm,size=0xa8) addr:0x0215e410
_ZN12ActorUnkKIMB19func_ov074_0215e4b8Ev kind:function(arm,size=0x14) addr:0x0215e4b8
_ZN12ActorUnkKIMB19func_ov074_0215e4ccEv kind:function(arm,size=0x20) addr:0x0215e4cc
_ZN12ActorUnkKIMB19func_ov074_0215e4ecEv kind:function(arm,size=0x98) addr:0x0215e4ec
_ZN12ActorUnkKIMB19func_ov074_0215e584Ev kind:function(arm,size=0x4c) addr:0x0215e584
_ZN12ActorUnkKIMBD0Ev kind:function(arm,size=0x1c) addr:0x0215e5d0
_ZN12ActorUnkKIMBD1Ev kind:function(arm,size=0x40) addr:0x0215e5ec
_ZN12ActorUnkKIMB19func_ov074_0215e62cEv kind:function(arm,size=0x48) addr:0x0215e62c
_ZN19ActorProfileUnkKIMBD1Ev kind:function(arm,size=0x14) addr:0x0215e674
_ZN19ActorProfileUnkPPPM10GetProfileEv kind:function(arm,size=0xc) addr:0x0215e688
_ZN19ActorProfileUnkPPPM6CreateEv kind:function(arm,size=0x28) addr:0x0215e694
_ZN19ActorProfileUnkPPPMC1Ev kind:function(arm,size=0x58) addr:0x0215e6bc
_ZN12ActorUnkPPPMC1Ev kind:function(arm,size=0x338) addr:0x0215e714
_ZN12ActorUnkPPPMD1Ev kind:function(arm,size=0x80) addr:0x0215ea4c
_ZN12ActorUnkPPPMD0Ev kind:function(arm,size=0x88) addr:0x0215eacc
_ZN12ActorUnkPPPM19func_ov074_0215eb54Ev kind:function(arm,size=0xb0) addr:0x0215eb54
_ZN12ActorUnkPPPM19func_ov074_0215ec04Ev kind:function(arm,size=0x74) addr:0x0215ec04
_ZN12ActorUnkPPPM19func_ov074_0215ec78Ev kind:function(arm,size=0x48) addr:0x0215ec78
_ZN12ActorUnkPPPM19func_ov074_0215ecc0Ev kind:function(arm,size=0x40) addr:0x0215ecc0
_ZN12ActorUnkPPPM19func_ov074_0215ed00Ev kind:function(arm,size=0x1c0) addr:0x0215ed00
_ZN12ActorUnkPPPM19func_ov074_0215eec0Ev kind:function(arm,size=0x60) addr:0x0215eec0
_ZN12ActorUnkPPPM19func_ov074_0215ef20Ev kind:function(arm,size=0x268) addr:0x0215ef20
_ZN12ActorUnkPPPM19func_ov074_0215f188Ev kind:function(arm,size=0x30) addr:0x0215f188
_ZN12ActorUnkPPPM19func_ov074_0215f1b8Ev kind:function(arm,size=0x4) addr:0x0215f1b8
_ZN12ActorUnkPPPM19func_ov074_0215f1bcEv kind:function(arm,size=0xcc) addr:0x0215f1bc
_ZN12ActorUnkPPPM19func_ov074_0215f288Ev kind:function(arm,size=0x1ac) addr:0x0215f288
_ZN12ActorUnkPPPM19func_ov074_0215f434Ev kind:function(arm,size=0x14c) addr:0x0215f434
_ZN12ActorUnkPPPM19func_ov074_0215f580Ev kind:function(arm,size=0x60) addr:0x0215f580
_ZN12ActorUnkPPPM19func_ov074_0215f5e0Ev kind:function(arm,size=0x288) addr:0x0215f5e0
_ZN12ActorUnkPPPM19func_ov074_0215f868Ev kind:function(arm,size=0x4c) addr:0x0215f868
_ZN12ActorUnkPPPM19func_ov074_0215f8b4Ev kind:function(arm,size=0x38) addr:0x0215f8b4
_ZN12ActorUnkPPPM19func_ov074_0215f8ecEv kind:function(arm,size=0x40) addr:0x0215f8ec
_ZN12ActorUnkPPPM19func_ov074_0215f92cEv kind:function(arm,size=0x48) addr:0x0215f92c
_ZN12ActorUnkPPPM19func_ov074_0215f974Ev kind:function(arm,size=0x48) addr:0x0215f974
_ZN12ActorUnkPPPM19func_ov074_0215f9bcEv kind:function(arm,size=0x114) addr:0x0215f9bc
_ZN12ActorUnkPPPM19func_ov074_0215fad0Ev kind:function(arm,size=0x130) addr:0x0215fad0
_ZN12ActorUnkPPPM19func_ov074_0215fc00Ev kind:function(arm,size=0x1c0) addr:0x0215fc00
_ZN12ActorUnkPPPM19func_ov074_0215fdc0Ev kind:function(arm,size=0x48) addr:0x0215fdc0
_ZN12ActorUnkPPPM19func_ov074_0215fe08Ev kind:function(arm,size=0x118) addr:0x0215fe08
_ZN12ActorUnkPPPM19func_ov074_0215ff20Ev kind:function(arm,size=0x84) addr:0x0215ff20
_ZN12ActorUnkPPPM19func_ov074_0215ffa4Ev kind:function(arm,size=0xd4) addr:0x0215ffa4
_ZN12ActorUnkPPPM19func_ov074_02160078Ev kind:function(arm,size=0x158) addr:0x02160078
_ZN12ActorUnkPPPM19func_ov074_021601d0Ev kind:function(arm,size=0x80) addr:0x021601d0
_ZN12ActorUnkPPPM19func_ov074_02160250Ev kind:function(arm,size=0xf8) addr:0x02160250
_ZN12ActorUnkPPPM19func_ov074_02160348Ev kind:function(arm,size=0x78) addr:0x02160348
_ZN12ActorUnkPPPM19func_ov074_021603c0Ev kind:function(arm,size=0x10) addr:0x021603c0
_ZN12ActorUnkPPPM19func_ov074_021603d0Ev kind:function(arm,size=0xe4) addr:0x021603d0
_ZN12ActorUnkPPPM19func_ov074_021604b4Ev kind:function(arm,size=0x900) addr:0x021604b4
_ZN12ActorUnkPPPM19func_ov074_02160db4Ev kind:function(arm,size=0xa0) addr:0x02160db4
_ZN12ActorUnkPPPM19func_ov074_02160e54Ev kind:function(arm,size=0x78) addr:0x02160e54
_ZN12ActorUnkPPPM19func_ov074_02160eccEv kind:function(arm,size=0xa0) addr:0x02160ecc
_ZN12ActorUnkPPPM19func_ov074_02160f6cEv kind:function(arm,size=0x80) addr:0x02160f6c
_ZN12ActorUnkPPPM19func_ov074_02160fecEv kind:function(arm,size=0x338) addr:0x02160fec
_ZN12ActorUnkPPPM19func_ov074_02161324Ev kind:function(arm,size=0x150) addr:0x02161324
_ZN12ActorUnkPPPM19func_ov074_02161474Ev kind:function(arm,size=0x348) addr:0x02161474
_ZN12ActorUnkPPPM19func_ov074_021617bcEv kind:function(arm,size=0x80) addr:0x021617bc
_ZN12ActorUnkPPPM19func_ov074_0216183cEv kind:function(arm,size=0x24) addr:0x0216183c
_ZN12ActorUnkPPPM19func_ov074_02161860Ev kind:function(arm,size=0xb0) addr:0x02161860
_ZN12ActorUnkPPPM19func_ov074_02161910Ev kind:function(arm,size=0x18) addr:0x02161910
_ZN12ActorUnkPPPM19func_ov074_02161928Ev kind:function(arm,size=0x24) addr:0x02161928
_ZN12ActorUnkPPPM19func_ov074_0216194cEv kind:function(arm,size=0x1c) addr:0x0216194c
_ZN12ActorUnkPPPM19func_ov074_02161968Ev kind:function(arm,size=0x1c) addr:0x02161968
_ZN12ActorUnkPPPM19func_ov074_02161984Ev kind:function(arm,size=0x1c) addr:0x02161984
_ZN12ActorUnkPPPM19func_ov074_021619a0Ev kind:function(arm,size=0x24) addr:0x021619a0
_ZN12ActorUnkPPPM19func_ov074_021619c4Ev kind:function(arm,size=0x24) addr:0x021619c4
_ZN12ActorUnkPPPM19func_ov074_021619e8Ev kind:function(arm,size=0x24) addr:0x021619e8
_ZN12ActorUnkPPPM19func_ov074_02161a0cEv kind:function(arm,size=0xbc) addr:0x02161a0c
_ZN12ActorUnkPPPM19func_ov074_02161ac8Ev kind:function(arm,size=0x120) addr:0x02161ac8
_ZN12ActorUnkPPPM19func_ov074_02161be8Ev kind:function(arm,size=0x30) addr:0x02161be8
_ZN19ActorProfileUnkPPPMD1Ev kind:function(arm,size=0x14) addr:0x02161c18
func_ov074_02161c2c kind:function(arm,size=0x208) addr:0x02161c2c
data_ov074_02161e38 kind:data(any) addr:0x02161e38
data_ov074_02161e58 kind:data(any) addr:0x02161e58
data_ov074_02161e7c kind:data(any) addr:0x02161e7c
data_ov074_02161e8c kind:data(any) addr:0x02161e8c
data_ov074_02161e9c kind:data(any) addr:0x02161e9c
data_ov074_02161ebc kind:data(any) addr:0x02161ebc
data_ov074_02161edc kind:data(any) addr:0x02161edc
data_ov074_02161ef0 kind:data(any) addr:0x02161ef0 ambiguous
data_ov074_02161f00 kind:data(any) addr:0x02161f00
data_ov074_02161f40 kind:data(any) addr:0x02161f40
data_ov074_02161f50 kind:data(any) addr:0x02161f50
data_ov074_02161f60 kind:data(any) addr:0x02161f60
data_ov074_02161f84 kind:data(any) addr:0x02161f84
data_ov074_02161f94 kind:data(any) addr:0x02161f94
data_ov074_02161fa4 kind:data(any) addr:0x02161fa4
data_ov074_02161fb8 kind:data(any) addr:0x02161fb8
data_ov074_02162030 kind:data(any) addr:0x02162030
data_ov074_021620c0 kind:data(any) addr:0x021620c0 ambiguous
data_ov074_021621a8 kind:data(any) addr:0x021621a8 ambiguous
__sinit_ActorUnkRBL1.cpp kind:function(arm,size=0xc4) addr:0x021621b0
__sinit_ActorUnkMAGR.cpp kind:function(arm,size=0x84) addr:0x02162274
__sinit_ActorUnkZLBS.cpp kind:function(arm,size=0x74) addr:0x021622f8
__sinit_ActorUnkZLBB.cpp kind:function(arm,size=0x74) addr:0x0216236c
__sinit_ActorUnkBSKM.cpp kind:function(arm,size=0x74) addr:0x021623e0
__sinit_ActorUnkBKST.cpp kind:function(arm,size=0x50) addr:0x02162454
__sinit_ActorUnkKIMB.cpp kind:function(arm,size=0x74) addr:0x021624a4
__sinit_ActorUnkPPPM.cpp kind:function(arm,size=0x74) addr:0x02162518
.p__sinit_ActorUnkRBL1.cpp kind:data(word) addr:0x0216258c
.p__sinit_ActorUnkMAGR.cpp kind:data(word) addr:0x02162590
.p__sinit_ActorUnkZLBS.cpp kind:data(word) addr:0x02162594
.p__sinit_ActorUnkZLBB.cpp kind:data(word) addr:0x02162598
.p__sinit_ActorUnkBSKM.cpp kind:data(word) addr:0x0216259c
.p__sinit_ActorUnkBKST.cpp kind:data(word) addr:0x021625a0
.p__sinit_ActorUnkKIMB.cpp kind:data(word) addr:0x021625a4
.p__sinit_ActorUnkPPPM.cpp kind:data(word) addr:0x021625a8
data_ov074_021625c0 kind:data(any) addr:0x021625c0
data_ov074_021625c8 kind:data(any) addr:0x021625c8
data_ov074_021625d0 kind:data(any) addr:0x021625d0
data_ov074_0216262c kind:data(any) addr:0x0216262c
_ZTV19data_ov074_02162644 kind:data(any) addr:0x02162644
data_ov074_02162670 kind:data(any) addr:0x02162670
data_ov074_0216269c kind:data(any) addr:0x0216269c
_ZTV19data_ov074_021626dc kind:data(any) addr:0x021626dc
_ZTV19data_ov074_02162710 kind:data(any) addr:0x02162710 ambiguous
data_ov074_02162738 kind:data(any) addr:0x02162738
data_ov074_02162758 kind:data(any) addr:0x02162758
_ZTV19data_ov074_02162764 kind:data(any) addr:0x02162764
data_ov074_02162790 kind:data(any) addr:0x02162790
data_ov074_021627b8 kind:data(any) addr:0x021627b8
_ZTV19data_ov074_021627dc kind:data(any) addr:0x021627dc
data_ov074_02162838 kind:data(any) addr:0x02162838
_ZTV19data_ov074_02162844 kind:data(any) addr:0x02162844
data_ov074_02162870 kind:data(any) addr:0x02162870
data_ov074_021628b4 kind:data(any) addr:0x021628b4
data_ov074_02162904 kind:data(any) addr:0x02162904
data_ov074_02162954 kind:data(any) addr:0x02162954
data_ov074_0216296c kind:data(any) addr:0x0216296c
data_ov074_02162984 kind:data(any) addr:0x02162984
data_ov074_0216299c kind:data(any) addr:0x0216299c
_ZTV19data_ov074_021629b4 kind:data(any) addr:0x021629b4
_ZTV19data_ov074_021629c8 kind:data(any) addr:0x021629c8 ambiguous
data_ov074_02162a14 kind:data(any) addr:0x02162a14
data_ov074_02162aec kind:data(any) addr:0x02162aec
data_ov074_02162af8 kind:data(any) addr:0x02162af8
data_ov074_02162b10 kind:data(any) addr:0x02162b10
data_ov074_02162b30 kind:data(any) addr:0x02162b30
_ZTV19data_ov074_02162b50 kind:data(any) addr:0x02162b50
_ZTV19data_ov074_02162b74 kind:data(any) addr:0x02162b74
data_ov074_02162b78 kind:data(any) addr:0x02162b78 ambiguous
data_ov074_02162bd0 kind:data(any) addr:0x02162bd0
data_ov074_02162bdc kind:data(any) addr:0x02162bdc
data_ov074_02162bf4 kind:data(any) addr:0x02162bf4
_ZTV19data_ov074_02162c0c kind:data(any) addr:0x02162c0c
data_ov074_02162c38 kind:data(any) addr:0x02162c38
data_ov074_02162c64 kind:data(any) addr:0x02162c64
_ZTV19data_ov074_02162c88 kind:data(any) addr:0x02162c88
_ZTV19data_ov074_02162c94 kind:data(any) addr:0x02162c94 ambiguous
data_ov074_02162ce8 kind:data(any) addr:0x02162ce8
data_ov074_02162d78 kind:data(any) addr:0x02162d78
data_ov074_02162e08 kind:data(any) addr:0x02162e08
data_ov074_02162f28 kind:data(any) addr:0x02162f28
data_ov074_02162f2c kind:data(any) addr:0x02162f2c
data_ov074_02162f34 kind:data(any) addr:0x02162f34 ambiguous
data_ov074_02162f5c kind:data(any) addr:0x02162f5c
_ZTV19data_ov074_02162f8c kind:data(any) addr:0x02162f8c
_ZTV19data_ov074_02162fb0 kind:data(any) addr:0x02162fb0
data_ov074_02163014 kind:data(any) addr:0x02163014
data_ov074_02163020 kind:data(any) addr:0x02163020
data_ov074_02163038 kind:data(any) addr:0x02163038
data_ov074_02163068 kind:data(any) addr:0x02163068
_ZTV19data_ov074_02163098 kind:data(any) addr:0x02163098
data_ov074_021630c4 kind:data(any) addr:0x021630c4
_ZTV19data_ov074_02163108 kind:data(any) addr:0x02163108
data_ov074_02163164 kind:data(any) addr:0x02163164
_ZTV19data_ov074_02163170 kind:data(any) addr:0x02163170
data_ov074_02163194 kind:data(any) addr:0x02163194
data_ov074_021631ac kind:data(any) addr:0x021631ac
data_ov074_021631c4 kind:data(any) addr:0x021631c4
_ZTV19data_ov074_021631dc kind:data(any) addr:0x021631dc
_ZTV19data_ov074_02163220 kind:data(any) addr:0x02163220 ambiguous
data_ov074_0216323c kind:data(any) addr:0x0216323c
data_ov074_021632a4 kind:data(any) addr:0x021632a4
data_ov074_02163320 kind:bss addr:0x02163320
data_ov074_02163324 kind:bss addr:0x02163324
sActorProfileUnkRBL1 kind:bss addr:0x02163330
data_ov074_02163408 kind:bss addr:0x02163408
data_ov074_0216340c kind:bss addr:0x0216340c
sActorProfileUnkMAGR kind:bss addr:0x02163418
data_ov074_021634cc kind:bss addr:0x021634cc ambiguous
data_ov074_021634f0 kind:bss addr:0x021634f0
data_ov074_021634f4 kind:bss addr:0x021634f4
sActorProfileUnkZLBS kind:bss addr:0x02163500
data_ov074_02163518 kind:bss addr:0x02163518 ambiguous
data_ov074_021635d8 kind:bss addr:0x021635d8
data_ov074_021635dc kind:bss addr:0x021635dc
sActorProfileUnkZLBB kind:bss addr:0x021635e8
data_ov074_021636c0 kind:bss addr:0x021636c0
data_ov074_021636c4 kind:bss addr:0x021636c4
sActorProfileUnkBSKM kind:bss addr:0x021636d0
data_ov074_021637a8 kind:bss addr:0x021637a8
data_ov074_021637ac kind:bss addr:0x021637ac
sActorProfileUnkBKST kind:bss addr:0x021637b8
data_ov074_021637f4 kind:bss addr:0x021637f4
data_ov074_021637f8 kind:bss addr:0x021637f8
sActorProfileUnkKIMB kind:bss addr:0x02163804
data_ov074_021638dc kind:bss addr:0x021638dc
data_ov074_021638e0 kind:bss addr:0x021638e0
sActorProfileUnkPPPM kind:bss addr:0x021638ec
