_ZN19ActorProfileUnkFSST10GetProfileEv kind:function(arm,size=0xc) addr:0x02139f20
_ZN19ActorProfileUnkFSST6CreateEv kind:function(arm,size=0x24) addr:0x02139f2c
_ZN19ActorProfileUnkFSSTC1Ev kind:function(arm,size=0x4c) addr:0x02139f50
_ZN12ActorUnkFSSTC1Ev kind:function(arm,size=0x1d8) addr:0x02139f9c
_ZN12ActorUnkFSST19func_ov057_02138734Ev kind:function(arm,size=0x14) addr:0x0213a174
_ZN12ActorUnkFSST19func_ov057_02138748Ev kind:function(arm,size=0x1e4) addr:0x0213a188
_ZN12ActorUnkFSST19func_ov057_0213892cEv kind:function(arm,size=0x24) addr:0x0213a36c
_ZN12ActorUnkFSST19func_ov057_02138950Ev kind:function(arm,size=0x234) addr:0x0213a390
_ZN12ActorUnkFSST19func_ov057_02138b84Ev kind:function(arm,size=0x4c) addr:0x0213a5c4
_ZN12ActorUnkFSST19func_ov057_02138bd0Ev kind:function(arm,size=0x80) addr:0x0213a610
_ZN12ActorUnkFSST19func_ov057_02138c50Ev kind:function(arm,size=0xb4) addr:0x0213a690
_ZN12ActorUnkFSST19func_ov057_02138d04Ev kind:function(arm,size=0xc4) addr:0x0213a744
_ZN12ActorUnkFSST19func_ov057_02138dc8Ev kind:function(arm,size=0xa8) addr:0x0213a808
_ZN12ActorUnkFSST19func_ov057_02138e70Ev kind:function(arm,size=0xfc) addr:0x0213a8b0
_ZN12ActorUnkFSST19func_ov057_02138f6cEv kind:function(arm,size=0x2c) addr:0x0213a9ac
_ZN12ActorUnkFSST19func_ov057_02138f98Ev kind:function(arm,size=0x28c) addr:0x0213a9d8
_ZN12ActorUnkFSST19func_ov057_02139224Ev kind:function(arm,size=0x60) addr:0x0213ac64
_ZN12ActorUnkFSST19func_ov057_02139284Ev kind:function(arm,size=0x1b8) addr:0x0213acc4
_ZN12ActorUnkFSST19func_ov057_0213943cEv kind:function(arm,size=0x70) addr:0x0213ae7c
_ZN12ActorUnkFSST19func_ov057_021394acEv kind:function(arm,size=0x214) addr:0x0213aeec
_ZN12ActorUnkFSST19func_ov057_021396c0Ev kind:function(arm,size=0x280) addr:0x0213b100
_ZN12ActorUnkFSST19func_ov057_02139940Ev kind:function(arm,size=0x27c) addr:0x0213b380
_ZN12ActorUnkFSST19func_ov057_02139bbcEv kind:function(arm,size=0x24) addr:0x0213b5fc
_ZN12ActorUnkFSST19func_ov057_02139be0Ev kind:function(arm,size=0x28) addr:0x0213b620
_ZN12ActorUnkFSST19func_ov057_02139c08Ev kind:function(arm,size=0x18) addr:0x0213b648
_ZN12ActorUnkFSST19func_ov057_02139c20Ev kind:function(arm,size=0x150) addr:0x0213b660
_ZN12ActorUnkFSST19func_ov057_02139d70Ev kind:function(arm,size=0x14) addr:0x0213b7b0
_ZN12ActorUnkFSSTD1Ev kind:function(arm,size=0x60) addr:0x0213b7c4
_ZN12ActorUnkFSSTD0Ev kind:function(arm,size=0x68) addr:0x0213b824
_ZN19ActorProfileUnkFSSTD1Ev kind:function(arm,size=0x14) addr:0x0213b88c
_ZN19ActorProfileUnkFSSF10GetProfileEv kind:function(arm,size=0xc) addr:0x0213b8a0
_ZN19ActorProfileUnkFSSF6CreateEv kind:function(arm,size=0x24) addr:0x0213b8ac
_ZN19ActorProfileUnkFSSFC1Ev kind:function(arm,size=0x28) addr:0x0213b8d0
_ZN12ActorUnkFSSFC1Ev kind:function(arm,size=0x3c) addr:0x0213b8f8
_ZN12ActorUnkFSSFD1Ev kind:function(arm,size=0x14) addr:0x0213b934
_ZN12ActorUnkFSSFD0Ev kind:function(arm,size=0x1c) addr:0x0213b948
_ZN12ActorUnkFSSF19func_ov057_02139f24Ev kind:function(arm,size=0xa0) addr:0x0213b964
_ZN12ActorUnkFSSF19func_ov057_02139fc4Ev kind:function(arm,size=0xfc) addr:0x0213ba04
_ZN12ActorUnkFSSF19func_ov057_0213a0c0Ev kind:function(arm,size=0xc) addr:0x0213bb00
_ZN12ActorUnkFSSF19func_ov057_0213a0ccEv kind:function(arm,size=0x58) addr:0x0213bb0c
_ZN12ActorUnkFSSF19func_ov057_0213a124Ev kind:function(arm,size=0x44) addr:0x0213bb64
_ZN19ActorProfileUnkFSSFD1Ev kind:function(arm,size=0x14) addr:0x0213bba8
_ZN19ActorProfileUnkRMFK10GetProfileEv kind:function(arm,size=0xc) addr:0x0213bbbc
_ZN19ActorProfileUnkRMFK6CreateEv kind:function(arm,size=0x24) addr:0x0213bbc8
_ZN19ActorProfileUnkRMFKC1Ev kind:function(arm,size=0x28) addr:0x0213bbec
_ZN12ActorUnkRMFK19func_ov057_0213a1d4Ev kind:function(arm,size=0x14) addr:0x0213bc14
_ZN12ActorUnkRMFK19func_ov057_0213a1e8Ev kind:function(arm,size=0x1e8) addr:0x0213bc28
_ZN12ActorUnkRMFKC1Ev kind:function(arm,size=0x6c) addr:0x0213be10
_ZN12ActorUnkRMFK19func_ov057_0213a43cEv kind:function(arm,size=0x10) addr:0x0213be7c
_ZN12ActorUnkRMFK19func_ov057_0213a44cEv kind:function(arm,size=0xf4) addr:0x0213be8c
_ZN12ActorUnkRMFK19func_ov057_0213a540Ev kind:function(arm,size=0x4) addr:0x0213bf80
_ZN12ActorUnkRMFK19func_ov057_0213a544Ev kind:function(arm,size=0x14) addr:0x0213bf84
_ZN12ActorUnkRMFK19func_ov057_0213a558Ev kind:function(arm,size=0xe8) addr:0x0213bf98
_ZN12ActorUnkRMFK19func_ov057_0213a640Ev kind:function(arm,size=0x78) addr:0x0213c080
_ZN12ActorUnkRMFK19func_ov057_0213a6b8Ev kind:function(arm,size=0x40) addr:0x0213c0f8
_ZN12ActorUnkRMFK19func_ov057_0213a6f8Ev kind:function(arm,size=0x64) addr:0x0213c138
_ZN12ActorUnkRMFKD1Ev kind:function(arm,size=0x40) addr:0x0213c19c
_ZN12ActorUnkRMFKD0Ev kind:function(arm,size=0x48) addr:0x0213c1dc
_ZN19ActorProfileUnkRMFKD1Ev kind:function(arm,size=0x14) addr:0x0213c224
_ZN19ActorProfileUnkGTTG10GetProfileEv kind:function(arm,size=0xc) addr:0x0213c238
_ZN19ActorProfileUnkGTTG6CreateEv kind:function(arm,size=0x24) addr:0x0213c244
_ZN19ActorProfileUnkGTTGC1Ev kind:function(arm,size=0x40) addr:0x0213c268
_ZN12ActorUnkGTTGC1Ev kind:function(arm,size=0x50) addr:0x0213c2a8
_ZN12ActorUnkGTTG19func_ov057_0213a8b8Ev kind:function(arm,size=0xe8) addr:0x0213c2f8
_ZN12ActorUnkGTTGD1Ev kind:function(arm,size=0x20) addr:0x0213c3e0
_ZN12ActorUnkGTTGD0Ev kind:function(arm,size=0x28) addr:0x0213c400
_ZN19ActorProfileUnkGTTGD1Ev kind:function(arm,size=0x14) addr:0x0213c428
_ZN19ActorProfileUnkHYSW10GetProfileEv kind:function(arm,size=0xc) addr:0x0213c43c
_ZN19ActorProfileUnkHYSW6CreateEv kind:function(arm,size=0x24) addr:0x0213c448
_ZN19ActorProfileUnkHYSWC1Ev kind:function(arm,size=0x28) addr:0x0213c46c
_ZN12ActorUnkHYSWC1Ev kind:function(arm,size=0x20) addr:0x0213c494
_ZN12ActorUnkHYSW19func_ov057_0213aa74Ev kind:function(arm,size=0x44) addr:0x0213c4b4
_ZN12ActorUnkHYSW19func_ov057_0213aab8Ev kind:function(arm,size=0x74) addr:0x0213c4f8
_ZN12ActorUnkHYSW19func_ov057_0213ab2cEv kind:function(arm,size=0x14) addr:0x0213c56c
_ZN12ActorUnkHYSW19func_ov057_0213ab40Ev kind:function(arm,size=0x6c) addr:0x0213c580
_ZN12ActorUnkHYSWD1Ev kind:function(arm,size=0x14) addr:0x0213c5ec
_ZN12ActorUnkHYSWD0Ev kind:function(arm,size=0x1c) addr:0x0213c600
_ZN19ActorProfileUnkHYSWD1Ev kind:function(arm,size=0x14) addr:0x0213c61c
_ZN19ActorProfileUnkELVT10GetProfileEv kind:function(arm,size=0xc) addr:0x0213c630
_ZN19ActorProfileUnkELVT6CreateEv kind:function(arm,size=0x24) addr:0x0213c63c
_ZN19ActorProfileUnkELVTC1Ev kind:function(arm,size=0x4c) addr:0x0213c660
_ZN12ActorUnkELVT19func_ov057_0213ac6cEv kind:function(arm,size=0x28) addr:0x0213c6ac
_ZN12ActorUnkELVTD1Ev kind:function(arm,size=0x14) addr:0x0213c6d4
_ZN12ActorUnkELVTD0Ev kind:function(arm,size=0x1c) addr:0x0213c6e8
_ZN12ActorUnkELVT19func_ov057_0213acc4Ev kind:function(arm,size=0x64) addr:0x0213c704
_ZN12ActorUnkELVT19func_ov057_0213ad14Ev kind:function(arm,size=0x24) addr:0x0213c768
_ZN12ActorUnkELVTC1Ev kind:function(arm,size=0x1f8) addr:0x0213c78c
_ZN12ActorUnkELVT19func_ov057_0213af30Ev kind:function(arm,size=0x14) addr:0x0213c984
_ZN12ActorUnkELVT19func_ov057_0213af44Ev kind:function(arm,size=0x13c) addr:0x0213c998
_ZN12ActorUnkELVT19func_ov057_0213b080Ev kind:function(arm,size=0x1f4) addr:0x0213cad4
_ZN12ActorUnkELVT19func_ov057_0213b274Ev kind:function(arm,size=0x40) addr:0x0213ccc8
_ZN12ActorUnkELVT19func_ov057_0213b2b4Ev kind:function(arm,size=0x228) addr:0x0213cd08
_ZN12ActorUnkELVT19func_ov057_0213b4d0Ev kind:function(arm,size=0x4c) addr:0x0213cf30
_ZN12ActorUnkELVT19func_ov057_0213b51cEv kind:function(arm,size=0x20) addr:0x0213cf7c
_ZN12ActorUnkELVT19func_ov057_0213b53cEv kind:function(arm,size=0x90) addr:0x0213cf9c
_ZN12ActorUnkELVT19func_ov057_0213b5ccEv kind:function(arm,size=0x2c) addr:0x0213d02c
_ZN12ActorUnkELVT19func_ov057_0213b5f8Ev kind:function(arm,size=0xa0) addr:0x0213d058
_ZN12ActorUnkELVT19func_ov057_0213b698Ev kind:function(arm,size=0x10) addr:0x0213d0f8
_ZN12ActorUnkELVT19func_ov057_0213b6a8Ev kind:function(arm,size=0x8) addr:0x0213d108
_ZN12ActorUnkELVT19func_ov057_0213b6b0Ev kind:function(arm,size=0x1c) addr:0x0213d110
_ZN12ActorUnkELVT19func_ov057_0213b6ccEv kind:function(arm,size=0x40) addr:0x0213d12c
_ZN12ActorUnkELVT19func_ov057_0213b70cEv kind:function(arm,size=0x48) addr:0x0213d16c
_ZN19ActorProfileUnkELVTD1Ev kind:function(arm,size=0x14) addr:0x0213d1b4
_ZN23MapObjectProfileUnkTRLN10GetProfileEv kind:function(arm,size=0xc) addr:0x0213d1c8
_ZN23MapObjectProfileUnkTRLN6CreateEv kind:function(arm,size=0x24) addr:0x0213d1d4
_ZN23MapObjectProfileUnkTRLNC1Ev kind:function(arm,size=0x48) addr:0x0213d1f8
_ZN16MapObjectUnkTRLNC1Ev kind:function(arm,size=0x80) addr:0x0213d240
_ZN16MapObjectUnkTRLN19func_ov057_0213b860Ev kind:function(arm,size=0x4) addr:0x0213d2c0
_ZN16MapObjectUnkTRLN19func_ov057_0213b864Ev kind:function(arm,size=0x28) addr:0x0213d2c4
_ZN16MapObjectUnkTRLN19func_ov057_0213b88cEv kind:function(arm,size=0xc) addr:0x0213d2ec
_ZN16MapObjectUnkTRLND1Ev kind:function(arm,size=0x14) addr:0x0213d2f8
_ZN16MapObjectUnkTRLND0Ev kind:function(arm,size=0x1c) addr:0x0213d30c
_ZN23MapObjectProfileUnkTRLND1Ev kind:function(arm,size=0x14) addr:0x0213d328
data_ov057_0213d33c kind:data(any) addr:0x0213d33c
data_ov057_0213d344 kind:data(any) addr:0x0213d344
data_ov057_0213d34e kind:data(any) addr:0x0213d34e
data_ov057_0213d370 kind:data(any) addr:0x0213d370
__sinit_ActorUnkFSST.cpp kind:function(arm,size=0x60) addr:0x0213d3c0
__sinit_ActorUnkFSSF.cpp kind:function(arm,size=0x50) addr:0x0213d420
__sinit_ActorUnkRMFK.cpp kind:function(arm,size=0x1f8) addr:0x0213d470
__sinit_ActorUnkGTTG.cpp kind:function(arm,size=0x50) addr:0x0213d668
__sinit_ActorUnkHYSW.cpp kind:function(arm,size=0x50) addr:0x0213d6b8
__sinit_ActorUnkELVT.cpp kind:function(arm,size=0x50) addr:0x0213d708
__sinit_MapObjectUnkTRLN.cpp kind:function(arm,size=0x6c) addr:0x0213d758
.p__sinit_ActorUnkFSST.cpp kind:data(word) addr:0x0213d7c4
.p__sinit_ActorUnkFSSF.cpp kind:data(word) addr:0x0213d7c8
.p__sinit_ActorUnkRMFK.cpp kind:data(word) addr:0x0213d7cc
.p__sinit_ActorUnkGTTG.cpp kind:data(word) addr:0x0213d7d0
.p__sinit_ActorUnkHYSW.cpp kind:data(word) addr:0x0213d7d4
.p__sinit_ActorUnkELVT.cpp kind:data(word) addr:0x0213d7d8
.p__sinit_MapObjectUnkTRLN.cpp kind:data(word) addr:0x0213d7dc
_ZTV19data_ov057_0213d800 kind:data(any) addr:0x0213d800
data_ov057_0213d82c kind:data(any) addr:0x0213d82c
data_ov057_0213d854 kind:data(any) addr:0x0213d854
_ZTV19data_ov057_0213d874 kind:data(any) addr:0x0213d874
_ZTV19data_ov057_0213d8b4 kind:data(any) addr:0x0213d8b4 ambiguous
_ZTV19data_ov057_0213d8d4 kind:data(any) addr:0x0213d8d4
_ZTV19data_ov057_0213d8f8 kind:data(any) addr:0x0213d8f8
data_ov057_0213d958 kind:data(any) addr:0x0213d958
data_ov057_0213d95a kind:data(any) addr:0x0213d95a
data_ov057_0213d95c kind:data(any) addr:0x0213d95c
data_ov057_0213d95e kind:data(any) addr:0x0213d95e
data_ov057_0213d960 kind:data(any) addr:0x0213d960
data_ov057_0213d962 kind:data(any) addr:0x0213d962
data_ov057_0213d964 kind:data(any) addr:0x0213d964
data_ov057_0213d96a kind:data(any) addr:0x0213d96a
data_ov057_0213d970 kind:data(any) addr:0x0213d970
data_ov057_0213d976 kind:data(any) addr:0x0213d976
data_ov057_0213d97c kind:data(any) addr:0x0213d97c
data_ov057_0213d982 kind:data(any) addr:0x0213d982
data_ov057_0213d988 kind:data(any) addr:0x0213d988
data_ov057_0213d990 kind:data(any) addr:0x0213d990
data_ov057_0213d99c kind:data(any) addr:0x0213d99c
data_ov057_0213d9a8 kind:data(any) addr:0x0213d9a8
data_ov057_0213d9b4 kind:data(any) addr:0x0213d9b4
data_ov057_0213d9c0 kind:data(any) addr:0x0213d9c0
data_ov057_0213d9cc kind:data(any) addr:0x0213d9cc
data_ov057_0213d9d8 kind:data(any) addr:0x0213d9d8
data_ov057_0213d9e4 kind:data(any) addr:0x0213d9e4
data_ov057_0213d9f0 kind:data(any) addr:0x0213d9f0
_ZTV19data_ov057_0213d9fc kind:data(any) addr:0x0213d9fc
_ZTV19data_ov057_0213da20 kind:data(any) addr:0x0213da20
_ZTV19data_ov057_0213da80 kind:data(any) addr:0x0213da80
_ZTV19data_ov057_0213daa4 kind:data(any) addr:0x0213daa4
_ZTV19data_ov057_0213db00 kind:data(any) addr:0x0213db00
_ZTV19data_ov057_0213db24 kind:data(any) addr:0x0213db24
data_ov057_0213db88 kind:data(any) addr:0x0213db88
_ZTV19data_ov057_0213db94 kind:data(any) addr:0x0213db94
data_ov057_0213dbb8 kind:data(any) addr:0x0213dbb8
data_ov057_0213dbd0 kind:data(any) addr:0x0213dbd0
data_ov057_0213dbf0 kind:data(any) addr:0x0213dbf0
_ZTV19data_ov057_0213dc30 kind:data(any) addr:0x0213dc30
_ZTV19data_ov057_0213dc54 kind:data(any) addr:0x0213dc54 ambiguous
data_ov057_0213dc8c kind:data(any) addr:0x0213dc8c
data_ov057_0213dc9c kind:data(any) addr:0x0213dc9c
data_ov057_0213dcb8 kind:data(any) addr:0x0213dcb8
data_ov057_0213dd20 kind:bss addr:0x0213dd20
data_ov057_0213dd24 kind:bss addr:0x0213dd24
data_ov057_0213dd30 kind:bss addr:0x0213dd30
sActorProfileUnkFSST kind:bss addr:0x0213dd3c
data_ov057_0213de14 kind:bss addr:0x0213de14
data_ov057_0213de18 kind:bss addr:0x0213de18
sActorProfileUnkFSSF kind:bss addr:0x0213de24
data_ov057_0213de60 kind:bss addr:0x0213de60
data_ov057_0213de64 kind:bss addr:0x0213de64
sActorProfileUnkRMFK kind:bss addr:0x0213de70
data_ov057_0213df48 kind:bss addr:0x0213df48
data_ov057_0213df4c kind:bss addr:0x0213df4c
sActorProfileUnkGTTG kind:bss addr:0x0213df58
data_ov057_0213df94 kind:bss addr:0x0213df94
data_ov057_0213df98 kind:bss addr:0x0213df98
sActorProfileUnkHYSW kind:bss addr:0x0213dfa4
data_ov057_0213dfe0 kind:bss addr:0x0213dfe0
data_ov057_0213dfe4 kind:bss addr:0x0213dfe4
sActorProfileUnkELVT kind:bss addr:0x0213dff0
data_ov057_0213e0c8 kind:bss addr:0x0213e0c8
data_ov057_0213e0cc kind:bss addr:0x0213e0cc
sMapObjectProfileUnkTRLN kind:bss addr:0x0213e0d8
