_ZN19ActorProfileUnkBEEE10GetProfileEv kind:function(arm,size=0xc) addr:0x02131ec0
_ZN19ActorProfileUnkBEEE6CreateEv kind:function(arm,size=0x24) addr:0x02131ecc
_ZN19ActorProfileUnkBEEEC1Ev kind:function(arm,size=0x44) addr:0x02131ef0
_ZN12ActorUnkBEEE19func_ov049_02131f34Ev kind:function(arm,size=0x50) addr:0x02131f34
_ZN12ActorUnkBEEEC1Ev kind:function(arm,size=0xd4) addr:0x02131f84
_ZN12ActorUnkBEEE19func_ov049_02132058Ev kind:function(arm,size=0x104) addr:0x02132058
_ZN12ActorUnkBEEE19func_ov049_0213215cEv kind:function(arm,size=0x44) addr:0x0213215c
_ZN12ActorUnkBEEE19func_ov049_021321a0Ev kind:function(arm,size=0x88) addr:0x021321a0
_ZN12ActorUnkBEEE19func_ov049_02132228Ev kind:function(arm,size=0x50) addr:0x02132228
_ZN12ActorUnkBEEE19func_ov049_02132278Ev kind:function(arm,size=0x94) addr:0x02132278
_ZN12ActorUnkBEEE19func_ov049_0213230cEv kind:function(arm,size=0x84) addr:0x0213230c
_ZN12ActorUnkBEEE19func_ov049_02132390Ev kind:function(arm,size=0xe4) addr:0x02132390
_ZN12ActorUnkBEEE19func_ov049_02132474Ev kind:function(arm,size=0x120) addr:0x02132474
_ZN12ActorUnkBEEE19func_ov049_02132594Ev kind:function(arm,size=0x12c) addr:0x02132594
_ZN12ActorUnkBEEE19func_ov049_021326c0Ev kind:function(arm,size=0x5c) addr:0x021326c0
_ZN12ActorUnkBEEE19func_ov049_0213271cEv kind:function(arm,size=0x1ac) addr:0x0213271c
_ZN12ActorUnkBEEE19func_ov049_021328c8Ev kind:function(arm,size=0x44) addr:0x021328c8
_ZN12ActorUnkBEEE19func_ov049_0213290cEv kind:function(arm,size=0x14) addr:0x0213290c
_ZN12ActorUnkBEEE19func_ov049_02132920Ev kind:function(arm,size=0x308) addr:0x02132920
_ZN12ActorUnkBEEE19func_ov049_02132c28Ev kind:function(arm,size=0x34) addr:0x02132c28
_ZN12ActorUnkBEEE19func_ov049_02132c5cEv kind:function(arm,size=0x84) addr:0x02132c5c
_ZN12ActorUnkBEEE19func_ov049_02132ce0Ev kind:function(arm,size=0x44) addr:0x02132ce0
_ZN12ActorUnkBEEE19func_ov049_02132d24Ev kind:function(arm,size=0x68) addr:0x02132d24
_ZN12ActorUnkBEEE19func_ov049_02132d8cEv kind:function(arm,size=0x44) addr:0x02132d8c
_ZN12ActorUnkBEEE19func_ov049_02132dd0Ev kind:function(arm,size=0x6c) addr:0x02132dd0
_ZN12ActorUnkBEEED1Ev kind:function(arm,size=0x20) addr:0x02132e3c
_ZN12ActorUnkBEEED0Ev kind:function(arm,size=0x28) addr:0x02132e5c
_ZN19ActorProfileUnkBEEED1Ev kind:function(arm,size=0x14) addr:0x02132e84
_ZN19ActorProfileUnkBEEH10GetProfileEv kind:function(arm,size=0xc) addr:0x02132e98
_ZN19ActorProfileUnkBEEH6CreateEv kind:function(arm,size=0x24) addr:0x02132ea4
_ZN19ActorProfileUnkBEEHC1Ev kind:function(arm,size=0x6c) addr:0x02132ec8
_ZN12ActorUnkBEEHC1Ev kind:function(arm,size=0xd4) addr:0x02132f34
_ZN12ActorUnkBEEH19func_ov049_02133008Ev kind:function(arm,size=0xd4) addr:0x02133008
_ZN12ActorUnkBEEH19func_ov049_021330dcEv kind:function(arm,size=0x128) addr:0x021330dc
_ZN12ActorUnkBEEH19func_ov049_02133204Ev kind:function(arm,size=0x44) addr:0x02133204
_ZN12ActorUnkBEEH19func_ov049_02133248Ev kind:function(arm,size=0x90) addr:0x02133248
_ZN12ActorUnkBEEH19func_ov049_021332d8Ev kind:function(arm,size=0x50) addr:0x021332d8
_ZN12ActorUnkBEEH19func_ov049_02133328Ev kind:function(arm,size=0x38) addr:0x02133328
_ZN12ActorUnkBEEH19func_ov049_02133360Ev kind:function(arm,size=0x7c) addr:0x02133360
_ZN12ActorUnkBEEH19func_ov049_021333dcEv kind:function(arm,size=0x148) addr:0x021333dc
_ZN12ActorUnkBEEH19func_ov049_02133524Ev kind:function(arm,size=0x4) addr:0x02133524
_ZN12ActorUnkBEEH19func_ov049_02133528Ev kind:function(arm,size=0x28) addr:0x02133528
_ZN12ActorUnkBEEH19func_ov049_02133550Ev kind:function(arm,size=0xb4) addr:0x02133550
_ZN12ActorUnkBEEH19func_ov049_02133604Ev kind:function(arm,size=0xbc) addr:0x02133604
_ZN12ActorUnkBEEH19func_ov049_021336c0Ev kind:function(arm,size=0xc) addr:0x021336c0
_ZN12ActorUnkBEEH19func_ov049_021336ccEv kind:function(arm,size=0xe8) addr:0x021336cc
_ZN12ActorUnkBEEH19func_ov049_021337b4Ev kind:function(arm,size=0x68) addr:0x021337b4
_ZN12ActorUnkBEEH19func_ov049_0213381cEv kind:function(arm,size=0x30) addr:0x0213381c
_ZN12ActorUnkBEEH19func_ov049_0213384cEv kind:function(arm,size=0x2c) addr:0x0213384c
_ZN12ActorUnkBEEH19func_ov049_02133878Ev kind:function(arm,size=0x108) addr:0x02133878
_ZN12ActorUnkBEEH19func_ov049_02133980Ev kind:function(arm,size=0x64) addr:0x02133980
_ZN12ActorUnkBEEH19func_ov049_021339e4Ev kind:function(arm,size=0xcc) addr:0x021339e4
_ZN12ActorUnkBEEHD1Ev kind:function(arm,size=0x20) addr:0x02133ab0
_ZN12ActorUnkBEEHD0Ev kind:function(arm,size=0x28) addr:0x02133ad0
_ZN19ActorProfileUnkBEEHD1Ev kind:function(arm,size=0x14) addr:0x02133af8
_ZN19ActorProfileUnkCROW10GetProfileEv kind:function(arm,size=0xc) addr:0x02133b0c
_ZN19ActorProfileUnkCROW6CreateEv kind:function(arm,size=0x24) addr:0x02133b18
_ZN19ActorProfileUnkCROWC1Ev kind:function(arm,size=0x4c) addr:0x02133b3c
_ZN12ActorUnkCROWC1Ev kind:function(arm,size=0x1c8) addr:0x02133b88
_ZN12ActorUnkCROW19func_ov049_02133d50Ev kind:function(arm,size=0x14) addr:0x02133d50
_ZN12ActorUnkCROW19func_ov049_02133d64Ev kind:function(arm,size=0xc8) addr:0x02133d64
_ZN12ActorUnkCROWD0Ev kind:function(arm,size=0xd0) addr:0x02133e2c
_ZN12ActorUnkCROW19func_ov049_02133efcEv kind:function(arm,size=0xc0) addr:0x02133efc
_ZN12ActorUnkCROW19func_ov049_02133fbcEv kind:function(arm,size=0x64) addr:0x02133fbc
_ZN12ActorUnkCROW19func_ov049_02134020Ev kind:function(arm,size=0x4) addr:0x02134020
_ZN12ActorUnkCROW19func_ov049_02134024Ev kind:function(arm,size=0xd4) addr:0x02134024
_ZN12ActorUnkCROW19func_ov049_021340f8Ev kind:function(arm,size=0x3c) addr:0x021340f8
_ZN12ActorUnkCROW19func_ov049_02134134Ev kind:function(arm,size=0x48) addr:0x02134134
_ZN12ActorUnkCROW19func_ov049_0213417cEv kind:function(arm,size=0x2e4) addr:0x0213417c
_ZN12ActorUnkCROW19func_ov049_02134460Ev kind:function(arm,size=0x2d4) addr:0x02134460
_ZN12ActorUnkCROW19func_ov049_02134734Ev kind:function(arm,size=0xc) addr:0x02134734
_ZN12ActorUnkCROW19func_ov049_02134740Ev kind:function(arm,size=0x2c) addr:0x02134740
_ZN12ActorUnkCROW19func_ov049_0213476cEv kind:function(arm,size=0xe4) addr:0x0213476c
_ZN12ActorUnkCROW19func_ov049_02134850Ev kind:function(arm,size=0xa8) addr:0x02134850
_ZN12ActorUnkCROW19func_ov049_021348f8Ev kind:function(arm,size=0x80) addr:0x021348f8
_ZN12ActorUnkCROW19func_ov049_02134978Ev kind:function(arm,size=0xc4) addr:0x02134978
_ZN12ActorUnkCROW19func_ov049_02134a3cEv kind:function(arm,size=0x7c) addr:0x02134a3c
_ZN12ActorUnkCROW19func_ov049_02134ab8Ev kind:function(arm,size=0xc0) addr:0x02134ab8
_ZN12ActorUnkCROW19func_ov049_02134b78Ev kind:function(arm,size=0x360) addr:0x02134b78
_ZN12ActorUnkCROW19func_ov049_02134ed8Ev kind:function(arm,size=0x98) addr:0x02134ed8
_ZN12ActorUnkCROW19func_ov049_02134f70Ev kind:function(arm,size=0x74) addr:0x02134f70
_ZN12ActorUnkCROW19func_ov049_02134fe4Ev kind:function(arm,size=0x204) addr:0x02134fe4
_ZN12ActorUnkCROW19func_ov049_021351e8Ev kind:function(arm,size=0x114) addr:0x021351e8
_ZN12ActorUnkCROW19func_ov049_021352fcEv kind:function(arm,size=0x1bc) addr:0x021352fc
_ZN12ActorUnkCROW19func_ov049_021354b8Ev kind:function(arm,size=0x64) addr:0x021354b8
_ZN12ActorUnkCROW19func_ov049_0213551cEv kind:function(arm,size=0x28) addr:0x0213551c
_ZN12ActorUnkCROW19func_ov049_02135544Ev kind:function(arm,size=0x40) addr:0x02135544
_ZN12ActorUnkCROW19func_ov049_02135584Ev kind:function(arm,size=0xc0) addr:0x02135584
_ZN12ActorUnkCROW19func_ov049_02135644Ev kind:function(arm,size=0x7c) addr:0x02135644
_ZN12ActorUnkCROW19func_ov049_021356c0Ev kind:function(arm,size=0x70) addr:0x021356c0
_ZN12ActorUnkCROW19func_ov049_02135730Ev kind:function(arm,size=0x6c) addr:0x02135730
_ZN12ActorUnkCROW19func_ov049_0213579cEv kind:function(arm,size=0x58) addr:0x0213579c
_ZN12ActorUnkCROW19func_ov049_021357f4Ev kind:function(arm,size=0x48) addr:0x021357f4
_ZN12ActorUnkCROW19func_ov049_0213583cEv kind:function(arm,size=0x84) addr:0x0213583c
_ZN12ActorUnkCROW19func_ov049_021358c0Ev kind:function(arm,size=0x28) addr:0x021358c0
_ZN12ActorUnkCROWD1Ev kind:function(arm,size=0x1c) addr:0x021358e8
_ZN12ActorUnkCROW19func_ov049_02135904Ev kind:function(arm,size=0x24) addr:0x02135904
_ZN12ActorUnkCROW19func_ov049_02135928Ev kind:function(arm,size=0x2c) addr:0x02135928
_ZN12ActorUnkCROW19func_ov049_02135954Ev kind:function(arm,size=0xb8) addr:0x02135954
_ZN12ActorUnkCROW19func_ov049_02135a0cEv kind:function(arm,size=0xec) addr:0x02135a0c
_ZN12ActorUnkCROW19func_ov049_02135af8Ev kind:function(arm,size=0x24) addr:0x02135af8
_ZN12ActorUnkCROW19func_ov049_02135b1cEv kind:function(arm,size=0x2c) addr:0x02135b1c
_ZN12ActorUnkCROW19func_ov049_02135b48Ev kind:function(arm,size=0xc) addr:0x02135b48
_ZN12ActorUnkCROW19func_ov049_02135b54Ev kind:function(arm,size=0x1c) addr:0x02135b54
_ZN19ActorProfileUnkCROWD1Ev kind:function(arm,size=0x14) addr:0x02135b70
_ZN19ActorProfileUnkCRCH10GetProfileEv kind:function(arm,size=0xc) addr:0x02135b84
_ZN19ActorProfileUnkCRCH6CreateEv kind:function(arm,size=0x24) addr:0x02135b90
_ZN19ActorProfileUnkCRCHC1Ev kind:function(arm,size=0x28) addr:0x02135bb4
_ZN12ActorUnkCRCHC1Ev kind:function(arm,size=0x40) addr:0x02135bdc
_ZN12ActorUnkCRCH19func_ov049_02135c1cEv kind:function(arm,size=0x8) addr:0x02135c1c
_ZN12ActorUnkCRCH19func_ov049_02135c24Ev kind:function(arm,size=0x38) addr:0x02135c24
_ZN12ActorUnkCRCH19func_ov049_02135c5cEv kind:function(arm,size=0xe4) addr:0x02135c5c
_ZN12ActorUnkCRCH19func_ov049_02135d40Ev kind:function(arm,size=0xd8) addr:0x02135d40
_ZN12ActorUnkCRCH19func_ov049_02135e18Ev kind:function(arm,size=0x4) addr:0x02135e18
_ZN12ActorUnkCRCH19func_ov049_02135e1cEv kind:function(arm,size=0x8) addr:0x02135e1c
_ZN12ActorUnkCRCH19func_ov049_02135e24Ev kind:function(arm,size=0x10) addr:0x02135e24
_ZN12ActorUnkCRCH19func_ov049_02135e34Ev kind:function(arm,size=0x14) addr:0x02135e34
_ZN12ActorUnkCRCHD1Ev kind:function(arm,size=0x1c) addr:0x02135e48
_ZN12ActorUnkCRCHD0Ev kind:function(arm,size=0x24) addr:0x02135e64
_ZN19ActorProfileUnkCRCHD1Ev kind:function(arm,size=0x14) addr:0x02135e88
func_ov049_02135e9c kind:function(arm,size=0x10) addr:0x02135e9c
func_ov049_02135eac kind:function(arm,size=0x10) addr:0x02135eac
func_ov049_02135ebc kind:function(arm,size=0x20) addr:0x02135ebc
func_ov049_02135edc kind:function(arm,size=0x20) addr:0x02135edc
func_ov049_02135efc kind:function(arm,size=0x20) addr:0x02135efc
func_ov049_02135f1c kind:function(arm,size=0x20) addr:0x02135f1c
func_ov049_02135f3c kind:function(arm,size=0x20) addr:0x02135f3c
func_ov049_02135f5c kind:function(arm,size=0x20) addr:0x02135f5c
func_ov049_02135f7c kind:function(arm,size=0x20) addr:0x02135f7c
func_ov049_02135f9c kind:function(arm,size=0x20) addr:0x02135f9c
func_ov049_02135fbc kind:function(arm,size=0x20) addr:0x02135fbc
func_ov049_02135fdc kind:function(arm,size=0x3c) addr:0x02135fdc
func_ov049_02136018 kind:function(arm,size=0x3c) addr:0x02136018
func_ov049_02136054 kind:function(arm,size=0x3c) addr:0x02136054
func_ov049_02136090 kind:function(arm,size=0x20) addr:0x02136090
func_ov049_021360b0 kind:function(arm,size=0x20) addr:0x021360b0
func_ov049_021360d0 kind:function(arm,size=0x20) addr:0x021360d0
func_ov049_021360f0 kind:function(arm,size=0x20) addr:0x021360f0
func_ov049_02136110 kind:function(arm,size=0x20) addr:0x02136110
func_ov049_02136130 kind:function(arm,size=0x80) addr:0x02136130
func_ov049_021361b0 kind:function(arm,size=0x5c) addr:0x021361b0
_ZN19ActorProfileUnkPOST10GetProfileEv kind:function(arm,size=0xc) addr:0x0213620c
_ZN19ActorProfileUnkPOST6CreateEv kind:function(arm,size=0x24) addr:0x02136218
_ZN19ActorProfileUnkPOSTC1Ev kind:function(arm,size=0x68) addr:0x0213623c
_ZN12ActorUnkPOST19func_ov049_021362a4Ev kind:function(arm,size=0x1cc) addr:0x021362a4
_ZN12ActorUnkPOSTC1Ev kind:function(arm,size=0x16c) addr:0x02136470
_ZN12ActorUnkPOSTD1Ev kind:function(arm,size=0x50) addr:0x021365dc
_ZN12ActorUnkPOSTD0Ev kind:function(arm,size=0x58) addr:0x0213662c
_ZN12ActorUnkPOST19func_ov049_02136684Ev kind:function(arm,size=0xb4) addr:0x02136684
_ZN12ActorUnkPOST19func_ov049_02136738Ev kind:function(arm,size=0x64) addr:0x02136738
_ZN12ActorUnkPOST19func_ov049_0213679cEv kind:function(arm,size=0x4c) addr:0x0213679c
_ZN12ActorUnkPOST19func_ov049_021367e8Ev kind:function(arm,size=0x34) addr:0x021367e8
_ZN12ActorUnkPOST19func_ov049_0213681cEv kind:function(arm,size=0x14) addr:0x0213681c
_ZN12ActorUnkPOST19func_ov049_02136830Ev kind:function(arm,size=0x40) addr:0x02136830
_ZN12ActorUnkPOST19func_ov049_02136870Ev kind:function(arm,size=0x4) addr:0x02136870
_ZN12ActorUnkPOST19func_ov049_02136874Ev kind:function(arm,size=0x24) addr:0x02136874
_ZN12ActorUnkPOST19func_ov049_02136898Ev kind:function(arm,size=0xc) addr:0x02136898
_ZN12ActorUnkPOST19func_ov049_021368a4Ev kind:function(arm,size=0x84) addr:0x021368a4
_ZN12ActorUnkPOST19func_ov049_02136928Ev kind:function(arm,size=0x94) addr:0x02136928
_ZN12ActorUnkPOST19func_ov049_021369bcEv kind:function(arm,size=0x10c) addr:0x021369bc
_ZN12ActorUnkPOST19func_ov049_02136ac8Ev kind:function(arm,size=0x8c) addr:0x02136ac8
_ZN12ActorUnkPOST19func_ov049_02136b54Ev kind:function(arm,size=0xc4) addr:0x02136b54
_ZN12ActorUnkPOST19func_ov049_02136c18Ev kind:function(arm,size=0x28) addr:0x02136c18
_ZN12ActorUnkPOSTD2Ev kind:function(arm,size=0x20) addr:0x02136c40
_ZN19ActorProfileUnkPOSTD1Ev kind:function(arm,size=0x14) addr:0x02136c60
func_ov049_02136c74 kind:function(arm,size=0x20) addr:0x02136c74
func_ov049_02136c94 kind:function(arm,size=0x20) addr:0x02136c94
func_ov049_02136cb4 kind:function(arm,size=0x20) addr:0x02136cb4
func_ov049_02136cd4 kind:function(arm,size=0x20) addr:0x02136cd4
func_ov049_02136cf4 kind:function(arm,size=0x20) addr:0x02136cf4
func_ov049_02136d14 kind:function(arm,size=0x20) addr:0x02136d14
func_ov049_02136d34 kind:function(arm,size=0x20) addr:0x02136d34
func_ov049_02136d54 kind:function(arm,size=0x20) addr:0x02136d54
func_ov049_02136d74 kind:function(arm,size=0x20) addr:0x02136d74
func_ov049_02136d94 kind:function(arm,size=0x3c) addr:0x02136d94
func_ov049_02136dd0 kind:function(arm,size=0x3c) addr:0x02136dd0
func_ov049_02136e0c kind:function(arm,size=0x3c) addr:0x02136e0c
func_ov049_02136e48 kind:function(arm,size=0x20) addr:0x02136e48
func_ov049_02136e68 kind:function(arm,size=0x20) addr:0x02136e68
func_ov049_02136e88 kind:function(arm,size=0x20) addr:0x02136e88
func_ov049_02136ea8 kind:function(arm,size=0x20) addr:0x02136ea8
func_ov049_02136ec8 kind:function(arm,size=0x20) addr:0x02136ec8
func_ov049_02136ee8 kind:function(arm,size=0x80) addr:0x02136ee8
func_ov049_02136f68 kind:function(arm,size=0x2c) addr:0x02136f68
_ZN19ActorProfileUnkPTMN10GetProfileEv kind:function(arm,size=0xc) addr:0x02136f94
_ZN19ActorProfileUnkPTMN6CreateEv kind:function(arm,size=0x24) addr:0x02136fa0
_ZN19ActorProfileUnkPTMNC1Ev kind:function(arm,size=0x54) addr:0x02136fc4
_ZN12ActorUnkPTMNC1Ev kind:function(thumb,size=0x160) addr:0x02137018
_ZN12ActorUnkPTMN19func_ov049_02137178Ev kind:function(thumb,size=0xc) addr:0x02137178
_ZN12ActorUnkPTMN19func_ov049_02137184Ev kind:function(thumb,size=0xc) addr:0x02137184
_ZN12ActorUnkPTMN19func_ov049_02137190Ev kind:function(thumb,size=0xc) addr:0x02137190
_ZN12ActorUnkPTMN19func_ov049_0213719cEv kind:function(thumb,size=0x44) addr:0x0213719c
_ZN12ActorUnkPTMND0Ev kind:function(thumb,size=0x48) addr:0x021371e0
_ZN12ActorUnkPTMN19func_ov049_02137228Ev kind:function(arm,size=0x80) addr:0x02137228
_ZN12ActorUnkPTMN19func_ov049_021372a8Ev kind:function(arm,size=0x68) addr:0x021372a8
_ZN12ActorUnkPTMN19func_ov049_02137310Ev kind:function(arm,size=0x254) addr:0x02137310
_ZN12ActorUnkPTMN19func_ov049_02137564Ev kind:function(arm,size=0x14) addr:0x02137564
_ZN12ActorUnkPTMN19func_ov049_02137578Ev kind:function(arm,size=0x2c) addr:0x02137578
_ZN12ActorUnkPTMN19func_ov049_021375a4Ev kind:function(arm,size=0xc) addr:0x021375a4
_ZN12ActorUnkPTMN19func_ov049_021375b0Ev kind:function(arm,size=0x10c) addr:0x021375b0
_ZN12ActorUnkPTMN19func_ov049_021376bcEv kind:function(arm,size=0x3d0) addr:0x021376bc
_ZN12ActorUnkPTMN19func_ov049_02137a8cEv kind:function(arm,size=0x14) addr:0x02137a8c
_ZN12ActorUnkPTMN19func_ov049_02137aa0Ev kind:function(arm,size=0x4) addr:0x02137aa0
_ZN12ActorUnkPTMN19func_ov049_02137aa4Ev kind:function(arm,size=0x68) addr:0x02137aa4
_ZN12ActorUnkPTMN19func_ov049_02137b0cEv kind:function(arm,size=0x1c0) addr:0x02137b0c
_ZN12ActorUnkPTMN19func_ov049_02137cccEv kind:function(arm,size=0x14) addr:0x02137ccc
_ZN12ActorUnkPTMN19func_ov049_02137ce0Ev kind:function(arm,size=0x58) addr:0x02137ce0
_ZN12ActorUnkPTMN19func_ov049_02137d38Ev kind:function(arm,size=0xcc) addr:0x02137d38
_ZN12ActorUnkPTMN19func_ov049_02137e04Ev kind:function(arm,size=0xd0) addr:0x02137e04
_ZN12ActorUnkPTMN19func_ov049_02137ed4Ev kind:function(arm,size=0x170) addr:0x02137ed4
_ZN12ActorUnkPTMN19func_ov049_02138044Ev kind:function(arm,size=0xd0) addr:0x02138044
_ZN12ActorUnkPTMN19func_ov049_02138114Ev kind:function(arm,size=0x2c) addr:0x02138114
_ZN12ActorUnkPTMN19func_ov049_02138140Ev kind:function(arm,size=0x14) addr:0x02138140
_ZN12ActorUnkPTMN19func_ov049_02138154Ev kind:function(arm,size=0x14) addr:0x02138154
_ZN12ActorUnkPTMN19func_ov049_02138168Ev kind:function(arm,size=0x6c) addr:0x02138168
_ZN12ActorUnkPTMN19func_ov049_021381d4Ev kind:function(arm,size=0x18) addr:0x021381d4
_ZN12ActorUnkPTMN19func_ov049_021381ecEv kind:function(arm,size=0xa4) addr:0x021381ec
_ZN12ActorUnkPTMN19func_ov049_02138290Ev kind:function(arm,size=0x2c) addr:0x02138290
_ZN12ActorUnkPTMN19func_ov049_021382bcEv kind:function(arm,size=0x104) addr:0x021382bc
_ZN12ActorUnkPTMN19func_ov049_021383c0Ev kind:function(arm,size=0x54) addr:0x021383c0
_ZN12ActorUnkPTMN19func_ov049_02138414Ev kind:function(arm,size=0xb8) addr:0x02138414
_ZN12ActorUnkPTMN19func_ov049_021384ccEv kind:function(arm,size=0x10) addr:0x021384cc
_ZN12ActorUnkPTMN19func_ov049_021384dcEv kind:function(arm,size=0x1c) addr:0x021384dc
_ZN12ActorUnkPTMN19func_ov049_021384f8Ev kind:function(arm,size=0x1c) addr:0x021384f8
_ZN12ActorUnkPTMN19func_ov049_02138514Ev kind:function(arm,size=0x1c) addr:0x02138514
_ZN12ActorUnkPTMN19func_ov049_02138530Ev kind:function(arm,size=0x28) addr:0x02138530
_ZN12ActorUnkPTMND2Ev kind:function(arm,size=0x20) addr:0x02138558
_ZN19ActorProfileUnkPTMND1Ev kind:function(arm,size=0x14) addr:0x02138578
data_ov049_0213858c kind:data(any) addr:0x0213858c
data_ov049_02138590 kind:data(any) addr:0x02138590
data_ov049_02138594 kind:data(any) addr:0x02138594
data_ov049_02138598 kind:data(any) addr:0x02138598
data_ov049_0213859c kind:data(any) addr:0x0213859c
data_ov049_021385a4 kind:data(any) addr:0x021385a4
data_ov049_021385a8 kind:data(any) addr:0x021385a8
data_ov049_021385ac kind:data(any) addr:0x021385ac
data_ov049_021385b0 kind:data(any) addr:0x021385b0
__sinit_ActorUnkBEEE.cpp kind:function(arm,size=0x50) addr:0x021385bc
__sinit_ActorUnkBEEH.cpp kind:function(arm,size=0x50) addr:0x0213860c
__sinit_ActorUnkCROW.cpp kind:function(arm,size=0x50) addr:0x0213865c
__sinit_ActorUnkCRCH.cpp kind:function(arm,size=0x50) addr:0x021386ac
__sinit_ActorUnkPOST.cpp kind:function(arm,size=0x30c) addr:0x021386fc
__sinit_ActorUnkPTMN.cpp kind:function(arm,size=0x30c) addr:0x02138a08
.p__sinit_ActorUnkBEEE.cpp kind:data(word) addr:0x02138d14
.p__sinit_ActorUnkBEEH.cpp kind:data(word) addr:0x02138d18
.p__sinit_ActorUnkCROW.cpp kind:data(word) addr:0x02138d1c
.p__sinit_ActorUnkCRCH.cpp kind:data(word) addr:0x02138d20
.p__sinit_ActorUnkPOST.cpp kind:data(word) addr:0x02138d24
.p__sinit_ActorUnkPTMN.cpp kind:data(word) addr:0x02138d28
_ZTV19data_ov049_02138d40 kind:data(any) addr:0x02138d40
data_ov049_02138d64 kind:data(any) addr:0x02138d64
data_ov049_02138d94 kind:data(any) addr:0x02138d94
_ZTV19data_ov049_02138dc4 kind:data(any) addr:0x02138dc4
data_ov049_02138e24 kind:data(any) addr:0x02138e24
data_ov049_02138e28 kind:data(any) addr:0x02138e28
data_ov049_02138e58 kind:data(any) addr:0x02138e58
_ZTV19data_ov049_02138e88 kind:data(any) addr:0x02138e88
_ZTV19data_ov049_02138eac kind:data(any) addr:0x02138eac
data_ov049_02138f0c kind:data(any) addr:0x02138f0c
data_ov049_02138f10 kind:data(any) addr:0x02138f10
data_ov049_02138f28 kind:data(any) addr:0x02138f28
data_ov049_02138f48 kind:data(any) addr:0x02138f48
_ZTV19data_ov049_02138f5c kind:data(any) addr:0x02138f5c
data_ov049_02138f80 kind:data(any) addr:0x02138f80
data_ov049_02138fc8 kind:data(any) addr:0x02138fc8
data_ov049_02139018 kind:data(any) addr:0x02139018
_ZTV19data_ov049_0213905c kind:data(any) addr:0x0213905c
_ZTV19data_ov049_0213907c kind:data(any) addr:0x0213907c ambiguous
data_ov049_021390c4 kind:data(any) addr:0x021390c4
_ZTV19data_ov049_021390d0 kind:data(any) addr:0x021390d0
_ZTV19data_ov049_021390f4 kind:data(any) addr:0x021390f4
data_ov049_02139160 kind:data(any) addr:0x02139160
_ZTV19data_ov049_0213916c kind:data(any) addr:0x0213916c
data_ov049_02139198 kind:data(any) addr:0x02139198
data_ov049_021391b8 kind:data(any) addr:0x021391b8
data_ov049_02139210 kind:data(any) addr:0x02139210
data_ov049_02139268 kind:data(any) addr:0x02139268
_ZTV19data_ov049_021392c8 kind:data(any) addr:0x021392c8
_ZTV19data_ov049_0213938c kind:data(any) addr:0x0213938c
data_ov049_02139450 kind:data(any) addr:0x02139450
data_ov049_02139460 kind:data(any) addr:0x02139460
data_ov049_02139470 kind:data(any) addr:0x02139470
data_ov049_02139480 kind:data(any) addr:0x02139480
data_ov049_02139490 kind:data(any) addr:0x02139490
data_ov049_021394a0 kind:data(any) addr:0x021394a0
data_ov049_021394b0 kind:data(any) addr:0x021394b0
data_ov049_021394c0 kind:data(any) addr:0x021394c0
data_ov049_021394d0 kind:data(any) addr:0x021394d0
data_ov049_021394e0 kind:data(any) addr:0x021394e0
data_ov049_021394f0 kind:data(any) addr:0x021394f0
data_ov049_02139500 kind:data(any) addr:0x02139500
data_ov049_02139510 kind:data(any) addr:0x02139510
data_ov049_02139520 kind:data(any) addr:0x02139520
data_ov049_02139530 kind:data(any) addr:0x02139530
data_ov049_02139540 kind:data(any) addr:0x02139540
data_ov049_02139550 kind:data(any) addr:0x02139550
data_ov049_02139560 kind:data(any) addr:0x02139560
data_ov049_02139562 kind:data(any) addr:0x02139562
data_ov049_02139564 kind:data(any) addr:0x02139564
_ZTV19data_ov049_02139568 kind:data(any) addr:0x02139568
_ZTV19data_ov049_02139584 kind:data(any) addr:0x02139584
data_ov049_021395b0 kind:data(any) addr:0x021395b0
data_ov049_021395dc kind:data(any) addr:0x021395dc
data_ov049_02139620 kind:data(any) addr:0x02139620
data_ov049_02139690 kind:data(any) addr:0x02139690
data_ov049_02139700 kind:data(any) addr:0x02139700
data_ov049_02139718 kind:data(any) addr:0x02139718
data_ov049_02139760 kind:data(any) addr:0x02139760
data_ov049_02139778 kind:data(any) addr:0x02139778
data_ov049_02139790 kind:data(any) addr:0x02139790
_ZTV19data_ov049_021397a8 kind:data(any) addr:0x021397a8
_ZTV19data_ov049_0213986c kind:data(any) addr:0x0213986c
data_ov049_02139930 kind:data(any) addr:0x02139930
data_ov049_02139934 kind:data(any) addr:0x02139934
data_ov049_02139940 kind:data(any) addr:0x02139940
data_ov049_02139950 kind:data(any) addr:0x02139950
data_ov049_02139960 kind:data(any) addr:0x02139960
data_ov049_02139970 kind:data(any) addr:0x02139970
data_ov049_02139980 kind:data(any) addr:0x02139980
data_ov049_02139990 kind:data(any) addr:0x02139990
data_ov049_021399a0 kind:data(any) addr:0x021399a0
data_ov049_021399b0 kind:data(any) addr:0x021399b0
data_ov049_021399c0 kind:data(any) addr:0x021399c0
data_ov049_021399d0 kind:data(any) addr:0x021399d0
data_ov049_021399e0 kind:data(any) addr:0x021399e0
data_ov049_021399f0 kind:data(any) addr:0x021399f0
data_ov049_02139a00 kind:data(any) addr:0x02139a00
data_ov049_02139a10 kind:data(any) addr:0x02139a10
data_ov049_02139a20 kind:data(any) addr:0x02139a20
data_ov049_02139a30 kind:data(any) addr:0x02139a30
data_ov049_02139a40 kind:bss addr:0x02139a40
data_ov049_02139a44 kind:bss addr:0x02139a44
sActorProfileUnkBEEE kind:bss addr:0x02139a50
data_ov049_02139b28 kind:bss addr:0x02139b28
data_ov049_02139b2c kind:bss addr:0x02139b2c
sActorProfileUnkBEEH kind:bss addr:0x02139b38
data_ov049_02139c10 kind:bss addr:0x02139c10
data_ov049_02139c14 kind:bss addr:0x02139c14
sActorProfileUnkCROW kind:bss addr:0x02139c20
data_ov049_02139cf8 kind:bss addr:0x02139cf8
data_ov049_02139cfc kind:bss addr:0x02139cfc
sActorProfileUnkCRCH kind:bss addr:0x02139d08
data_ov049_02139d44 kind:bss addr:0x02139d44
data_ov049_02139d48 kind:bss addr:0x02139d48
sActorProfileUnkPOST kind:bss addr:0x02139d54
data_ov049_02139e2c kind:bss addr:0x02139e2c
data_ov049_02139e30 kind:bss addr:0x02139e30
sActorProfileUnkPTMN kind:bss addr:0x02139e3c
