_ZN19ActorProfileUnkGRCM10GetProfileEv kind:function(arm,size=0xc) addr:0x02150c00
_ZN19ActorProfileUnkGRCM6CreateEv kind:function(arm,size=0x24) addr:0x02150c0c
_ZN19ActorProfileUnkGRCMC1Ev kind:function(arm,size=0x28) addr:0x02150c30
_ZN12ActorUnkGRCM19func_ov085_02150c58Ev kind:function(arm,size=0x30) addr:0x02150c58
_ZN12ActorUnkGRCMC1Ev kind:function(arm,size=0x30) addr:0x02150c88
_ZN12ActorUnkGRCM19func_ov085_02150cb8Ev kind:function(arm,size=0x10) addr:0x02150cb8
_ZN12ActorUnkGRCM19func_ov085_02150cc8Ev kind:function(arm,size=0x19c) addr:0x02150cc8
_ZN12ActorUnkGRCM19func_ov085_02150e64Ev kind:function(arm,size=0x8) addr:0x02150e64
_ZN12ActorUnkGRCM19func_ov085_02150e6cEv kind:function(arm,size=0x44) addr:0x02150e6c
_ZN12ActorUnkGRCM19func_ov085_02150eb0Ev kind:function(arm,size=0x4c) addr:0x02150eb0
_ZN12ActorUnkGRCM19func_ov085_02150efcEv kind:function(arm,size=0x4c) addr:0x02150efc
_ZN12ActorUnkGRCMD1Ev kind:function(arm,size=0x14) addr:0x02150f48
_ZN12ActorUnkGRCMD0Ev kind:function(arm,size=0x1c) addr:0x02150f5c
_ZN19ActorProfileUnkGRCMD1Ev kind:function(arm,size=0x14) addr:0x02150f78
_ZN19ActorProfileUnkSRST10GetProfileEv kind:function(arm,size=0xc) addr:0x02150f8c
_ZN19ActorProfileUnkSRST6CreateEv kind:function(arm,size=0x24) addr:0x02150f98
_ZN19ActorProfileUnkSRSTC1Ev kind:function(arm,size=0x60) addr:0x02150fbc
_ZN12ActorUnkSRSTC1Ev kind:function(arm,size=0x1a8) addr:0x0215101c
_ZN12ActorUnkSRST19func_ov085_021511c4Ev kind:function(arm,size=0x14) addr:0x021511c4
_ZN12ActorUnkSRST19func_ov085_021511d8Ev kind:function(arm,size=0x14) addr:0x021511d8
_ZN12ActorUnkSRST19func_ov085_021511ecEv kind:function(arm,size=0x8) addr:0x021511ec
_ZN12ActorUnkSRST19func_ov085_021511f4Ev kind:function(arm,size=0xec) addr:0x021511f4
_ZN12ActorUnkSRST19func_ov085_021512e0Ev kind:function(arm,size=0x74) addr:0x021512e0
_ZN12ActorUnkSRST19func_ov085_02151354Ev kind:function(arm,size=0x110) addr:0x02151354
_ZN12ActorUnkSRST19func_ov085_02151464Ev kind:function(arm,size=0x64) addr:0x02151464
_ZN12ActorUnkSRST19func_ov085_021514c8Ev kind:function(arm,size=0x20) addr:0x021514c8
_ZN12ActorUnkSRST19func_ov085_021514e8Ev kind:function(arm,size=0x18) addr:0x021514e8
_ZN12ActorUnkSRST19func_ov085_02151500Ev kind:function(arm,size=0x148) addr:0x02151500
_ZN12ActorUnkSRST19func_ov085_02151648Ev kind:function(arm,size=0x118) addr:0x02151648
_ZN12ActorUnkSRST19func_ov085_02151760Ev kind:function(arm,size=0xcc) addr:0x02151760
_ZN12ActorUnkSRST19func_ov085_0215182cEv kind:function(arm,size=0x628) addr:0x0215182c
_ZN12ActorUnkSRST19func_ov085_02151e54Ev kind:function(arm,size=0x3ec) addr:0x02151e54
_ZN12ActorUnkSRST19func_ov085_02152240Ev kind:function(arm,size=0x3b4) addr:0x02152240
_ZN12ActorUnkSRST19func_ov085_021525f4Ev kind:function(arm,size=0x1ac) addr:0x021525f4
_ZN12ActorUnkSRST19func_ov085_021527a0Ev kind:function(arm,size=0x210) addr:0x021527a0
_ZN12ActorUnkSRST19func_ov085_021529b0Ev kind:function(arm,size=0xc0) addr:0x021529b0
_ZN12ActorUnkSRST19func_ov085_02152a70Ev kind:function(arm,size=0x58) addr:0x02152a70
_ZN12ActorUnkSRST19func_ov085_02152ac8Ev kind:function(arm,size=0xb0) addr:0x02152ac8
_ZN12ActorUnkSRST19func_ov085_02152b78Ev kind:function(arm,size=0x88) addr:0x02152b78
_ZN12ActorUnkSRST19func_ov085_02152c00Ev kind:function(arm,size=0xf8) addr:0x02152c00
_ZN12ActorUnkSRST19func_ov085_02152cf8Ev kind:function(arm,size=0x34) addr:0x02152cf8
_ZN12ActorUnkSRST19func_ov085_02152d2cEv kind:function(arm,size=0x1c) addr:0x02152d2c
_ZN12ActorUnkSRST19func_ov085_02152d48Ev kind:function(arm,size=0xd0) addr:0x02152d48
_ZN12ActorUnkSRST19func_ov085_02152e18Ev kind:function(arm,size=0x74) addr:0x02152e18
_ZN12ActorUnkSRST19func_ov085_02152e8cEv kind:function(arm,size=0x9c) addr:0x02152e8c
_ZN12ActorUnkSRST19func_ov085_02152f28Ev kind:function(arm,size=0x18) addr:0x02152f28
_ZN12ActorUnkSRST19func_ov085_02152f40Ev kind:function(arm,size=0x70) addr:0x02152f40
_ZN12ActorUnkSRST19func_ov085_02152fb0Ev kind:function(arm,size=0x24) addr:0x02152fb0
_ZN12ActorUnkSRST19func_ov085_02152fd4Ev kind:function(arm,size=0x70) addr:0x02152fd4
_ZN12ActorUnkSRST19func_ov085_02153044Ev kind:function(arm,size=0x3c) addr:0x02153044
_ZN12ActorUnkSRST19func_ov085_02153080Ev kind:function(arm,size=0x3c) addr:0x02153080
_ZN12ActorUnkSRST19func_ov085_021530bcEv kind:function(arm,size=0x24) addr:0x021530bc
_ZN12ActorUnkSRSTD0Ev kind:function(arm,size=0x1c) addr:0x021530e0
_ZN12ActorUnkSRST19func_ov085_021530fcEv kind:function(arm,size=0x1c) addr:0x021530fc
_ZN12ActorUnkSRSTD1Ev kind:function(arm,size=0x40) addr:0x02153118
_ZN12ActorUnkSRST19func_ov085_02153158Ev kind:function(arm,size=0x48) addr:0x02153158
_ZN19ActorProfileUnkSRSTD1Ev kind:function(arm,size=0x14) addr:0x021531a0
_ZN23MapObjectProfileUnkCTPT10GetProfileEv kind:function(arm,size=0xc) addr:0x021531b4
_ZN23MapObjectProfileUnkCTPT6CreateEv kind:function(arm,size=0x24) addr:0x021531c0
_ZN23MapObjectProfileUnkCTPTC1Ev kind:function(arm,size=0x7c) addr:0x021531e4
_ZN16MapObjectUnkCTPTC1Ev kind:function(arm,size=0x128) addr:0x02153260
_ZN16MapObjectUnkCTPT19func_ov085_02153388Ev kind:function(arm,size=0x14) addr:0x02153388
_ZN16MapObjectUnkCTPT19func_ov085_0215339cEv kind:function(arm,size=0x14) addr:0x0215339c
_ZN16MapObjectUnkCTPT19func_ov085_021533b0Ev kind:function(arm,size=0x254) addr:0x021533b0
_ZN16MapObjectUnkCTPT19func_ov085_02153604Ev kind:function(arm,size=0x2c8) addr:0x02153604
_ZN16MapObjectUnkCTPT19func_ov085_021538ccEv kind:function(arm,size=0x140) addr:0x021538cc
_ZN16MapObjectUnkCTPT19func_ov085_02153a0cEv kind:function(arm,size=0x16c) addr:0x02153a0c
_ZN16MapObjectUnkCTPT19func_ov085_02153b78Ev kind:function(arm,size=0x90) addr:0x02153b78
_ZN16MapObjectUnkCTPT19func_ov085_02153c08Ev kind:function(arm,size=0x44) addr:0x02153c08
_ZN16MapObjectUnkCTPT19func_ov085_02153c4cEv kind:function(arm,size=0x28) addr:0x02153c4c
_ZN16MapObjectUnkCTPT19func_ov085_02153c74Ev kind:function(arm,size=0x70) addr:0x02153c74
_ZN16MapObjectUnkCTPT19func_ov085_02153ce4Ev kind:function(arm,size=0x70) addr:0x02153ce4
_ZN16MapObjectUnkCTPTD0Ev kind:function(arm,size=0x1c) addr:0x02153d54
_ZN16MapObjectUnkCTPT19func_ov085_02153d70Ev kind:function(arm,size=0x1c) addr:0x02153d70
_ZN16MapObjectUnkCTPTD1Ev kind:function(arm,size=0x38) addr:0x02153d8c
_ZN16MapObjectUnkCTPT19func_ov085_02153dc4Ev kind:function(arm,size=0x40) addr:0x02153dc4
_ZN23MapObjectProfileUnkCTPTD1Ev kind:function(arm,size=0x14) addr:0x02153e04
data_ov085_02153e18 kind:data(any) addr:0x02153e18
data_ov085_02153e20 kind:data(any) addr:0x02153e20
data_ov085_02153e30 kind:data(any) addr:0x02153e30
data_ov085_02153e38 kind:data(any) addr:0x02153e38 ambiguous
data_ov085_02153e40 kind:data(any) addr:0x02153e40
data_ov085_02153e50 kind:data(any) addr:0x02153e50
data_ov085_02153e5c kind:data(any) addr:0x02153e5c
data_ov085_02153e68 kind:data(any) addr:0x02153e68
data_ov085_02153e74 kind:data(any) addr:0x02153e74
data_ov085_02153e80 kind:data(any) addr:0x02153e80
data_ov085_02153e8c kind:data(any) addr:0x02153e8c
data_ov085_02153e9c kind:data(any) addr:0x02153e9c
data_ov085_02153eac kind:data(any) addr:0x02153eac
__sinit_ActorUnkGRCM.cpp kind:function(arm,size=0x50) addr:0x02153ebc
__sinit_ActorUnkSRST.cpp kind:function(arm,size=0x50) addr:0x02153f0c
__sinit_MapObjectUnkCTPT.cpp kind:function(arm,size=0x50) addr:0x02153f5c
.p__sinit_ActorUnkGRCM.cpp kind:data(word) addr:0x02153fac
.p__sinit_ActorUnkSRST.cpp kind:data(word) addr:0x02153fb0
.p__sinit_MapObjectUnkCTPT.cpp kind:data(word) addr:0x02153fb4
_ZTV19data_ov085_02153fc0 kind:data(any) addr:0x02153fc0
_ZTV19data_ov085_02153fe4 kind:data(any) addr:0x02153fe4
data_ov085_0215404c kind:data(any) addr:0x0215404c
data_ov085_02154068 kind:data(any) addr:0x02154068
_ZTV19data_ov085_0215407c kind:data(any) addr:0x0215407c
_ZTV19data_ov085_021540a0 kind:data(any) addr:0x021540a0
data_ov085_02154108 kind:data(any) addr:0x02154108
data_ov085_0215411c kind:data(any) addr:0x0215411c
data_ov085_02154130 kind:data(any) addr:0x02154130
data_ov085_0215414c kind:data(any) addr:0x0215414c
data_ov085_02154168 kind:data(any) addr:0x02154168
data_ov085_02154190 kind:data(any) addr:0x02154190
data_ov085_021541b0 kind:data(any) addr:0x021541b0 ambiguous
data_ov085_021541b8 kind:data(any) addr:0x021541b8
data_ov085_021541e0 kind:data(any) addr:0x021541e0 ambiguous
data_ov085_021541e4 kind:data(any) addr:0x021541e4 ambiguous
_ZGVN15ProfileInstanceI19ActorProfileUnkGRCME8sProfileE kind:bss addr:0x02154200
@13828 kind:bss addr:0x02154204
_ZN15ProfileInstanceI19ActorProfileUnkGRCME8sProfileE kind:bss addr:0x02154210
_ZGVN15ProfileInstanceI19ActorProfileUnkSRSTE8sProfileE kind:bss addr:0x0215424c
@13834 kind:bss addr:0x02154250
_ZN15ProfileInstanceI19ActorProfileUnkSRSTE8sProfileE kind:bss addr:0x0215425c
_ZGVN15ProfileInstanceI23MapObjectProfileUnkCTPTE8sProfileE kind:bss addr:0x02154334
@13283 kind:bss addr:0x02154338
_ZN15ProfileInstanceI23MapObjectProfileUnkCTPTE8sProfileE kind:bss addr:0x02154344
data_ov085_02154364 kind:bss addr:0x02154364
data_ov085_0215442c kind:bss addr:0x0215442c ambiguous
