func_ov091_021658a0 kind:function(arm,size=0x6c) addr:0x021658a0
func_ov091_0216590c kind:function(arm,size=0x8) addr:0x0216590c
func_ov091_02165914 kind:function(arm,size=0x60) addr:0x02165914
func_ov091_02165974 kind:function(arm,size=0x9c) addr:0x02165974
func_ov091_02165a10 kind:function(arm,size=0x2c) addr:0x02165a10
func_ov091_02165a3c kind:function(arm,size=0xc) addr:0x02165a3c
func_ov091_02165a48 kind:function(arm,size=0x34) addr:0x02165a48
func_ov091_02165a7c kind:function(arm,size=0x2ec) addr:0x02165a7c
func_ov091_02165d68 kind:function(arm,size=0x4c) addr:0x02165d68
func_ov091_02165db4 kind:function(arm,size=0x68) addr:0x02165db4
func_ov091_02165e1c kind:function(arm,size=0xb4) addr:0x02165e1c
func_ov091_02165ed0 kind:function(arm,size=0x38) addr:0x02165ed0
func_ov091_02165f08 kind:function(arm,size=0x8) addr:0x02165f08
func_ov091_02165f10 kind:function(arm,size=0x88) addr:0x02165f10
func_ov091_02165f98 kind:function(arm,size=0x6c) addr:0x02165f98
_ZN19func_ov091_02166004D1Ev kind:function(arm,size=0x14) addr:0x02166004
_ZN19func_ov091_02166018D0Ev kind:function(arm,size=0x1c) addr:0x02166018
func_ov091_02166034 kind:function(arm,size=0xb0) addr:0x02166034
func_ov091_021660e4 kind:function(arm,size=0x8) addr:0x021660e4
func_ov091_021660ec kind:function(arm,size=0x94) addr:0x021660ec
func_ov091_02166180 kind:function(arm,size=0x9c) addr:0x02166180
func_ov091_0216621c kind:function(arm,size=0x2c) addr:0x0216621c
func_ov091_02166248 kind:function(arm,size=0xc) addr:0x02166248
func_ov091_02166254 kind:function(arm,size=0x34) addr:0x02166254
func_ov091_02166288 kind:function(arm,size=0x2e0) addr:0x02166288
func_ov091_02166568 kind:function(arm,size=0x28) addr:0x02166568
func_ov091_02166590 kind:function(arm,size=0xe0) addr:0x02166590
func_ov091_02166670 kind:function(arm,size=0xb4) addr:0x02166670
func_ov091_02166724 kind:function(arm,size=0x38) addr:0x02166724
func_ov091_0216675c kind:function(arm,size=0x8) addr:0x0216675c
func_ov091_02166764 kind:function(arm,size=0x84) addr:0x02166764
func_ov091_021667e8 kind:function(arm,size=0x38) addr:0x021667e8
_ZN19func_ov091_02166820D1Ev kind:function(arm,size=0x14) addr:0x02166820
_ZN19func_ov091_02166834D0Ev kind:function(arm,size=0x1c) addr:0x02166834
func_ov091_02166850 kind:function(arm,size=0x88) addr:0x02166850
func_ov091_021668d8 kind:function(arm,size=0x134) addr:0x021668d8
func_ov091_02166a0c kind:function(arm,size=0x94) addr:0x02166a0c
func_ov091_02166aa0 kind:function(arm,size=0x268) addr:0x02166aa0
func_ov091_02166d08 kind:function(arm,size=0xcc) addr:0x02166d08
func_ov091_02166dd4 kind:function(arm,size=0xe8) addr:0x02166dd4
func_ov091_02166ebc kind:function(arm,size=0x18c) addr:0x02166ebc
func_ov091_02167048 kind:function(arm,size=0x60) addr:0x02167048
func_ov091_021670a8 kind:function(arm,size=0x4) addr:0x021670a8
func_ov091_021670ac kind:function(arm,size=0x238) addr:0x021670ac
func_ov091_021672e4 kind:function(arm,size=0x194) addr:0x021672e4
func_ov091_02167478 kind:function(arm,size=0x14c) addr:0x02167478
func_ov091_021675c4 kind:function(arm,size=0x120) addr:0x021675c4
func_ov091_021676e4 kind:function(arm,size=0x138) addr:0x021676e4
func_ov091_0216781c kind:function(arm,size=0x178) addr:0x0216781c
func_ov091_02167994 kind:function(arm,size=0x10) addr:0x02167994
_ZN23MapObjectProfileUnkFRSH10GetProfileEv kind:function(arm,size=0xc) addr:0x021679a4
_ZN23MapObjectProfileUnkFRSH6CreateEv kind:function(arm,size=0x24) addr:0x021679b0
_ZN23MapObjectProfileUnkFRSHC1Ev kind:function(arm,size=0x38) addr:0x021679d4
_ZN16MapObjectUnkFRSHC1Ev kind:function(arm,size=0x84) addr:0x02167a0c
_ZN16MapObjectUnkFRSH19func_ov091_02167a90Ev kind:function(arm,size=0x44) addr:0x02167a90
_ZN16MapObjectUnkFRSHD1Ev kind:function(arm,size=0x14) addr:0x02167ad4
_ZN16MapObjectUnkFRSHD0Ev kind:function(arm,size=0x1c) addr:0x02167ae8
_ZN23MapObjectProfileUnkFRSHD1Ev kind:function(arm,size=0x14) addr:0x02167b04
_ZN23MapObjectProfileUnkMZFX10GetProfileEv kind:function(arm,size=0xc) addr:0x02167b18
_ZN23MapObjectProfileUnkMZFX6CreateEv kind:function(arm,size=0x24) addr:0x02167b24
_ZN23MapObjectProfileUnkMZFXC1Ev kind:function(arm,size=0x2c) addr:0x02167b48
_ZN16MapObjectUnkMZFXC1Ev kind:function(arm,size=0x88) addr:0x02167b74
_ZN16MapObjectUnkMZFX19func_ov091_02167bfcEv kind:function(arm,size=0x8) addr:0x02167bfc
_ZN16MapObjectUnkMZFX19func_ov091_02167c04Ev kind:function(arm,size=0x60) addr:0x02167c04
_ZN16MapObjectUnkMZFXD1Ev kind:function(arm,size=0x20) addr:0x02167c64
_ZN16MapObjectUnkMZFXD0Ev kind:function(arm,size=0x28) addr:0x02167c84
_ZN23MapObjectProfileUnkMZFXD1Ev kind:function(arm,size=0x14) addr:0x02167cac
_ZN23MapObjectProfileUnkMZTR10GetProfileEv kind:function(arm,size=0xc) addr:0x02167cc0
_ZN23MapObjectProfileUnkMZTR6CreateEv kind:function(arm,size=0x24) addr:0x02167ccc
_ZN23MapObjectProfileUnkMZTRC1Ev kind:function(arm,size=0x2c) addr:0x02167cf0
_ZN16MapObjectUnkMZTRC1Ev kind:function(arm,size=0x3c) addr:0x02167d1c
_ZN16MapObjectUnkMZTR19func_ov091_02167d58Ev kind:function(arm,size=0xe4) addr:0x02167d58
_ZN16MapObjectUnkMZTR19func_ov091_02167e3cEv kind:function(arm,size=0x118) addr:0x02167e3c
_ZN16MapObjectUnkMZTR19func_ov091_02167f54Ev kind:function(arm,size=0x5c) addr:0x02167f54
_ZN16MapObjectUnkMZTRD1Ev kind:function(arm,size=0x20) addr:0x02167fb0
_ZN16MapObjectUnkMZTRD0Ev kind:function(arm,size=0x28) addr:0x02167fd0
_ZN23MapObjectProfileUnkMZTRD1Ev kind:function(arm,size=0x14) addr:0x02167ff8
_ZN23MapObjectProfileUnkTMSB10GetProfileEv kind:function(arm,size=0xc) addr:0x0216800c
_ZN23MapObjectProfileUnkTMSB6CreateEv kind:function(arm,size=0x24) addr:0x02168018
_ZN23MapObjectProfileUnkTMSBC1Ev kind:function(arm,size=0x40) addr:0x0216803c
_ZN16MapObjectUnkTMSBC1Ev kind:function(arm,size=0xbc) addr:0x0216807c
_ZN16MapObjectUnkTMSB19func_ov091_02168138Ev kind:function(arm,size=0x14) addr:0x02168138
_ZN16MapObjectUnkTMSB19func_ov091_0216814cEv kind:function(arm,size=0x1f4) addr:0x0216814c
_ZN16MapObjectUnkTMSB19func_ov091_02168340Ev kind:function(arm,size=0xe8) addr:0x02168340
_ZN16MapObjectUnkTMSB19func_ov091_02168428Ev kind:function(arm,size=0x8) addr:0x02168428
_ZN16MapObjectUnkTMSB19func_ov091_02168430Ev kind:function(arm,size=0x8) addr:0x02168430
_ZN16MapObjectUnkTMSB19func_ov091_02168438Ev kind:function(arm,size=0x4) addr:0x02168438
_ZN16MapObjectUnkTMSB19func_ov091_0216843cEv kind:function(arm,size=0x4) addr:0x0216843c
_ZN16MapObjectUnkTMSB19func_ov091_02168440Ev kind:function(arm,size=0x60) addr:0x02168440
_ZN16MapObjectUnkTMSB19func_ov091_021684a0Ev kind:function(arm,size=0x20) addr:0x021684a0
_ZN16MapObjectUnkTMSB19func_ov091_021684c0Ev kind:function(arm,size=0x20) addr:0x021684c0
_ZN16MapObjectUnkTMSB19func_ov091_021684e0Ev kind:function(arm,size=0x20) addr:0x021684e0
_ZN16MapObjectUnkTMSBD0Ev kind:function(arm,size=0x1c) addr:0x02168500
_ZN16MapObjectUnkTMSBD1Ev kind:function(arm,size=0x28) addr:0x0216851c
_ZN16MapObjectUnkTMSB19func_ov091_02168544Ev kind:function(arm,size=0x30) addr:0x02168544
_ZN16MapObjectUnkTMSB19func_ov091_02168574Ev kind:function(arm,size=0x28) addr:0x02168574
_ZN16MapObjectUnkTMSBD2Ev kind:function(arm,size=0x20) addr:0x0216859c
_ZN23MapObjectProfileUnkTMSBD1Ev kind:function(arm,size=0x14) addr:0x021685bc
_ZN23MapObjectProfileUnkETUS10GetProfileEv kind:function(arm,size=0xc) addr:0x021685d0
_ZN23MapObjectProfileUnkETUS6CreateEv kind:function(arm,size=0x24) addr:0x021685dc
_ZN23MapObjectProfileUnkETUSC1Ev kind:function(arm,size=0x2c) addr:0x02168600
_ZN16MapObjectUnkETUSC1Ev kind:function(arm,size=0x78) addr:0x0216862c
_ZN16MapObjectUnkETUS19func_ov091_021686a4Ev kind:function(arm,size=0x88) addr:0x021686a4
_ZN16MapObjectUnkETUS19func_ov091_0216872cEv kind:function(arm,size=0x4) addr:0x0216872c
_ZN16MapObjectUnkETUS19func_ov091_02168730Ev kind:function(arm,size=0x14) addr:0x02168730
_ZN16MapObjectUnkETUS19func_ov091_02168744Ev kind:function(arm,size=0x40) addr:0x02168744
_ZN16MapObjectUnkETUS19func_ov091_02168784Ev kind:function(arm,size=0x8) addr:0x02168784
_ZN16MapObjectUnkETUSD1Ev kind:function(arm,size=0x38) addr:0x0216878c
_ZN16MapObjectUnkETUSD0Ev kind:function(arm,size=0x40) addr:0x021687c4
_ZN23MapObjectProfileUnkETUSD1Ev kind:function(arm,size=0x14) addr:0x02168804
_ZN23MapObjectProfileUnkBOGN10GetProfileEv kind:function(arm,size=0xc) addr:0x02168818
_ZN23MapObjectProfileUnkBOGN6CreateEv kind:function(arm,size=0x24) addr:0x02168824
_ZN23MapObjectProfileUnkBOGNC1Ev kind:function(arm,size=0x58) addr:0x02168848
_ZN16MapObjectUnkBOGNC1Ev kind:function(arm,size=0x40) addr:0x021688a0
_ZN16MapObjectUnkBOGN19func_ov091_021688e0Ev kind:function(arm,size=0x30) addr:0x021688e0
_ZN16MapObjectUnkBOGN19func_ov091_02168910Ev kind:function(arm,size=0x84) addr:0x02168910
_ZN16MapObjectUnkBOGN19func_ov091_02168994Ev kind:function(arm,size=0x230) addr:0x02168994
_ZN16MapObjectUnkBOGND1Ev kind:function(arm,size=0x14) addr:0x02168bc4
_ZN16MapObjectUnkBOGND0Ev kind:function(arm,size=0x1c) addr:0x02168bd8
_ZN23MapObjectProfileUnkBOGND1Ev kind:function(arm,size=0x14) addr:0x02168bf4
_ZN19ActorProfileUnkMZCT10GetProfileEv kind:function(arm,size=0xc) addr:0x02168c08
_ZN19ActorProfileUnkMZCT6CreateEv kind:function(arm,size=0x24) addr:0x02168c14
_ZN19ActorProfileUnkMZCTC1Ev kind:function(arm,size=0x28) addr:0x02168c38
_ZN12ActorUnkMZCTC1Ev kind:function(arm,size=0x6c) addr:0x02168c60
_ZN12ActorUnkMZCT19func_ov091_02168cccEv kind:function(arm,size=0x48) addr:0x02168ccc
_ZN12ActorUnkMZCT19func_ov091_02168d14Ev kind:function(arm,size=0x4c) addr:0x02168d14
_ZN12ActorUnkMZCT19func_ov091_02168d60Ev kind:function(arm,size=0x74) addr:0x02168d60
_ZN12ActorUnkMZCT19func_ov091_02168dd4Ev kind:function(arm,size=0x3c) addr:0x02168dd4
_ZN12ActorUnkMZCT19func_ov091_02168e10Ev kind:function(arm,size=0x60) addr:0x02168e10
_ZN12ActorUnkMZCT19func_ov091_02168e70Ev kind:function(arm,size=0x20c) addr:0x02168e70
_ZN12ActorUnkMZCT19func_ov091_0216907cEv kind:function(arm,size=0x498) addr:0x0216907c
_ZN12ActorUnkMZCT19func_ov091_02169514Ev kind:function(arm,size=0x104) addr:0x02169514
_ZN12ActorUnkMZCT19func_ov091_02169618Ev kind:function(arm,size=0x120) addr:0x02169618
_ZN12ActorUnkMZCT19func_ov091_02169738Ev kind:function(arm,size=0x50) addr:0x02169738
_ZN12ActorUnkMZCT19func_ov091_02169788Ev kind:function(arm,size=0x50) addr:0x02169788
_ZN12ActorUnkMZCT19func_ov091_021697d8Ev kind:function(arm,size=0x64) addr:0x021697d8
_ZN12ActorUnkMZCT19func_ov091_0216983cEv kind:function(arm,size=0x2c) addr:0x0216983c
_ZN12ActorUnkMZCT19func_ov091_02169868Ev kind:function(arm,size=0x1c) addr:0x02169868
_ZN12ActorUnkMZCT19func_ov091_02169884Ev kind:function(arm,size=0x2c) addr:0x02169884
_ZN12ActorUnkMZCT19func_ov091_021698b0Ev kind:function(arm,size=0x1c) addr:0x021698b0
_ZN12ActorUnkMZCT19func_ov091_021698ccEv kind:function(arm,size=0x190) addr:0x021698cc
_ZN12ActorUnkMZCT19func_ov091_02169a5cEv kind:function(arm,size=0x34) addr:0x02169a5c
_ZN12ActorUnkMZCT19func_ov091_02169a90Ev kind:function(arm,size=0x4) addr:0x02169a90
_ZN12ActorUnkMZCT19func_ov091_02169a94Ev kind:function(arm,size=0x34) addr:0x02169a94
_ZN12ActorUnkMZCT19func_ov091_02169ac8Ev kind:function(arm,size=0x4) addr:0x02169ac8
_ZN12ActorUnkMZCT19func_ov091_02169accEv kind:function(arm,size=0xc4) addr:0x02169acc
_ZN12ActorUnkMZCT19func_ov091_02169b90Ev kind:function(arm,size=0x4) addr:0x02169b90
_ZN12ActorUnkMZCTD1Ev kind:function(arm,size=0x28) addr:0x02169b94
_ZN12ActorUnkMZCTD0Ev kind:function(arm,size=0x30) addr:0x02169bbc
_ZN19ActorProfileUnkMZCTD1Ev kind:function(arm,size=0x14) addr:0x02169bec
_ZN19ActorProfileUnkSMCT10GetProfileEv kind:function(arm,size=0xc) addr:0x02169c00
_ZN19ActorProfileUnkSMCT6CreateEv kind:function(arm,size=0x24) addr:0x02169c0c
_ZN19ActorProfileUnkSMCTC1Ev kind:function(arm,size=0x28) addr:0x02169c30
_ZN12ActorUnkSMCTC1Ev kind:function(arm,size=0x44) addr:0x02169c58
_ZN12ActorUnkSMCT19func_ov091_02169c9cEv kind:function(arm,size=0x3c) addr:0x02169c9c
_ZN12ActorUnkSMCT19func_ov091_02169cd8Ev kind:function(arm,size=0xa8) addr:0x02169cd8
_ZN12ActorUnkSMCTD1Ev kind:function(arm,size=0x20) addr:0x02169d80
_ZN12ActorUnkSMCTD0Ev kind:function(arm,size=0x28) addr:0x02169da0
_ZN19ActorProfileUnkSMCTD1Ev kind:function(arm,size=0x14) addr:0x02169dc8
_ZN19ActorProfileUnkSTCT10GetProfileEv kind:function(arm,size=0xc) addr:0x02169ddc
_ZN19ActorProfileUnkSTCT6CreateEv kind:function(arm,size=0x24) addr:0x02169de8
_ZN19ActorProfileUnkSTCTC1Ev kind:function(arm,size=0x28) addr:0x02169e0c
_ZN12ActorUnkSTCTC1Ev kind:function(arm,size=0x74) addr:0x02169e34
_ZN12ActorUnkSTCT19func_ov091_02169ea8Ev kind:function(arm,size=0x44) addr:0x02169ea8
_ZN12ActorUnkSTCT19func_ov091_02169eecEv kind:function(arm,size=0x30) addr:0x02169eec
_ZN12ActorUnkSTCTD1Ev kind:function(arm,size=0x20) addr:0x02169f1c
_ZN12ActorUnkSTCTD0Ev kind:function(arm,size=0x28) addr:0x02169f3c
_ZN19ActorProfileUnkSTCTD1Ev kind:function(arm,size=0x14) addr:0x02169f64
_ZN19ActorProfileUnkCTFS10GetProfileEv kind:function(arm,size=0xc) addr:0x02169f78
_ZN19ActorProfileUnkCTFS6CreateEv kind:function(arm,size=0x24) addr:0x02169f84
_ZN19ActorProfileUnkCTFSC1Ev kind:function(arm,size=0x68) addr:0x02169fa8
_ZN12ActorUnkCTFSC1Ev kind:function(arm,size=0x184) addr:0x0216a010
_ZN12ActorUnkCTFS19func_ov091_0216a194Ev kind:function(arm,size=0x14) addr:0x0216a194
_ZN12ActorUnkCTFS19func_ov091_0216a1a8Ev kind:function(arm,size=0x30) addr:0x0216a1a8
_ZN12ActorUnkCTFS19func_ov091_0216a1d8Ev kind:function(arm,size=0x158) addr:0x0216a1d8
_ZN12ActorUnkCTFS19func_ov091_0216a330Ev kind:function(arm,size=0x14) addr:0x0216a330
_ZN12ActorUnkCTFS19func_ov091_0216a344Ev kind:function(arm,size=0xa0) addr:0x0216a344
_ZN12ActorUnkCTFS19func_ov091_0216a3e4Ev kind:function(arm,size=0xc0) addr:0x0216a3e4
_ZN12ActorUnkCTFS19func_ov091_0216a4a4Ev kind:function(arm,size=0xe0) addr:0x0216a4a4
_ZN12ActorUnkCTFS19func_ov091_0216a584Ev kind:function(arm,size=0x84) addr:0x0216a584
_ZN12ActorUnkCTFS19func_ov091_0216a608Ev kind:function(arm,size=0x30) addr:0x0216a608
_ZN12ActorUnkCTFS19func_ov091_0216a638Ev kind:function(arm,size=0x6c) addr:0x0216a638
_ZN12ActorUnkCTFS19func_ov091_0216a6a4Ev kind:function(arm,size=0xb8) addr:0x0216a6a4
_ZN12ActorUnkCTFS19func_ov091_0216a75cEv kind:function(arm,size=0x10c) addr:0x0216a75c
_ZN12ActorUnkCTFS19func_ov091_0216a868Ev kind:function(arm,size=0x14) addr:0x0216a868
_ZN12ActorUnkCTFS19func_ov091_0216a87cEv kind:function(arm,size=0x2b0) addr:0x0216a87c
_ZN12ActorUnkCTFS19func_ov091_0216ab2cEv kind:function(arm,size=0x14) addr:0x0216ab2c
_ZN12ActorUnkCTFS19func_ov091_0216ab40Ev kind:function(arm,size=0x28c) addr:0x0216ab40
_ZN12ActorUnkCTFS19func_ov091_0216adccEv kind:function(arm,size=0xa8) addr:0x0216adcc
_ZN12ActorUnkCTFS19func_ov091_0216ae74Ev kind:function(arm,size=0xdc) addr:0x0216ae74
_ZN12ActorUnkCTFS19func_ov091_0216af50Ev kind:function(arm,size=0xcc) addr:0x0216af50
_ZN12ActorUnkCTFS19func_ov091_0216b01cEv kind:function(arm,size=0xe4) addr:0x0216b01c
_ZN12ActorUnkCTFS19func_ov091_0216b100Ev kind:function(arm,size=0x44) addr:0x0216b100
_ZN12ActorUnkCTFS19func_ov091_0216b144Ev kind:function(arm,size=0x84) addr:0x0216b144
_ZN12ActorUnkCTFS19func_ov091_0216b1c8Ev kind:function(arm,size=0xc) addr:0x0216b1c8
_ZN12ActorUnkCTFS19func_ov091_0216b1d4Ev kind:function(arm,size=0x54) addr:0x0216b1d4
_ZN12ActorUnkCTFS19func_ov091_0216b228Ev kind:function(arm,size=0x28) addr:0x0216b228
_ZN12ActorUnkCTFS19func_ov091_0216b250Ev kind:function(arm,size=0x24) addr:0x0216b250
_ZN12ActorUnkCTFS19func_ov091_0216b274Ev kind:function(arm,size=0x2c) addr:0x0216b274
_ZN12ActorUnkCTFSD0Ev kind:function(arm,size=0x1c) addr:0x0216b2a0
_ZN12ActorUnkCTFSD1Ev kind:function(arm,size=0x28) addr:0x0216b2bc
_ZN12ActorUnkCTFS19func_ov091_0216b2e4Ev kind:function(arm,size=0x30) addr:0x0216b2e4
_ZN19ActorProfileUnkCTFSD1Ev kind:function(arm,size=0x14) addr:0x0216b314
_ZN19ActorProfileUnkNLTR10GetProfileEv kind:function(arm,size=0xc) addr:0x0216b328
_ZN19ActorProfileUnkNLTR6CreateEv kind:function(arm,size=0x24) addr:0x0216b334
_ZN19ActorProfileUnkNLTRC1Ev kind:function(arm,size=0x64) addr:0x0216b358
_ZN12ActorUnkNLTR19func_ov091_0216b3bcEv kind:function(arm,size=0x10) addr:0x0216b3bc
_ZN12ActorUnkNLTRC1Ev kind:function(arm,size=0x10c) addr:0x0216b3cc
_ZN12ActorUnkNLTR19func_ov091_0216b4d8Ev kind:function(arm,size=0x40) addr:0x0216b4d8
_ZN12ActorUnkNLTR19func_ov091_0216b518Ev kind:function(arm,size=0x14) addr:0x0216b518
_ZN12ActorUnkNLTR19func_ov091_0216b52cEv kind:function(arm,size=0x54) addr:0x0216b52c
_ZN12ActorUnkNLTRD1Ev kind:function(arm,size=0x84) addr:0x0216b580
_ZN12ActorUnkNLTRD0Ev kind:function(arm,size=0x8c) addr:0x0216b604
_ZN12ActorUnkNLTR19func_ov091_0216b690Ev kind:function(arm,size=0x7c) addr:0x0216b690
_ZN12ActorUnkNLTR19func_ov091_0216b70cEv kind:function(arm,size=0x80) addr:0x0216b70c
_ZN12ActorUnkNLTR19func_ov091_0216b78cEv kind:function(arm,size=0x20) addr:0x0216b78c
_ZN12ActorUnkNLTR19func_ov091_0216b7acEv kind:function(arm,size=0x4) addr:0x0216b7ac
_ZN12ActorUnkNLTR19func_ov091_0216b7b0Ev kind:function(arm,size=0x144) addr:0x0216b7b0
_ZN12ActorUnkNLTR19func_ov091_0216b8f4Ev kind:function(arm,size=0xf0) addr:0x0216b8f4
_ZN12ActorUnkNLTR19func_ov091_0216b9e4Ev kind:function(arm,size=0x4) addr:0x0216b9e4
_ZN12ActorUnkNLTR19func_ov091_0216b9e8Ev kind:function(arm,size=0x2c) addr:0x0216b9e8
_ZN12ActorUnkNLTR19func_ov091_0216ba14Ev kind:function(arm,size=0x58) addr:0x0216ba14
_ZN12ActorUnkNLTR19func_ov091_0216ba6cEv kind:function(arm,size=0x20) addr:0x0216ba6c
_ZN12ActorUnkNLTR19func_ov091_0216ba8cEv kind:function(arm,size=0x108) addr:0x0216ba8c
_ZN12ActorUnkNLTR19func_ov091_0216bb94Ev kind:function(arm,size=0x98) addr:0x0216bb94
_ZN12ActorUnkNLTR19func_ov091_0216bc2cEv kind:function(arm,size=0x110) addr:0x0216bc2c
_ZN12ActorUnkNLTR19func_ov091_0216bd3cEv kind:function(arm,size=0xe8) addr:0x0216bd3c
_ZN12ActorUnkNLTR19func_ov091_0216be24Ev kind:function(arm,size=0x1c) addr:0x0216be24
_ZN12ActorUnkNLTR19func_ov091_0216be40Ev kind:function(arm,size=0x16c) addr:0x0216be40
_ZN12ActorUnkNLTR19func_ov091_0216bfacEv kind:function(arm,size=0x24) addr:0x0216bfac
_ZN12ActorUnkNLTR19func_ov091_0216bfd0Ev kind:function(arm,size=0x10) addr:0x0216bfd0
_ZN12ActorUnkNLTR19func_ov091_0216bfe0Ev kind:function(arm,size=0x8) addr:0x0216bfe0
_ZN12ActorUnkNLTR19func_ov091_0216bfe8Ev kind:function(arm,size=0x1c) addr:0x0216bfe8
_ZN19ActorProfileUnkNLTRD1Ev kind:function(arm,size=0x14) addr:0x0216c004
_ZN19ActorProfileUnkSEFS10GetProfileEv kind:function(arm,size=0xc) addr:0x0216c018
_ZN19ActorProfileUnkSEFS6CreateEv kind:function(arm,size=0x24) addr:0x0216c024
_ZN19ActorProfileUnkSEFSC1Ev kind:function(arm,size=0x60) addr:0x0216c048
_ZN12ActorUnkSEFSC1Ev kind:function(arm,size=0x188) addr:0x0216c0a8
_ZN12ActorUnkSEFS19func_ov091_0216c230Ev kind:function(arm,size=0x98) addr:0x0216c230
_ZN12ActorUnkSEFSD0Ev kind:function(arm,size=0xa0) addr:0x0216c2c8
_ZN12ActorUnkSEFS19func_ov091_0216c368Ev kind:function(arm,size=0x4c) addr:0x0216c368
_ZN12ActorUnkSEFS19func_ov091_0216c3b4Ev kind:function(arm,size=0x158) addr:0x0216c3b4
_ZN12ActorUnkSEFS19func_ov091_0216c50cEv kind:function(arm,size=0x128) addr:0x0216c50c
_ZN12ActorUnkSEFS19func_ov091_0216c634Ev kind:function(arm,size=0x100) addr:0x0216c634
_ZN12ActorUnkSEFS19func_ov091_0216c734Ev kind:function(arm,size=0x64) addr:0x0216c734
_ZN12ActorUnkSEFS19func_ov091_0216c798Ev kind:function(arm,size=0x3c) addr:0x0216c798
_ZN12ActorUnkSEFS19func_ov091_0216c7d4Ev kind:function(arm,size=0x8bc) addr:0x0216c7d4
_ZN12ActorUnkSEFS19func_ov091_0216d090Ev kind:function(arm,size=0x118) addr:0x0216d090
_ZN12ActorUnkSEFS19func_ov091_0216d1a8Ev kind:function(arm,size=0x3c8) addr:0x0216d1a8
_ZN12ActorUnkSEFS19func_ov091_0216d570Ev kind:function(arm,size=0xe4) addr:0x0216d570
_ZN12ActorUnkSEFS19func_ov091_0216d654Ev kind:function(arm,size=0x214) addr:0x0216d654
_ZN12ActorUnkSEFS19func_ov091_0216d868Ev kind:function(arm,size=0x44) addr:0x0216d868
_ZN12ActorUnkSEFS19func_ov091_0216d8acEv kind:function(arm,size=0x38) addr:0x0216d8ac
_ZN12ActorUnkSEFS19func_ov091_0216d8e4Ev kind:function(arm,size=0xc) addr:0x0216d8e4
_ZN12ActorUnkSEFS19func_ov091_0216d8f0Ev kind:function(arm,size=0xc0) addr:0x0216d8f0
_ZN12ActorUnkSEFS19func_ov091_0216d9b0Ev kind:function(arm,size=0x4) addr:0x0216d9b0
_ZN19ActorProfileUnkSEFSD1Ev kind:function(arm,size=0x14) addr:0x0216d9b4
_ZN19ActorProfileUnkTPDO10GetProfileEv kind:function(arm,size=0xc) addr:0x0216d9c8
_ZN19ActorProfileUnkTPDO6CreateEv kind:function(arm,size=0x28) addr:0x0216d9d4
_ZN19ActorProfileUnkTPDOC1Ev kind:function(arm,size=0x60) addr:0x0216d9fc
_ZN12ActorUnkTPDOC1Ev kind:function(arm,size=0x180) addr:0x0216da5c
_ZN12ActorUnkTPDO19func_ov091_0216dbdcEv kind:function(arm,size=0x14) addr:0x0216dbdc
_ZN12ActorUnkTPDO19func_ov091_0216dbf0Ev kind:function(arm,size=0x8) addr:0x0216dbf0
_ZN12ActorUnkTPDO19func_ov091_0216dbf8Ev kind:function(arm,size=0x98) addr:0x0216dbf8
_ZN12ActorUnkTPDO19func_ov091_0216dc90Ev kind:function(arm,size=0x68) addr:0x0216dc90
_ZN12ActorUnkTPDO19func_ov091_0216dcf8Ev kind:function(arm,size=0xdc) addr:0x0216dcf8
_ZN12ActorUnkTPDO19func_ov091_0216ddd4Ev kind:function(arm,size=0xdc) addr:0x0216ddd4
_ZN12ActorUnkTPDO19func_ov091_0216deb0Ev kind:function(arm,size=0xcc) addr:0x0216deb0
_ZN12ActorUnkTPDO19func_ov091_0216df7cEv kind:function(arm,size=0x144) addr:0x0216df7c
_ZN12ActorUnkTPDO19func_ov091_0216e0c0Ev kind:function(arm,size=0x3d8) addr:0x0216e0c0
_ZN12ActorUnkTPDO19func_ov091_0216e498Ev kind:function(arm,size=0x60) addr:0x0216e498
_ZN12ActorUnkTPDO19func_ov091_0216e4f8Ev kind:function(arm,size=0x50) addr:0x0216e4f8
_ZN12ActorUnkTPDOD0Ev kind:function(arm,size=0x1c) addr:0x0216e548
_ZN12ActorUnkTPDOD1Ev kind:function(arm,size=0x90) addr:0x0216e564
_ZN12ActorUnkTPDO19func_ov091_0216e5f4Ev kind:function(arm,size=0x98) addr:0x0216e5f4
_ZN19ActorProfileUnkTPDOD1Ev kind:function(arm,size=0x14) addr:0x0216e68c
_ZN19ActorProfileUnkBMOC10GetProfileEv kind:function(arm,size=0xc) addr:0x0216e6a0
_ZN19ActorProfileUnkBMOC6CreateEv kind:function(arm,size=0x24) addr:0x0216e6ac
_ZN19ActorProfileUnkBMOCC1Ev kind:function(arm,size=0x5c) addr:0x0216e6d0
_ZN12ActorUnkBMOC19func_ov091_0216e72cEv kind:function(arm,size=0x4) addr:0x0216e72c
_ZN12ActorUnkBMOCC1Ev kind:function(arm,size=0x128) addr:0x0216e730
_ZN12ActorUnkBMOC19func_ov091_0216e858Ev kind:function(arm,size=0x150) addr:0x0216e858
_ZN12ActorUnkBMOC19func_ov091_0216e9a8Ev kind:function(arm,size=0x2b8) addr:0x0216e9a8
_ZN12ActorUnkBMOC19func_ov091_0216ec60Ev kind:function(arm,size=0x80) addr:0x0216ec60
_ZN12ActorUnkBMOC19func_ov091_0216ece0Ev kind:function(arm,size=0x10c) addr:0x0216ece0
_ZN12ActorUnkBMOC19func_ov091_0216edecEv kind:function(arm,size=0x30) addr:0x0216edec
_ZN12ActorUnkBMOC19func_ov091_0216ee1cEv kind:function(arm,size=0x98) addr:0x0216ee1c
_ZN12ActorUnkBMOCD1Ev kind:function(arm,size=0x30) addr:0x0216eeb4
_ZN12ActorUnkBMOCD0Ev kind:function(arm,size=0x38) addr:0x0216eee4
_ZN19ActorProfileUnkBMOCD1Ev kind:function(arm,size=0x14) addr:0x0216ef1c
_ZN19ActorProfileUnkTSMT10GetProfileEv kind:function(arm,size=0xc) addr:0x0216ef30
_ZN19ActorProfileUnkTSMT6CreateEv kind:function(arm,size=0x24) addr:0x0216ef3c
_ZN19ActorProfileUnkTSMTC1Ev kind:function(arm,size=0x28) addr:0x0216ef60
_ZN12ActorUnkTSMTC1Ev kind:function(arm,size=0x3c) addr:0x0216ef88
_ZN12ActorUnkTSMT19func_ov091_0216efc4Ev kind:function(arm,size=0x30) addr:0x0216efc4
_ZN12ActorUnkTSMT19func_ov091_0216eff4Ev kind:function(arm,size=0x30) addr:0x0216eff4
_ZN12ActorUnkTSMT19func_ov091_0216f024Ev kind:function(arm,size=0x10) addr:0x0216f024
_ZN12ActorUnkTSMT19func_ov091_0216f034Ev kind:function(arm,size=0x14) addr:0x0216f034
_ZN12ActorUnkTSMTD1Ev kind:function(arm,size=0x1c) addr:0x0216f048
_ZN12ActorUnkTSMTD0Ev kind:function(arm,size=0x24) addr:0x0216f064
_ZN19ActorProfileUnkTSMTD1Ev kind:function(arm,size=0x14) addr:0x0216f088
_ZN19ActorProfileUnkTTKB10GetProfileEv kind:function(arm,size=0xc) addr:0x0216f09c
_ZN19ActorProfileUnkTTKB6CreateEv kind:function(arm,size=0x24) addr:0x0216f0a8
_ZN19ActorProfileUnkTTKBC1Ev kind:function(arm,size=0x84) addr:0x0216f0cc
_ZN12ActorUnkTTKBC1Ev kind:function(arm,size=0x3cc) addr:0x0216f150
_ZN12ActorUnkTTKB19func_ov091_0216f51cEv kind:function(arm,size=0x14) addr:0x0216f51c
_ZN12ActorUnkTTKB19func_ov091_0216f530Ev kind:function(arm,size=0x14) addr:0x0216f530
_ZN12ActorUnkTTKBD1Ev kind:function(arm,size=0x88) addr:0x0216f544
_ZN12ActorUnkTTKBD0Ev kind:function(arm,size=0x90) addr:0x0216f5cc
_ZN12ActorUnkTTKB19func_ov091_0216f65cEv kind:function(arm,size=0x29c) addr:0x0216f65c
_ZN12ActorUnkTTKB19func_ov091_0216f8f8Ev kind:function(arm,size=0x18) addr:0x0216f8f8
_ZN12ActorUnkTTKB19func_ov091_0216f910Ev kind:function(arm,size=0x44) addr:0x0216f910
_ZN12ActorUnkTTKB19func_ov091_0216f954Ev kind:function(arm,size=0xc0) addr:0x0216f954
_ZN12ActorUnkTTKB19func_ov091_0216fa14Ev kind:function(arm,size=0x17c) addr:0x0216fa14
_ZN12ActorUnkTTKB19func_ov091_0216fb90Ev kind:function(arm,size=0x12c) addr:0x0216fb90
_ZN12ActorUnkTTKB19func_ov091_0216fcbcEv kind:function(arm,size=0x34) addr:0x0216fcbc
_ZN12ActorUnkTTKB19func_ov091_0216fcf0Ev kind:function(arm,size=0x278) addr:0x0216fcf0
_ZN12ActorUnkTTKB19func_ov091_0216ff68Ev kind:function(arm,size=0x5c) addr:0x0216ff68
_ZN12ActorUnkTTKB19func_ov091_0216ffc4Ev kind:function(arm,size=0x2fc) addr:0x0216ffc4
_ZN12ActorUnkTTKB19func_ov091_021702c0Ev kind:function(arm,size=0x40) addr:0x021702c0
_ZN12ActorUnkTTKB19func_ov091_02170300Ev kind:function(arm,size=0x3ec) addr:0x02170300
_ZN12ActorUnkTTKB19func_ov091_021706ecEv kind:function(arm,size=0x34) addr:0x021706ec
_ZN12ActorUnkTTKB19func_ov091_02170720Ev kind:function(arm,size=0x8c) addr:0x02170720
_ZN12ActorUnkTTKB19func_ov091_021707acEv kind:function(arm,size=0xb0) addr:0x021707ac
_ZN12ActorUnkTTKB19func_ov091_0217085cEv kind:function(arm,size=0xec) addr:0x0217085c
_ZN12ActorUnkTTKB19func_ov091_02170948Ev kind:function(arm,size=0x124) addr:0x02170948
_ZN12ActorUnkTTKB19func_ov091_02170a6cEv kind:function(arm,size=0x104) addr:0x02170a6c
_ZN12ActorUnkTTKB19func_ov091_02170b70Ev kind:function(arm,size=0x88) addr:0x02170b70
_ZN12ActorUnkTTKB19func_ov091_02170bf8Ev kind:function(arm,size=0x728) addr:0x02170bf8
_ZN12ActorUnkTTKB19func_ov091_02171320Ev kind:function(arm,size=0x4) addr:0x02171320
_ZN12ActorUnkTTKB19func_ov091_02171324Ev kind:function(arm,size=0x68) addr:0x02171324
_ZN12ActorUnkTTKB19func_ov091_0217138cEv kind:function(arm,size=0x80) addr:0x0217138c
_ZN12ActorUnkTTKB19func_ov091_0217140cEv kind:function(arm,size=0x170) addr:0x0217140c
_ZN12ActorUnkTTKB19func_ov091_0217157cEv kind:function(arm,size=0x50) addr:0x0217157c
_ZN12ActorUnkTTKB19func_ov091_021715ccEv kind:function(arm,size=0x64) addr:0x021715cc
_ZN12ActorUnkTTKB19func_ov091_02171630Ev kind:function(arm,size=0x144) addr:0x02171630
_ZN12ActorUnkTTKB19func_ov091_02171774Ev kind:function(arm,size=0xa0) addr:0x02171774
_ZN12ActorUnkTTKB19func_ov091_02171814Ev kind:function(arm,size=0x70) addr:0x02171814
_ZN12ActorUnkTTKB19func_ov091_02171884Ev kind:function(arm,size=0x48) addr:0x02171884
_ZN12ActorUnkTTKB19func_ov091_021718ccEv kind:function(arm,size=0x110) addr:0x021718cc
_ZN12ActorUnkTTKB19func_ov091_021719dcEv kind:function(arm,size=0xcc) addr:0x021719dc
_ZN12ActorUnkTTKB19func_ov091_02171aa8Ev kind:function(arm,size=0xf8) addr:0x02171aa8
_ZN12ActorUnkTTKB19func_ov091_02171ba0Ev kind:function(arm,size=0x10c) addr:0x02171ba0
_ZN12ActorUnkTTKB19func_ov091_02171cacEv kind:function(arm,size=0x348) addr:0x02171cac
_ZN12ActorUnkTTKB19func_ov091_02171ff4Ev kind:function(arm,size=0x51c) addr:0x02171ff4
_ZN12ActorUnkTTKB19func_ov091_02172510Ev kind:function(arm,size=0x454) addr:0x02172510
_ZN12ActorUnkTTKB19func_ov091_02172964Ev kind:function(arm,size=0x8c) addr:0x02172964
_ZN12ActorUnkTTKB19func_ov091_021729f0Ev kind:function(arm,size=0x100) addr:0x021729f0
_ZN12ActorUnkTTKB19func_ov091_02172af0Ev kind:function(arm,size=0x1b4) addr:0x02172af0
_ZN12ActorUnkTTKB19func_ov091_02172ca4Ev kind:function(arm,size=0x44) addr:0x02172ca4
_ZN12ActorUnkTTKB19func_ov091_02172ce8Ev kind:function(arm,size=0xb4) addr:0x02172ce8
_ZN12ActorUnkTTKB19func_ov091_02172d9cEv kind:function(arm,size=0xb0) addr:0x02172d9c
_ZN12ActorUnkTTKB19func_ov091_02172e4cEv kind:function(arm,size=0x120) addr:0x02172e4c
_ZN12ActorUnkTTKB19func_ov091_02172f6cEv kind:function(arm,size=0x84) addr:0x02172f6c
_ZN12ActorUnkTTKB19func_ov091_02172ff0Ev kind:function(arm,size=0x144) addr:0x02172ff0
_ZN12ActorUnkTTKB19func_ov091_02173134Ev kind:function(arm,size=0x48) addr:0x02173134
_ZN12ActorUnkTTKB19func_ov091_0217317cEv kind:function(arm,size=0x6c) addr:0x0217317c
_ZN12ActorUnkTTKB19func_ov091_021731e8Ev kind:function(arm,size=0xa0) addr:0x021731e8
_ZN12ActorUnkTTKB19func_ov091_02173288Ev kind:function(arm,size=0x11c) addr:0x02173288
_ZN12ActorUnkTTKB19func_ov091_021733a4Ev kind:function(arm,size=0x10c) addr:0x021733a4
_ZN12ActorUnkTTKB19func_ov091_021734b0Ev kind:function(arm,size=0x68) addr:0x021734b0
_ZN12ActorUnkTTKB19func_ov091_02173518Ev kind:function(arm,size=0xd0) addr:0x02173518
_ZN12ActorUnkTTKB19func_ov091_021735e8Ev kind:function(arm,size=0x2e8) addr:0x021735e8
_ZN12ActorUnkTTKB19func_ov091_021738d0Ev kind:function(arm,size=0x30c) addr:0x021738d0
_ZN12ActorUnkTTKB19func_ov091_02173bdcEv kind:function(arm,size=0x60) addr:0x02173bdc
_ZN12ActorUnkTTKB19func_ov091_02173c3cEv kind:function(arm,size=0xf0) addr:0x02173c3c
_ZN12ActorUnkTTKB19func_ov091_02173d2cEv kind:function(arm,size=0x140) addr:0x02173d2c
_ZN12ActorUnkTTKB19func_ov091_02173e6cEv kind:function(arm,size=0x134) addr:0x02173e6c
_ZN12ActorUnkTTKB19func_ov091_02173fa0Ev kind:function(arm,size=0x11c) addr:0x02173fa0
_ZN12ActorUnkTTKB19func_ov091_021740bcEv kind:function(arm,size=0x58) addr:0x021740bc
_ZN12ActorUnkTTKB19func_ov091_02174114Ev kind:function(arm,size=0x6c) addr:0x02174114
_ZN12ActorUnkTTKB19func_ov091_02174180Ev kind:function(arm,size=0x88) addr:0x02174180
_ZN12ActorUnkTTKB19func_ov091_02174208Ev kind:function(arm,size=0x5c4) addr:0x02174208
_ZN12ActorUnkTTKB19func_ov091_021747ccEv kind:function(arm,size=0x60) addr:0x021747cc
_ZN12ActorUnkTTKB19func_ov091_0217482cEv kind:function(arm,size=0x414) addr:0x0217482c
_ZN12ActorUnkTTKB19func_ov091_02174c40Ev kind:function(arm,size=0xa0) addr:0x02174c40
_ZN12ActorUnkTTKB19func_ov091_02174ce0Ev kind:function(arm,size=0x224) addr:0x02174ce0
_ZN12ActorUnkTTKB19func_ov091_02174f04Ev kind:function(arm,size=0x45c) addr:0x02174f04
_ZN12ActorUnkTTKB19func_ov091_02175360Ev kind:function(arm,size=0xd0) addr:0x02175360
_ZN12ActorUnkTTKB19func_ov091_02175430Ev kind:function(arm,size=0x54) addr:0x02175430
_ZN12ActorUnkTTKB19func_ov091_02175484Ev kind:function(arm,size=0x68) addr:0x02175484
_ZN12ActorUnkTTKB19func_ov091_021754ecEv kind:function(arm,size=0x30) addr:0x021754ec
_ZN12ActorUnkTTKB19func_ov091_0217551cEv kind:function(arm,size=0x4c) addr:0x0217551c
_ZN12ActorUnkTTKB19func_ov091_02175568Ev kind:function(arm,size=0x1c) addr:0x02175568
_ZN12ActorUnkTTKB19func_ov091_02175584Ev kind:function(arm,size=0x24) addr:0x02175584
_ZN12ActorUnkTTKB19func_ov091_021755a8Ev kind:function(arm,size=0xb4) addr:0x021755a8
_ZN12ActorUnkTTKB19func_ov091_0217565cEv kind:function(arm,size=0x30) addr:0x0217565c
_ZN12ActorUnkTTKB19func_ov091_0217568cEv kind:function(arm,size=0x1c) addr:0x0217568c
_ZN12ActorUnkTTKB19func_ov091_021756a8Ev kind:function(arm,size=0xc) addr:0x021756a8
_ZN12ActorUnkTTKB19func_ov091_021756b4Ev kind:function(arm,size=0x38) addr:0x021756b4
_ZN12ActorUnkTTKB19func_ov091_021756ecEv kind:function(arm,size=0xa8) addr:0x021756ec
_ZN12ActorUnkTTKB19func_ov091_02175794Ev kind:function(arm,size=0x1c) addr:0x02175794
_ZN12ActorUnkTTKB19func_ov091_021757b0Ev kind:function(arm,size=0x1c) addr:0x021757b0
_ZN19ActorProfileUnkTTKBD1Ev kind:function(arm,size=0x14) addr:0x021757cc
_ZN19ActorProfileUnkTTUT10GetProfileEv kind:function(arm,size=0xc) addr:0x021757e0
_ZN19ActorProfileUnkTTUT6CreateEv kind:function(arm,size=0x24) addr:0x021757ec
_ZN19ActorProfileUnkTTUTC1Ev kind:function(arm,size=0x28) addr:0x02175810
_ZN12ActorUnkTTUTC1Ev kind:function(arm,size=0x30) addr:0x02175838
_ZN12ActorUnkTTUT19func_ov091_02175868Ev kind:function(arm,size=0xdc) addr:0x02175868
_ZN12ActorUnkTTUT19func_ov091_02175944Ev kind:function(arm,size=0x278) addr:0x02175944
_ZN12ActorUnkTTUT19func_ov091_02175bbcEv kind:function(arm,size=0xd0) addr:0x02175bbc
_ZN12ActorUnkTTUTD1Ev kind:function(arm,size=0x14) addr:0x02175c8c
_ZN12ActorUnkTTUTD0Ev kind:function(arm,size=0x1c) addr:0x02175ca0
_ZN19ActorProfileUnkTTUTD1Ev kind:function(arm,size=0x14) addr:0x02175cbc
_ZN19ActorProfileUnkTRIC10GetProfileEv kind:function(arm,size=0xc) addr:0x02175cd0
_ZN19ActorProfileUnkTRIC6CreateEv kind:function(arm,size=0x24) addr:0x02175cdc
_ZN19ActorProfileUnkTRICC1Ev kind:function(arm,size=0x74) addr:0x02175d00
_ZN12ActorUnkTRICC1Ev kind:function(arm,size=0x104) addr:0x02175d74
_ZN12ActorUnkTRIC19func_ov091_02175e78Ev kind:function(arm,size=0x9c) addr:0x02175e78
_ZN12ActorUnkTRIC19func_ov091_02175f14Ev kind:function(arm,size=0x50) addr:0x02175f14
_ZN12ActorUnkTRIC19func_ov091_02175f64Ev kind:function(arm,size=0x1a8) addr:0x02175f64
_ZN12ActorUnkTRIC19func_ov091_0217610cEv kind:function(arm,size=0x38) addr:0x0217610c
_ZN12ActorUnkTRIC19func_ov091_02176144Ev kind:function(arm,size=0x14) addr:0x02176144
_ZN12ActorUnkTRIC19func_ov091_02176158Ev kind:function(arm,size=0x40) addr:0x02176158
_ZN12ActorUnkTRIC19func_ov091_02176198Ev kind:function(arm,size=0x8c) addr:0x02176198
_ZN12ActorUnkTRIC19func_ov091_02176224Ev kind:function(arm,size=0x14) addr:0x02176224
_ZN12ActorUnkTRIC19func_ov091_02176238Ev kind:function(arm,size=0xcc) addr:0x02176238
_ZN12ActorUnkTRIC19func_ov091_02176304Ev kind:function(arm,size=0x14) addr:0x02176304
_ZN12ActorUnkTRIC19func_ov091_02176318Ev kind:function(arm,size=0x64) addr:0x02176318
_ZN12ActorUnkTRIC19func_ov091_0217637cEv kind:function(arm,size=0x38) addr:0x0217637c
_ZN12ActorUnkTRIC19func_ov091_021763b4Ev kind:function(arm,size=0x5c) addr:0x021763b4
_ZN12ActorUnkTRIC19func_ov091_02176410Ev kind:function(arm,size=0x5c) addr:0x02176410
_ZN12ActorUnkTRIC19func_ov091_0217646cEv kind:function(arm,size=0x18c) addr:0x0217646c
_ZN12ActorUnkTRIC19func_ov091_021765f8Ev kind:function(arm,size=0xa4) addr:0x021765f8
_ZN12ActorUnkTRIC19func_ov091_0217669cEv kind:function(arm,size=0x4c) addr:0x0217669c
_ZN12ActorUnkTRICD1Ev kind:function(arm,size=0x1c) addr:0x021766e8
_ZN12ActorUnkTRICD0Ev kind:function(arm,size=0x24) addr:0x02176704
_ZN12ActorUnkTRIC19func_ov091_02176728Ev kind:function(arm,size=0xac) addr:0x02176728
_ZN12ActorUnkTRIC19func_ov091_021767d4Ev kind:function(arm,size=0x30) addr:0x021767d4
_ZN12ActorUnkTRIC19func_ov091_02176804Ev kind:function(arm,size=0x38) addr:0x02176804
_ZN19ActorProfileUnkTRICD1Ev kind:function(arm,size=0x14) addr:0x0217683c
data_ov091_02176850 kind:data(any) addr:0x02176850
data_ov091_02176860 kind:data(any) addr:0x02176860
data_ov091_02176870 kind:data(any) addr:0x02176870
data_ov091_02176880 kind:data(any) addr:0x02176880
data_ov091_021768a0 kind:data(any) addr:0x021768a0
data_ov091_021768c0 kind:data(any) addr:0x021768c0
data_ov091_021768e0 kind:data(any) addr:0x021768e0
data_ov091_02176910 kind:data(any) addr:0x02176910
data_ov091_02176928 kind:data(any) addr:0x02176928
data_ov091_0217693c kind:data(any) addr:0x0217693c
data_ov091_02176950 kind:data(any) addr:0x02176950
data_ov091_02176954 kind:data(any) addr:0x02176954
__sinit_ov091_02176960 kind:function(arm,size=0x4) addr:0x02176960
__sinit_ov091_02176964 kind:function(arm,size=0x1c) addr:0x02176964
__sinit_MapObjectUnkFRSH.cpp kind:function(arm,size=0x50) addr:0x02176980
__sinit_MapObjectUnkMZFX.cpp kind:function(arm,size=0x50) addr:0x021769d0
__sinit_MapObjectUnkMZTR.cpp kind:function(arm,size=0x50) addr:0x02176a20
__sinit_MapObjectUnkTMSB.cpp kind:function(arm,size=0x70) addr:0x02176a70
__sinit_MapObjectUnkETUS.cpp kind:function(arm,size=0x50) addr:0x02176ae0
__sinit_MapObjectUnkBOGN.cpp kind:function(arm,size=0x50) addr:0x02176b30
__sinit_ActorUnkMZCT.cpp kind:function(arm,size=0x50) addr:0x02176b80
__sinit_ActorUnkSMCT.cpp kind:function(arm,size=0x50) addr:0x02176bd0
__sinit_ActorUnkSTCT.cpp kind:function(arm,size=0x50) addr:0x02176c20
__sinit_ActorUnkCTFS.cpp kind:function(arm,size=0x78) addr:0x02176c70
__sinit_ActorUnkNLTR.cpp kind:function(arm,size=0x50) addr:0x02176ce8
__sinit_ActorUnkSEFS.cpp kind:function(arm,size=0x80) addr:0x02176d38
__sinit_ActorUnkTPDO.cpp kind:function(arm,size=0x50) addr:0x02176db8
__sinit_ActorUnkBMOC.cpp kind:function(arm,size=0x50) addr:0x02176e08
__sinit_ActorUnkTSMT.cpp kind:function(arm,size=0x50) addr:0x02176e58
__sinit_ActorUnkTTKB.cpp kind:function(arm,size=0x88) addr:0x02176ea8
__sinit_ActorUnkTTUT.cpp kind:function(arm,size=0x50) addr:0x02176f30
__sinit_ActorUnkTRIC.cpp kind:function(arm,size=0x68) addr:0x02176f80
.p__sinit_ov091_02176960 kind:data(word) addr:0x02176fe8
.p__sinit_ov091_02176964 kind:data(word) addr:0x02176fec
.p__sinit_MapObjectUnkFRSH.cpp kind:data(word) addr:0x02176ff0
.p__sinit_MapObjectUnkMZFX.cpp kind:data(word) addr:0x02176ff4
.p__sinit_MapObjectUnkMZTR.cpp kind:data(word) addr:0x02176ff8
.p__sinit_MapObjectUnkTMSB.cpp kind:data(word) addr:0x02176ffc
.p__sinit_MapObjectUnkETUS.cpp kind:data(word) addr:0x02177000
.p__sinit_MapObjectUnkBOGN.cpp kind:data(word) addr:0x02177004
.p__sinit_ActorUnkMZCT.cpp kind:data(word) addr:0x02177008
.p__sinit_ActorUnkSMCT.cpp kind:data(word) addr:0x0217700c
.p__sinit_ActorUnkSTCT.cpp kind:data(word) addr:0x02177010
.p__sinit_ActorUnkCTFS.cpp kind:data(word) addr:0x02177014
.p__sinit_ActorUnkNLTR.cpp kind:data(word) addr:0x02177018
.p__sinit_ActorUnkSEFS.cpp kind:data(word) addr:0x0217701c
.p__sinit_ActorUnkTPDO.cpp kind:data(word) addr:0x02177020
.p__sinit_ActorUnkBMOC.cpp kind:data(word) addr:0x02177024
.p__sinit_ActorUnkTSMT.cpp kind:data(word) addr:0x02177028
.p__sinit_ActorUnkTTKB.cpp kind:data(word) addr:0x0217702c
.p__sinit_ActorUnkTTUT.cpp kind:data(word) addr:0x02177030
.p__sinit_ActorUnkTRIC.cpp kind:data(word) addr:0x02177034
data_ov091_02177048 kind:data(any) addr:0x02177048
data_ov091_02177074 kind:data(any) addr:0x02177074
data_ov091_02177098 kind:data(any) addr:0x02177098
data_ov091_021770e8 kind:data(any) addr:0x021770e8
data_ov091_021770f0 kind:data(any) addr:0x021770f0 ambiguous
data_ov091_021770f4 kind:data(any) addr:0x021770f4
data_ov091_02177110 kind:data(any) addr:0x02177110
data_ov091_0217716c kind:data(any) addr:0x0217716c
data_ov091_02177188 kind:data(any) addr:0x02177188
data_ov091_021771d8 kind:data(any) addr:0x021771d8
data_ov091_021771f4 kind:data(any) addr:0x021771f4
data_ov091_02177218 kind:data(any) addr:0x02177218 ambiguous
data_ov091_02177228 kind:data(any) addr:0x02177228 ambiguous
data_ov091_0217723c kind:data(any) addr:0x0217723c
data_ov091_0217724c kind:data(any) addr:0x0217724c
data_ov091_02177260 kind:data(any) addr:0x02177260
data_ov091_0217727c kind:data(any) addr:0x0217727c
data_ov091_021772a8 kind:data(any) addr:0x021772a8
data_ov091_02177314 kind:data(any) addr:0x02177314
data_ov091_02177380 kind:data(any) addr:0x02177380
data_ov091_0217739c kind:data(any) addr:0x0217739c
data_ov091_02177410 kind:data(any) addr:0x02177410
data_ov091_0217742c kind:data(any) addr:0x0217742c
_ZTV19data_ov091_02177474 kind:data(any) addr:0x02177474
data_ov091_02177498 kind:data(any) addr:0x02177498
_ZTV19data_ov091_021774c0 kind:data(any) addr:0x021774c0
data_ov091_0217751c kind:data(any) addr:0x0217751c
data_ov091_02177524 kind:data(any) addr:0x02177524
data_ov091_0217752c kind:data(any) addr:0x0217752c
data_ov091_02177534 kind:data(any) addr:0x02177534
data_ov091_0217753c kind:data(any) addr:0x0217753c
_ZTV19data_ov091_02177544 kind:data(any) addr:0x02177544
_ZTV19data_ov091_02177568 kind:data(any) addr:0x02177568
data_ov091_0217756c kind:data(any) addr:0x0217756c ambiguous
_ZTV19data_ov091_021775c4 kind:data(any) addr:0x021775c4
_ZTV19data_ov091_021775e8 kind:data(any) addr:0x021775e8
data_ov091_02177644 kind:data(any) addr:0x02177644
_ZTV19data_ov091_02177654 kind:data(any) addr:0x02177654
data_ov091_02177680 kind:data(any) addr:0x02177680
data_ov091_021776c4 kind:data(any) addr:0x021776c4
data_ov091_021776dc kind:data(any) addr:0x021776dc
data_ov091_021776f4 kind:data(any) addr:0x021776f4
data_ov091_0217770c kind:data(any) addr:0x0217770c
data_ov091_02177724 kind:data(any) addr:0x02177724
_ZTV19data_ov091_02177784 kind:data(any) addr:0x02177784
data_ov091_021777e8 kind:data(any) addr:0x021777e8
_ZTV19data_ov091_021777f8 kind:data(any) addr:0x021777f8
data_ov091_02177824 kind:data(any) addr:0x02177824
_ZTV19data_ov091_02177864 kind:data(any) addr:0x02177864
data_ov091_021778c8 kind:data(any) addr:0x021778c8
data_ov091_021778d0 kind:data(any) addr:0x021778d0
data_ov091_021778e8 kind:data(any) addr:0x021778e8
_ZTV19data_ov091_02177918 kind:data(any) addr:0x02177918
_ZTV19data_ov091_0217793c kind:data(any) addr:0x0217793c
_ZTV19data_ov091_02177940 kind:data(any) addr:0x02177940 ambiguous
data_ov091_021779a0 kind:data(any) addr:0x021779a0
_ZTV19data_ov091_021779c0 kind:data(any) addr:0x021779c0
data_ov091_021779ec kind:data(any) addr:0x021779ec
data_ov091_021779f4 kind:data(any) addr:0x021779f4 ambiguous
_ZTV19data_ov091_02177a30 kind:data(any) addr:0x02177a30
data_ov091_02177a94 kind:data(any) addr:0x02177a94
data_ov091_02177aa0 kind:data(any) addr:0x02177aa0 ambiguous
_ZTV19data_ov091_02177aac kind:data(any) addr:0x02177aac
_ZTV19data_ov091_02177ad0 kind:data(any) addr:0x02177ad0
data_ov091_02177b40 kind:data(any) addr:0x02177b40
_ZTV19data_ov091_02177b40 kind:data(any) addr:0x02177b40 ambiguous
_ZTV19data_ov091_02177b5c kind:data(any) addr:0x02177b5c
data_ov091_02177bb8 kind:data(any) addr:0x02177bb8
data_ov091_02177bd0 kind:data(any) addr:0x02177bd0
data_ov091_02177be8 kind:data(any) addr:0x02177be8
data_ov091_02177c08 kind:data(any) addr:0x02177c08
_ZTV19data_ov091_02177c1c kind:data(any) addr:0x02177c1c
data_ov091_02177c48 kind:data(any) addr:0x02177c48
data_ov091_02177c74 kind:data(any) addr:0x02177c74
_ZTV19data_ov091_02177cb8 kind:data(any) addr:0x02177cb8
_ZTV19data_ov091_02177cf8 kind:data(any) addr:0x02177cf8 ambiguous
_ZTV19data_ov091_02177cfc kind:data(any) addr:0x02177cfc ambiguous
data_ov091_02177d0c kind:data(any) addr:0x02177d0c ambiguous
data_ov091_02177d14 kind:data(any) addr:0x02177d14 ambiguous
data_ov091_02177d1c kind:data(any) addr:0x02177d1c
data_ov091_02177d28 kind:data(any) addr:0x02177d28 ambiguous
data_ov091_02177d30 kind:data(any) addr:0x02177d30 ambiguous
data_ov091_02177d34 kind:data(any) addr:0x02177d34 ambiguous
data_ov091_02177d38 kind:data(any) addr:0x02177d38 ambiguous
data_ov091_02177d78 kind:data(any) addr:0x02177d78 ambiguous
data_ov091_02177d84 kind:data(any) addr:0x02177d84
data_ov091_02177dec kind:data(any) addr:0x02177dec
data_ov091_02177e64 kind:data(any) addr:0x02177e64
_ZTV19data_ov091_02177f24 kind:data(any) addr:0x02177f24
_ZTV19data_ov091_02177f48 kind:data(any) addr:0x02177f48
data_ov091_02177fa4 kind:data(any) addr:0x02177fa4
data_ov091_02177fac kind:data(any) addr:0x02177fac
data_ov091_02177fc4 kind:data(any) addr:0x02177fc4
data_ov091_02177fe4 kind:data(any) addr:0x02177fe4
_ZTV19data_ov091_02177ff8 kind:data(any) addr:0x02177ff8
_ZTV19data_ov091_0217801c kind:data(any) addr:0x0217801c
data_ov091_02178080 kind:bss addr:0x02178080
data_ov091_02178084 kind:bss addr:0x02178084
data_ov091_02178088 kind:bss addr:0x02178088
data_ov091_0217808c kind:bss addr:0x0217808c
data_ov091_02178090 kind:bss addr:0x02178090
data_ov091_02178094 kind:bss addr:0x02178094
data_ov091_021780a4 kind:bss addr:0x021780a4
data_ov091_021780b4 kind:bss addr:0x021780b4
data_ov091_021780c4 kind:bss addr:0x021780c4
data_ov091_021780d4 kind:bss addr:0x021780d4
data_ov091_0217813c kind:bss addr:0x0217813c
_ZGVN15ProfileInstanceI23MapObjectProfileUnkFRSHE8sProfileE kind:bss addr:0x021781a4
@13546 kind:bss addr:0x021781a8
_ZN15ProfileInstanceI23MapObjectProfileUnkFRSHE8sProfileE kind:bss addr:0x021781b4
_ZGVN15ProfileInstanceI23MapObjectProfileUnkMZFXE8sProfileE kind:bss addr:0x02178288
@13552 kind:bss addr:0x0217828c
_ZN15ProfileInstanceI23MapObjectProfileUnkMZFXE8sProfileE kind:bss addr:0x02178298
_ZGVN15ProfileInstanceI23MapObjectProfileUnkMZTRE8sProfileE kind:bss addr:0x021782bc
@13558 kind:bss addr:0x021782c0
_ZN15ProfileInstanceI23MapObjectProfileUnkMZTRE8sProfileE kind:bss addr:0x021782cc
data_ov091_021783a0 kind:bss addr:0x021783a0
_ZGVN15ProfileInstanceI23MapObjectProfileUnkTMSBE8sProfileE kind:bss addr:0x021783a8
@13564 kind:bss addr:0x021783b4
_ZN15ProfileInstanceI23MapObjectProfileUnkTMSBE8sProfileE kind:bss addr:0x021783c0
_ZGVN15ProfileInstanceI23MapObjectProfileUnkETUSE8sProfileE kind:bss addr:0x02178494
@13570 kind:bss addr:0x02178498
_ZN15ProfileInstanceI23MapObjectProfileUnkETUSE8sProfileE kind:bss addr:0x021784a4
data_ov091_02178500 kind:bss addr:0x02178500 ambiguous
data_ov091_02178530 kind:bss addr:0x02178530 ambiguous
_ZGVN15ProfileInstanceI23MapObjectProfileUnkBOGNE8sProfileE kind:bss addr:0x02178578
@13576 kind:bss addr:0x0217857c
_ZN15ProfileInstanceI23MapObjectProfileUnkBOGNE8sProfileE kind:bss addr:0x02178588
_ZGVN15ProfileInstanceI19ActorProfileUnkMZCTE8sProfileE kind:bss addr:0x021785a8
@14259 kind:bss addr:0x021785ac
_ZN15ProfileInstanceI19ActorProfileUnkMZCTE8sProfileE kind:bss addr:0x021785b8
_ZGVN15ProfileInstanceI19ActorProfileUnkSMCTE8sProfileE kind:bss addr:0x02178690
@14265 kind:bss addr:0x02178694
_ZN15ProfileInstanceI19ActorProfileUnkSMCTE8sProfileE kind:bss addr:0x021786a0
_ZGVN15ProfileInstanceI19ActorProfileUnkSTCTE8sProfileE kind:bss addr:0x021786dc
@14271 kind:bss addr:0x021786e0
_ZN15ProfileInstanceI19ActorProfileUnkSTCTE8sProfileE kind:bss addr:0x021786ec
data_ov091_021787c4 kind:bss addr:0x021787c4
_ZGVN15ProfileInstanceI19ActorProfileUnkCTFSE8sProfileE kind:bss addr:0x021787c8
@14277 kind:bss addr:0x021787d4
_ZN15ProfileInstanceI19ActorProfileUnkCTFSE8sProfileE kind:bss addr:0x021787e0
data_ov091_02178824 kind:bss addr:0x02178824 ambiguous
data_ov091_021788b8 kind:bss addr:0x021788b8
data_ov091_021788bc kind:bss addr:0x021788bc
_ZGVN15ProfileInstanceI19ActorProfileUnkNLTRE8sProfileE kind:bss addr:0x021788c0
@14283 kind:bss addr:0x021788cc
_ZN15ProfileInstanceI19ActorProfileUnkNLTRE8sProfileE kind:bss addr:0x021788dc
data_ov091_021789b4 kind:bss addr:0x021789b4
data_ov091_021789b8 kind:bss addr:0x021789b8
data_ov091_021789c8 kind:bss addr:0x021789c8
data_ov091_021789d4 kind:bss addr:0x021789d4
data_ov091_021789e0 kind:bss addr:0x021789e0
data_ov091_021789ec kind:bss addr:0x021789ec
data_ov091_021789f8 kind:bss addr:0x021789f8
data_ov091_02178a04 kind:bss addr:0x02178a04
data_ov091_02178a10 kind:bss addr:0x02178a10
_ZGVN15ProfileInstanceI19ActorProfileUnkSEFSE8sProfileE kind:bss addr:0x02178a3c
@14289 kind:bss addr:0x02178a48
_ZN15ProfileInstanceI19ActorProfileUnkSEFSE8sProfileE kind:bss addr:0x02178a70
data_ov091_02178b48 kind:bss addr:0x02178b48
data_ov091_02178b4c kind:bss addr:0x02178b4c
data_ov091_02178b50 kind:bss addr:0x02178b50
data_ov091_02178b5c kind:bss addr:0x02178b5c
_ZGVN15ProfileInstanceI19ActorProfileUnkTPDOE8sProfileE kind:bss addr:0x02178b60
@14295 kind:bss addr:0x02178b70
_ZN15ProfileInstanceI19ActorProfileUnkTPDOE8sProfileE kind:bss addr:0x02178b80
_ZGVN15ProfileInstanceI19ActorProfileUnkBMOCE8sProfileE kind:bss addr:0x02178c58
@14301 kind:bss addr:0x02178c5c
_ZN15ProfileInstanceI19ActorProfileUnkBMOCE8sProfileE kind:bss addr:0x02178c68
data_ov091_02178c80 kind:bss addr:0x02178c80 ambiguous
_ZGVN15ProfileInstanceI19ActorProfileUnkTSMTE8sProfileE kind:bss addr:0x02178d40
@14307 kind:bss addr:0x02178d48
_ZN15ProfileInstanceI19ActorProfileUnkTSMTE8sProfileE kind:bss addr:0x02178d54
_ZGVN15ProfileInstanceI19ActorProfileUnkTTKBE8sProfileE kind:bss addr:0x02178d90
@14313 kind:bss addr:0x02178d94
_ZN15ProfileInstanceI19ActorProfileUnkTTKBE8sProfileE kind:bss addr:0x02178da0
_ZGVN15ProfileInstanceI19ActorProfileUnkTTUTE8sProfileE kind:bss addr:0x02178e78
@14319 kind:bss addr:0x02178e7c
_ZN15ProfileInstanceI19ActorProfileUnkTTUTE8sProfileE kind:bss addr:0x02178e88
data_ov091_02178ec4 kind:bss addr:0x02178ec4
data_ov091_02178ec8 kind:bss addr:0x02178ec8
_ZN15ProfileInstanceI19ActorProfileUnkTRICE8sProfileE kind:bss addr:0x02178ed4
