_ZN19ActorProfileUnkPRPL10GetProfileEv kind:function(arm,size=0xc) addr:0x02152c20
_ZN19ActorProfileUnkPRPL6CreateEv kind:function(arm,size=0x24) addr:0x02152c2c
_ZN19ActorProfileUnkPRPLC1Ev kind:function(arm,size=0x44) addr:0x02152c50
_ZN12ActorUnkPRPL19func_ov081_02152c94Ev kind:function(arm,size=0xf8) addr:0x02152c94
_ZN12ActorUnkPRPLD1Ev kind:function(arm,size=0x14) addr:0x02152d8c
_ZN12ActorUnkPRPLD0Ev kind:function(arm,size=0x1c) addr:0x02152da0
_ZN12ActorUnkPRPL19func_ov081_02152dbcEv kind:function(arm,size=0xd0) addr:0x02152dbc
_ZN12ActorUnkPRPL19func_ov081_02152e8cEv kind:function(arm,size=0x3c) addr:0x02152e8c
_ZN12ActorUnkPRPL19func_ov081_02152ec8Ev kind:function(arm,size=0x3c) addr:0x02152ec8
_ZN12ActorUnkPRPL19func_ov081_02152f04Ev kind:function(arm,size=0x3c) addr:0x02152f04
_ZN12ActorUnkPRPL19func_ov081_02152f40Ev kind:function(arm,size=0x3c) addr:0x02152f40
_ZN12ActorUnkPRPL19func_ov081_02152f7cEv kind:function(arm,size=0x3c) addr:0x02152f7c
_ZN12ActorUnkPRPL19func_ov081_02152fb8Ev kind:function(arm,size=0x38) addr:0x02152fb8
_ZN12ActorUnkPRPL19func_ov081_02152ff0Ev kind:function(arm,size=0x34) addr:0x02152ff0
_ZN12ActorUnkPRPLC1Ev kind:function(arm,size=0xe0) addr:0x02153024
_ZN12ActorUnkPRPL19func_ov081_02153104Ev kind:function(arm,size=0x44) addr:0x02153104
_ZN12ActorUnkPRPL19func_ov081_02153148Ev kind:function(arm,size=0x48) addr:0x02153148
_ZN12ActorUnkPRPL19func_ov081_02153190Ev kind:function(arm,size=0x194) addr:0x02153190
_ZN12ActorUnkPRPL19func_ov081_02153324Ev kind:function(arm,size=0x44) addr:0x02153324
_ZN12ActorUnkPRPL19func_ov081_02153368Ev kind:function(arm,size=0x28) addr:0x02153368
_ZN12ActorUnkPRPL19func_ov081_02153390Ev kind:function(arm,size=0x28) addr:0x02153390
_ZN12ActorUnkPRPL19func_ov081_021533b8Ev kind:function(arm,size=0xb0) addr:0x021533b8
_ZN12ActorUnkPRPL19func_ov081_02153468Ev kind:function(arm,size=0x48) addr:0x02153468
_ZN12ActorUnkPRPL19func_ov081_021534b0Ev kind:function(arm,size=0x4) addr:0x021534b0
_ZN12ActorUnkPRPL19func_ov081_021534b4Ev kind:function(arm,size=0x44) addr:0x021534b4
_ZN12ActorUnkPRPL19func_ov081_021534f8Ev kind:function(arm,size=0x7c) addr:0x021534f8
_ZN12ActorUnkPRPL19func_ov081_02153574Ev kind:function(arm,size=0x5c) addr:0x02153574
_ZN12ActorUnkPRPL19func_ov081_021535d0Ev kind:function(arm,size=0x1d0) addr:0x021535d0
_ZN12ActorUnkPRPL19func_ov081_021537a0Ev kind:function(arm,size=0x78) addr:0x021537a0
_ZN12ActorUnkPRPL19func_ov081_02153818Ev kind:function(arm,size=0x3c) addr:0x02153818
_ZN12ActorUnkPRPL19func_ov081_02153854Ev kind:function(arm,size=0x110) addr:0x02153854
_ZN12ActorUnkPRPL19func_ov081_02153964Ev kind:function(arm,size=0x44) addr:0x02153964
_ZN12ActorUnkPRPL19func_ov081_021539a8Ev kind:function(arm,size=0x5c) addr:0x021539a8
_ZN12ActorUnkPRPL19func_ov081_02153a04Ev kind:function(arm,size=0x10) addr:0x02153a04
_ZN12ActorUnkPRPL19func_ov081_02153a14Ev kind:function(arm,size=0x10) addr:0x02153a14
_ZN12ActorUnkPRPL19func_ov081_02153a24Ev kind:function(arm,size=0x20) addr:0x02153a24
_ZN12ActorUnkPRPL19func_ov081_02153a44Ev kind:function(arm,size=0x28) addr:0x02153a44
_ZN19ActorProfileUnkPRPLD1Ev kind:function(arm,size=0x14) addr:0x02153a6c
_ZN19ActorProfileUnkPRPP10GetProfileEv kind:function(arm,size=0xc) addr:0x02153a80
_ZN19ActorProfileUnkPRPP6CreateEv kind:function(arm,size=0x24) addr:0x02153a8c
_ZN19ActorProfileUnkPRPPC1Ev kind:function(arm,size=0x44) addr:0x02153ab0
_ZN12ActorUnkPRPPC1Ev kind:function(arm,size=0x48) addr:0x02153af4
_ZN12ActorUnkPRPP19func_ov081_02153b3cEv kind:function(arm,size=0x38) addr:0x02153b3c
_ZN12ActorUnkPRPP19func_ov081_02153b74Ev kind:function(arm,size=0x44) addr:0x02153b74
_ZN12ActorUnkPRPP19func_ov081_02153bb8Ev kind:function(arm,size=0x90) addr:0x02153bb8
_ZN12ActorUnkPRPP19func_ov081_02153c48Ev kind:function(arm,size=0x14) addr:0x02153c48
_ZN12ActorUnkPRPP19func_ov081_02153c5cEv kind:function(arm,size=0x38) addr:0x02153c5c
_ZN12ActorUnkPRPP19func_ov081_02153c94Ev kind:function(arm,size=0x3c) addr:0x02153c94
_ZN12ActorUnkPRPP19func_ov081_02153cd0Ev kind:function(arm,size=0xac) addr:0x02153cd0
_ZN12ActorUnkPRPP19func_ov081_02153d7cEv kind:function(arm,size=0x74) addr:0x02153d7c
_ZN12ActorUnkPRPP19func_ov081_02153df0Ev kind:function(arm,size=0x38) addr:0x02153df0
_ZN12ActorUnkPRPP19func_ov081_02153e28Ev kind:function(arm,size=0x58) addr:0x02153e28
_ZN12ActorUnkPRPP19func_ov081_02153e80Ev kind:function(arm,size=0x2c) addr:0x02153e80
_ZN12ActorUnkPRPP19func_ov081_02153eacEv kind:function(arm,size=0x28) addr:0x02153eac
_ZN12ActorUnkPRPP19func_ov081_02153ed4Ev kind:function(arm,size=0x30) addr:0x02153ed4
_ZN12ActorUnkPRPPD1Ev kind:function(arm,size=0x14) addr:0x02153f04
_ZN12ActorUnkPRPPD0Ev kind:function(arm,size=0x1c) addr:0x02153f18
_ZN19ActorProfileUnkPRPPD1Ev kind:function(arm,size=0x14) addr:0x02153f34
_ZN23MapObjectProfileUnkPRSH10GetProfileEv kind:function(arm,size=0xc) addr:0x02153f48
_ZN23MapObjectProfileUnkPRSH6CreateEv kind:function(arm,size=0x24) addr:0x02153f54
_ZN23MapObjectProfileUnkPRSHC1Ev kind:function(arm,size=0xa4) addr:0x02153f78
_ZN16MapObjectUnkPRSH19func_ov081_0215401cEv kind:function(arm,size=0xb0) addr:0x0215401c
_ZN16MapObjectUnkPRSHD1Ev kind:function(arm,size=0x14) addr:0x021540cc
_ZN16MapObjectUnkPRSHD0Ev kind:function(arm,size=0x1c) addr:0x021540e0
_ZN16MapObjectUnkPRSH19func_ov081_021540fcEv kind:function(arm,size=0xd0) addr:0x021540fc
_ZN16MapObjectUnkPRSHC1Ev kind:function(arm,size=0x98) addr:0x021541cc
_ZN16MapObjectUnkPRSH19func_ov081_02154264Ev kind:function(arm,size=0x80) addr:0x02154264
_ZN16MapObjectUnkPRSH19func_ov081_021542e4Ev kind:function(arm,size=0x88) addr:0x021542e4
_ZN16MapObjectUnkPRSH19func_ov081_0215436cEv kind:function(arm,size=0x8) addr:0x0215436c
_ZN16MapObjectUnkPRSH19func_ov081_02154374Ev kind:function(arm,size=0x12c) addr:0x02154374
_ZN16MapObjectUnkPRSH19func_ov081_021544a0Ev kind:function(arm,size=0x4) addr:0x021544a0
_ZN16MapObjectUnkPRSH19func_ov081_021544a4Ev kind:function(arm,size=0x6c) addr:0x021544a4
_ZN16MapObjectUnkPRSH19func_ov081_02154510Ev kind:function(arm,size=0x20) addr:0x02154510
_ZN16MapObjectUnkPRSH19func_ov081_02154530Ev kind:function(arm,size=0x10) addr:0x02154530
_ZN16MapObjectUnkPRSH19func_ov081_02154540Ev kind:function(arm,size=0x94) addr:0x02154540
_ZN16MapObjectUnkPRSH19func_ov081_021545d4Ev kind:function(arm,size=0x20) addr:0x021545d4
_ZN23MapObjectProfileUnkPRSHD1Ev kind:function(arm,size=0x14) addr:0x021545f4
data_ov081_02154608 kind:data(any) addr:0x02154608
data_ov081_0215460c kind:data(any) addr:0x0215460c
data_ov081_02154610 kind:data(any) addr:0x02154610
data_ov081_02154614 kind:data(any) addr:0x02154614
data_ov081_02154618 kind:data(any) addr:0x02154618
data_ov081_02154628 kind:data(any) addr:0x02154628
data_ov081_02154648 kind:data(any) addr:0x02154648
__sinit_ActorUnkPRPL.cpp kind:function(arm,size=0x50) addr:0x02154658
__sinit_ActorUnkPRPP.cpp kind:function(arm,size=0x50) addr:0x021546a8
__sinit_MapObjectUnkPRSH.cpp kind:function(arm,size=0x7c) addr:0x021546f8
.p__sinit_ActorUnkPRPL.cpp kind:data(word) addr:0x02154774
.p__sinit_ActorUnkPRPP.cpp kind:data(word) addr:0x02154778
.p__sinit_MapObjectUnkPRSH.cpp kind:data(word) addr:0x0215477c
data_ov081_021547a0 kind:data(any) addr:0x021547a0
data_ov081_021547a4 kind:data(any) addr:0x021547a4
data_ov081_021547cc kind:data(any) addr:0x021547cc
data_ov081_021547f4 kind:data(any) addr:0x021547f4
data_ov081_02154808 kind:data(any) addr:0x02154808
_ZTV19data_ov081_02154818 kind:data(any) addr:0x02154818
data_ov081_02154844 kind:data(any) addr:0x02154844
_ZTV19data_ov081_02154868 kind:data(any) addr:0x02154868
data_ov081_021548cc kind:data(any) addr:0x021548cc
_ZTV19data_ov081_021548dc kind:data(any) addr:0x021548dc
_ZTV19data_ov081_02154900 kind:data(any) addr:0x02154900
data_ov081_0215495c kind:data(any) addr:0x0215495c
data_ov081_02154968 kind:data(any) addr:0x02154968
data_ov081_0215497c kind:data(any) addr:0x0215497c
data_ov081_02154998 kind:data(any) addr:0x02154998
data_ov081_021549b4 kind:data(any) addr:0x021549b4
data_ov081_021549dc kind:data(any) addr:0x021549dc
data_ov081_02154a08 kind:data(any) addr:0x02154a08
_ZGVN15ProfileInstanceI19ActorProfileUnkPRPLE8sProfileE kind:bss addr:0x02154a40
@33638 kind:bss addr:0x02154a44
_ZN15ProfileInstanceI19ActorProfileUnkPRPLE8sProfileE kind:bss addr:0x02154a50
_ZGVN15ProfileInstanceI19ActorProfileUnkPRPPE8sProfileE kind:bss addr:0x02154a8c
@33644 kind:bss addr:0x02154a90
_ZN15ProfileInstanceI19ActorProfileUnkPRPPE8sProfileE kind:bss addr:0x02154a9c
_ZGVN15ProfileInstanceI23MapObjectProfileUnkPRSHE8sProfileE kind:bss addr:0x02154ad8
@33112 kind:bss addr:0x02154adc
_ZN15ProfileInstanceI23MapObjectProfileUnkPRSHE8sProfileE kind:bss addr:0x02154ae8
data_ov081_02154b74 kind:bss addr:0x02154b74 ambiguous
data_ov081_02154bbc kind:bss addr:0x02154bbc
