_ZN19ActorProfileUnkRMM110GetProfileEv kind:function(arm,size=0xc) addr:0x0211ad60
_ZN19ActorProfileUnkRMM16CreateEv kind:function(arm,size=0x24) addr:0x0211ad6c
_ZN19ActorProfileUnkRMM1C1Ev kind:function(arm,size=0x28) addr:0x0211ad90
_ZN12ActorUnkRMM119func_ov034_02119018Ev kind:function(arm,size=0x3c) addr:0x0211adb8
_ZN12ActorUnkRMM1C1Ev kind:function(arm,size=0x3c) addr:0x0211adf4
_ZN12ActorUnkRMM119func_ov034_02119090Ev kind:function(arm,size=0x8c) addr:0x0211ae30
_ZN12ActorUnkRMM119func_ov034_0211911cEv kind:function(arm,size=0x11c) addr:0x0211aebc
_ZN12ActorUnkRMM119func_ov034_02119238Ev kind:function(arm,size=0x40) addr:0x0211afd8
_ZN12ActorUnkRMM119func_ov034_02119278Ev kind:function(arm,size=0x40) addr:0x0211b018
_ZN12ActorUnkRMM1D1Ev kind:function(arm,size=0x28) addr:0x0211b058
_ZN12ActorUnkRMM1D0Ev kind:function(arm,size=0x30) addr:0x0211b080
_ZN19ActorProfileUnkRMM1D1Ev kind:function(arm,size=0x14) addr:0x0211b0b0
_ZN19ActorProfileUnkBSFC10GetProfileEv kind:function(arm,size=0xc) addr:0x0211b0c4
_ZN19ActorProfileUnkBSFC6CreateEv kind:function(arm,size=0x24) addr:0x0211b0d0
_ZN19ActorProfileUnkBSFCC1Ev kind:function(arm,size=0x5c) addr:0x0211b0f4
_ZN12ActorUnkBSFC19func_ov034_021193b0Ev kind:function(arm,size=0x70) addr:0x0211b150
_ZN12ActorUnkBSFCC1Ev kind:function(arm,size=0x188) addr:0x0211b1c0
_ZN12ActorUnkBSFC19func_ov034_021195a8Ev kind:function(arm,size=0x14) addr:0x0211b348
_ZN12ActorUnkBSFC19func_ov034_021195bcEv kind:function(arm,size=0x144) addr:0x0211b35c
_ZN12ActorUnkBSFC19func_ov034_02119700Ev kind:function(arm,size=0x28c) addr:0x0211b4a0
_ZN12ActorUnkBSFC19func_ov034_02119970Ev kind:function(arm,size=0x14) addr:0x0211b72c
_ZN12ActorUnkBSFC19func_ov034_02119984Ev kind:function(arm,size=0x1a0) addr:0x0211b740
_ZN12ActorUnkBSFC19func_ov034_02119b24Ev kind:function(arm,size=0xdc) addr:0x0211b8e0
_ZN12ActorUnkBSFC19func_ov034_02119c00Ev kind:function(arm,size=0x94) addr:0x0211b9bc
_ZN12ActorUnkBSFC19func_ov034_02119c94Ev kind:function(arm,size=0xc0) addr:0x0211ba50
_ZN12ActorUnkBSFC19func_ov034_02119d54Ev kind:function(arm,size=0x24) addr:0x0211bb10
_ZN12ActorUnkBSFC19func_ov034_02119d78Ev kind:function(arm,size=0x10) addr:0x0211bb34
_ZN12ActorUnkBSFC19func_ov034_02119d88Ev kind:function(arm,size=0x8) addr:0x0211bb44
_ZN12ActorUnkBSFC19func_ov034_02119d90Ev kind:function(arm,size=0xc) addr:0x0211bb4c
_ZN12ActorUnkBSFCD0Ev kind:function(arm,size=0x1c) addr:0x0211bb58
_ZN12ActorUnkBSFCD1Ev kind:function(arm,size=0x68) addr:0x0211bb74
_ZN12ActorUnkBSFC19func_ov034_02119e20Ev kind:function(arm,size=0x70) addr:0x0211bbdc
_ZN19ActorProfileUnkBSFCD1Ev kind:function(arm,size=0x14) addr:0x0211bc4c
_ZN19ActorProfileUnkFCHL10GetProfileEv kind:function(arm,size=0xc) addr:0x0211bc60
_ZN19ActorProfileUnkFCHL6CreateEv kind:function(arm,size=0x24) addr:0x0211bc6c
_ZN19ActorProfileUnkFCHLC1Ev kind:function(arm,size=0x28) addr:0x0211bc90
_ZN12ActorUnkFCHLC1Ev kind:function(arm,size=0xf4) addr:0x0211bcb8
_ZN12ActorUnkFCHL19func_ov034_02119ff0Ev kind:function(arm,size=0x14) addr:0x0211bdac
_ZN12ActorUnkFCHL19func_ov034_0211a004Ev kind:function(arm,size=0x204) addr:0x0211bdc0
_ZN12ActorUnkFCHL19func_ov034_0211a208Ev kind:function(arm,size=0x14) addr:0x0211bfc4
_ZN12ActorUnkFCHL19func_ov034_0211a21cEv kind:function(arm,size=0x20) addr:0x0211bfd8
_ZN12ActorUnkFCHLD0Ev kind:function(arm,size=0x1c) addr:0x0211bff8
_ZN12ActorUnkFCHLD1Ev kind:function(arm,size=0x30) addr:0x0211c014
_ZN12ActorUnkFCHL19func_ov034_0211a288Ev kind:function(arm,size=0x38) addr:0x0211c044
_ZN19ActorProfileUnkFCHLD1Ev kind:function(arm,size=0x14) addr:0x0211c07c
func_ov034_0211c090 kind:function(arm,size=0x48) addr:0x0211c090
_ZN19ActorProfileUnkTRLY10GetProfileEv kind:function(arm,size=0xc) addr:0x0211c0d8
_ZN19ActorProfileUnkTRLY6CreateEv kind:function(arm,size=0x24) addr:0x0211c0e4
_ZN19ActorProfileUnkTRLYC1Ev kind:function(arm,size=0x48) addr:0x0211c108
_ZN12ActorUnkTRLYD1Ev kind:function(arm,size=0x14) addr:0x0211c150
_ZN12ActorUnkTRLYD0Ev kind:function(arm,size=0x1c) addr:0x0211c164
_ZN12ActorUnkTRLY19func_ov034_0211a3c4Ev kind:function(arm,size=0x31c) addr:0x0211c180
_ZN12ActorUnkTRLY19func_ov034_0211a6e0Ev kind:function(arm,size=0x9c) addr:0x0211c49c
_ZN12ActorUnkTRLY19func_ov034_0211a77cEv kind:function(arm,size=0x40) addr:0x0211c538
_ZN12ActorUnkTRLY19func_ov034_0211a7bcEv kind:function(arm,size=0x1c) addr:0x0211c578
_ZN12ActorUnkTRLY19func_ov034_0211a7d8Ev kind:function(arm,size=0x24) addr:0x0211c594
_ZN12ActorUnkTRLY19func_ov034_0211a7fcEv kind:function(arm,size=0xa4) addr:0x0211c5b8
_ZN12ActorUnkTRLYC1Ev kind:function(arm,size=0x240) addr:0x0211c65c
_ZN12ActorUnkTRLY19func_ov034_0211aae0Ev kind:function(arm,size=0x280) addr:0x0211c89c
_ZN12ActorUnkTRLY19func_ov034_0211ad60Ev kind:function(arm,size=0x12c) addr:0x0211cb1c
_ZN12ActorUnkTRLY19func_ov034_0211ae8cEv kind:function(arm,size=0x94) addr:0x0211cc48
_ZN12ActorUnkTRLY19func_ov034_0211af20Ev kind:function(arm,size=0xbc) addr:0x0211ccdc
_ZN12ActorUnkTRLY19func_ov034_0211afdcEv kind:function(arm,size=0x24c) addr:0x0211cd98
_ZN12ActorUnkTRLY19func_ov034_0211b228Ev kind:function(arm,size=0x58) addr:0x0211cfe4
_ZN12ActorUnkTRLY19func_ov034_0211b280Ev kind:function(arm,size=0x19c) addr:0x0211d03c
_ZN12ActorUnkTRLY19func_ov034_0211b41cEv kind:function(arm,size=0x988) addr:0x0211d1d8
_ZN12ActorUnkTRLY19func_ov034_0211bda4Ev kind:function(arm,size=0x5c) addr:0x0211db60
_ZN12ActorUnkTRLY19func_ov034_0211be00Ev kind:function(arm,size=0x10c) addr:0x0211dbbc
_ZN12ActorUnkTRLY19func_ov034_0211bf0cEv kind:function(arm,size=0x18) addr:0x0211dcc8
_ZN12ActorUnkTRLY19func_ov034_0211bf24Ev kind:function(arm,size=0x2c0) addr:0x0211dce0
_ZN12ActorUnkTRLY19func_ov034_0211c1e4Ev kind:function(arm,size=0x278) addr:0x0211dfa0
_ZN12ActorUnkTRLY19func_ov034_0211c45cEv kind:function(arm,size=0x4c) addr:0x0211e218
_ZN12ActorUnkTRLY19func_ov034_0211c4a8Ev kind:function(arm,size=0x274) addr:0x0211e264
_ZN12ActorUnkTRLY19func_ov034_0211c71cEv kind:function(arm,size=0x24) addr:0x0211e4d8
_ZN12ActorUnkTRLY19func_ov034_0211c740Ev kind:function(arm,size=0x54) addr:0x0211e4fc
_ZN12ActorUnkTRLY19func_ov034_0211c794Ev kind:function(arm,size=0x44) addr:0x0211e550
_ZN12ActorUnkTRLY19func_ov034_0211c7d8Ev kind:function(arm,size=0x10) addr:0x0211e594
_ZN12ActorUnkTRLY19func_ov034_0211c7e8Ev kind:function(arm,size=0xfc) addr:0x0211e5a4
_ZN12ActorUnkTRLY19func_ov034_0211c8e4Ev kind:function(arm,size=0x1b0) addr:0x0211e6a0
_ZN12ActorUnkTRLY19func_ov034_0211ca94Ev kind:function(arm,size=0x40) addr:0x0211e850
_ZN12ActorUnkTRLY19func_ov034_0211cad4Ev kind:function(arm,size=0xdc) addr:0x0211e890
_ZN12ActorUnkTRLY19func_ov034_0211cbb0Ev kind:function(arm,size=0x13c) addr:0x0211e96c
_ZN12ActorUnkTRLY19func_ov034_0211ccecEv kind:function(arm,size=0x194) addr:0x0211eaa8
_ZN12ActorUnkTRLY19func_ov034_0211ce80Ev kind:function(arm,size=0x144) addr:0x0211ec3c
_ZN12ActorUnkTRLY19func_ov034_0211cfc4Ev kind:function(arm,size=0xf4) addr:0x0211ed80
_ZN12ActorUnkTRLY19func_ov034_0211d0b8Ev kind:function(arm,size=0x6c) addr:0x0211ee74
_ZN12ActorUnkTRLY19func_ov034_0211d124Ev kind:function(arm,size=0x48) addr:0x0211eee0
_ZN12ActorUnkTRLY19func_ov034_0211d16cEv kind:function(arm,size=0x3c) addr:0x0211ef28
_ZN12ActorUnkTRLY19func_ov034_0211d1a8Ev kind:function(arm,size=0x108) addr:0x0211ef64
_ZN12ActorUnkTRLY19func_ov034_0211d2b0Ev kind:function(arm,size=0x4c) addr:0x0211f06c
_ZN12ActorUnkTRLY19func_ov034_0211d2fcEv kind:function(arm,size=0x184) addr:0x0211f0b8
_ZN12ActorUnkTRLY19func_ov034_0211d480Ev kind:function(arm,size=0x234) addr:0x0211f23c
_ZN12ActorUnkTRLY19func_ov034_0211d6b4Ev kind:function(arm,size=0x1ec) addr:0x0211f470
_ZN12ActorUnkTRLY19func_ov034_0211d8a0Ev kind:function(arm,size=0xd0) addr:0x0211f65c
_ZN12ActorUnkTRLY19func_ov034_0211d970Ev kind:function(arm,size=0x13c) addr:0x0211f72c
_ZN12ActorUnkTRLY19func_ov034_0211daacEv kind:function(arm,size=0x90) addr:0x0211f868
_ZN12ActorUnkTRLY19func_ov034_0211db3cEv kind:function(arm,size=0xb4) addr:0x0211f8f8
_ZN12ActorUnkTRLY19func_ov034_0211dbf0Ev kind:function(arm,size=0x18) addr:0x0211f9ac
_ZN12ActorUnkTRLY19func_ov034_0211dc08Ev kind:function(arm,size=0x84) addr:0x0211f9c4
_ZN12ActorUnkTRLY19func_ov034_0211dc8cEv kind:function(arm,size=0x330) addr:0x0211fa48
_ZN12ActorUnkTRLY19func_ov034_0211dfbcEv kind:function(arm,size=0x38) addr:0x0211fd78
_ZN12ActorUnkTRLY19func_ov034_0211dff4Ev kind:function(arm,size=0xec) addr:0x0211fdb0
_ZN12ActorUnkTRLY19func_ov034_0211e0e0Ev kind:function(arm,size=0x94) addr:0x0211fe9c
_ZN12ActorUnkTRLY19func_ov034_0211e174Ev kind:function(arm,size=0x30) addr:0x0211ff30
_ZN12ActorUnkTRLY19func_ov034_0211e1a4Ev kind:function(arm,size=0x30) addr:0x0211ff60
_ZN12ActorUnkTRLY19func_ov034_0211e1d4Ev kind:function(arm,size=0x30) addr:0x0211ff90
_ZN12ActorUnkTRLY19func_ov034_0211e204Ev kind:function(arm,size=0x30) addr:0x0211ffc0
_ZN12ActorUnkTRLY19func_ov034_0211e234Ev kind:function(arm,size=0x58) addr:0x0211fff0
_ZN12ActorUnkTRLY19func_ov034_0211e28cEv kind:function(arm,size=0x60) addr:0x02120048
_ZN19ActorProfileUnkTRLYD1Ev kind:function(arm,size=0x14) addr:0x021200a8
_ZN19ActorProfileUnkTRRL10GetProfileEv kind:function(arm,size=0xc) addr:0x021200bc
_ZN19ActorProfileUnkTRRL6CreateEv kind:function(arm,size=0x28) addr:0x021200c8
_ZN19ActorProfileUnkTRRLC1Ev kind:function(arm,size=0x30) addr:0x021200f0
_ZN12ActorUnkTRRLC1Ev kind:function(arm,size=0x1ac) addr:0x02120120
_ZN12ActorUnkTRRLD1Ev kind:function(arm,size=0x54) addr:0x021202cc
_ZN12ActorUnkTRRLD0Ev kind:function(arm,size=0x5c) addr:0x02120320
_ZN12ActorUnkTRRL19func_ov034_0211e5c0Ev kind:function(arm,size=0x1d0) addr:0x0212037c
_ZN12ActorUnkTRRL19func_ov034_0211e790Ev kind:function(arm,size=0x6c) addr:0x0212054c
_ZN12ActorUnkTRRL19func_ov034_0211e7fcEv kind:function(arm,size=0x1c) addr:0x021205b8
_ZN12ActorUnkTRRL19func_ov034_0211e818Ev kind:function(arm,size=0x4) addr:0x021205d4
_ZN12ActorUnkTRRL19func_ov034_0211e81cEv kind:function(arm,size=0x24) addr:0x021205d8
_ZN12ActorUnkTRRL19func_ov034_0211e840Ev kind:function(arm,size=0x4) addr:0x021205fc
_ZN12ActorUnkTRRL19func_ov034_0211e844Ev kind:function(arm,size=0x24) addr:0x02120600
_ZN12ActorUnkTRRL19func_ov034_0211e868Ev kind:function(arm,size=0x184) addr:0x02120624
_ZN12ActorUnkTRRL19func_ov034_0211e9ecEv kind:function(arm,size=0x34) addr:0x021207a8
_ZN12ActorUnkTRRL19func_ov034_0211ea20Ev kind:function(arm,size=0x48) addr:0x021207dc
_ZN12ActorUnkTRRL19func_ov034_0211ea68Ev kind:function(arm,size=0x40) addr:0x02120824
_ZN12ActorUnkTRRL19func_ov034_0211eaa8Ev kind:function(arm,size=0x64) addr:0x02120864
_ZN12ActorUnkTRRL19func_ov034_0211eb0cEv kind:function(arm,size=0x114) addr:0x021208c8
_ZN12ActorUnkTRRL19func_ov034_0211ec20Ev kind:function(arm,size=0x50) addr:0x021209dc
_ZN12ActorUnkTRRL19func_ov034_0211ec70Ev kind:function(arm,size=0x58) addr:0x02120a2c
_ZN12ActorUnkTRRL19func_ov034_0211ecc8Ev kind:function(arm,size=0x6c) addr:0x02120a84
_ZN12ActorUnkTRRL19func_ov034_0211ed34Ev kind:function(arm,size=0x14) addr:0x02120af0
_ZN12ActorUnkTRRL19func_ov034_0211ed48Ev kind:function(arm,size=0x6c) addr:0x02120b04
_ZN12ActorUnkTRRL19func_ov034_0211edb4Ev kind:function(arm,size=0x18) addr:0x02120b70
_ZN12ActorUnkTRRL19func_ov034_0211edccEv kind:function(arm,size=0x18) addr:0x02120b88
_ZN12ActorUnkTRRL19func_ov034_0211ede4Ev kind:function(arm,size=0x18) addr:0x02120ba0
_ZN12ActorUnkTRRL19func_ov034_0211edfcEv kind:function(arm,size=0x28) addr:0x02120bb8
_ZN12ActorUnkTRRL19func_ov034_0211ee24Ev kind:function(arm,size=0x60) addr:0x02120be0
_ZN12ActorUnkTRRL19func_ov034_0211ee84Ev kind:function(arm,size=0x3c) addr:0x02120c40
_ZN12ActorUnkTRRL19func_ov034_0211eec0Ev kind:function(arm,size=0x98) addr:0x02120c7c
_ZN12ActorUnkTRRL19func_ov034_0211ef58Ev kind:function(arm,size=0x3c) addr:0x02120d14
_ZN12ActorUnkTRRL19func_ov034_0211ef94Ev kind:function(arm,size=0x374) addr:0x02120d50
_ZN12ActorUnkTRRL19func_ov034_0211f308Ev kind:function(arm,size=0x23c) addr:0x021210c4
_ZN12ActorUnkTRRL19func_ov034_0211f544Ev kind:function(arm,size=0x28) addr:0x02121300
_ZN12ActorUnkTRRL19func_ov034_0211f56cEv kind:function(arm,size=0x128) addr:0x02121328
_ZN12ActorUnkTRRL19func_ov034_0211f694Ev kind:function(arm,size=0x140) addr:0x02121450
_ZN12ActorUnkTRRL19func_ov034_0211f7d4Ev kind:function(arm,size=0x34) addr:0x02121590
_ZN12ActorUnkTRRL19func_ov034_0211f808Ev kind:function(arm,size=0x23c) addr:0x021215c4
_ZN12ActorUnkTRRL19func_ov034_0211fa44Ev kind:function(arm,size=0x8a0) addr:0x02121800
_ZN12ActorUnkTRRL19func_ov034_021202e4Ev kind:function(arm,size=0x50) addr:0x021220a0
_ZN12ActorUnkTRRL19func_ov034_02120334Ev kind:function(arm,size=0x118) addr:0x021220f0
_ZN12ActorUnkTRRL19func_ov034_0212044cEv kind:function(arm,size=0x18) addr:0x02122208
_ZN12ActorUnkTRRL19func_ov034_02120464Ev kind:function(arm,size=0x58) addr:0x02122220
_ZN12ActorUnkTRRL19func_ov034_021204bcEv kind:function(arm,size=0x1ac) addr:0x02122278
_ZN12ActorUnkTRRL19func_ov034_02120668Ev kind:function(arm,size=0x2d4) addr:0x02122424
_ZN12ActorUnkTRRL19func_ov034_0212093cEv kind:function(arm,size=0x140) addr:0x021226f8
_ZN12ActorUnkTRRL19func_ov034_02120a7cEv kind:function(arm,size=0xb8) addr:0x02122838
_ZN12ActorUnkTRRL19func_ov034_02120b34Ev kind:function(arm,size=0xa8) addr:0x021228f0
_ZN12ActorUnkTRRL19func_ov034_02120bdcEv kind:function(arm,size=0xc0) addr:0x02122998
_ZN12ActorUnkTRRL19func_ov034_02120c9cEv kind:function(arm,size=0x18) addr:0x02122a58
_ZN12ActorUnkTRRL19func_ov034_02120cb4Ev kind:function(arm,size=0xb8) addr:0x02122a70
_ZN19ActorProfileUnkTRRLD1Ev kind:function(arm,size=0x14) addr:0x02122b28
_ZN23MapObjectProfileUnkTRSW10GetProfileEv kind:function(arm,size=0xc) addr:0x02122b3c
_ZN23MapObjectProfileUnkTRSW6CreateEv kind:function(arm,size=0x24) addr:0x02122b48
_ZN23MapObjectProfileUnkTRSWC1Ev kind:function(arm,size=0xac) addr:0x02122b6c
_ZN16MapObjectUnkTRSWC1Ev kind:function(arm,size=0x10c) addr:0x02122c18
_ZN16MapObjectUnkTRSW19func_ov034_02120f68Ev kind:function(arm,size=0x14) addr:0x02122d24
_ZN16MapObjectUnkTRSWD1Ev kind:function(arm,size=0x48) addr:0x02122d38
_ZN16MapObjectUnkTRSWD0Ev kind:function(arm,size=0x50) addr:0x02122d80
_ZN16MapObjectUnkTRSW19func_ov034_02121014Ev kind:function(arm,size=0xa0) addr:0x02122dd0
_ZN16MapObjectUnkTRSW19func_ov034_021210b4Ev kind:function(arm,size=0x168) addr:0x02122e70
_ZN16MapObjectUnkTRSW19func_ov034_0212121cEv kind:function(arm,size=0x54) addr:0x02122fd8
_ZN16MapObjectUnkTRSW19func_ov034_02121270Ev kind:function(arm,size=0x114) addr:0x0212302c
_ZN16MapObjectUnkTRSW19func_ov034_02121384Ev kind:function(arm,size=0x34) addr:0x02123140
_ZN16MapObjectUnkTRSW19func_ov034_021213b8Ev kind:function(arm,size=0xe4) addr:0x02123174
_ZN16MapObjectUnkTRSW19func_ov034_0212149cEv kind:function(arm,size=0x60) addr:0x02123258
_ZN16MapObjectUnkTRSW19func_ov034_021214fcEv kind:function(arm,size=0xa8) addr:0x021232b8
_ZN16MapObjectUnkTRSW19func_ov034_021215a4Ev kind:function(arm,size=0x44) addr:0x02123360
_ZN16MapObjectUnkTRSW19func_ov034_021215e8Ev kind:function(arm,size=0x44) addr:0x021233a4
_ZN16MapObjectUnkTRSW19func_ov034_0212162cEv kind:function(arm,size=0x48) addr:0x021233e8
_ZN16MapObjectUnkTRSW19func_ov034_02121674Ev kind:function(arm,size=0x14) addr:0x02123430
_ZN23MapObjectProfileUnkTRSWD1Ev kind:function(arm,size=0x14) addr:0x02123444
func_ov034_02123458 kind:function(arm,size=0x80) addr:0x02123458
_ZN23MapObjectProfileUnkWPHL10GetProfileEv kind:function(arm,size=0xc) addr:0x021234d8
_ZN23MapObjectProfileUnkWPHL6CreateEv kind:function(arm,size=0x24) addr:0x021234e4
_ZN23MapObjectProfileUnkWPHLC1Ev kind:function(arm,size=0x3c) addr:0x02123508
_ZN16MapObjectUnkWPHLC1Ev kind:function(arm,size=0xcc) addr:0x02123544
_ZN16MapObjectUnkWPHL19func_ov034_02121854Ev kind:function(arm,size=0x9c) addr:0x02123610
_ZN16MapObjectUnkWPHL19func_ov034_021218f0Ev kind:function(arm,size=0x8) addr:0x021236ac
_ZN16MapObjectUnkWPHL19func_ov034_021218f8Ev kind:function(arm,size=0x2b4) addr:0x021236b4
_ZN16MapObjectUnkWPHL19func_ov034_02121bacEv kind:function(arm,size=0x14) addr:0x02123968
_ZN16MapObjectUnkWPHL19func_ov034_02121bc0Ev kind:function(arm,size=0x30) addr:0x0212397c
_ZN16MapObjectUnkWPHL19func_ov034_02121bf0Ev kind:function(arm,size=0x54) addr:0x021239ac
_ZN16MapObjectUnkWPHL19func_ov034_02121c44Ev kind:function(arm,size=0x128) addr:0x02123a00
_ZN16MapObjectUnkWPHL19func_ov034_02121d6cEv kind:function(arm,size=0x18) addr:0x02123b28
_ZN16MapObjectUnkWPHL19func_ov034_02121d84Ev kind:function(arm,size=0x60) addr:0x02123b40
_ZN16MapObjectUnkWPHL19func_ov034_02121de4Ev kind:function(arm,size=0x60) addr:0x02123ba0
_ZN16MapObjectUnkWPHL19func_ov034_02121e44Ev kind:function(arm,size=0x14) addr:0x02123c00
_ZN16MapObjectUnkWPHLD1Ev kind:function(arm,size=0x30) addr:0x02123c14
_ZN16MapObjectUnkWPHLD0Ev kind:function(arm,size=0x38) addr:0x02123c44
_ZN23MapObjectProfileUnkWPHLD1Ev kind:function(arm,size=0x14) addr:0x02123c7c
_ZN23MapObjectProfileUnkGELG10GetProfileEv kind:function(arm,size=0xc) addr:0x02123c90
_ZN23MapObjectProfileUnkGELG6CreateEv kind:function(arm,size=0x24) addr:0x02123c9c
_ZN23MapObjectProfileUnkGELGC1Ev kind:function(arm,size=0x4c) addr:0x02123cc0
_ZN16MapObjectUnkGELGC1Ev kind:function(arm,size=0xbc) addr:0x02123d0c
_ZN16MapObjectUnkGELG19func_ov034_0212200cEv kind:function(arm,size=0x20) addr:0x02123dc8
_ZN16MapObjectUnkGELG19func_ov034_0212202cEv kind:function(arm,size=0x1c) addr:0x02123de8
_ZN16MapObjectUnkGELG19func_ov034_02122048Ev kind:function(arm,size=0x170) addr:0x02123e04
_ZN16MapObjectUnkGELG19func_ov034_021221b8Ev kind:function(arm,size=0x2c) addr:0x02123f74
_ZN16MapObjectUnkGELG19func_ov034_021221e4Ev kind:function(arm,size=0x8) addr:0x02123fa0
_ZN16MapObjectUnkGELG19func_ov034_021221ecEv kind:function(arm,size=0x148) addr:0x02123fa8
_ZN16MapObjectUnkGELG19func_ov034_02122334Ev kind:function(arm,size=0xc) addr:0x021240f0
_ZN16MapObjectUnkGELG19func_ov034_02122340Ev kind:function(arm,size=0x28) addr:0x021240fc
_ZN16MapObjectUnkGELGD1Ev kind:function(arm,size=0x28) addr:0x02124124
_ZN16MapObjectUnkGELGD0Ev kind:function(arm,size=0x30) addr:0x0212414c
_ZN23MapObjectProfileUnkGELGD1Ev kind:function(arm,size=0x14) addr:0x0212417c
_ZN19func_ov034_02124190D0Ev kind:function(arm,size=0x1c) addr:0x02124190
func_ov034_021241ac kind:function(thumb,size=0x48) addr:0x021241ac
data_ov034_021241f4 kind:data(any) addr:0x021241f4
data_ov034_02124204 kind:data(any) addr:0x02124204
data_ov034_02124214 kind:data(any) addr:0x02124214
data_ov034_02124224 kind:data(any) addr:0x02124224
data_ov034_02124234 kind:data(any) addr:0x02124234
data_ov034_02124238 kind:data(any) addr:0x02124238
data_ov034_02124248 kind:data(any) addr:0x02124248
data_ov034_02124258 kind:data(any) addr:0x02124258
data_ov034_02124268 kind:data(any) addr:0x02124268
data_ov034_02124278 kind:data(any) addr:0x02124278
data_ov034_02124288 kind:data(any) addr:0x02124288
data_ov034_02124294 kind:data(any) addr:0x02124294
__sinit_ActorUnkRMM1.cpp kind:function(arm,size=0x50) addr:0x021242a8
__sinit_ActorUnkBSFC.cpp kind:function(arm,size=0x50) addr:0x021242f8
__sinit_ActorUnkFCHL.cpp kind:function(arm,size=0x50) addr:0x02124348
__sinit_ActorUnkTRLY.cpp kind:function(arm,size=0x70) addr:0x02124398
__sinit_ActorUnkTRRL.cpp kind:function(arm,size=0x50) addr:0x02124408
__sinit_MapObjectUnkTRSW.cpp kind:function(arm,size=0x50) addr:0x02124458
__sinit_MapObjectUnkWPHL.cpp kind:function(arm,size=0x5c) addr:0x021244a8
__sinit_MapObjectUnkGELG.cpp kind:function(arm,size=0x84) addr:0x02124504
.p__sinit_ActorUnkRMM1.cpp kind:data(word) addr:0x02124588
.p__sinit_ActorUnkBSFC.cpp kind:data(word) addr:0x0212458c
.p__sinit_ActorUnkFCHL.cpp kind:data(word) addr:0x02124590
.p__sinit_ActorUnkTRLY.cpp kind:data(word) addr:0x02124594
.p__sinit_ActorUnkTRRL.cpp kind:data(word) addr:0x02124598
.p__sinit_MapObjectUnkTRSW.cpp kind:data(word) addr:0x0212459c
.p__sinit_MapObjectUnkWPHL.cpp kind:data(word) addr:0x021245a0
.p__sinit_MapObjectUnkGELG.cpp kind:data(word) addr:0x021245a4
data_ov034_021245c8 kind:data(any) addr:0x021245c8
_ZTV19data_ov034_021245c8 kind:data(any) addr:0x021245c8 ambiguous
_ZTV19data_ov034_021245e4 kind:data(any) addr:0x021245e4
_ZTV19data_ov034_02124648 kind:data(any) addr:0x02124648
data_ov034_0212466c kind:data(any) addr:0x0212466c
data_ov034_02124684 kind:data(any) addr:0x02124684
data_ov034_021246a4 kind:data(any) addr:0x021246a4
_ZTV19data_ov034_021246e4 kind:data(any) addr:0x021246e4
data_ov034_02124744 kind:data(any) addr:0x02124744
_ZTV19data_ov034_0212475c kind:data(any) addr:0x0212475c
data_ov034_02124788 kind:data(any) addr:0x02124788
data_ov034_021247b0 kind:data(any) addr:0x021247b0
_ZTV19data_ov034_021247f0 kind:data(any) addr:0x021247f0
data_ov034_02124854 kind:data(any) addr:0x02124854
data_ov034_02124860 kind:data(any) addr:0x02124860
data_ov034_0212486c kind:data(any) addr:0x0212486c
data_ov034_02124878 kind:data(any) addr:0x02124878
data_ov034_02124884 kind:data(any) addr:0x02124884
data_ov034_02124894 kind:data(any) addr:0x02124894
data_ov034_021248a8 kind:data(any) addr:0x021248a8
_ZTV19data_ov034_021248bc kind:data(any) addr:0x021248bc
data_ov034_021248e8 kind:data(any) addr:0x021248e8
_ZTV19data_ov034_02124908 kind:data(any) addr:0x02124908
data_ov034_02124964 kind:data(any) addr:0x02124964
data_ov034_02124974 kind:data(any) addr:0x02124974
data_ov034_021249dc kind:data(any) addr:0x021249dc
data_ov034_021249e8 kind:data(any) addr:0x021249e8
data_ov034_021249f8 kind:data(any) addr:0x021249f8
_ZTV19data_ov034_02124a08 kind:data(any) addr:0x02124a08
_ZTV19data_ov034_02124a2c kind:data(any) addr:0x02124a2c
data_ov034_02124a88 kind:data(any) addr:0x02124a88
data_ov034_02124a90 kind:data(any) addr:0x02124a90
data_ov034_02124a98 kind:data(any) addr:0x02124a98
data_ov034_02124aa0 kind:data(any) addr:0x02124aa0
data_ov034_02124aa8 kind:data(any) addr:0x02124aa8
data_ov034_02124ab8 kind:data(any) addr:0x02124ab8
data_ov034_02124ad4 kind:data(any) addr:0x02124ad4
data_ov034_02124af0 kind:data(any) addr:0x02124af0
data_ov034_02124b30 kind:data(any) addr:0x02124b30
data_ov034_02124b4c kind:data(any) addr:0x02124b4c
data_ov034_02124b84 kind:data(any) addr:0x02124b84
data_ov034_02124ba0 kind:data(any) addr:0x02124ba0
data_ov034_02124bc8 kind:data(any) addr:0x02124bc8
data_ov034_02124c20 kind:bss addr:0x02124c20
data_ov034_02124c24 kind:bss addr:0x02124c24
sActorProfileUnkRMM1 kind:bss addr:0x02124c30
data_ov034_02124d08 kind:bss addr:0x02124d08
data_ov034_02124d0c kind:bss addr:0x02124d0c
sActorProfileUnkBSFC kind:bss addr:0x02124d18
data_ov034_02124df0 kind:bss addr:0x02124df0
data_ov034_02124df4 kind:bss addr:0x02124df4
sActorProfileUnkFCHL kind:bss addr:0x02124e00
data_ov034_02124ed8 kind:bss addr:0x02124ed8
data_ov034_02124edc kind:bss addr:0x02124edc
sActorProfileUnkTRLY kind:bss addr:0x02124ee8
data_ov034_02124fc0 kind:bss addr:0x02124fc0
data_ov034_02124fc8 kind:bss addr:0x02124fc8
sActorProfileUnkTRRL kind:bss addr:0x02124fd4
data_ov034_021250c8 kind:bss addr:0x021250c8
data_ov034_021250cc kind:bss addr:0x021250cc
sMapObjectProfileUnkTRSW kind:bss addr:0x021250d8
data_ov034_021250f8 kind:bss addr:0x021250f8
data_ov034_02125120 kind:bss addr:0x02125120 ambiguous
data_ov034_021251ac kind:bss addr:0x021251ac
data_ov034_021251cc kind:bss addr:0x021251cc
data_ov034_021251d0 kind:bss addr:0x021251d0
data_ov034_021251dc kind:bss addr:0x021251dc
sMapObjectProfileUnkWPHL kind:bss addr:0x021251e8
data_ov034_021251f8 kind:bss addr:0x021251f8 ambiguous
data_ov034_02125208 kind:bss addr:0x02125208
data_ov034_0212520c kind:bss addr:0x0212520c
sMapObjectProfileUnkGELG kind:bss addr:0x02125218
data_ov034_02125238 kind:bss addr:0x02125238
data_ov034_0212525c kind:bss addr:0x0212525c ambiguous
