_ZN19ActorProfileUnkBANI10GetProfileEv kind:function(arm,size=0xc) addr:0x02157ea0
_ZN19ActorProfileUnkBANI6CreateEv kind:function(arm,size=0x24) addr:0x02157eac
_ZN19ActorProfileUnkBANIC1Ev kind:function(arm,size=0x5c) addr:0x02157ed0
_ZN12ActorUnkBANIC1Ev kind:function(arm,size=0x218) addr:0x02157f2c
_ZN12ActorUnkBANI19func_ov069_02158144Ev kind:function(arm,size=0x14) addr:0x02158144
_ZN12ActorUnkBANI19func_ov069_02158158Ev kind:function(arm,size=0x44) addr:0x02158158
_ZN12ActorUnkBANID1Ev kind:function(arm,size=0x28) addr:0x0215819c
_ZN12ActorUnkBANID0Ev kind:function(arm,size=0x30) addr:0x021581c4
_ZN12ActorUnkBANI19func_ov069_021581f4Ev kind:function(arm,size=0x24) addr:0x021581f4
_ZN12ActorUnkBANI19func_ov069_02158218Ev kind:function(arm,size=0xbc) addr:0x02158218
_ZN12ActorUnkBANI19func_ov069_021582d4Ev kind:function(arm,size=0x28) addr:0x021582d4
_ZN12ActorUnkBANI19func_ov069_021582fcEv kind:function(arm,size=0x28) addr:0x021582fc
_ZN12ActorUnkBANI19func_ov069_02158324Ev kind:function(arm,size=0x34) addr:0x02158324
_ZN12ActorUnkBANI19func_ov069_02158358Ev kind:function(arm,size=0x8c) addr:0x02158358
_ZN12ActorUnkBANI19func_ov069_021583e4Ev kind:function(arm,size=0x254) addr:0x021583e4
_ZN12ActorUnkBANI19func_ov069_02158638Ev kind:function(arm,size=0xe4) addr:0x02158638
_ZN12ActorUnkBANI19func_ov069_0215871cEv kind:function(arm,size=0x2c) addr:0x0215871c
_ZN12ActorUnkBANI19func_ov069_02158748Ev kind:function(arm,size=0x58) addr:0x02158748
_ZN12ActorUnkBANI19func_ov069_021587a0Ev kind:function(arm,size=0x560) addr:0x021587a0
_ZN12ActorUnkBANI19func_ov069_02158d00Ev kind:function(arm,size=0x24) addr:0x02158d00
_ZN12ActorUnkBANI19func_ov069_02158d24Ev kind:function(arm,size=0x2c) addr:0x02158d24
_ZN12ActorUnkBANI19func_ov069_02158d50Ev kind:function(arm,size=0x1c) addr:0x02158d50
_ZN12ActorUnkBANI19func_ov069_02158d6cEv kind:function(arm,size=0x28) addr:0x02158d6c
_ZN12ActorUnkBANID2Ev kind:function(arm,size=0x20) addr:0x02158d94
_ZN19ActorProfileUnkBANID1Ev kind:function(arm,size=0x14) addr:0x02158db4
_ZN19ActorProfileUnkRB1F10GetProfileEv kind:function(arm,size=0xc) addr:0x02158dc8
_ZN19ActorProfileUnkRB1F6CreateEv kind:function(arm,size=0x24) addr:0x02158dd4
_ZN19ActorProfileUnkRB1FC1Ev kind:function(arm,size=0x6c) addr:0x02158df8
_ZN12ActorUnkRB1FC1Ev kind:function(arm,size=0x19c) addr:0x02158e64
_ZN12ActorUnkRB1F19func_ov069_02159000Ev kind:function(arm,size=0x14) addr:0x02159000
_ZN12ActorUnkRB1F19func_ov069_02159014Ev kind:function(arm,size=0x1b4) addr:0x02159014
_ZN12ActorUnkRB1F19func_ov069_021591c8Ev kind:function(arm,size=0x98) addr:0x021591c8
_ZN12ActorUnkRB1F19func_ov069_02159260Ev kind:function(arm,size=0x18) addr:0x02159260
_ZN12ActorUnkRB1F19func_ov069_02159278Ev kind:function(arm,size=0x50) addr:0x02159278
_ZN12ActorUnkRB1F19func_ov069_021592c8Ev kind:function(arm,size=0x138) addr:0x021592c8
_ZN12ActorUnkRB1F19func_ov069_02159400Ev kind:function(arm,size=0x4) addr:0x02159400
_ZN12ActorUnkRB1F19func_ov069_02159404Ev kind:function(arm,size=0x48) addr:0x02159404
_ZN12ActorUnkRB1F19func_ov069_0215944cEv kind:function(arm,size=0xbc) addr:0x0215944c
_ZN12ActorUnkRB1F19func_ov069_02159508Ev kind:function(arm,size=0x170) addr:0x02159508
_ZN12ActorUnkRB1F19func_ov069_02159678Ev kind:function(arm,size=0x18) addr:0x02159678
_ZN12ActorUnkRB1F19func_ov069_02159690Ev kind:function(arm,size=0x68) addr:0x02159690
_ZN12ActorUnkRB1F19func_ov069_021596f8Ev kind:function(arm,size=0x214) addr:0x021596f8
_ZN12ActorUnkRB1F19func_ov069_0215990cEv kind:function(arm,size=0x2c) addr:0x0215990c
_ZN12ActorUnkRB1F19func_ov069_02159938Ev kind:function(arm,size=0x3c) addr:0x02159938
_ZN12ActorUnkRB1F19func_ov069_02159974Ev kind:function(arm,size=0x34) addr:0x02159974
_ZN12ActorUnkRB1F19func_ov069_021599a8Ev kind:function(arm,size=0x24) addr:0x021599a8
_ZN12ActorUnkRB1F19func_ov069_021599ccEv kind:function(arm,size=0x54) addr:0x021599cc
_ZN12ActorUnkRB1F19func_ov069_02159a20Ev kind:function(arm,size=0x284) addr:0x02159a20
_ZN12ActorUnkRB1F19func_ov069_02159ca4Ev kind:function(arm,size=0x28) addr:0x02159ca4
_ZN12ActorUnkRB1F19func_ov069_02159cccEv kind:function(arm,size=0x100) addr:0x02159ccc
_ZN12ActorUnkRB1F19func_ov069_02159dccEv kind:function(arm,size=0x28) addr:0x02159dcc
_ZN12ActorUnkRB1F19func_ov069_02159df4Ev kind:function(arm,size=0x18) addr:0x02159df4
_ZN12ActorUnkRB1F19func_ov069_02159e0cEv kind:function(arm,size=0x2c) addr:0x02159e0c
_ZN12ActorUnkRB1F19func_ov069_02159e38Ev kind:function(arm,size=0x24) addr:0x02159e38
_ZN12ActorUnkRB1F19func_ov069_02159e5cEv kind:function(arm,size=0x10) addr:0x02159e5c
_ZN12ActorUnkRB1F19func_ov069_02159e6cEv kind:function(arm,size=0x8) addr:0x02159e6c
_ZN12ActorUnkRB1FD0Ev kind:function(arm,size=0x1c) addr:0x02159e74
_ZN12ActorUnkRB1FD1Ev kind:function(arm,size=0x30) addr:0x02159e90
_ZN12ActorUnkRB1F19func_ov069_02159ec0Ev kind:function(arm,size=0x38) addr:0x02159ec0
_ZN19ActorProfileUnkRB1FD1Ev kind:function(arm,size=0x14) addr:0x02159ef8
func_ov069_02159f0c kind:function(arm,size=0x3c) addr:0x02159f0c
func_ov069_02159f48 kind:function(arm,size=0x4) addr:0x02159f48
_ZN19func_ov069_02159f4cD0Ev kind:function(arm,size=0x14) addr:0x02159f4c
func_ov069_02159f60 kind:function(arm,size=0x28) addr:0x02159f60
func_ov069_02159f88 kind:function(arm,size=0x14) addr:0x02159f88
func_ov069_02159f9c kind:function(arm,size=0x174) addr:0x02159f9c
func_ov069_0215a110 kind:function(arm,size=0x4) addr:0x0215a110
func_ov069_0215a114 kind:function(arm,size=0x4) addr:0x0215a114
func_ov069_0215a118 kind:function(arm,size=0x4) addr:0x0215a118
func_ov069_0215a11c kind:function(arm,size=0xa4) addr:0x0215a11c
func_ov069_0215a1c0 kind:function(arm,size=0x6c) addr:0x0215a1c0
_ZN19ActorProfileUnkRBRP10GetProfileEv kind:function(arm,size=0xc) addr:0x0215a22c
_ZN19ActorProfileUnkRBRP6CreateEv kind:function(arm,size=0x24) addr:0x0215a238
_ZN19ActorProfileUnkRBRPC1Ev kind:function(arm,size=0x70) addr:0x0215a25c
_ZN12ActorUnkRBRPC1Ev kind:function(arm,size=0x150) addr:0x0215a2cc
_ZN12ActorUnkRBRP19func_ov069_0215a41cEv kind:function(arm,size=0x14) addr:0x0215a41c
_ZN12ActorUnkRBRP19func_ov069_0215a430Ev kind:function(arm,size=0x14) addr:0x0215a430
_ZN12ActorUnkRBRPD1Ev kind:function(arm,size=0x30) addr:0x0215a444
_ZN12ActorUnkRBRPD0Ev kind:function(arm,size=0x38) addr:0x0215a474
_ZN12ActorUnkRBRP19func_ov069_0215a4acEv kind:function(arm,size=0x60) addr:0x0215a4ac
_ZN12ActorUnkRBRP19func_ov069_0215a50cEv kind:function(arm,size=0x3c) addr:0x0215a50c
_ZN12ActorUnkRBRP19func_ov069_0215a548Ev kind:function(arm,size=0x80) addr:0x0215a548
_ZN12ActorUnkRBRP19func_ov069_0215a5c8Ev kind:function(arm,size=0x10) addr:0x0215a5c8
_ZN12ActorUnkRBRP19func_ov069_0215a5d8Ev kind:function(arm,size=0x4) addr:0x0215a5d8
_ZN12ActorUnkRBRP19func_ov069_0215a5dcEv kind:function(arm,size=0x3c) addr:0x0215a5dc
_ZN12ActorUnkRBRP19func_ov069_0215a618Ev kind:function(arm,size=0x7c) addr:0x0215a618
_ZN12ActorUnkRBRP19func_ov069_0215a694Ev kind:function(arm,size=0x8c) addr:0x0215a694
_ZN12ActorUnkRBRP19func_ov069_0215a720Ev kind:function(arm,size=0xc) addr:0x0215a720
_ZN12ActorUnkRBRP19func_ov069_0215a72cEv kind:function(arm,size=0x30) addr:0x0215a72c
_ZN12ActorUnkRBRP19func_ov069_0215a75cEv kind:function(arm,size=0xd8) addr:0x0215a75c
_ZN12ActorUnkRBRP19func_ov069_0215a834Ev kind:function(arm,size=0x18) addr:0x0215a834
_ZN12ActorUnkRBRP19func_ov069_0215a84cEv kind:function(arm,size=0x1c) addr:0x0215a84c
_ZN12ActorUnkRBRP19func_ov069_0215a868Ev kind:function(arm,size=0x1c) addr:0x0215a868
_ZN19ActorProfileUnkRBRPD1Ev kind:function(arm,size=0x14) addr:0x0215a884
_ZN23MapObjectProfileUnkGTRB10GetProfileEv kind:function(arm,size=0xc) addr:0x0215a898
_ZN23MapObjectProfileUnkGTRB6CreateEv kind:function(arm,size=0x24) addr:0x0215a8a4
_ZN23MapObjectProfileUnkGTRBC1Ev kind:function(arm,size=0x2c) addr:0x0215a8c8
_ZN16MapObjectUnkGTRBC1Ev kind:function(arm,size=0x88) addr:0x0215a8f4
_ZN16MapObjectUnkGTRB19func_ov069_0215a97cEv kind:function(arm,size=0x50) addr:0x0215a97c
_ZN16MapObjectUnkGTRB19func_ov069_0215a9ccEv kind:function(arm,size=0x1c) addr:0x0215a9cc
_ZN16MapObjectUnkGTRB19func_ov069_0215a9e8Ev kind:function(arm,size=0x14) addr:0x0215a9e8
_ZN16MapObjectUnkGTRB19func_ov069_0215a9fcEv kind:function(arm,size=0x1c) addr:0x0215a9fc
_ZN16MapObjectUnkGTRB19func_ov069_0215aa18Ev kind:function(arm,size=0x20) addr:0x0215aa18
_ZN16MapObjectUnkGTRBD1Ev kind:function(arm,size=0x20) addr:0x0215aa38
_ZN16MapObjectUnkGTRBD0Ev kind:function(arm,size=0x28) addr:0x0215aa58
_ZN23MapObjectProfileUnkGTRBD1Ev kind:function(arm,size=0x14) addr:0x0215aa80
data_ov069_0215aa9c kind:data(any) addr:0x0215aa9c
__sinit_ActorUnkBANI.cpp kind:function(arm,size=0x50) addr:0x0215aaa8
__sinit_ActorUnkRB1F.cpp kind:function(arm,size=0x50) addr:0x0215aaf8
__sinit_ov069_0215ab48 kind:function(arm,size=0x50) addr:0x0215ab48
__sinit_ActorUnkRBRP.cpp kind:function(arm,size=0x50) addr:0x0215ab98
__sinit_MapObjectUnkGTRB.cpp kind:function(arm,size=0x50) addr:0x0215abe8
.p__sinit_ActorUnkBANI.cpp kind:data(word) addr:0x0215ac38
.p__sinit_ActorUnkRB1F.cpp kind:data(word) addr:0x0215ac3c
.p__sinit_ov069_0215ab48 kind:data(word) addr:0x0215ac40
.p__sinit_ActorUnkRBRP.cpp kind:data(word) addr:0x0215ac44
.p__sinit_MapObjectUnkGTRB.cpp kind:data(word) addr:0x0215ac48
_ZTV19data_ov069_0215ac60 kind:data(any) addr:0x0215ac60
data_ov069_0215ac8c kind:data(any) addr:0x0215ac8c
data_ov069_0215acd0 kind:data(any) addr:0x0215acd0
_ZTV19data_ov069_0215ad30 kind:data(any) addr:0x0215ad30
_ZTV19data_ov069_0215ae4c kind:data(any) addr:0x0215ae4c
data_ov069_0215ae50 kind:data(any) addr:0x0215ae50 ambiguous
_ZTV19data_ov069_0215aedc kind:data(any) addr:0x0215aedc ambiguous
data_ov069_0215af70 kind:data(any) addr:0x0215af70
data_ov069_0215af74 kind:data(any) addr:0x0215af74
_ZTV19data_ov069_0215af8c kind:data(any) addr:0x0215af8c
data_ov069_0215afa4 kind:data(any) addr:0x0215afa4 ambiguous
data_ov069_0215afb8 kind:data(any) addr:0x0215afb8
data_ov069_0215aff8 kind:data(any) addr:0x0215aff8
data_ov069_0215b004 kind:data(any) addr:0x0215b004 ambiguous
data_ov069_0215b008 kind:data(any) addr:0x0215b008 ambiguous
data_ov069_0215b040 kind:data(any) addr:0x0215b040
data_ov069_0215b064 kind:data(any) addr:0x0215b064 ambiguous
data_ov069_0215b088 kind:data(any) addr:0x0215b088
data_ov069_0215b098 kind:data(any) addr:0x0215b098 ambiguous
_ZTV19data_ov069_0215b0e8 kind:data(any) addr:0x0215b0e8
data_ov069_0215b1b4 kind:data(any) addr:0x0215b1b4 ambiguous
data_ov069_0215b20c kind:data(any) addr:0x0215b20c
data_ov069_0215b230 kind:data(any) addr:0x0215b230
data_ov069_0215b234 kind:data(any) addr:0x0215b234
data_ov069_0215b244 kind:data(any) addr:0x0215b244
data_ov069_0215b254 kind:data(any) addr:0x0215b254
data_ov069_0215b26c kind:data(any) addr:0x0215b26c
_ZTV19data_ov069_0215b284 kind:data(any) addr:0x0215b284
data_ov069_0215b2b0 kind:data(any) addr:0x0215b2b0
data_ov069_0215b2f8 kind:data(any) addr:0x0215b2f8
_ZTV19data_ov069_0215b33c kind:data(any) addr:0x0215b33c
_ZTV19data_ov069_0215b380 kind:data(any) addr:0x0215b380 ambiguous
data_ov069_0215b3a4 kind:data(any) addr:0x0215b3a4
data_ov069_0215b3c0 kind:data(any) addr:0x0215b3c0
data_ov069_0215b3d4 kind:data(any) addr:0x0215b3d4 ambiguous
_ZGVN15ProfileInstanceI19ActorProfileUnkBANIE8sProfileE kind:bss addr:0x0215b400
@13080 kind:bss addr:0x0215b404
_ZN15ProfileInstanceI19ActorProfileUnkBANIE8sProfileE kind:bss addr:0x0215b410
_ZGVN15ProfileInstanceI19ActorProfileUnkRB1FE8sProfileE kind:bss addr:0x0215b4e8
@13086 kind:bss addr:0x0215b4ec
_ZN15ProfileInstanceI19ActorProfileUnkRB1FE8sProfileE kind:bss addr:0x0215b4f8
data_ov069_0215b50c kind:bss addr:0x0215b50c ambiguous
data_ov069_0215b5d0 kind:bss addr:0x0215b5d0
data_ov069_0215b5d4 kind:bss addr:0x0215b5d4
data_ov069_0215b5e0 kind:bss addr:0x0215b5e0
_ZGVN15ProfileInstanceI19ActorProfileUnkRBRPE8sProfileE kind:bss addr:0x0215b600
@13092 kind:bss addr:0x0215b604
_ZN15ProfileInstanceI19ActorProfileUnkRBRPE8sProfileE kind:bss addr:0x0215b610
data_ov069_0215b6e8 kind:bss addr:0x0215b6e8
data_ov069_0215b6ec kind:bss addr:0x0215b6ec
_ZN15ProfileInstanceI23MapObjectProfileUnkGTRBE8sProfileE kind:bss addr:0x0215b6f8
