_ZN19ActorProfileUnkOCTS10GetProfileEv kind:function(arm,size=0xc) addr:0x02125280
_ZN19ActorProfileUnkOCTS6CreateEv kind:function(arm,size=0x24) addr:0x0212528c
_ZN19ActorProfileUnkOCTSC1Ev kind:function(arm,size=0x48) addr:0x021252b0
_ZN12ActorUnkOCTSC1Ev kind:function(arm,size=0xc8) addr:0x021252f8
_ZN12ActorUnkOCTS19func_ov042_021253c0Ev kind:function(arm,size=0x14) addr:0x021253c0
_ZN12ActorUnkOCTS19func_ov042_021253d4Ev kind:function(arm,size=0x84) addr:0x021253d4
_ZN12ActorUnkOCTS19func_ov042_02125458Ev kind:function(arm,size=0x244) addr:0x02125458
_ZN12ActorUnkOCTS19func_ov042_0212569cEv kind:function(arm,size=0xb0) addr:0x0212569c
_ZN12ActorUnkOCTS19func_ov042_0212574cEv kind:function(arm,size=0x64) addr:0x0212574c
_ZN12ActorUnkOCTS19func_ov042_021257b0Ev kind:function(arm,size=0x48) addr:0x021257b0
_ZN12ActorUnkOCTS19func_ov042_021257f8Ev kind:function(arm,size=0x38) addr:0x021257f8
_ZN12ActorUnkOCTS19func_ov042_02125830Ev kind:function(arm,size=0xcc) addr:0x02125830
_ZN12ActorUnkOCTS19func_ov042_021258fcEv kind:function(arm,size=0x3c) addr:0x021258fc
_ZN12ActorUnkOCTS19func_ov042_02125938Ev kind:function(arm,size=0x4c) addr:0x02125938
_ZN12ActorUnkOCTSD0Ev kind:function(arm,size=0x1c) addr:0x02125984
_ZN12ActorUnkOCTSD1Ev kind:function(arm,size=0x28) addr:0x021259a0
_ZN12ActorUnkOCTS19func_ov042_021259c8Ev kind:function(arm,size=0x30) addr:0x021259c8
_ZN19ActorProfileUnkOCTSD1Ev kind:function(arm,size=0x14) addr:0x021259f8
_ZN19ActorProfileUnkOCTA10GetProfileEv kind:function(arm,size=0xc) addr:0x02125a0c
_ZN19ActorProfileUnkOCTA6CreateEv kind:function(arm,size=0x24) addr:0x02125a18
_ZN19ActorProfileUnkOCTAC1Ev kind:function(arm,size=0x54) addr:0x02125a3c
_ZN12ActorUnkOCTAC1Ev kind:function(arm,size=0x17c) addr:0x02125a90
_ZN12ActorUnkOCTA19func_ov042_02125c0cEv kind:function(arm,size=0x14) addr:0x02125c0c
_ZN12ActorUnkOCTA19func_ov042_02125c20Ev kind:function(arm,size=0x28) addr:0x02125c20
_ZN12ActorUnkOCTA19func_ov042_02125c48Ev kind:function(arm,size=0x70) addr:0x02125c48
_ZN12ActorUnkOCTA19func_ov042_02125cb8Ev kind:function(arm,size=0x20) addr:0x02125cb8
_ZN12ActorUnkOCTA19func_ov042_02125cd8Ev kind:function(arm,size=0x48) addr:0x02125cd8
_ZN12ActorUnkOCTA19func_ov042_02125d20Ev kind:function(arm,size=0x26c) addr:0x02125d20
_ZN12ActorUnkOCTA19func_ov042_02125f8cEv kind:function(arm,size=0x16c) addr:0x02125f8c
_ZN12ActorUnkOCTA19func_ov042_021260f8Ev kind:function(arm,size=0xbc) addr:0x021260f8
_ZN12ActorUnkOCTA19func_ov042_021261b4Ev kind:function(arm,size=0xe4) addr:0x021261b4
_ZN12ActorUnkOCTA19func_ov042_02126298Ev kind:function(arm,size=0x11c) addr:0x02126298
_ZN12ActorUnkOCTA19func_ov042_021263b4Ev kind:function(arm,size=0xb4) addr:0x021263b4
_ZN12ActorUnkOCTA19func_ov042_02126468Ev kind:function(arm,size=0x38) addr:0x02126468
_ZN12ActorUnkOCTA19func_ov042_021264a0Ev kind:function(arm,size=0x6c) addr:0x021264a0
_ZN12ActorUnkOCTA19func_ov042_0212650cEv kind:function(arm,size=0xb4) addr:0x0212650c
_ZN12ActorUnkOCTA19func_ov042_021265c0Ev kind:function(arm,size=0x8c) addr:0x021265c0
_ZN12ActorUnkOCTA19func_ov042_0212664cEv kind:function(arm,size=0x24) addr:0x0212664c
_ZN12ActorUnkOCTA19func_ov042_02126670Ev kind:function(arm,size=0x94) addr:0x02126670
_ZN12ActorUnkOCTA19func_ov042_02126704Ev kind:function(arm,size=0x54) addr:0x02126704
_ZN12ActorUnkOCTA19func_ov042_02126758Ev kind:function(arm,size=0x74) addr:0x02126758
_ZN12ActorUnkOCTA19func_ov042_021267ccEv kind:function(arm,size=0x238) addr:0x021267cc
_ZN12ActorUnkOCTA19func_ov042_02126a04Ev kind:function(arm,size=0x6c) addr:0x02126a04
_ZN12ActorUnkOCTA19func_ov042_02126a70Ev kind:function(arm,size=0xfc) addr:0x02126a70
_ZN12ActorUnkOCTA19func_ov042_02126b6cEv kind:function(arm,size=0x78) addr:0x02126b6c
_ZN12ActorUnkOCTA19func_ov042_02126be4Ev kind:function(arm,size=0x13c) addr:0x02126be4
_ZN12ActorUnkOCTA19func_ov042_02126d20Ev kind:function(arm,size=0xc8) addr:0x02126d20
_ZN12ActorUnkOCTA19func_ov042_02126de8Ev kind:function(arm,size=0x24) addr:0x02126de8
_ZN12ActorUnkOCTA19func_ov042_02126e0cEv kind:function(arm,size=0x2c) addr:0x02126e0c
_ZN12ActorUnkOCTAD0Ev kind:function(arm,size=0x1c) addr:0x02126e38
_ZN12ActorUnkOCTA19func_ov042_02126e54Ev kind:function(arm,size=0x7c) addr:0x02126e54
_ZN12ActorUnkOCTA19func_ov042_02126ed0Ev kind:function(arm,size=0x84) addr:0x02126ed0
_ZN19ActorProfileUnkOCTAD1Ev kind:function(arm,size=0x14) addr:0x02126f54
_ZN19ActorProfileUnkMIFR10GetProfileEv kind:function(arm,size=0xc) addr:0x02126f68
_ZN19ActorProfileUnkMIFR6CreateEv kind:function(arm,size=0x24) addr:0x02126f74
_ZN19ActorProfileUnkMIFRC1Ev kind:function(arm,size=0x4c) addr:0x02126f98
_ZN12ActorUnkMIFR19func_ov042_02126fe4Ev kind:function(arm,size=0x34) addr:0x02126fe4
_ZN12ActorUnkMIFRC1Ev kind:function(arm,size=0x124) addr:0x02127018
_ZN12ActorUnkMIFR19func_ov042_0212713cEv kind:function(arm,size=0x14) addr:0x0212713c
_ZN12ActorUnkMIFR19func_ov042_02127150Ev kind:function(arm,size=0x14) addr:0x02127150
_ZN12ActorUnkMIFR19func_ov042_02127164Ev kind:function(arm,size=0x40) addr:0x02127164
_ZN12ActorUnkMIFR19func_ov042_021271a4Ev kind:function(arm,size=0x6c) addr:0x021271a4
_ZN12ActorUnkMIFR19func_ov042_02127210Ev kind:function(arm,size=0x70) addr:0x02127210
_ZN12ActorUnkMIFR19func_ov042_02127280Ev kind:function(arm,size=0x160) addr:0x02127280
_ZN12ActorUnkMIFR19func_ov042_021273e0Ev kind:function(arm,size=0x10) addr:0x021273e0
_ZN12ActorUnkMIFR19func_ov042_021273f0Ev kind:function(arm,size=0x6c) addr:0x021273f0
_ZN12ActorUnkMIFR19func_ov042_0212745cEv kind:function(arm,size=0x10) addr:0x0212745c
_ZN12ActorUnkMIFR19func_ov042_0212746cEv kind:function(arm,size=0xe0) addr:0x0212746c
_ZN12ActorUnkMIFR19func_ov042_0212754cEv kind:function(arm,size=0x78) addr:0x0212754c
_ZN12ActorUnkMIFR19func_ov042_021275c4Ev kind:function(arm,size=0x90) addr:0x021275c4
_ZN12ActorUnkMIFR19func_ov042_02127654Ev kind:function(arm,size=0x1c) addr:0x02127654
_ZN12ActorUnkMIFR19func_ov042_02127670Ev kind:function(arm,size=0x74) addr:0x02127670
_ZN12ActorUnkMIFR19func_ov042_021276e4Ev kind:function(arm,size=0x448) addr:0x021276e4
_ZN12ActorUnkMIFR19func_ov042_02127b2cEv kind:function(arm,size=0x128) addr:0x02127b2c
_ZN12ActorUnkMIFR19func_ov042_02127c54Ev kind:function(arm,size=0x1c) addr:0x02127c54
_ZN12ActorUnkMIFR19func_ov042_02127c70Ev kind:function(arm,size=0xf8) addr:0x02127c70
_ZN12ActorUnkMIFR19func_ov042_02127d68Ev kind:function(arm,size=0x80) addr:0x02127d68
_ZN12ActorUnkMIFR19func_ov042_02127de8Ev kind:function(arm,size=0x13c) addr:0x02127de8
_ZN12ActorUnkMIFR19func_ov042_02127f24Ev kind:function(arm,size=0x2c) addr:0x02127f24
_ZN12ActorUnkMIFR19func_ov042_02127f50Ev kind:function(arm,size=0x184) addr:0x02127f50
_ZN12ActorUnkMIFR19func_ov042_021280d4Ev kind:function(arm,size=0x358) addr:0x021280d4
_ZN12ActorUnkMIFR19func_ov042_0212842cEv kind:function(arm,size=0x2ac) addr:0x0212842c
_ZN12ActorUnkMIFRD0Ev kind:function(arm,size=0x1c) addr:0x021286d8
_ZN12ActorUnkMIFR19func_ov042_021286f4Ev kind:function(arm,size=0x1c) addr:0x021286f4
_ZN12ActorUnkMIFRD1Ev kind:function(arm,size=0x30) addr:0x02128710
_ZN12ActorUnkMIFR19func_ov042_02128740Ev kind:function(arm,size=0x38) addr:0x02128740
_ZN19ActorProfileUnkMIFRD1Ev kind:function(arm,size=0x14) addr:0x02128778
func_ov042_0212878c kind:function(arm,size=0x138) addr:0x0212878c
func_ov042_021288c4 kind:function(arm,size=0x68) addr:0x021288c4
func_ov042_0212892c kind:function(arm,size=0x38) addr:0x0212892c
func_ov042_02128964 kind:function(arm,size=0x9c) addr:0x02128964
func_ov042_02128a00 kind:function(arm,size=0x38) addr:0x02128a00
func_ov042_02128a38 kind:function(arm,size=0x90) addr:0x02128a38
func_ov042_02128ac8 kind:function(arm,size=0x720) addr:0x02128ac8
func_ov042_021291e8 kind:function(arm,size=0x94) addr:0x021291e8
func_ov042_0212927c kind:function(arm,size=0x74) addr:0x0212927c
func_ov042_021292f0 kind:function(arm,size=0x90) addr:0x021292f0
func_ov042_02129380 kind:function(arm,size=0x4c8) addr:0x02129380
func_ov042_02129848 kind:function(arm,size=0xd0) addr:0x02129848
func_ov042_02129918 kind:function(arm,size=0x20) addr:0x02129918
func_ov042_02129938 kind:function(arm,size=0xb4) addr:0x02129938
func_ov042_021299ec kind:function(arm,size=0xfc) addr:0x021299ec
func_ov042_02129ae8 kind:function(arm,size=0x1b8) addr:0x02129ae8
func_ov042_02129ca0 kind:function(arm,size=0x12c) addr:0x02129ca0
func_ov042_02129dcc kind:function(arm,size=0x20) addr:0x02129dcc
func_ov042_02129dec kind:function(arm,size=0x37c) addr:0x02129dec
func_ov042_0212a168 kind:function(arm,size=0x2c) addr:0x0212a168
func_ov042_0212a194 kind:function(arm,size=0x130) addr:0x0212a194
func_ov042_0212a2c4 kind:function(arm,size=0x50) addr:0x0212a2c4
func_ov042_0212a314 kind:function(arm,size=0x74) addr:0x0212a314
func_ov042_0212a388 kind:function(arm,size=0x310) addr:0x0212a388
func_ov042_0212a698 kind:function(arm,size=0xc) addr:0x0212a698
func_ov042_0212a6a4 kind:function(arm,size=0x9c) addr:0x0212a6a4
_ZN19func_ov042_0212a740D1Ev kind:function(arm,size=0x14) addr:0x0212a740
_ZN19func_ov042_0212a754D0Ev kind:function(arm,size=0x1c) addr:0x0212a754
_ZN19ActorProfileUnkPHEY10GetProfileEv kind:function(arm,size=0xc) addr:0x0212a770
_ZN19ActorProfileUnkPHEY6CreateEv kind:function(arm,size=0x24) addr:0x0212a77c
_ZN19ActorProfileUnkPHEYC1Ev kind:function(arm,size=0x4c) addr:0x0212a7a0
_ZN12ActorUnkPHEY19func_ov042_0212a7ecEv kind:function(arm,size=0x12c) addr:0x0212a7ec
_ZN12ActorUnkPHEYC1Ev kind:function(arm,size=0x20c) addr:0x0212a918
_ZN12ActorUnkPHEY19func_ov042_0212ab24Ev kind:function(arm,size=0x14) addr:0x0212ab24
_ZN12ActorUnkPHEY19func_ov042_0212ab38Ev kind:function(arm,size=0x14) addr:0x0212ab38
_ZN12ActorUnkPHEY19func_ov042_0212ab4cEv kind:function(arm,size=0x8c) addr:0x0212ab4c
_ZN12ActorUnkPHEY19func_ov042_0212abd8Ev kind:function(arm,size=0x4c) addr:0x0212abd8
_ZN12ActorUnkPHEY19func_ov042_0212ac24Ev kind:function(arm,size=0x224) addr:0x0212ac24
_ZN12ActorUnkPHEY19func_ov042_0212ae48Ev kind:function(arm,size=0x208) addr:0x0212ae48
_ZN12ActorUnkPHEY19func_ov042_0212b050Ev kind:function(arm,size=0xa4) addr:0x0212b050
_ZN12ActorUnkPHEY19func_ov042_0212b0f4Ev kind:function(arm,size=0x14) addr:0x0212b0f4
_ZN12ActorUnkPHEY19func_ov042_0212b108Ev kind:function(arm,size=0x10) addr:0x0212b108
_ZN12ActorUnkPHEY19func_ov042_0212b118Ev kind:function(arm,size=0x3c) addr:0x0212b118
_ZN12ActorUnkPHEY19func_ov042_0212b154Ev kind:function(arm,size=0x48) addr:0x0212b154
_ZN12ActorUnkPHEY19func_ov042_0212b19cEv kind:function(arm,size=0xe4) addr:0x0212b19c
_ZN12ActorUnkPHEY19func_ov042_0212b280Ev kind:function(arm,size=0x60) addr:0x0212b280
_ZN12ActorUnkPHEY19func_ov042_0212b2e0Ev kind:function(arm,size=0xec) addr:0x0212b2e0
_ZN12ActorUnkPHEY19func_ov042_0212b3ccEv kind:function(arm,size=0xc8) addr:0x0212b3cc
_ZN12ActorUnkPHEY19func_ov042_0212b494Ev kind:function(arm,size=0xb4) addr:0x0212b494
_ZN12ActorUnkPHEY19func_ov042_0212b548Ev kind:function(arm,size=0x19c) addr:0x0212b548
_ZN12ActorUnkPHEY19func_ov042_0212b6e4Ev kind:function(arm,size=0x128) addr:0x0212b6e4
_ZN12ActorUnkPHEY19func_ov042_0212b80cEv kind:function(arm,size=0x33c) addr:0x0212b80c
_ZN12ActorUnkPHEY19func_ov042_0212bb48Ev kind:function(arm,size=0x138) addr:0x0212bb48
_ZN12ActorUnkPHEY19func_ov042_0212bc80Ev kind:function(arm,size=0x318) addr:0x0212bc80
_ZN12ActorUnkPHEY19func_ov042_0212bf98Ev kind:function(arm,size=0xf0) addr:0x0212bf98
_ZN12ActorUnkPHEY19func_ov042_0212c088Ev kind:function(arm,size=0x8c) addr:0x0212c088
_ZN12ActorUnkPHEY19func_ov042_0212c114Ev kind:function(arm,size=0x90) addr:0x0212c114
_ZN12ActorUnkPHEY19func_ov042_0212c1a4Ev kind:function(arm,size=0x144) addr:0x0212c1a4
_ZN12ActorUnkPHEY19func_ov042_0212c2e8Ev kind:function(arm,size=0xcc) addr:0x0212c2e8
_ZN12ActorUnkPHEY19func_ov042_0212c3b4Ev kind:function(arm,size=0x18c) addr:0x0212c3b4
_ZN12ActorUnkPHEY19func_ov042_0212c540Ev kind:function(arm,size=0x38) addr:0x0212c540
_ZN12ActorUnkPHEY19func_ov042_0212c578Ev kind:function(arm,size=0x64) addr:0x0212c578
_ZN12ActorUnkPHEY19func_ov042_0212c5dcEv kind:function(arm,size=0x5c) addr:0x0212c5dc
_ZN12ActorUnkPHEY19func_ov042_0212c638Ev kind:function(arm,size=0x54) addr:0x0212c638
_ZN12ActorUnkPHEY19func_ov042_0212c68cEv kind:function(arm,size=0x58) addr:0x0212c68c
_ZN12ActorUnkPHEY19func_ov042_0212c6e4Ev kind:function(arm,size=0x70) addr:0x0212c6e4
_ZN12ActorUnkPHEY19func_ov042_0212c754Ev kind:function(arm,size=0x88) addr:0x0212c754
_ZN12ActorUnkPHEY19func_ov042_0212c7dcEv kind:function(arm,size=0x48) addr:0x0212c7dc
_ZN12ActorUnkPHEY19func_ov042_0212c824Ev kind:function(arm,size=0xb8) addr:0x0212c824
_ZN12ActorUnkPHEY19func_ov042_0212c8dcEv kind:function(arm,size=0x1cc) addr:0x0212c8dc
_ZN12ActorUnkPHEY19func_ov042_0212caa8Ev kind:function(arm,size=0x18) addr:0x0212caa8
_ZN12ActorUnkPHEY19func_ov042_0212cac0Ev kind:function(arm,size=0x1b4) addr:0x0212cac0
_ZN12ActorUnkPHEY19func_ov042_0212cc74Ev kind:function(arm,size=0xa4) addr:0x0212cc74
_ZN12ActorUnkPHEY19func_ov042_0212cd18Ev kind:function(arm,size=0xb0) addr:0x0212cd18
_ZN12ActorUnkPHEY19func_ov042_0212cdc8Ev kind:function(arm,size=0x158) addr:0x0212cdc8
_ZN12ActorUnkPHEY19func_ov042_0212cf20Ev kind:function(arm,size=0x80) addr:0x0212cf20
_ZN12ActorUnkPHEY19func_ov042_0212cfa0Ev kind:function(arm,size=0x64) addr:0x0212cfa0
_ZN12ActorUnkPHEY19func_ov042_0212d004Ev kind:function(arm,size=0x118) addr:0x0212d004
_ZN12ActorUnkPHEY19func_ov042_0212d11cEv kind:function(arm,size=0x6c) addr:0x0212d11c
_ZN12ActorUnkPHEY19func_ov042_0212d188Ev kind:function(arm,size=0xf4) addr:0x0212d188
_ZN12ActorUnkPHEY19func_ov042_0212d27cEv kind:function(arm,size=0x28) addr:0x0212d27c
_ZN12ActorUnkPHEY19func_ov042_0212d2a4Ev kind:function(arm,size=0x18) addr:0x0212d2a4
_ZN12ActorUnkPHEY19func_ov042_0212d2bcEv kind:function(arm,size=0x120) addr:0x0212d2bc
_ZN12ActorUnkPHEY19func_ov042_0212d3dcEv kind:function(arm,size=0x80) addr:0x0212d3dc
_ZN12ActorUnkPHEY19func_ov042_0212d45cEv kind:function(arm,size=0x1b0) addr:0x0212d45c
_ZN12ActorUnkPHEY19func_ov042_0212d60cEv kind:function(arm,size=0x54) addr:0x0212d60c
_ZN12ActorUnkPHEY19func_ov042_0212d660Ev kind:function(arm,size=0x24) addr:0x0212d660
_ZN12ActorUnkPHEY19func_ov042_0212d684Ev kind:function(arm,size=0x10) addr:0x0212d684
_ZN12ActorUnkPHEY19func_ov042_0212d694Ev kind:function(arm,size=0x8) addr:0x0212d694
_ZN12ActorUnkPHEYD0Ev kind:function(arm,size=0x1c) addr:0x0212d69c
_ZN12ActorUnkPHEY19func_ov042_0212d6b8Ev kind:function(arm,size=0x1c) addr:0x0212d6b8
_ZN12ActorUnkPHEY19func_ov042_0212d6d4Ev kind:function(arm,size=0x84) addr:0x0212d6d4
_ZN12ActorUnkPHEY19func_ov042_0212d758Ev kind:function(arm,size=0x8c) addr:0x0212d758
_ZN19ActorProfileUnkPHEYD1Ev kind:function(arm,size=0x14) addr:0x0212d7e4
_ZN19ActorProfileUnkPMTT10GetProfileEv kind:function(arm,size=0xc) addr:0x0212d7f8
_ZN19ActorProfileUnkPMTT6CreateEv kind:function(arm,size=0x24) addr:0x0212d804
_ZN19ActorProfileUnkPMTTC1Ev kind:function(arm,size=0x7c) addr:0x0212d828
_ZN12ActorUnkPMTT19func_ov042_0212d8a4Ev kind:function(arm,size=0x28) addr:0x0212d8a4
_ZN12ActorUnkPMTT19func_ov042_0212d8ccEv kind:function(arm,size=0x38) addr:0x0212d8cc
_ZN12ActorUnkPMTT19func_ov042_0212d904Ev kind:function(arm,size=0x2c) addr:0x0212d904
_ZN12ActorUnkPMTT19func_ov042_0212d930Ev kind:function(arm,size=0x14) addr:0x0212d930
_ZN12ActorUnkPMTTC1Ev kind:function(arm,size=0x334) addr:0x0212d944
_ZN12ActorUnkPMTT19func_ov042_0212dc78Ev kind:function(arm,size=0x14) addr:0x0212dc78
_ZN12ActorUnkPMTT19func_ov042_0212dc8cEv kind:function(arm,size=0x1d8) addr:0x0212dc8c
_ZN12ActorUnkPMTT19func_ov042_0212de64Ev kind:function(arm,size=0xc4) addr:0x0212de64
_ZN12ActorUnkPMTT19func_ov042_0212df28Ev kind:function(arm,size=0x14) addr:0x0212df28
_ZN12ActorUnkPMTT19func_ov042_0212df3cEv kind:function(arm,size=0x144) addr:0x0212df3c
_ZN12ActorUnkPMTT19func_ov042_0212e080Ev kind:function(arm,size=0xc4) addr:0x0212e080
_ZN12ActorUnkPMTT19func_ov042_0212e144Ev kind:function(arm,size=0x58) addr:0x0212e144
_ZN12ActorUnkPMTT19func_ov042_0212e19cEv kind:function(arm,size=0x58) addr:0x0212e19c
_ZN12ActorUnkPMTT19func_ov042_0212e1f4Ev kind:function(arm,size=0xac) addr:0x0212e1f4
_ZN12ActorUnkPMTT19func_ov042_0212e2a0Ev kind:function(arm,size=0x174) addr:0x0212e2a0
_ZN12ActorUnkPMTT19func_ov042_0212e414Ev kind:function(arm,size=0xc4) addr:0x0212e414
_ZN12ActorUnkPMTT19func_ov042_0212e4d8Ev kind:function(arm,size=0x4) addr:0x0212e4d8
_ZN12ActorUnkPMTTD0Ev kind:function(arm,size=0x1c) addr:0x0212e4dc
_ZN12ActorUnkPMTT19func_ov042_0212e4f8Ev kind:function(arm,size=0x1c) addr:0x0212e4f8
_ZN12ActorUnkPMTTD1Ev kind:function(arm,size=0x28) addr:0x0212e514
_ZN12ActorUnkPMTT19func_ov042_0212e53cEv kind:function(arm,size=0x30) addr:0x0212e53c
_ZN19ActorProfileUnkPMTTD1Ev kind:function(arm,size=0x14) addr:0x0212e56c
_ZN23MapObjectProfileUnkSWRA10GetProfileEv kind:function(arm,size=0xc) addr:0x0212e580
_ZN23MapObjectProfileUnkSWRA6CreateEv kind:function(arm,size=0x24) addr:0x0212e58c
_ZN23MapObjectProfileUnkSWRAC1Ev kind:function(arm,size=0xa0) addr:0x0212e5b0
_ZN16MapObjectUnkSWRAC1Ev kind:function(arm,size=0x104) addr:0x0212e650
_ZN16MapObjectUnkSWRA19func_ov042_0212e754Ev kind:function(arm,size=0xc0) addr:0x0212e754
_ZN16MapObjectUnkSWRA19func_ov042_0212e814Ev kind:function(arm,size=0x4) addr:0x0212e814
_ZN16MapObjectUnkSWRA19func_ov042_0212e818Ev kind:function(arm,size=0x44) addr:0x0212e818
_ZN16MapObjectUnkSWRA19func_ov042_0212e85cEv kind:function(arm,size=0x98) addr:0x0212e85c
_ZN16MapObjectUnkSWRA19func_ov042_0212e8f4Ev kind:function(arm,size=0xf0) addr:0x0212e8f4
_ZN16MapObjectUnkSWRAD1Ev kind:function(arm,size=0x20) addr:0x0212e9e4
_ZN16MapObjectUnkSWRAD0Ev kind:function(arm,size=0x28) addr:0x0212ea04
_ZN23MapObjectProfileUnkSWRAD1Ev kind:function(arm,size=0x14) addr:0x0212ea2c
data_ov042_0212ea40 kind:data(any) addr:0x0212ea40
data_ov042_0212ea50 kind:data(any) addr:0x0212ea50
data_ov042_0212ea60 kind:data(any) addr:0x0212ea60
data_ov042_0212ea78 kind:data(any) addr:0x0212ea78
data_ov042_0212ea88 kind:data(any) addr:0x0212ea88
data_ov042_0212ea9c kind:data(any) addr:0x0212ea9c
data_ov042_0212eaa4 kind:data(any) addr:0x0212eaa4
data_ov042_0212eab8 kind:data(any) addr:0x0212eab8
__sinit_ActorUnkOCTS.cpp kind:function(arm,size=0x50) addr:0x0212eac8
__sinit_ActorUnkOCTA.cpp kind:function(arm,size=0x6c) addr:0x0212eb18
__sinit_ActorUnkMIFR.cpp kind:function(arm,size=0x50) addr:0x0212eb84
__sinit_ov042_0212ebd4 kind:function(arm,size=0x18) addr:0x0212ebd4
__sinit_ActorUnkPHEY.cpp kind:function(arm,size=0x6c) addr:0x0212ebec
__sinit_ActorUnkPMTT.cpp kind:function(arm,size=0x50) addr:0x0212ec58
__sinit_MapObjectUnkSWRA.cpp kind:function(arm,size=0x50) addr:0x0212eca8
.p__sinit_ActorUnkOCTS.cpp kind:data(word) addr:0x0212ecf8
.p__sinit_ActorUnkOCTA.cpp kind:data(word) addr:0x0212ecfc
.p__sinit_ActorUnkMIFR.cpp kind:data(word) addr:0x0212ed00
.p__sinit_ov042_0212ebd4 kind:data(word) addr:0x0212ed04
.p__sinit_ActorUnkPHEY.cpp kind:data(word) addr:0x0212ed08
.p__sinit_ActorUnkPMTT.cpp kind:data(word) addr:0x0212ed0c
.p__sinit_MapObjectUnkSWRA.cpp kind:data(word) addr:0x0212ed10
data_ov042_0212ed28 kind:data(any) addr:0x0212ed28
_ZTV19data_ov042_0212ed3c kind:data(any) addr:0x0212ed3c
_ZTV19data_ov042_0212ed60 kind:data(any) addr:0x0212ed60
_ZTV19data_ov042_0212ed64 kind:data(any) addr:0x0212ed64 ambiguous
data_ov042_0212edbc kind:data(any) addr:0x0212edbc
data_ov042_0212edc8 kind:data(any) addr:0x0212edc8
data_ov042_0212ede0 kind:data(any) addr:0x0212ede0
data_ov042_0212edf8 kind:data(any) addr:0x0212edf8
data_ov042_0212ee30 kind:data(any) addr:0x0212ee30
data_ov042_0212ee68 kind:data(any) addr:0x0212ee68 ambiguous
_ZTV19data_ov042_0212ee68 kind:data(any) addr:0x0212ee68
data_ov042_0212ee94 kind:data(any) addr:0x0212ee94
_ZTV19data_ov042_0212eed8 kind:data(any) addr:0x0212eed8
data_ov042_0212ef40 kind:data(any) addr:0x0212ef40
data_ov042_0212ef54 kind:data(any) addr:0x0212ef54
data_ov042_0212ef74 kind:data(any) addr:0x0212ef74
_ZTV19data_ov042_0212ef94 kind:data(any) addr:0x0212ef94
data_ov042_0212efc0 kind:data(any) addr:0x0212efc0
_ZTV19data_ov042_0212efe4 kind:data(any) addr:0x0212efe4
_ZTV19data_ov042_0212f044 kind:data(any) addr:0x0212f044
data_ov042_0212f0f8 kind:data(any) addr:0x0212f0f8
data_ov042_0212f17c kind:data(any) addr:0x0212f17c ambiguous
data_ov042_0212f208 kind:data(any) addr:0x0212f208
data_ov042_0212f318 kind:data(any) addr:0x0212f318
data_ov042_0212f32c kind:data(any) addr:0x0212f32c
_ZTV19data_ov042_0212f340 kind:data(any) addr:0x0212f340
data_ov042_0212f36c kind:data(any) addr:0x0212f36c
_ZTV19data_ov042_0212f3ac kind:data(any) addr:0x0212f3ac
data_ov042_0212f40c kind:data(any) addr:0x0212f40c
data_ov042_0212f424 kind:data(any) addr:0x0212f424
data_ov042_0212f43c kind:data(any) addr:0x0212f43c
data_ov042_0212f454 kind:data(any) addr:0x0212f454
data_ov042_0212f46c kind:data(any) addr:0x0212f46c
data_ov042_0212f484 kind:data(any) addr:0x0212f484
data_ov042_0212f504 kind:data(any) addr:0x0212f504
data_ov042_0212f584 kind:data(any) addr:0x0212f584
data_ov042_0212f59c kind:data(any) addr:0x0212f59c
data_ov042_0212f5cc kind:data(any) addr:0x0212f5cc
data_ov042_0212f5e4 kind:data(any) addr:0x0212f5e4
data_ov042_0212f5fc kind:data(any) addr:0x0212f5fc
data_ov042_0212f614 kind:data(any) addr:0x0212f614
data_ov042_0212f618 kind:data(any) addr:0x0212f618
_ZTV19data_ov042_0212f630 kind:data(any) addr:0x0212f630
data_ov042_0212f65c kind:data(any) addr:0x0212f65c
data_ov042_0212f688 kind:data(any) addr:0x0212f688
_ZTV19data_ov042_0212f6c8 kind:data(any) addr:0x0212f6c8
data_ov042_0212f724 kind:data(any) addr:0x0212f724
data_ov042_0212f72c kind:data(any) addr:0x0212f72c
data_ov042_0212f734 kind:data(any) addr:0x0212f734
data_ov042_0212f744 kind:data(any) addr:0x0212f744
data_ov042_0212f760 kind:data(any) addr:0x0212f760
data_ov042_0212f77c kind:data(any) addr:0x0212f77c
data_ov042_0212f7a4 kind:data(any) addr:0x0212f7a4
data_ov042_0212f7e0 kind:bss addr:0x0212f7e0
data_ov042_0212f7e4 kind:bss addr:0x0212f7e4
sActorProfileUnkOCTS kind:bss addr:0x0212f7f0
data_ov042_0212f8c8 kind:bss addr:0x0212f8c8
data_ov042_0212f8cc kind:bss addr:0x0212f8cc
sActorProfileUnkOCTA kind:bss addr:0x0212f8d8
data_ov042_0212f9b0 kind:bss addr:0x0212f9b0
data_ov042_0212f9b4 kind:bss addr:0x0212f9b4
sActorProfileUnkMIFR kind:bss addr:0x0212f9c0
data_ov042_0212fa98 kind:bss addr:0x0212fa98
data_ov042_0212faa4 kind:bss addr:0x0212faa4
data_ov042_0212faa8 kind:bss addr:0x0212faa8
sActorProfileUnkPHEY kind:bss addr:0x0212fab4
data_ov042_0212fb8c kind:bss addr:0x0212fb8c
data_ov042_0212fb94 kind:bss addr:0x0212fb94
sActorProfileUnkPMTT kind:bss addr:0x0212fba0
data_ov042_0212fc78 kind:bss addr:0x0212fc78
data_ov042_0212fc7c kind:bss addr:0x0212fc7c
sMapObjectProfileUnkSWRA kind:bss addr:0x0212fc88
data_ov042_0212fca8 kind:bss addr:0x0212fca8
data_ov042_0212fd5c kind:bss addr:0x0212fd5c
