func_ov030_02143d60 kind:function(arm,size=0xc8) addr:0x02143d60
_ZN19func_ov030_02143e28D1Ev kind:function(arm,size=0x14) addr:0x02143e28
_ZN19func_ov030_02143e3cD0Ev kind:function(arm,size=0x1c) addr:0x02143e3c
func_ov030_02143e58 kind:function(arm,size=0xc) addr:0x02143e58
func_ov030_02143e64 kind:function(arm,size=0x118) addr:0x02143e64
func_ov030_02143f7c kind:function(arm,size=0x114) addr:0x02143f7c
_ZN19func_ov030_02144090D1Ev kind:function(arm,size=0x14) addr:0x02144090
_ZN19func_ov030_021440a4D0Ev kind:function(arm,size=0x1c) addr:0x021440a4
func_ov030_021440c0 kind:function(arm,size=0xc) addr:0x021440c0
func_ov030_021440cc kind:function(arm,size=0x118) addr:0x021440cc
_ZN23MapObjectProfileUnkETTV10GetProfileEv kind:function(arm,size=0xc) addr:0x021441e4
_ZN23MapObjectProfileUnkETTV6CreateEv kind:function(arm,size=0x24) addr:0x021441f0
_ZN23MapObjectProfileUnkETTVC1Ev kind:function(arm,size=0x2c) addr:0x02144214
_ZN16MapObjectUnkETTVC1Ev kind:function(arm,size=0x94) addr:0x02144240
_ZN16MapObjectUnkETTV19func_ov030_02141f54Ev kind:function(arm,size=0x14) addr:0x021442d4
_ZN16MapObjectUnkETTV19func_ov030_02141f68Ev kind:function(arm,size=0x198) addr:0x021442e8
_ZN16MapObjectUnkETTV19func_ov030_02142100Ev kind:function(arm,size=0xe8) addr:0x02144480
_ZN16MapObjectUnkETTV19func_ov030_021421e8Ev kind:function(arm,size=0x8) addr:0x02144568
_ZN16MapObjectUnkETTV19func_ov030_021421f0Ev kind:function(arm,size=0x8) addr:0x02144570
_ZN16MapObjectUnkETTV19func_ov030_021421f8Ev kind:function(arm,size=0x4) addr:0x02144578
_ZN16MapObjectUnkETTV19func_ov030_021421fcEv kind:function(arm,size=0xf0) addr:0x0214457c
_ZN16MapObjectUnkETTV19func_ov030_021422ecEv kind:function(arm,size=0x174) addr:0x0214466c
_ZN16MapObjectUnkETTV19func_ov030_02142460Ev kind:function(arm,size=0x4c) addr:0x021447e0
_ZN16MapObjectUnkETTV19func_ov030_021424acEv kind:function(arm,size=0xa4) addr:0x0214482c
_ZN16MapObjectUnkETTV19func_ov030_02142550Ev kind:function(arm,size=0x44) addr:0x021448d0
_ZN16MapObjectUnkETTV19func_ov030_02142594Ev kind:function(arm,size=0x8) addr:0x02144914
_ZN16MapObjectUnkETTV19func_ov030_0214259cEv kind:function(arm,size=0x1ec) addr:0x0214491c
_ZN16MapObjectUnkETTV19func_ov030_02142788Ev kind:function(arm,size=0x38) addr:0x02144b08
_ZN16MapObjectUnkETTV19func_ov030_021427c0Ev kind:function(arm,size=0x68) addr:0x02144b40
_ZN16MapObjectUnkETTV19func_ov030_02142828Ev kind:function(arm,size=0x40) addr:0x02144ba8
_ZN16MapObjectUnkETTV19func_ov030_02142868Ev kind:function(arm,size=0x20) addr:0x02144be8
_ZN16MapObjectUnkETTV19func_ov030_02142888Ev kind:function(arm,size=0x20) addr:0x02144c08
_ZN16MapObjectUnkETTV19func_ov030_021428a8Ev kind:function(arm,size=0x14) addr:0x02144c28
_ZN16MapObjectUnkETTVD0Ev kind:function(arm,size=0x1c) addr:0x02144c3c
_ZN16MapObjectUnkETTVD1Ev kind:function(arm,size=0x40) addr:0x02144c58
_ZN16MapObjectUnkETTV19func_ov030_02142918Ev kind:function(arm,size=0x48) addr:0x02144c98
_ZN16MapObjectUnkETTV19func_ov030_02142960Ev kind:function(arm,size=0x40) addr:0x02144ce0
_ZN16MapObjectUnkETTVD2Ev kind:function(arm,size=0x38) addr:0x02144d20
_ZN23MapObjectProfileUnkETTVD1Ev kind:function(arm,size=0x14) addr:0x02144d58
_ZN23MapObjectProfileUnkTRFI10GetProfileEv kind:function(arm,size=0xc) addr:0x02144d6c
_ZN23MapObjectProfileUnkTRFI6CreateEv kind:function(arm,size=0x24) addr:0x02144d78
_ZN23MapObjectProfileUnkTRFIC1Ev kind:function(arm,size=0x40) addr:0x02144d9c
_ZN16MapObjectUnkTRFIC1Ev kind:function(arm,size=0x3c) addr:0x02144ddc
_ZN16MapObjectUnkTRFI19func_ov030_02142a98Ev kind:function(arm,size=0xec) addr:0x02144e18
_ZN16MapObjectUnkTRFI19func_ov030_02142b84Ev kind:function(arm,size=0xe8) addr:0x02144f04
_ZN16MapObjectUnkTRFI19func_ov030_02142c6cEv kind:function(arm,size=0x8) addr:0x02144fec
_ZN16MapObjectUnkTRFI19func_ov030_02142c74Ev kind:function(arm,size=0x8) addr:0x02144ff4
_ZN16MapObjectUnkTRFI19func_ov030_02142c7cEv kind:function(arm,size=0x4) addr:0x02144ffc
_ZN16MapObjectUnkTRFI19func_ov030_02142c80Ev kind:function(arm,size=0x74) addr:0x02145000
_ZN16MapObjectUnkTRFI19func_ov030_02142cf4Ev kind:function(arm,size=0x18) addr:0x02145074
_ZN16MapObjectUnkTRFI19func_ov030_02142d0cEv kind:function(arm,size=0x40) addr:0x0214508c
_ZN16MapObjectUnkTRFI19func_ov030_02142d4cEv kind:function(arm,size=0x20) addr:0x021450cc
_ZN16MapObjectUnkTRFI19func_ov030_02142d6cEv kind:function(arm,size=0x20) addr:0x021450ec
_ZN16MapObjectUnkTRFI19func_ov030_02142d8cEv kind:function(arm,size=0x8) addr:0x0214510c
_ZN16MapObjectUnkTRFID1Ev kind:function(arm,size=0x20) addr:0x02145114
_ZN16MapObjectUnkTRFID0Ev kind:function(arm,size=0x28) addr:0x02145134
_ZN16MapObjectUnkTRFI19func_ov030_02142ddcEv kind:function(arm,size=0x28) addr:0x0214515c
_ZN16MapObjectUnkTRFID2Ev kind:function(arm,size=0x20) addr:0x02145184
_ZN23MapObjectProfileUnkTRFID1Ev kind:function(arm,size=0x14) addr:0x021451a4
_ZN23MapObjectProfileUnkTRGM10GetProfileEv kind:function(arm,size=0xc) addr:0x021451b8
_ZN23MapObjectProfileUnkTRGM6CreateEv kind:function(arm,size=0x24) addr:0x021451c4
_ZN23MapObjectProfileUnkTRGMC1Ev kind:function(arm,size=0x38) addr:0x021451e8
_ZN16MapObjectUnkTRGMC1Ev kind:function(arm,size=0x3c) addr:0x02145220
_ZN16MapObjectUnkTRGM19func_ov030_02142edcEv kind:function(arm,size=0xe8) addr:0x0214525c
_ZN16MapObjectUnkTRGM19func_ov030_02142fc4Ev kind:function(arm,size=0x94) addr:0x02145344
_ZN16MapObjectUnkTRGM19func_ov030_02143058Ev kind:function(arm,size=0x18) addr:0x021453d8
_ZN16MapObjectUnkTRGM19func_ov030_02143070Ev kind:function(arm,size=0x40) addr:0x021453f0
_ZN16MapObjectUnkTRGM19func_ov030_021430b0Ev kind:function(arm,size=0x20) addr:0x02145430
_ZN16MapObjectUnkTRGM19func_ov030_021430d0Ev kind:function(arm,size=0x20) addr:0x02145450
_ZN16MapObjectUnkTRGM19func_ov030_021430f0Ev kind:function(arm,size=0x8) addr:0x02145470
_ZN16MapObjectUnkTRGM19func_ov030_021430f8Ev kind:function(arm,size=0xc) addr:0x02145478
_ZN16MapObjectUnkTRGMD1Ev kind:function(arm,size=0x38) addr:0x02145484
_ZN16MapObjectUnkTRGMD0Ev kind:function(arm,size=0x40) addr:0x021454bc
_ZN23MapObjectProfileUnkTRGMD1Ev kind:function(arm,size=0x14) addr:0x021454fc
_ZN23MapObjectProfileUnkTRH210GetProfileEv kind:function(arm,size=0xc) addr:0x02145510
_ZN23MapObjectProfileUnkTRH26CreateEv kind:function(arm,size=0x24) addr:0x0214551c
_ZN23MapObjectProfileUnkTRH2C1Ev kind:function(arm,size=0x40) addr:0x02145540
_ZN16MapObjectUnkTRH2C1Ev kind:function(arm,size=0x3c) addr:0x02145580
_ZN16MapObjectUnkTRH219func_ov030_0214323cEv kind:function(arm,size=0xec) addr:0x021455bc
_ZN16MapObjectUnkTRH219func_ov030_02143328Ev kind:function(arm,size=0x74) addr:0x021456a8
_ZN16MapObjectUnkTRH219func_ov030_0214339cEv kind:function(arm,size=0x18) addr:0x0214571c
_ZN16MapObjectUnkTRH219func_ov030_021433b4Ev kind:function(arm,size=0x40) addr:0x02145734
_ZN16MapObjectUnkTRH219func_ov030_021433f4Ev kind:function(arm,size=0x20) addr:0x02145774
_ZN16MapObjectUnkTRH219func_ov030_02143414Ev kind:function(arm,size=0x20) addr:0x02145794
_ZN16MapObjectUnkTRH219func_ov030_02143434Ev kind:function(arm,size=0x8) addr:0x021457b4
_ZN16MapObjectUnkTRH2D1Ev kind:function(arm,size=0x20) addr:0x021457bc
_ZN16MapObjectUnkTRH2D0Ev kind:function(arm,size=0x28) addr:0x021457dc
_ZN23MapObjectProfileUnkTRH2D1Ev kind:function(arm,size=0x14) addr:0x02145804
_ZN23MapObjectProfileUnkTRH310GetProfileEv kind:function(arm,size=0xc) addr:0x02145818
_ZN23MapObjectProfileUnkTRH36CreateEv kind:function(arm,size=0x24) addr:0x02145824
_ZN23MapObjectProfileUnkTRH3C1Ev kind:function(arm,size=0x40) addr:0x02145848
_ZN16MapObjectUnkTRH3C1Ev kind:function(arm,size=0x3c) addr:0x02145888
_ZN16MapObjectUnkTRH319func_ov030_02143544Ev kind:function(arm,size=0xec) addr:0x021458c4
_ZN16MapObjectUnkTRH319func_ov030_02143630Ev kind:function(arm,size=0x74) addr:0x021459b0
_ZN16MapObjectUnkTRH319func_ov030_021436a4Ev kind:function(arm,size=0x18) addr:0x02145a24
_ZN16MapObjectUnkTRH319func_ov030_021436bcEv kind:function(arm,size=0x40) addr:0x02145a3c
_ZN16MapObjectUnkTRH319func_ov030_021436fcEv kind:function(arm,size=0x20) addr:0x02145a7c
_ZN16MapObjectUnkTRH319func_ov030_0214371cEv kind:function(arm,size=0x20) addr:0x02145a9c
_ZN16MapObjectUnkTRH319func_ov030_0214373cEv kind:function(arm,size=0x8) addr:0x02145abc
_ZN16MapObjectUnkTRH3D1Ev kind:function(arm,size=0x20) addr:0x02145ac4
_ZN16MapObjectUnkTRH3D0Ev kind:function(arm,size=0x28) addr:0x02145ae4
_ZN23MapObjectProfileUnkTRH3D1Ev kind:function(arm,size=0x14) addr:0x02145b0c
_ZN23MapObjectProfileUnkTRST10GetProfileEv kind:function(arm,size=0xc) addr:0x02145b20
_ZN23MapObjectProfileUnkTRST6CreateEv kind:function(arm,size=0x24) addr:0x02145b2c
_ZN23MapObjectProfileUnkTRSTC1Ev kind:function(arm,size=0x54) addr:0x02145b50
_ZN16MapObjectUnkTRSTC1Ev kind:function(arm,size=0x3c) addr:0x02145ba4
_ZN16MapObjectUnkTRST19func_ov030_02143860Ev kind:function(arm,size=0xec) addr:0x02145be0
_ZN16MapObjectUnkTRST19func_ov030_0214394cEv kind:function(arm,size=0x74) addr:0x02145ccc
_ZN16MapObjectUnkTRST19func_ov030_021439c0Ev kind:function(arm,size=0x18) addr:0x02145d40
_ZN16MapObjectUnkTRST19func_ov030_021439d8Ev kind:function(arm,size=0x40) addr:0x02145d58
_ZN16MapObjectUnkTRST19func_ov030_02143a18Ev kind:function(arm,size=0x20) addr:0x02145d98
_ZN16MapObjectUnkTRST19func_ov030_02143a38Ev kind:function(arm,size=0x20) addr:0x02145db8
_ZN16MapObjectUnkTRST19func_ov030_02143a58Ev kind:function(arm,size=0x8) addr:0x02145dd8
_ZN16MapObjectUnkTRSTD1Ev kind:function(arm,size=0x20) addr:0x02145de0
_ZN16MapObjectUnkTRSTD0Ev kind:function(arm,size=0x28) addr:0x02145e00
_ZN23MapObjectProfileUnkTRSTD1Ev kind:function(arm,size=0x14) addr:0x02145e28
_ZN19ActorProfileUnkHELA10GetProfileEv kind:function(arm,size=0xc) addr:0x02145e3c
_ZN19ActorProfileUnkHELA6CreateEv kind:function(arm,size=0x28) addr:0x02145e48
_ZN19ActorProfileUnkHELAC1Ev kind:function(arm,size=0x78) addr:0x02145e70
_ZN12ActorUnkHELA19func_ov030_02143b68Ev kind:function(arm,size=0x28) addr:0x02145ee8
_ZN12ActorUnkHELA19func_ov030_02143b90Ev kind:function(arm,size=0xf4) addr:0x02145f10
_ZN12ActorUnkHELA19func_ov030_02143c84Ev kind:function(arm,size=0x20) addr:0x02146004
_ZN12ActorUnkHELA19func_ov030_02143ca4Ev kind:function(arm,size=0x30) addr:0x02146024
_ZN12ActorUnkHELAC1Ev kind:function(arm,size=0x278) addr:0x02146054
_ZN12ActorUnkHELA19func_ov030_02143f4cEv kind:function(arm,size=0x14) addr:0x021462cc
_ZN12ActorUnkHELA19func_ov030_02143f60Ev kind:function(arm,size=0x80) addr:0x021462e0
_ZN12ActorUnkHELA19func_ov030_02143fe0Ev kind:function(arm,size=0x50) addr:0x02146360
_ZN12ActorUnkHELA19func_ov030_02144030Ev kind:function(arm,size=0xe0) addr:0x021463b0
_ZN12ActorUnkHELA19func_ov030_02144110Ev kind:function(arm,size=0x50) addr:0x02146490
_ZN12ActorUnkHELA19func_ov030_02144160Ev kind:function(arm,size=0x268) addr:0x021464e0
_ZN12ActorUnkHELA19func_ov030_021443c8Ev kind:function(arm,size=0x2ac) addr:0x02146748
_ZN12ActorUnkHELA19func_ov030_02144674Ev kind:function(arm,size=0x2c) addr:0x021469f4
_ZN12ActorUnkHELA19func_ov030_021446a0Ev kind:function(arm,size=0x1e8) addr:0x02146a20
_ZN12ActorUnkHELA19func_ov030_02144888Ev kind:function(arm,size=0x738) addr:0x02146c08
_ZN12ActorUnkHELA19func_ov030_02144fc0Ev kind:function(arm,size=0x128) addr:0x02147340
_ZN12ActorUnkHELA19func_ov030_021450e8Ev kind:function(arm,size=0x138) addr:0x02147468
_ZN12ActorUnkHELA19func_ov030_02145220Ev kind:function(arm,size=0x88) addr:0x021475a0
_ZN12ActorUnkHELA19func_ov030_021452a8Ev kind:function(arm,size=0x378) addr:0x02147628
_ZN12ActorUnkHELA19func_ov030_02145620Ev kind:function(arm,size=0x44) addr:0x021479a0
_ZN12ActorUnkHELA19func_ov030_02145664Ev kind:function(arm,size=0x58) addr:0x021479e4
_ZN12ActorUnkHELA19func_ov030_021456bcEv kind:function(arm,size=0x48) addr:0x02147a3c
_ZN12ActorUnkHELA19func_ov030_02145704Ev kind:function(arm,size=0x2cc) addr:0x02147a84
_ZN12ActorUnkHELA19func_ov030_021459d0Ev kind:function(arm,size=0x330) addr:0x02147d50
_ZN12ActorUnkHELA19func_ov030_02145d00Ev kind:function(arm,size=0x110) addr:0x02148080
_ZN12ActorUnkHELA19func_ov030_02145e10Ev kind:function(arm,size=0x94) addr:0x02148190
_ZN12ActorUnkHELA19func_ov030_02145ea4Ev kind:function(arm,size=0x3e8) addr:0x02148224
_ZN12ActorUnkHELA19func_ov030_0214628cEv kind:function(arm,size=0x98) addr:0x0214860c
_ZN12ActorUnkHELA19func_ov030_02146324Ev kind:function(arm,size=0x1e0) addr:0x021486a4
_ZN12ActorUnkHELA19func_ov030_02146504Ev kind:function(arm,size=0x30) addr:0x02148884
_ZN12ActorUnkHELA19func_ov030_02146534Ev kind:function(arm,size=0x138) addr:0x021488b4
_ZN12ActorUnkHELA19func_ov030_0214666cEv kind:function(arm,size=0x23c) addr:0x021489ec
_ZN12ActorUnkHELA19func_ov030_021468a8Ev kind:function(arm,size=0x140) addr:0x02148c28
_ZN12ActorUnkHELA19func_ov030_021469e8Ev kind:function(arm,size=0xa4) addr:0x02148d68
_ZN12ActorUnkHELA19func_ov030_02146a8cEv kind:function(arm,size=0x48) addr:0x02148e0c
_ZN12ActorUnkHELA19func_ov030_02146ad4Ev kind:function(arm,size=0xe8) addr:0x02148e54
_ZN12ActorUnkHELA19func_ov030_02146bbcEv kind:function(arm,size=0x38) addr:0x02148f3c
_ZN12ActorUnkHELA19func_ov030_02146bf4Ev kind:function(arm,size=0x4c) addr:0x02148f74
_ZN12ActorUnkHELA19func_ov030_02146c40Ev kind:function(arm,size=0x48) addr:0x02148fc0
_ZN12ActorUnkHELA19func_ov030_02146c88Ev kind:function(arm,size=0x58) addr:0x02149008
_ZN12ActorUnkHELA19func_ov030_02146ce0Ev kind:function(arm,size=0x130) addr:0x02149060
_ZN12ActorUnkHELA19func_ov030_02146e10Ev kind:function(arm,size=0x108) addr:0x02149190
_ZN12ActorUnkHELA19func_ov030_02146f18Ev kind:function(arm,size=0x2c) addr:0x02149298
_ZN12ActorUnkHELA19func_ov030_02146f44Ev kind:function(arm,size=0xf8) addr:0x021492c4
_ZN12ActorUnkHELA19func_ov030_0214703cEv kind:function(arm,size=0x3c) addr:0x021493bc
_ZN12ActorUnkHELA19func_ov030_02147078Ev kind:function(arm,size=0x208) addr:0x021493f8
_ZN12ActorUnkHELA19func_ov030_02147280Ev kind:function(arm,size=0x14) addr:0x02149600
_ZN12ActorUnkHELA19func_ov030_02147294Ev kind:function(arm,size=0x7c) addr:0x02149614
_ZN12ActorUnkHELA19func_ov030_02147310Ev kind:function(arm,size=0x54) addr:0x02149690
_ZN12ActorUnkHELA19func_ov030_02147364Ev kind:function(arm,size=0x178) addr:0x021496e4
_ZN12ActorUnkHELA19func_ov030_021474dcEv kind:function(arm,size=0x1d8) addr:0x0214985c
_ZN12ActorUnkHELA19func_ov030_021476b4Ev kind:function(arm,size=0x13c) addr:0x02149a34
_ZN12ActorUnkHELA19func_ov030_021477f0Ev kind:function(arm,size=0x64c) addr:0x02149b70
_ZN12ActorUnkHELA19func_ov030_02147e3cEv kind:function(arm,size=0x68) addr:0x0214a1bc
_ZN12ActorUnkHELA19func_ov030_02147ea4Ev kind:function(arm,size=0x40) addr:0x0214a224
_ZN12ActorUnkHELA19func_ov030_02147ee4Ev kind:function(arm,size=0x24) addr:0x0214a264
_ZN12ActorUnkHELA19func_ov030_02147f08Ev kind:function(arm,size=0xb4) addr:0x0214a288
_ZN12ActorUnkHELA19func_ov030_02147fbcEv kind:function(arm,size=0xc8) addr:0x0214a33c
_ZN12ActorUnkHELA19func_ov030_02148084Ev kind:function(arm,size=0x19c) addr:0x0214a404
_ZN12ActorUnkHELA19func_ov030_02148220Ev kind:function(arm,size=0x12c) addr:0x0214a5a0
_ZN12ActorUnkHELA19func_ov030_0214834cEv kind:function(arm,size=0x28) addr:0x0214a6cc
_ZN12ActorUnkHELA19func_ov030_02148374Ev kind:function(arm,size=0x2a0) addr:0x0214a6f4
_ZN12ActorUnkHELA19func_ov030_02148614Ev kind:function(arm,size=0x3c4) addr:0x0214a994
_ZN12ActorUnkHELA19func_ov030_021489d8Ev kind:function(arm,size=0xe4) addr:0x0214ad58
_ZN12ActorUnkHELA19func_ov030_02148abcEv kind:function(arm,size=0x80) addr:0x0214ae3c
_ZN12ActorUnkHELA19func_ov030_02148b3cEv kind:function(arm,size=0x18) addr:0x0214aebc
_ZN12ActorUnkHELA19func_ov030_02148b54Ev kind:function(arm,size=0xdc) addr:0x0214aed4
_ZN12ActorUnkHELA19func_ov030_02148c30Ev kind:function(arm,size=0x340) addr:0x0214afb0
_ZN12ActorUnkHELA19func_ov030_02148f70Ev kind:function(arm,size=0x18) addr:0x0214b2f0
_ZN12ActorUnkHELA19func_ov030_02148f88Ev kind:function(arm,size=0xfc) addr:0x0214b308
_ZN12ActorUnkHELA19func_ov030_02149084Ev kind:function(arm,size=0xf0) addr:0x0214b404
_ZN12ActorUnkHELA19func_ov030_02149174Ev kind:function(arm,size=0x104) addr:0x0214b4f4
_ZN12ActorUnkHELA19func_ov030_02149278Ev kind:function(arm,size=0x68) addr:0x0214b5f8
_ZN12ActorUnkHELA19func_ov030_021492e0Ev kind:function(arm,size=0x18) addr:0x0214b660
_ZN12ActorUnkHELA19func_ov030_021492f8Ev kind:function(arm,size=0x16c) addr:0x0214b678
_ZN12ActorUnkHELA19func_ov030_02149464Ev kind:function(arm,size=0x184) addr:0x0214b7e4
_ZN12ActorUnkHELA19func_ov030_021495e8Ev kind:function(arm,size=0x110) addr:0x0214b968
_ZN12ActorUnkHELA19func_ov030_021496f8Ev kind:function(arm,size=0x7c) addr:0x0214ba78
_ZN12ActorUnkHELA19func_ov030_02149774Ev kind:function(arm,size=0x80) addr:0x0214baf4
_ZN12ActorUnkHELA19func_ov030_021497f4Ev kind:function(arm,size=0x19c) addr:0x0214bb74
_ZN12ActorUnkHELA19func_ov030_02149968Ev kind:function(arm,size=0x40) addr:0x0214bd10
_ZN12ActorUnkHELA19func_ov030_021499a8Ev kind:function(arm,size=0x94) addr:0x0214bd50
_ZN12ActorUnkHELA19func_ov030_02149a3cEv kind:function(arm,size=0x60) addr:0x0214bde4
_ZN12ActorUnkHELA19func_ov030_02149a9cEv kind:function(arm,size=0x29c) addr:0x0214be44
_ZN12ActorUnkHELA19func_ov030_02149d38Ev kind:function(arm,size=0x9c) addr:0x0214c0e0
_ZN12ActorUnkHELA19func_ov030_02149dd4Ev kind:function(arm,size=0x50) addr:0x0214c17c
_ZN12ActorUnkHELA19func_ov030_02149e24Ev kind:function(arm,size=0x23c) addr:0x0214c1cc
_ZN12ActorUnkHELA19func_ov030_0214a060Ev kind:function(arm,size=0x3a4) addr:0x0214c408
_ZN12ActorUnkHELA19func_ov030_0214a404Ev kind:function(arm,size=0x20) addr:0x0214c7ac
_ZN12ActorUnkHELA19func_ov030_0214a424Ev kind:function(arm,size=0x100) addr:0x0214c7cc
_ZN12ActorUnkHELA19func_ov030_0214a524Ev kind:function(arm,size=0x208) addr:0x0214c8cc
_ZN12ActorUnkHELA19func_ov030_0214a72cEv kind:function(arm,size=0x4c) addr:0x0214cad4
_ZN12ActorUnkHELA19func_ov030_0214a778Ev kind:function(arm,size=0x2ec) addr:0x0214cb20
_ZN12ActorUnkHELA19func_ov030_0214aa64Ev kind:function(arm,size=0xbc) addr:0x0214ce0c
_ZN12ActorUnkHELA19func_ov030_0214ab20Ev kind:function(arm,size=0x1a8) addr:0x0214cec8
_ZN12ActorUnkHELA19func_ov030_0214acc8Ev kind:function(arm,size=0x274) addr:0x0214d070
_ZN12ActorUnkHELA19func_ov030_0214af3cEv kind:function(arm,size=0x40) addr:0x0214d2e4
_ZN12ActorUnkHELA19func_ov030_0214af7cEv kind:function(arm,size=0x24) addr:0x0214d324
_ZN12ActorUnkHELA19func_ov030_0214afa0Ev kind:function(arm,size=0x2c) addr:0x0214d348
_ZN12ActorUnkHELA19func_ov030_0214afccEv kind:function(arm,size=0xc) addr:0x0214d374
_ZN12ActorUnkHELAD0Ev kind:function(arm,size=0x1c) addr:0x0214d380
_ZN12ActorUnkHELAD1Ev kind:function(arm,size=0x48) addr:0x0214d39c
_ZN12ActorUnkHELA19func_ov030_0214b03cEv kind:function(arm,size=0x50) addr:0x0214d3e4
_ZN12ActorUnkHELA19func_ov030_0214b08cEv kind:function(arm,size=0x18) addr:0x0214d434
_ZN12ActorUnkHELA19func_ov030_0214b0a4Ev kind:function(arm,size=0x14) addr:0x0214d44c
_ZN19ActorProfileUnkHELAD1Ev kind:function(arm,size=0x14) addr:0x0214d460
_ZN19ActorProfileUnkHLMG10GetProfileEv kind:function(arm,size=0xc) addr:0x0214d474
_ZN19ActorProfileUnkHLMG6CreateEv kind:function(arm,size=0x24) addr:0x0214d480
_ZN19ActorProfileUnkHLMGC1Ev kind:function(arm,size=0x28) addr:0x0214d4a4
_ZN12ActorUnkHLMGC1Ev kind:function(arm,size=0xf4) addr:0x0214d4cc
_ZN12ActorUnkHLMGD1Ev kind:function(arm,size=0x1c) addr:0x0214d5c0
_ZN12ActorUnkHLMGD0Ev kind:function(arm,size=0x24) addr:0x0214d5dc
_ZN12ActorUnkHLMG19func_ov030_0214b258Ev kind:function(arm,size=0x8) addr:0x0214d600
_ZN12ActorUnkHLMG19func_ov030_0214b260Ev kind:function(arm,size=0x1c) addr:0x0214d608
_ZN12ActorUnkHLMG19func_ov030_0214b27cEv kind:function(arm,size=0x20) addr:0x0214d624
_ZN12ActorUnkHLMG19func_ov030_0214b29cEv kind:function(arm,size=0x3c8) addr:0x0214d644
_ZN12ActorUnkHLMG19func_ov030_0214b664Ev kind:function(arm,size=0x3fc) addr:0x0214da0c
_ZN12ActorUnkHLMG19func_ov030_0214ba60Ev kind:function(arm,size=0xd8) addr:0x0214de08
_ZN12ActorUnkHLMG19func_ov030_0214bb38Ev kind:function(arm,size=0x34) addr:0x0214dee0
_ZN12ActorUnkHLMG19func_ov030_0214bb6cEv kind:function(arm,size=0x4c) addr:0x0214df14
_ZN12ActorUnkHLMG19func_ov030_0214bbb8Ev kind:function(arm,size=0x48) addr:0x0214df60
_ZN12ActorUnkHLMG19func_ov030_0214bc00Ev kind:function(arm,size=0x50) addr:0x0214dfa8
_ZN12ActorUnkHLMG19func_ov030_0214bc50Ev kind:function(arm,size=0x8c) addr:0x0214dff8
_ZN12ActorUnkHLMG19func_ov030_0214bcdcEv kind:function(arm,size=0x98) addr:0x0214e084
_ZN12ActorUnkHLMG19func_ov030_0214bd74Ev kind:function(arm,size=0x10) addr:0x0214e11c
_ZN12ActorUnkHLMG19func_ov030_0214bd84Ev kind:function(arm,size=0x30) addr:0x0214e12c
_ZN12ActorUnkHLMG19func_ov030_0214bdb4Ev kind:function(arm,size=0x2d0) addr:0x0214e15c
_ZN12ActorUnkHLMG19func_ov030_0214c084Ev kind:function(arm,size=0xf4) addr:0x0214e42c
_ZN12ActorUnkHLMG19func_ov030_0214c178Ev kind:function(arm,size=0x34) addr:0x0214e520
_ZN12ActorUnkHLMG19func_ov030_0214c1acEv kind:function(arm,size=0x14) addr:0x0214e554
_ZN12ActorUnkHLMG19func_ov030_0214c1c0Ev kind:function(arm,size=0x5c) addr:0x0214e568
_ZN12ActorUnkHLMG19func_ov030_0214c21cEv kind:function(arm,size=0x4c) addr:0x0214e5c4
_ZN12ActorUnkHLMG19func_ov030_0214c268Ev kind:function(arm,size=0xa4) addr:0x0214e610
_ZN12ActorUnkHLMG19func_ov030_0214c30cEv kind:function(arm,size=0x10) addr:0x0214e6b4
_ZN12ActorUnkHLMG19func_ov030_0214c31cEv kind:function(arm,size=0x14) addr:0x0214e6c4
_ZN19ActorProfileUnkHLMGD1Ev kind:function(arm,size=0x14) addr:0x0214e6d8
_ZN19ActorProfileUnkFDKY10GetProfileEv kind:function(arm,size=0xc) addr:0x0214e6ec
_ZN19ActorProfileUnkFDKY6CreateEv kind:function(arm,size=0x24) addr:0x0214e6f8
_ZN19ActorProfileUnkFDKYC1Ev kind:function(arm,size=0x40) addr:0x0214e71c
_ZN12ActorUnkFDKY19func_ov030_0214c3b4Ev kind:function(arm,size=0x30) addr:0x0214e75c
_ZN12ActorUnkFDKY19func_ov030_0214c3e4Ev kind:function(arm,size=0x40) addr:0x0214e78c
_ZN12ActorUnkFDKYC1Ev kind:function(arm,size=0x70) addr:0x0214e7cc
_ZN12ActorUnkFDKYD1Ev kind:function(arm,size=0x20) addr:0x0214e83c
_ZN12ActorUnkFDKYD0Ev kind:function(arm,size=0x28) addr:0x0214e85c
_ZN12ActorUnkFDKY19func_ov030_0214c4dcEv kind:function(arm,size=0x3a8) addr:0x0214e884
_ZN12ActorUnkFDKY19func_ov030_0214c884Ev kind:function(arm,size=0x1a0) addr:0x0214ec2c
_ZN12ActorUnkFDKY19func_ov030_0214ca24Ev kind:function(arm,size=0x10) addr:0x0214edcc
_ZN12ActorUnkFDKY19func_ov030_0214ca34Ev kind:function(arm,size=0x7c) addr:0x0214eddc
_ZN12ActorUnkFDKY19func_ov030_0214cab0Ev kind:function(arm,size=0x40) addr:0x0214ee58
_ZN12ActorUnkFDKY19func_ov030_0214caf0Ev kind:function(arm,size=0x38) addr:0x0214ee98
_ZN12ActorUnkFDKY19func_ov030_0214cb28Ev kind:function(arm,size=0x1c) addr:0x0214eed0
_ZN12ActorUnkFDKY19func_ov030_0214cb44Ev kind:function(arm,size=0xc) addr:0x0214eeec
_ZN12ActorUnkFDKY19func_ov030_0214cb50Ev kind:function(arm,size=0x118) addr:0x0214eef8
_ZN12ActorUnkFDKY19func_ov030_0214cc68Ev kind:function(arm,size=0x158) addr:0x0214f010
_ZN12ActorUnkFDKY19func_ov030_0214cdc0Ev kind:function(arm,size=0x68) addr:0x0214f168
_ZN19ActorProfileUnkFDKYD1Ev kind:function(arm,size=0x14) addr:0x0214f1d0
_ZN19ActorProfileUnkGOVT10GetProfileEv kind:function(arm,size=0xc) addr:0x0214f1e4
_ZN19ActorProfileUnkGOVT6CreateEv kind:function(arm,size=0x24) addr:0x0214f1f0
_ZN19ActorProfileUnkGOVTC1Ev kind:function(arm,size=0x28) addr:0x0214f214
_ZN12ActorUnkGOVTC1Ev kind:function(arm,size=0x44) addr:0x0214f23c
_ZN12ActorUnkGOVTD1Ev kind:function(arm,size=0x3c) addr:0x0214f280
_ZN12ActorUnkGOVTD0Ev kind:function(arm,size=0x44) addr:0x0214f2bc
_ZN12ActorUnkGOVT19func_ov030_0214cf58Ev kind:function(arm,size=0x44) addr:0x0214f300
_ZN12ActorUnkGOVT19func_ov030_0214cf9cEv kind:function(arm,size=0x44) addr:0x0214f344
_ZN12ActorUnkGOVT19func_ov030_0214cfe0Ev kind:function(arm,size=0x38) addr:0x0214f388
_ZN12ActorUnkGOVT19func_ov030_0214d018Ev kind:function(arm,size=0x38) addr:0x0214f3c0
_ZN12ActorUnkGOVT19func_ov030_0214d050Ev kind:function(arm,size=0x4) addr:0x0214f3f8
_ZN12ActorUnkGOVT19func_ov030_0214d054Ev kind:function(arm,size=0x24) addr:0x0214f3fc
_ZN12ActorUnkGOVT19func_ov030_0214d078Ev kind:function(arm,size=0x200) addr:0x0214f420
_ZN12ActorUnkGOVT19func_ov030_0214d278Ev kind:function(arm,size=0x31c) addr:0x0214f620
_ZN12ActorUnkGOVT19func_ov030_0214d594Ev kind:function(arm,size=0x40) addr:0x0214f93c
_ZN12ActorUnkGOVT19func_ov030_0214d5d4Ev kind:function(arm,size=0x4) addr:0x0214f97c
_ZN12ActorUnkGOVT19func_ov030_0214d5d8Ev kind:function(arm,size=0x2c) addr:0x0214f980
_ZN12ActorUnkGOVT19func_ov030_0214d604Ev kind:function(arm,size=0x20) addr:0x0214f9ac
_ZN12ActorUnkGOVT19func_ov030_0214d624Ev kind:function(arm,size=0x20) addr:0x0214f9cc
_ZN19ActorProfileUnkGOVTD1Ev kind:function(arm,size=0x14) addr:0x0214f9ec
_ZN19ActorProfileUnkTTFT10GetProfileEv kind:function(arm,size=0xc) addr:0x0214fa00
_ZN19ActorProfileUnkTTFT6CreateEv kind:function(arm,size=0x34) addr:0x0214fa0c
_ZN19ActorProfileUnkTTFTC1Ev kind:function(arm,size=0x28) addr:0x0214fa40
_ZN12ActorUnkTTFT19func_ov030_0214d6c0Ev kind:function(arm,size=0x50) addr:0x0214fa68
_ZN12ActorUnkTTFT19func_ov030_0214d710Ev kind:function(arm,size=0x14) addr:0x0214fab8
_ZN12ActorUnkTTFT19func_ov030_0214d724Ev kind:function(arm,size=0x68) addr:0x0214facc
_ZN12ActorUnkTTFTD1Ev kind:function(arm,size=0x14) addr:0x0214fb34
_ZN12ActorUnkTTFTD0Ev kind:function(arm,size=0x1c) addr:0x0214fb48
_ZN19ActorProfileUnkTTFTD1Ev kind:function(arm,size=0x14) addr:0x0214fb64
_ZN19ActorProfileUnkSGMG10GetProfileEv kind:function(arm,size=0xc) addr:0x0214fb78
_ZN19ActorProfileUnkSGMG6CreateEv kind:function(arm,size=0x24) addr:0x0214fb84
_ZN19ActorProfileUnkSGMGC1Ev kind:function(arm,size=0x28) addr:0x0214fba8
_ZN12ActorUnkSGMGC1Ev kind:function(arm,size=0x68) addr:0x0214fbd0
_ZN12ActorUnkSGMGD1Ev kind:function(arm,size=0x1c) addr:0x0214fc38
_ZN12ActorUnkSGMGD0Ev kind:function(arm,size=0x24) addr:0x0214fc54
_ZN12ActorUnkSGMG19func_ov030_0214d8d0Ev kind:function(arm,size=0x10) addr:0x0214fc78
_ZN12ActorUnkSGMG19func_ov030_0214d8e0Ev kind:function(arm,size=0x2d4) addr:0x0214fc88
_ZN12ActorUnkSGMG19func_ov030_0214dbb4Ev kind:function(arm,size=0x7c) addr:0x0214ff5c
_ZN12ActorUnkSGMG19func_ov030_0214dc30Ev kind:function(arm,size=0x50) addr:0x0214ffd8
_ZN12ActorUnkSGMG19func_ov030_0214dc80Ev kind:function(arm,size=0x10) addr:0x02150028
_ZN12ActorUnkSGMG19func_ov030_0214dc90Ev kind:function(arm,size=0x14) addr:0x02150038
_ZN19ActorProfileUnkSGMGD1Ev kind:function(arm,size=0x14) addr:0x0215004c
_ZN19ActorProfileUnkWKTR10GetProfileEv kind:function(arm,size=0xc) addr:0x02150060
_ZN19ActorProfileUnkWKTR6CreateEv kind:function(arm,size=0x28) addr:0x0215006c
_ZN19ActorProfileUnkWKTRC1Ev kind:function(arm,size=0x6c) addr:0x02150094
_ZN12ActorUnkWKTR19func_ov030_0214dd58Ev kind:function(arm,size=0x10) addr:0x02150100
_ZN12ActorUnkWKTRC1Ev kind:function(arm,size=0x180) addr:0x02150110
_ZN12ActorUnkWKTR19func_ov030_0214dee8Ev kind:function(arm,size=0x40) addr:0x02150290
_ZN12ActorUnkWKTR19func_ov030_0214df28Ev kind:function(arm,size=0x14) addr:0x021502d0
_ZN12ActorUnkWKTR19func_ov030_0214df3cEv kind:function(arm,size=0x54) addr:0x021502e4
_ZN12ActorUnkWKTRD1Ev kind:function(arm,size=0x84) addr:0x02150338
_ZN12ActorUnkWKTRD0Ev kind:function(arm,size=0x8c) addr:0x021503bc
_ZN12ActorUnkWKTR19func_ov030_0214e0a0Ev kind:function(arm,size=0x8) addr:0x02150448
_ZN12ActorUnkWKTR19func_ov030_0214e0a8Ev kind:function(arm,size=0xa4) addr:0x02150450
_ZN12ActorUnkWKTR19func_ov030_0214e14cEv kind:function(arm,size=0x20) addr:0x021504f4
_ZN12ActorUnkWKTR19func_ov030_0214e16cEv kind:function(arm,size=0x20) addr:0x02150514
_ZN12ActorUnkWKTR19func_ov030_0214e18cEv kind:function(arm,size=0x144) addr:0x02150534
_ZN12ActorUnkWKTR19func_ov030_0214e2d0Ev kind:function(arm,size=0x148) addr:0x02150678
_ZN12ActorUnkWKTR19func_ov030_0214e418Ev kind:function(arm,size=0x4) addr:0x021507c0
_ZN12ActorUnkWKTR19func_ov030_0214e41cEv kind:function(arm,size=0x19c) addr:0x021507c4
_ZN12ActorUnkWKTR19func_ov030_0214e5b8Ev kind:function(arm,size=0x7c) addr:0x02150960
_ZN12ActorUnkWKTR19func_ov030_0214e634Ev kind:function(arm,size=0x30) addr:0x021509dc
_ZN12ActorUnkWKTR19func_ov030_0214e664Ev kind:function(arm,size=0x2c) addr:0x02150a0c
_ZN12ActorUnkWKTR19func_ov030_0214e690Ev kind:function(arm,size=0x218) addr:0x02150a38
_ZN12ActorUnkWKTR19func_ov030_0214e8a8Ev kind:function(arm,size=0x4e8) addr:0x02150c50
_ZN12ActorUnkWKTR19func_ov030_0214ed90Ev kind:function(arm,size=0x68) addr:0x02151138
_ZN12ActorUnkWKTR19func_ov030_0214edf8Ev kind:function(arm,size=0xf8) addr:0x021511a0
_ZN12ActorUnkWKTR19func_ov030_0214eef0Ev kind:function(arm,size=0x290) addr:0x02151298
_ZN12ActorUnkWKTR19func_ov030_0214f180Ev kind:function(arm,size=0x230) addr:0x02151528
_ZN12ActorUnkWKTR19func_ov030_0214f3b0Ev kind:function(arm,size=0xec) addr:0x02151758
_ZN12ActorUnkWKTR19func_ov030_0214f49cEv kind:function(arm,size=0x14) addr:0x02151844
_ZN12ActorUnkWKTR19func_ov030_0214f4b0Ev kind:function(arm,size=0x4) addr:0x02151858
_ZN12ActorUnkWKTR19func_ov030_0214f4b4Ev kind:function(arm,size=0x3c) addr:0x0215185c
_ZN12ActorUnkWKTR19func_ov030_0214f4f0Ev kind:function(arm,size=0xa8) addr:0x02151898
_ZN12ActorUnkWKTR19func_ov030_0214f598Ev kind:function(arm,size=0x3c) addr:0x02151940
_ZN12ActorUnkWKTR19func_ov030_0214f5d4Ev kind:function(arm,size=0xa4) addr:0x0215197c
_ZN12ActorUnkWKTR19func_ov030_0214f678Ev kind:function(arm,size=0x3c) addr:0x02151a20
_ZN12ActorUnkWKTR19func_ov030_0214f6b4Ev kind:function(arm,size=0xc) addr:0x02151a5c
_ZN12ActorUnkWKTR19func_ov030_0214f6c0Ev kind:function(arm,size=0x48) addr:0x02151a68
_ZN12ActorUnkWKTR19func_ov030_0214f708Ev kind:function(arm,size=0xd8) addr:0x02151ab0
_ZN12ActorUnkWKTR19func_ov030_0214f7e0Ev kind:function(arm,size=0xf0) addr:0x02151b88
_ZN12ActorUnkWKTR19func_ov030_0214f8d0Ev kind:function(arm,size=0xbc) addr:0x02151c78
_ZN12ActorUnkWKTR19func_ov030_0214f98cEv kind:function(arm,size=0x44) addr:0x02151d34
_ZN12ActorUnkWKTR19func_ov030_0214f9d0Ev kind:function(arm,size=0xac) addr:0x02151d78
_ZN12ActorUnkWKTR19func_ov030_0214fa7cEv kind:function(arm,size=0x5c) addr:0x02151e24
_ZN12ActorUnkWKTR19func_ov030_0214fad8Ev kind:function(arm,size=0xbc) addr:0x02151e80
_ZN12ActorUnkWKTR19func_ov030_0214fb94Ev kind:function(arm,size=0x44) addr:0x02151f3c
_ZN12ActorUnkWKTR19func_ov030_0214fbd8Ev kind:function(arm,size=0xac) addr:0x02151f80
_ZN12ActorUnkWKTR19func_ov030_0214fc84Ev kind:function(arm,size=0x2c) addr:0x0215202c
_ZN12ActorUnkWKTR19func_ov030_0214fcb0Ev kind:function(arm,size=0x128) addr:0x02152058
_ZN12ActorUnkWKTR19func_ov030_0214fdd8Ev kind:function(arm,size=0x168) addr:0x02152180
_ZN12ActorUnkWKTR19func_ov030_0214ff40Ev kind:function(arm,size=0xa8) addr:0x021522e8
_ZN12ActorUnkWKTR19func_ov030_0214ffe8Ev kind:function(arm,size=0x128) addr:0x02152390
_ZN12ActorUnkWKTR19func_ov030_02150110Ev kind:function(arm,size=0x104) addr:0x021524b8
_ZN12ActorUnkWKTR19func_ov030_02150214Ev kind:function(arm,size=0x44) addr:0x021525bc
_ZN12ActorUnkWKTR19func_ov030_02150258Ev kind:function(arm,size=0x130) addr:0x02152600
_ZN12ActorUnkWKTR19func_ov030_02150388Ev kind:function(arm,size=0x3c) addr:0x02152730
_ZN12ActorUnkWKTR19func_ov030_021503c4Ev kind:function(arm,size=0x190) addr:0x0215276c
_ZN12ActorUnkWKTR19func_ov030_02150554Ev kind:function(arm,size=0x24) addr:0x021528fc
_ZN12ActorUnkWKTR19func_ov030_02150578Ev kind:function(arm,size=0x10) addr:0x02152920
_ZN12ActorUnkWKTR19func_ov030_02150588Ev kind:function(arm,size=0x8) addr:0x02152930
_ZN12ActorUnkWKTR19func_ov030_02150590Ev kind:function(arm,size=0x1c) addr:0x02152938
_ZN19ActorProfileUnkWKTRD1Ev kind:function(arm,size=0x14) addr:0x02152954
func_ov030_02152968 kind:function(arm,size=0xa0) addr:0x02152968
_ZN19func_ov030_02152a08D1Ev kind:function(arm,size=0x14) addr:0x02152a08
_ZN19func_ov030_02152a1cD0Ev kind:function(arm,size=0x1c) addr:0x02152a1c
func_ov030_02152a38 kind:function(arm,size=0x88) addr:0x02152a38
func_ov030_02152ac0 kind:function(arm,size=0x88) addr:0x02152ac0
func_ov030_02152b48 kind:function(arm,size=0x9c) addr:0x02152b48
func_ov030_02152be4 kind:function(arm,size=0x3c) addr:0x02152be4
func_ov030_02152c20 kind:function(arm,size=0x1c) addr:0x02152c20
data_ov030_02152c3c kind:data(any) addr:0x02152c3c
data_ov030_02152c40 kind:data(any) addr:0x02152c40
data_ov030_02152c48 kind:data(any) addr:0x02152c48
data_ov030_02152c58 kind:data(any) addr:0x02152c58
data_ov030_02152c60 kind:data(any) addr:0x02152c60
data_ov030_02152c74 kind:data(any) addr:0x02152c74
data_ov030_02152ca0 kind:data(any) addr:0x02152ca0 ambiguous
data_ov030_02152cb4 kind:data(any) addr:0x02152cb4
data_ov030_02152cc4 kind:data(any) addr:0x02152cc4
data_ov030_02152cd4 kind:data(any) addr:0x02152cd4
data_ov030_02152cdc kind:data(any) addr:0x02152cdc
data_ov030_02152ce2 kind:data(any) addr:0x02152ce2
data_ov030_02152ce8 kind:data(any) addr:0x02152ce8
data_ov030_02152cf0 kind:data(any) addr:0x02152cf0
data_ov030_02152cf8 kind:data(any) addr:0x02152cf8
data_ov030_02152d04 kind:data(any) addr:0x02152d04
data_ov030_02152d20 kind:data(any) addr:0x02152d20
data_ov030_02152d28 kind:data(any) addr:0x02152d28
__sinit_MapObjectUnkETTV.cpp kind:function(arm,size=0x50) addr:0x02152d3c
__sinit_MapObjectUnkTRFI.cpp kind:function(arm,size=0x50) addr:0x02152d8c
__sinit_MapObjectUnkTRGM.cpp kind:function(arm,size=0x50) addr:0x02152ddc
__sinit_MapObjectUnkTRH2.cpp kind:function(arm,size=0x50) addr:0x02152e2c
__sinit_MapObjectUnkTRH3.cpp kind:function(arm,size=0x50) addr:0x02152e7c
__sinit_MapObjectUnkTRST.cpp kind:function(arm,size=0x50) addr:0x02152ecc
__sinit_ActorUnkHELA.cpp kind:function(arm,size=0x13c) addr:0x02152f1c
__sinit_ActorUnkHLMG.cpp kind:function(arm,size=0xe8) addr:0x02153058
__sinit_ActorUnkFDKY.cpp kind:function(arm,size=0x70) addr:0x02153140
__sinit_ActorUnkGOVT.cpp kind:function(arm,size=0x84) addr:0x021531b0
__sinit_ActorUnkTTFT.cpp kind:function(arm,size=0x50) addr:0x02153234
__sinit_ActorUnkSGMG.cpp kind:function(arm,size=0x50) addr:0x02153284
__sinit_ActorUnkWKTR.cpp kind:function(arm,size=0x50) addr:0x021532d4
.p__sinit_MapObjectUnkETTV.cpp kind:data(word) addr:0x02153324
.p__sinit_MapObjectUnkTRFI.cpp kind:data(word) addr:0x02153328
.p__sinit_MapObjectUnkTRGM.cpp kind:data(word) addr:0x0215332c
.p__sinit_MapObjectUnkTRH2.cpp kind:data(word) addr:0x02153330
.p__sinit_MapObjectUnkTRH3.cpp kind:data(word) addr:0x02153334
.p__sinit_MapObjectUnkTRST.cpp kind:data(word) addr:0x02153338
.p__sinit_ActorUnkHELA.cpp kind:data(word) addr:0x0215333c
.p__sinit_ActorUnkHLMG.cpp kind:data(word) addr:0x02153340
.p__sinit_ActorUnkFDKY.cpp kind:data(word) addr:0x02153344
.p__sinit_ActorUnkGOVT.cpp kind:data(word) addr:0x02153348
.p__sinit_ActorUnkTTFT.cpp kind:data(word) addr:0x0215334c
.p__sinit_ActorUnkSGMG.cpp kind:data(word) addr:0x02153350
.p__sinit_ActorUnkWKTR.cpp kind:data(word) addr:0x02153354
data_ov030_02153368 kind:data(any) addr:0x02153368
data_ov030_0215339c kind:data(any) addr:0x0215339c
data_ov030_021533d0 kind:data(any) addr:0x021533d0
data_ov030_021533ec kind:data(any) addr:0x021533ec
data_ov030_02153418 kind:data(any) addr:0x02153418
data_ov030_0215349c kind:data(any) addr:0x0215349c
data_ov030_02153520 kind:data(any) addr:0x02153520
data_ov030_0215353c kind:data(any) addr:0x0215353c
data_ov030_021535a8 kind:data(any) addr:0x021535a8
data_ov030_02153614 kind:data(any) addr:0x02153614
data_ov030_02153630 kind:data(any) addr:0x02153630
data_ov030_021536b4 kind:data(any) addr:0x021536b4
data_ov030_021536d0 kind:data(any) addr:0x021536d0
data_ov030_021536dc kind:data(any) addr:0x021536dc ambiguous
data_ov030_0215373c kind:data(any) addr:0x0215373c
data_ov030_02153758 kind:data(any) addr:0x02153758
data_ov030_021537c4 kind:data(any) addr:0x021537c4
data_ov030_021537e0 kind:data(any) addr:0x021537e0
data_ov030_02153844 kind:data(any) addr:0x02153844
data_ov030_02153848 kind:data(any) addr:0x02153848
data_ov030_0215384c kind:data(any) addr:0x0215384c
data_ov030_02153850 kind:data(any) addr:0x02153850
data_ov030_02153854 kind:data(any) addr:0x02153854
data_ov030_02153858 kind:data(any) addr:0x02153858
data_ov030_0215385c kind:data(any) addr:0x0215385c
data_ov030_0215386c kind:data(any) addr:0x0215386c
data_ov030_02153878 kind:data(any) addr:0x02153878
_ZTV19data_ov030_02153880 kind:data(any) addr:0x02153880
data_ov030_021538ac kind:data(any) addr:0x021538ac
_ZTV19data_ov030_021538f0 kind:data(any) addr:0x021538f0
data_ov030_02153954 kind:data(any) addr:0x02153954
data_ov030_0215396c kind:data(any) addr:0x0215396c
data_ov030_02153984 kind:data(any) addr:0x02153984
data_ov030_0215399c kind:data(any) addr:0x0215399c
data_ov030_021539b4 kind:data(any) addr:0x021539b4
data_ov030_021539cc kind:data(any) addr:0x021539cc
data_ov030_021539e4 kind:data(any) addr:0x021539e4
data_ov030_021539fc kind:data(any) addr:0x021539fc
data_ov030_02153a14 kind:data(any) addr:0x02153a14
data_ov030_02153a2c kind:data(any) addr:0x02153a2c
data_ov030_02153a3c kind:data(any) addr:0x02153a3c
data_ov030_02153a80 kind:data(any) addr:0x02153a80 ambiguous
data_ov030_02153b34 kind:data(any) addr:0x02153b34 ambiguous
_ZTV19data_ov030_02153b94 kind:data(any) addr:0x02153b94
_ZTV19data_ov030_02153bb8 kind:data(any) addr:0x02153bb8
data_ov030_02153c14 kind:data(any) addr:0x02153c14
data_ov030_02153c30 kind:data(any) addr:0x02153c30
data_ov030_02153c4c kind:data(any) addr:0x02153c4c
data_ov030_02153c68 kind:data(any) addr:0x02153c68
data_ov030_02153c8c kind:data(any) addr:0x02153c8c
data_ov030_02153c90 kind:data(any) addr:0x02153c90
data_ov030_02153c9c kind:data(any) addr:0x02153c9c
data_ov030_02153cac kind:data(any) addr:0x02153cac
data_ov030_02153ccc kind:data(any) addr:0x02153ccc
_ZTV19data_ov030_02153cfc kind:data(any) addr:0x02153cfc
_ZTV19data_ov030_02153d20 kind:data(any) addr:0x02153d20
data_ov030_02153d7c kind:data(any) addr:0x02153d7c
data_ov030_02153d84 kind:data(any) addr:0x02153d84
data_ov030_02153d90 kind:data(any) addr:0x02153d90
data_ov030_02153da8 kind:data(any) addr:0x02153da8
_ZTV19data_ov030_02153dc0 kind:data(any) addr:0x02153dc0
_ZTV19data_ov030_02153de4 kind:data(any) addr:0x02153de4
_ZTV19data_ov030_02153e40 kind:data(any) addr:0x02153e40
_ZTV19data_ov030_02153e64 kind:data(any) addr:0x02153e64
_ZTV19data_ov030_02153ec8 kind:data(any) addr:0x02153ec8
_ZTV19data_ov030_02153eec kind:data(any) addr:0x02153eec
data_ov030_02153f48 kind:data(any) addr:0x02153f48
_ZTV19data_ov030_02154028 kind:data(any) addr:0x02154028
data_ov030_02154054 kind:data(any) addr:0x02154054
data_ov030_02154074 kind:data(any) addr:0x02154074 ambiguous
data_ov030_02154094 kind:data(any) addr:0x02154094 ambiguous
_ZTV19data_ov030_02154094 kind:data(any) addr:0x02154094
data_ov030_02154100 kind:data(any) addr:0x02154100
_ZTV19data_ov030_02154100 kind:data(any) addr:0x02154100 ambiguous
_ZGVN15ProfileInstanceI23MapObjectProfileUnkETTVE8sProfileE kind:bss addr:0x02154120
@30680 kind:bss addr:0x02154124
_ZN15ProfileInstanceI23MapObjectProfileUnkETTVE8sProfileE kind:bss addr:0x02154130
data_ov030_02154150 kind:bss addr:0x02154150
_ZGVN15ProfileInstanceI23MapObjectProfileUnkTRFIE8sProfileE kind:bss addr:0x02154204
@30686 kind:bss addr:0x02154208
_ZN15ProfileInstanceI23MapObjectProfileUnkTRFIE8sProfileE kind:bss addr:0x02154214
_ZGVN15ProfileInstanceI23MapObjectProfileUnkTRGME8sProfileE kind:bss addr:0x021542e8
@30692 kind:bss addr:0x021542ec
_ZN15ProfileInstanceI23MapObjectProfileUnkTRGME8sProfileE kind:bss addr:0x021542f8
_ZGVN15ProfileInstanceI23MapObjectProfileUnkTRH2E8sProfileE kind:bss addr:0x021543cc
@30698 kind:bss addr:0x021543d0
_ZN15ProfileInstanceI23MapObjectProfileUnkTRH2E8sProfileE kind:bss addr:0x021543dc
_ZGVN15ProfileInstanceI23MapObjectProfileUnkTRH3E8sProfileE kind:bss addr:0x021544b0
@30704 kind:bss addr:0x021544b4
_ZN15ProfileInstanceI23MapObjectProfileUnkTRH3E8sProfileE kind:bss addr:0x021544c0
_ZGVN15ProfileInstanceI23MapObjectProfileUnkTRSTE8sProfileE kind:bss addr:0x02154594
@30710 kind:bss addr:0x02154598
_ZN15ProfileInstanceI23MapObjectProfileUnkTRSTE8sProfileE kind:bss addr:0x021545a4
_ZGVN15ProfileInstanceI19ActorProfileUnkHELAE8sProfileE kind:bss addr:0x02154678
@30727 kind:bss addr:0x02154680
data_ov030_0215468c kind:bss addr:0x0215468c
data_ov030_02154698 kind:bss addr:0x02154698
data_ov030_0215469c kind:bss addr:0x0215469c
data_ov030_021546aa kind:bss addr:0x021546aa
data_ov030_021546ac kind:bss addr:0x021546ac
_ZN15ProfileInstanceI19ActorProfileUnkHELAE8sProfileE kind:bss addr:0x021546e0
data_ov030_021546e4 kind:bss addr:0x021546e4
data_ov030_02154700 kind:bss addr:0x02154700 ambiguous
data_ov030_02154761 kind:bss addr:0x02154761 ambiguous
data_ov030_021547b8 kind:bss addr:0x021547b8
data_ov030_021547cc kind:bss addr:0x021547cc
data_ov030_02154b74 kind:bss addr:0x02154b74 ambiguous
data_ov030_02154be0 kind:bss addr:0x02154be0 ambiguous
_ZGVN15ProfileInstanceI19ActorProfileUnkHLMGE8sProfileE kind:bss addr:0x02154c84
@30733 kind:bss addr:0x02154c88
_ZN15ProfileInstanceI19ActorProfileUnkHLMGE8sProfileE kind:bss addr:0x02154c94
data_ov030_02154ca4 kind:bss addr:0x02154ca4 ambiguous
_ZGVN15ProfileInstanceI19ActorProfileUnkFDKYE8sProfileE kind:bss addr:0x02154cd0
@30739 kind:bss addr:0x02154cd4
_ZN15ProfileInstanceI19ActorProfileUnkFDKYE8sProfileE kind:bss addr:0x02154ce0
_ZGVN15ProfileInstanceI19ActorProfileUnkGOVTE8sProfileE kind:bss addr:0x02154db8
@30745 kind:bss addr:0x02154dbc
_ZN15ProfileInstanceI19ActorProfileUnkGOVTE8sProfileE kind:bss addr:0x02154dc8
_ZGVN15ProfileInstanceI19ActorProfileUnkTTFTE8sProfileE kind:bss addr:0x02154e04
@30751 kind:bss addr:0x02154e08
_ZN15ProfileInstanceI19ActorProfileUnkTTFTE8sProfileE kind:bss addr:0x02154e14
_ZGVN15ProfileInstanceI19ActorProfileUnkSGMGE8sProfileE kind:bss addr:0x02154e50
@30757 kind:bss addr:0x02154e54
_ZN15ProfileInstanceI19ActorProfileUnkSGMGE8sProfileE kind:bss addr:0x02154e60
data_ov030_02154e6c kind:bss addr:0x02154e6c ambiguous
data_ov030_02154e9c kind:bss addr:0x02154e9c
data_ov030_02154ea0 kind:bss addr:0x02154ea0
data_ov030_02154ea4 kind:bss addr:0x02154ea4
data_ov030_02154ea8 kind:bss addr:0x02154ea8
data_ov030_02154eac kind:bss addr:0x02154eac
data_ov030_02154eb0 kind:bss addr:0x02154eb0
data_ov030_02154eb4 kind:bss addr:0x02154eb4
data_ov030_02154eb8 kind:bss addr:0x02154eb8
data_ov030_02154ebc kind:bss addr:0x02154ebc
data_ov030_02154ec0 kind:bss addr:0x02154ec0
data_ov030_02154ec4 kind:bss addr:0x02154ec4
data_ov030_02154ec8 kind:bss addr:0x02154ec8
data_ov030_02154ecc kind:bss addr:0x02154ecc
data_ov030_02154ed0 kind:bss addr:0x02154ed0
data_ov030_02154ed4 kind:bss addr:0x02154ed4
data_ov030_02154ee0 kind:bss addr:0x02154ee0
data_ov030_02154ee4 kind:bss addr:0x02154ee4
data_ov030_02154ef4 kind:bss addr:0x02154ef4
data_ov030_02154f04 kind:bss addr:0x02154f04
data_ov030_02154f14 kind:bss addr:0x02154f14
data_ov030_02154f24 kind:bss addr:0x02154f24
data_ov030_02154f28 kind:bss addr:0x02154f28 ambiguous
data_ov030_02154f34 kind:bss addr:0x02154f34
data_ov030_02154f44 kind:bss addr:0x02154f44
data_ov030_02154f54 kind:bss addr:0x02154f54
data_ov030_02154f64 kind:bss addr:0x02154f64
data_ov030_02154f74 kind:bss addr:0x02154f74
data_ov030_02154f84 kind:bss addr:0x02154f84
data_ov030_02154f88 kind:bss addr:0x02154f88 ambiguous
data_ov030_02154f94 kind:bss addr:0x02154f94
_ZGVN15ProfileInstanceI19ActorProfileUnkWKTRE8sProfileE kind:bss addr:0x02154fa4
@30763 kind:bss addr:0x02154fb4
_ZN15ProfileInstanceI19ActorProfileUnkWKTRE8sProfileE kind:bss addr:0x02154fc4
