func_ov030_021419e0 kind:function(arm,size=0xc8) addr:0x021419e0
_ZN19func_ov030_02141aa8D1Ev kind:function(arm,size=0x14) addr:0x02141aa8
_ZN19func_ov030_02141abcD0Ev kind:function(arm,size=0x1c) addr:0x02141abc
func_ov030_02141ad8 kind:function(arm,size=0xc) addr:0x02141ad8
func_ov030_02141ae4 kind:function(arm,size=0x118) addr:0x02141ae4
func_ov030_02141bfc kind:function(arm,size=0x114) addr:0x02141bfc
_ZN19func_ov030_02141d10D1Ev kind:function(arm,size=0x14) addr:0x02141d10
_ZN19func_ov030_02141d24D0Ev kind:function(arm,size=0x1c) addr:0x02141d24
func_ov030_02141d40 kind:function(arm,size=0xc) addr:0x02141d40
func_ov030_02141d4c kind:function(arm,size=0x118) addr:0x02141d4c
_ZN23MapObjectProfileUnkETTV10GetProfileEv kind:function(arm,size=0xc) addr:0x02141e64
_ZN23MapObjectProfileUnkETTV6CreateEv kind:function(arm,size=0x24) addr:0x02141e70
_ZN23MapObjectProfileUnkETTVC1Ev kind:function(arm,size=0x2c) addr:0x02141e94
_ZN16MapObjectUnkETTVC1Ev kind:function(arm,size=0x94) addr:0x02141ec0
_ZN16MapObjectUnkETTV19func_ov030_02141f54Ev kind:function(arm,size=0x14) addr:0x02141f54
_ZN16MapObjectUnkETTV19func_ov030_02141f68Ev kind:function(arm,size=0x198) addr:0x02141f68
_ZN16MapObjectUnkETTV19func_ov030_02142100Ev kind:function(arm,size=0xe8) addr:0x02142100
_ZN16MapObjectUnkETTV19func_ov030_021421e8Ev kind:function(arm,size=0x8) addr:0x021421e8
_ZN16MapObjectUnkETTV19func_ov030_021421f0Ev kind:function(arm,size=0x8) addr:0x021421f0
_ZN16MapObjectUnkETTV19func_ov030_021421f8Ev kind:function(arm,size=0x4) addr:0x021421f8
_ZN16MapObjectUnkETTV19func_ov030_021421fcEv kind:function(arm,size=0xf0) addr:0x021421fc
_ZN16MapObjectUnkETTV19func_ov030_021422ecEv kind:function(arm,size=0x174) addr:0x021422ec
_ZN16MapObjectUnkETTV19func_ov030_02142460Ev kind:function(arm,size=0x4c) addr:0x02142460
_ZN16MapObjectUnkETTV19func_ov030_021424acEv kind:function(arm,size=0xa4) addr:0x021424ac
_ZN16MapObjectUnkETTV19func_ov030_02142550Ev kind:function(arm,size=0x44) addr:0x02142550
_ZN16MapObjectUnkETTV19func_ov030_02142594Ev kind:function(arm,size=0x8) addr:0x02142594
_ZN16MapObjectUnkETTV19func_ov030_0214259cEv kind:function(arm,size=0x1ec) addr:0x0214259c
_ZN16MapObjectUnkETTV19func_ov030_02142788Ev kind:function(arm,size=0x38) addr:0x02142788
_ZN16MapObjectUnkETTV19func_ov030_021427c0Ev kind:function(arm,size=0x68) addr:0x021427c0
_ZN16MapObjectUnkETTV19func_ov030_02142828Ev kind:function(arm,size=0x40) addr:0x02142828
_ZN16MapObjectUnkETTV19func_ov030_02142868Ev kind:function(arm,size=0x20) addr:0x02142868
_ZN16MapObjectUnkETTV19func_ov030_02142888Ev kind:function(arm,size=0x20) addr:0x02142888
_ZN16MapObjectUnkETTV19func_ov030_021428a8Ev kind:function(arm,size=0x14) addr:0x021428a8
_ZN16MapObjectUnkETTVD0Ev kind:function(arm,size=0x1c) addr:0x021428bc
_ZN16MapObjectUnkETTVD1Ev kind:function(arm,size=0x40) addr:0x021428d8
_ZN16MapObjectUnkETTV19func_ov030_02142918Ev kind:function(arm,size=0x48) addr:0x02142918
_ZN16MapObjectUnkETTV19func_ov030_02142960Ev kind:function(arm,size=0x40) addr:0x02142960
_ZN16MapObjectUnkETTVD2Ev kind:function(arm,size=0x38) addr:0x021429a0
_ZN23MapObjectProfileUnkETTVD1Ev kind:function(arm,size=0x14) addr:0x021429d8
_ZN23MapObjectProfileUnkTRFI10GetProfileEv kind:function(arm,size=0xc) addr:0x021429ec
_ZN23MapObjectProfileUnkTRFI6CreateEv kind:function(arm,size=0x24) addr:0x021429f8
_ZN23MapObjectProfileUnkTRFIC1Ev kind:function(arm,size=0x40) addr:0x02142a1c
_ZN16MapObjectUnkTRFIC1Ev kind:function(arm,size=0x3c) addr:0x02142a5c
_ZN16MapObjectUnkTRFI19func_ov030_02142a98Ev kind:function(arm,size=0xec) addr:0x02142a98
_ZN16MapObjectUnkTRFI19func_ov030_02142b84Ev kind:function(arm,size=0xe8) addr:0x02142b84
_ZN16MapObjectUnkTRFI19func_ov030_02142c6cEv kind:function(arm,size=0x8) addr:0x02142c6c
_ZN16MapObjectUnkTRFI19func_ov030_02142c74Ev kind:function(arm,size=0x8) addr:0x02142c74
_ZN16MapObjectUnkTRFI19func_ov030_02142c7cEv kind:function(arm,size=0x4) addr:0x02142c7c
_ZN16MapObjectUnkTRFI19func_ov030_02142c80Ev kind:function(arm,size=0x74) addr:0x02142c80
_ZN16MapObjectUnkTRFI19func_ov030_02142cf4Ev kind:function(arm,size=0x18) addr:0x02142cf4
_ZN16MapObjectUnkTRFI19func_ov030_02142d0cEv kind:function(arm,size=0x40) addr:0x02142d0c
_ZN16MapObjectUnkTRFI19func_ov030_02142d4cEv kind:function(arm,size=0x20) addr:0x02142d4c
_ZN16MapObjectUnkTRFI19func_ov030_02142d6cEv kind:function(arm,size=0x20) addr:0x02142d6c
_ZN16MapObjectUnkTRFI19func_ov030_02142d8cEv kind:function(arm,size=0x8) addr:0x02142d8c
_ZN16MapObjectUnkTRFID1Ev kind:function(arm,size=0x20) addr:0x02142d94
_ZN16MapObjectUnkTRFID0Ev kind:function(arm,size=0x28) addr:0x02142db4
_ZN16MapObjectUnkTRFI19func_ov030_02142ddcEv kind:function(arm,size=0x28) addr:0x02142ddc
_ZN16MapObjectUnkTRFID2Ev kind:function(arm,size=0x20) addr:0x02142e04
_ZN23MapObjectProfileUnkTRFID1Ev kind:function(arm,size=0x14) addr:0x02142e24
_ZN23MapObjectProfileUnkTRGM10GetProfileEv kind:function(arm,size=0xc) addr:0x02142e38
_ZN23MapObjectProfileUnkTRGM6CreateEv kind:function(arm,size=0x24) addr:0x02142e44
_ZN23MapObjectProfileUnkTRGMC1Ev kind:function(arm,size=0x38) addr:0x02142e68
_ZN16MapObjectUnkTRGMC1Ev kind:function(arm,size=0x3c) addr:0x02142ea0
_ZN16MapObjectUnkTRGM19func_ov030_02142edcEv kind:function(arm,size=0xe8) addr:0x02142edc
_ZN16MapObjectUnkTRGM19func_ov030_02142fc4Ev kind:function(arm,size=0x94) addr:0x02142fc4
_ZN16MapObjectUnkTRGM19func_ov030_02143058Ev kind:function(arm,size=0x18) addr:0x02143058
_ZN16MapObjectUnkTRGM19func_ov030_02143070Ev kind:function(arm,size=0x40) addr:0x02143070
_ZN16MapObjectUnkTRGM19func_ov030_021430b0Ev kind:function(arm,size=0x20) addr:0x021430b0
_ZN16MapObjectUnkTRGM19func_ov030_021430d0Ev kind:function(arm,size=0x20) addr:0x021430d0
_ZN16MapObjectUnkTRGM19func_ov030_021430f0Ev kind:function(arm,size=0x8) addr:0x021430f0
_ZN16MapObjectUnkTRGM19func_ov030_021430f8Ev kind:function(arm,size=0xc) addr:0x021430f8
_ZN16MapObjectUnkTRGMD1Ev kind:function(arm,size=0x38) addr:0x02143104
_ZN16MapObjectUnkTRGMD0Ev kind:function(arm,size=0x40) addr:0x0214313c
_ZN23MapObjectProfileUnkTRGMD1Ev kind:function(arm,size=0x14) addr:0x0214317c
_ZN23MapObjectProfileUnkTRH210GetProfileEv kind:function(arm,size=0xc) addr:0x02143190
_ZN23MapObjectProfileUnkTRH26CreateEv kind:function(arm,size=0x24) addr:0x0214319c
_ZN23MapObjectProfileUnkTRH2C1Ev kind:function(arm,size=0x40) addr:0x021431c0
_ZN16MapObjectUnkTRH2C1Ev kind:function(arm,size=0x3c) addr:0x02143200
_ZN16MapObjectUnkTRH219func_ov030_0214323cEv kind:function(arm,size=0xec) addr:0x0214323c
_ZN16MapObjectUnkTRH219func_ov030_02143328Ev kind:function(arm,size=0x74) addr:0x02143328
_ZN16MapObjectUnkTRH219func_ov030_0214339cEv kind:function(arm,size=0x18) addr:0x0214339c
_ZN16MapObjectUnkTRH219func_ov030_021433b4Ev kind:function(arm,size=0x40) addr:0x021433b4
_ZN16MapObjectUnkTRH219func_ov030_021433f4Ev kind:function(arm,size=0x20) addr:0x021433f4
_ZN16MapObjectUnkTRH219func_ov030_02143414Ev kind:function(arm,size=0x20) addr:0x02143414
_ZN16MapObjectUnkTRH219func_ov030_02143434Ev kind:function(arm,size=0x8) addr:0x02143434
_ZN16MapObjectUnkTRH2D1Ev kind:function(arm,size=0x20) addr:0x0214343c
_ZN16MapObjectUnkTRH2D0Ev kind:function(arm,size=0x28) addr:0x0214345c
_ZN23MapObjectProfileUnkTRH2D1Ev kind:function(arm,size=0x14) addr:0x02143484
_ZN23MapObjectProfileUnkTRH310GetProfileEv kind:function(arm,size=0xc) addr:0x02143498
_ZN23MapObjectProfileUnkTRH36CreateEv kind:function(arm,size=0x24) addr:0x021434a4
_ZN23MapObjectProfileUnkTRH3C1Ev kind:function(arm,size=0x40) addr:0x021434c8
_ZN16MapObjectUnkTRH3C1Ev kind:function(arm,size=0x3c) addr:0x02143508
_ZN16MapObjectUnkTRH319func_ov030_02143544Ev kind:function(arm,size=0xec) addr:0x02143544
_ZN16MapObjectUnkTRH319func_ov030_02143630Ev kind:function(arm,size=0x74) addr:0x02143630
_ZN16MapObjectUnkTRH319func_ov030_021436a4Ev kind:function(arm,size=0x18) addr:0x021436a4
_ZN16MapObjectUnkTRH319func_ov030_021436bcEv kind:function(arm,size=0x40) addr:0x021436bc
_ZN16MapObjectUnkTRH319func_ov030_021436fcEv kind:function(arm,size=0x20) addr:0x021436fc
_ZN16MapObjectUnkTRH319func_ov030_0214371cEv kind:function(arm,size=0x20) addr:0x0214371c
_ZN16MapObjectUnkTRH319func_ov030_0214373cEv kind:function(arm,size=0x8) addr:0x0214373c
_ZN16MapObjectUnkTRH3D1Ev kind:function(arm,size=0x20) addr:0x02143744
_ZN16MapObjectUnkTRH3D0Ev kind:function(arm,size=0x28) addr:0x02143764
_ZN23MapObjectProfileUnkTRH3D1Ev kind:function(arm,size=0x14) addr:0x0214378c
_ZN23MapObjectProfileUnkTRST10GetProfileEv kind:function(arm,size=0xc) addr:0x021437a0
_ZN23MapObjectProfileUnkTRST6CreateEv kind:function(arm,size=0x24) addr:0x021437ac
_ZN23MapObjectProfileUnkTRSTC1Ev kind:function(arm,size=0x54) addr:0x021437d0
_ZN16MapObjectUnkTRSTC1Ev kind:function(arm,size=0x3c) addr:0x02143824
_ZN16MapObjectUnkTRST19func_ov030_02143860Ev kind:function(arm,size=0xec) addr:0x02143860
_ZN16MapObjectUnkTRST19func_ov030_0214394cEv kind:function(arm,size=0x74) addr:0x0214394c
_ZN16MapObjectUnkTRST19func_ov030_021439c0Ev kind:function(arm,size=0x18) addr:0x021439c0
_ZN16MapObjectUnkTRST19func_ov030_021439d8Ev kind:function(arm,size=0x40) addr:0x021439d8
_ZN16MapObjectUnkTRST19func_ov030_02143a18Ev kind:function(arm,size=0x20) addr:0x02143a18
_ZN16MapObjectUnkTRST19func_ov030_02143a38Ev kind:function(arm,size=0x20) addr:0x02143a38
_ZN16MapObjectUnkTRST19func_ov030_02143a58Ev kind:function(arm,size=0x8) addr:0x02143a58
_ZN16MapObjectUnkTRSTD1Ev kind:function(arm,size=0x20) addr:0x02143a60
_ZN16MapObjectUnkTRSTD0Ev kind:function(arm,size=0x28) addr:0x02143a80
_ZN23MapObjectProfileUnkTRSTD1Ev kind:function(arm,size=0x14) addr:0x02143aa8
_ZN19ActorProfileUnkHELA10GetProfileEv kind:function(arm,size=0xc) addr:0x02143abc
_ZN19ActorProfileUnkHELA6CreateEv kind:function(arm,size=0x28) addr:0x02143ac8
_ZN19ActorProfileUnkHELAC1Ev kind:function(arm,size=0x78) addr:0x02143af0
_ZN12ActorUnkHELA19func_ov030_02143b68Ev kind:function(arm,size=0x28) addr:0x02143b68
_ZN12ActorUnkHELA19func_ov030_02143b90Ev kind:function(arm,size=0xf4) addr:0x02143b90
_ZN12ActorUnkHELA19func_ov030_02143c84Ev kind:function(arm,size=0x20) addr:0x02143c84
_ZN12ActorUnkHELA19func_ov030_02143ca4Ev kind:function(arm,size=0x30) addr:0x02143ca4
_ZN12ActorUnkHELAC1Ev kind:function(arm,size=0x278) addr:0x02143cd4
_ZN12ActorUnkHELA19func_ov030_02143f4cEv kind:function(arm,size=0x14) addr:0x02143f4c
_ZN12ActorUnkHELA19func_ov030_02143f60Ev kind:function(arm,size=0x80) addr:0x02143f60
_ZN12ActorUnkHELA19func_ov030_02143fe0Ev kind:function(arm,size=0x50) addr:0x02143fe0
_ZN12ActorUnkHELA19func_ov030_02144030Ev kind:function(arm,size=0xe0) addr:0x02144030
_ZN12ActorUnkHELA19func_ov030_02144110Ev kind:function(arm,size=0x50) addr:0x02144110
_ZN12ActorUnkHELA19func_ov030_02144160Ev kind:function(arm,size=0x268) addr:0x02144160
_ZN12ActorUnkHELA19func_ov030_021443c8Ev kind:function(arm,size=0x2ac) addr:0x021443c8
_ZN12ActorUnkHELA19func_ov030_02144674Ev kind:function(arm,size=0x2c) addr:0x02144674
_ZN12ActorUnkHELA19func_ov030_021446a0Ev kind:function(arm,size=0x1e8) addr:0x021446a0
_ZN12ActorUnkHELA19func_ov030_02144888Ev kind:function(arm,size=0x738) addr:0x02144888
_ZN12ActorUnkHELA19func_ov030_02144fc0Ev kind:function(arm,size=0x128) addr:0x02144fc0
_ZN12ActorUnkHELA19func_ov030_021450e8Ev kind:function(arm,size=0x138) addr:0x021450e8
_ZN12ActorUnkHELA19func_ov030_02145220Ev kind:function(arm,size=0x88) addr:0x02145220
_ZN12ActorUnkHELA19func_ov030_021452a8Ev kind:function(arm,size=0x378) addr:0x021452a8
_ZN12ActorUnkHELA19func_ov030_02145620Ev kind:function(arm,size=0x44) addr:0x02145620
_ZN12ActorUnkHELA19func_ov030_02145664Ev kind:function(arm,size=0x58) addr:0x02145664
_ZN12ActorUnkHELA19func_ov030_021456bcEv kind:function(arm,size=0x48) addr:0x021456bc
_ZN12ActorUnkHELA19func_ov030_02145704Ev kind:function(arm,size=0x2cc) addr:0x02145704
_ZN12ActorUnkHELA19func_ov030_021459d0Ev kind:function(arm,size=0x330) addr:0x021459d0
_ZN12ActorUnkHELA19func_ov030_02145d00Ev kind:function(arm,size=0x110) addr:0x02145d00
_ZN12ActorUnkHELA19func_ov030_02145e10Ev kind:function(arm,size=0x94) addr:0x02145e10
_ZN12ActorUnkHELA19func_ov030_02145ea4Ev kind:function(arm,size=0x3e8) addr:0x02145ea4
_ZN12ActorUnkHELA19func_ov030_0214628cEv kind:function(arm,size=0x98) addr:0x0214628c
_ZN12ActorUnkHELA19func_ov030_02146324Ev kind:function(arm,size=0x1e0) addr:0x02146324
_ZN12ActorUnkHELA19func_ov030_02146504Ev kind:function(arm,size=0x30) addr:0x02146504
_ZN12ActorUnkHELA19func_ov030_02146534Ev kind:function(arm,size=0x138) addr:0x02146534
_ZN12ActorUnkHELA19func_ov030_0214666cEv kind:function(arm,size=0x23c) addr:0x0214666c
_ZN12ActorUnkHELA19func_ov030_021468a8Ev kind:function(arm,size=0x140) addr:0x021468a8
_ZN12ActorUnkHELA19func_ov030_021469e8Ev kind:function(arm,size=0xa4) addr:0x021469e8
_ZN12ActorUnkHELA19func_ov030_02146a8cEv kind:function(arm,size=0x48) addr:0x02146a8c
_ZN12ActorUnkHELA19func_ov030_02146ad4Ev kind:function(arm,size=0xe8) addr:0x02146ad4
_ZN12ActorUnkHELA19func_ov030_02146bbcEv kind:function(arm,size=0x38) addr:0x02146bbc
_ZN12ActorUnkHELA19func_ov030_02146bf4Ev kind:function(arm,size=0x4c) addr:0x02146bf4
_ZN12ActorUnkHELA19func_ov030_02146c40Ev kind:function(arm,size=0x48) addr:0x02146c40
_ZN12ActorUnkHELA19func_ov030_02146c88Ev kind:function(arm,size=0x58) addr:0x02146c88
_ZN12ActorUnkHELA19func_ov030_02146ce0Ev kind:function(arm,size=0x130) addr:0x02146ce0
_ZN12ActorUnkHELA19func_ov030_02146e10Ev kind:function(arm,size=0x108) addr:0x02146e10
_ZN12ActorUnkHELA19func_ov030_02146f18Ev kind:function(arm,size=0x2c) addr:0x02146f18
_ZN12ActorUnkHELA19func_ov030_02146f44Ev kind:function(arm,size=0xf8) addr:0x02146f44
_ZN12ActorUnkHELA19func_ov030_0214703cEv kind:function(arm,size=0x3c) addr:0x0214703c
_ZN12ActorUnkHELA19func_ov030_02147078Ev kind:function(arm,size=0x208) addr:0x02147078
_ZN12ActorUnkHELA19func_ov030_02147280Ev kind:function(arm,size=0x14) addr:0x02147280
_ZN12ActorUnkHELA19func_ov030_02147294Ev kind:function(arm,size=0x7c) addr:0x02147294
_ZN12ActorUnkHELA19func_ov030_02147310Ev kind:function(arm,size=0x54) addr:0x02147310
_ZN12ActorUnkHELA19func_ov030_02147364Ev kind:function(arm,size=0x178) addr:0x02147364
_ZN12ActorUnkHELA19func_ov030_021474dcEv kind:function(arm,size=0x1d8) addr:0x021474dc
_ZN12ActorUnkHELA19func_ov030_021476b4Ev kind:function(arm,size=0x13c) addr:0x021476b4
_ZN12ActorUnkHELA19func_ov030_021477f0Ev kind:function(arm,size=0x64c) addr:0x021477f0
_ZN12ActorUnkHELA19func_ov030_02147e3cEv kind:function(arm,size=0x68) addr:0x02147e3c
_ZN12ActorUnkHELA19func_ov030_02147ea4Ev kind:function(arm,size=0x40) addr:0x02147ea4
_ZN12ActorUnkHELA19func_ov030_02147ee4Ev kind:function(arm,size=0x24) addr:0x02147ee4
_ZN12ActorUnkHELA19func_ov030_02147f08Ev kind:function(arm,size=0xb4) addr:0x02147f08
_ZN12ActorUnkHELA19func_ov030_02147fbcEv kind:function(arm,size=0xc8) addr:0x02147fbc
_ZN12ActorUnkHELA19func_ov030_02148084Ev kind:function(arm,size=0x19c) addr:0x02148084
_ZN12ActorUnkHELA19func_ov030_02148220Ev kind:function(arm,size=0x12c) addr:0x02148220
_ZN12ActorUnkHELA19func_ov030_0214834cEv kind:function(arm,size=0x28) addr:0x0214834c
_ZN12ActorUnkHELA19func_ov030_02148374Ev kind:function(arm,size=0x2a0) addr:0x02148374
_ZN12ActorUnkHELA19func_ov030_02148614Ev kind:function(arm,size=0x3c4) addr:0x02148614
_ZN12ActorUnkHELA19func_ov030_021489d8Ev kind:function(arm,size=0xe4) addr:0x021489d8
_ZN12ActorUnkHELA19func_ov030_02148abcEv kind:function(arm,size=0x80) addr:0x02148abc
_ZN12ActorUnkHELA19func_ov030_02148b3cEv kind:function(arm,size=0x18) addr:0x02148b3c
_ZN12ActorUnkHELA19func_ov030_02148b54Ev kind:function(arm,size=0xdc) addr:0x02148b54
_ZN12ActorUnkHELA19func_ov030_02148c30Ev kind:function(arm,size=0x340) addr:0x02148c30
_ZN12ActorUnkHELA19func_ov030_02148f70Ev kind:function(arm,size=0x18) addr:0x02148f70
_ZN12ActorUnkHELA19func_ov030_02148f88Ev kind:function(arm,size=0xfc) addr:0x02148f88
_ZN12ActorUnkHELA19func_ov030_02149084Ev kind:function(arm,size=0xf0) addr:0x02149084
_ZN12ActorUnkHELA19func_ov030_02149174Ev kind:function(arm,size=0x104) addr:0x02149174
_ZN12ActorUnkHELA19func_ov030_02149278Ev kind:function(arm,size=0x68) addr:0x02149278
_ZN12ActorUnkHELA19func_ov030_021492e0Ev kind:function(arm,size=0x18) addr:0x021492e0
_ZN12ActorUnkHELA19func_ov030_021492f8Ev kind:function(arm,size=0x16c) addr:0x021492f8
_ZN12ActorUnkHELA19func_ov030_02149464Ev kind:function(arm,size=0x184) addr:0x02149464
_ZN12ActorUnkHELA19func_ov030_021495e8Ev kind:function(arm,size=0x110) addr:0x021495e8
_ZN12ActorUnkHELA19func_ov030_021496f8Ev kind:function(arm,size=0x7c) addr:0x021496f8
_ZN12ActorUnkHELA19func_ov030_02149774Ev kind:function(arm,size=0x80) addr:0x02149774
_ZN12ActorUnkHELA19func_ov030_021497f4Ev kind:function(arm,size=0x174) addr:0x021497f4
_ZN12ActorUnkHELA19func_ov030_02149968Ev kind:function(arm,size=0x40) addr:0x02149968
_ZN12ActorUnkHELA19func_ov030_021499a8Ev kind:function(arm,size=0x94) addr:0x021499a8
_ZN12ActorUnkHELA19func_ov030_02149a3cEv kind:function(arm,size=0x60) addr:0x02149a3c
_ZN12ActorUnkHELA19func_ov030_02149a9cEv kind:function(arm,size=0x29c) addr:0x02149a9c
_ZN12ActorUnkHELA19func_ov030_02149d38Ev kind:function(arm,size=0x9c) addr:0x02149d38
_ZN12ActorUnkHELA19func_ov030_02149dd4Ev kind:function(arm,size=0x50) addr:0x02149dd4
_ZN12ActorUnkHELA19func_ov030_02149e24Ev kind:function(arm,size=0x23c) addr:0x02149e24
_ZN12ActorUnkHELA19func_ov030_0214a060Ev kind:function(arm,size=0x3a4) addr:0x0214a060
_ZN12ActorUnkHELA19func_ov030_0214a404Ev kind:function(arm,size=0x20) addr:0x0214a404
_ZN12ActorUnkHELA19func_ov030_0214a424Ev kind:function(arm,size=0x100) addr:0x0214a424
_ZN12ActorUnkHELA19func_ov030_0214a524Ev kind:function(arm,size=0x208) addr:0x0214a524
_ZN12ActorUnkHELA19func_ov030_0214a72cEv kind:function(arm,size=0x4c) addr:0x0214a72c
_ZN12ActorUnkHELA19func_ov030_0214a778Ev kind:function(arm,size=0x2ec) addr:0x0214a778
_ZN12ActorUnkHELA19func_ov030_0214aa64Ev kind:function(arm,size=0xbc) addr:0x0214aa64
_ZN12ActorUnkHELA19func_ov030_0214ab20Ev kind:function(arm,size=0x1a8) addr:0x0214ab20
_ZN12ActorUnkHELA19func_ov030_0214acc8Ev kind:function(arm,size=0x274) addr:0x0214acc8
_ZN12ActorUnkHELA19func_ov030_0214af3cEv kind:function(arm,size=0x40) addr:0x0214af3c
_ZN12ActorUnkHELA19func_ov030_0214af7cEv kind:function(arm,size=0x24) addr:0x0214af7c
_ZN12ActorUnkHELA19func_ov030_0214afa0Ev kind:function(arm,size=0x2c) addr:0x0214afa0
_ZN12ActorUnkHELA19func_ov030_0214afccEv kind:function(arm,size=0xc) addr:0x0214afcc
_ZN12ActorUnkHELAD0Ev kind:function(arm,size=0x1c) addr:0x0214afd8
_ZN12ActorUnkHELAD1Ev kind:function(arm,size=0x48) addr:0x0214aff4
_ZN12ActorUnkHELA19func_ov030_0214b03cEv kind:function(arm,size=0x50) addr:0x0214b03c
_ZN12ActorUnkHELA19func_ov030_0214b08cEv kind:function(arm,size=0x18) addr:0x0214b08c
_ZN12ActorUnkHELA19func_ov030_0214b0a4Ev kind:function(arm,size=0x14) addr:0x0214b0a4
_ZN19ActorProfileUnkHELAD1Ev kind:function(arm,size=0x14) addr:0x0214b0b8
_ZN19ActorProfileUnkHLMG10GetProfileEv kind:function(arm,size=0xc) addr:0x0214b0cc
_ZN19ActorProfileUnkHLMG6CreateEv kind:function(arm,size=0x24) addr:0x0214b0d8
_ZN19ActorProfileUnkHLMGC1Ev kind:function(arm,size=0x28) addr:0x0214b0fc
_ZN12ActorUnkHLMGC1Ev kind:function(arm,size=0xf4) addr:0x0214b124
_ZN12ActorUnkHLMGD1Ev kind:function(arm,size=0x1c) addr:0x0214b218
_ZN12ActorUnkHLMGD0Ev kind:function(arm,size=0x24) addr:0x0214b234
_ZN12ActorUnkHLMG19func_ov030_0214b258Ev kind:function(arm,size=0x8) addr:0x0214b258
_ZN12ActorUnkHLMG19func_ov030_0214b260Ev kind:function(arm,size=0x1c) addr:0x0214b260
_ZN12ActorUnkHLMG19func_ov030_0214b27cEv kind:function(arm,size=0x20) addr:0x0214b27c
_ZN12ActorUnkHLMG19func_ov030_0214b29cEv kind:function(arm,size=0x3c8) addr:0x0214b29c
_ZN12ActorUnkHLMG19func_ov030_0214b664Ev kind:function(arm,size=0x3fc) addr:0x0214b664
_ZN12ActorUnkHLMG19func_ov030_0214ba60Ev kind:function(arm,size=0xd8) addr:0x0214ba60
_ZN12ActorUnkHLMG19func_ov030_0214bb38Ev kind:function(arm,size=0x34) addr:0x0214bb38
_ZN12ActorUnkHLMG19func_ov030_0214bb6cEv kind:function(arm,size=0x4c) addr:0x0214bb6c
_ZN12ActorUnkHLMG19func_ov030_0214bbb8Ev kind:function(arm,size=0x48) addr:0x0214bbb8
_ZN12ActorUnkHLMG19func_ov030_0214bc00Ev kind:function(arm,size=0x50) addr:0x0214bc00
_ZN12ActorUnkHLMG19func_ov030_0214bc50Ev kind:function(arm,size=0x8c) addr:0x0214bc50
_ZN12ActorUnkHLMG19func_ov030_0214bcdcEv kind:function(arm,size=0x98) addr:0x0214bcdc
_ZN12ActorUnkHLMG19func_ov030_0214bd74Ev kind:function(arm,size=0x10) addr:0x0214bd74
_ZN12ActorUnkHLMG19func_ov030_0214bd84Ev kind:function(arm,size=0x30) addr:0x0214bd84
_ZN12ActorUnkHLMG19func_ov030_0214bdb4Ev kind:function(arm,size=0x2d0) addr:0x0214bdb4
_ZN12ActorUnkHLMG19func_ov030_0214c084Ev kind:function(arm,size=0xf4) addr:0x0214c084
_ZN12ActorUnkHLMG19func_ov030_0214c178Ev kind:function(arm,size=0x34) addr:0x0214c178
_ZN12ActorUnkHLMG19func_ov030_0214c1acEv kind:function(arm,size=0x14) addr:0x0214c1ac
_ZN12ActorUnkHLMG19func_ov030_0214c1c0Ev kind:function(arm,size=0x5c) addr:0x0214c1c0
_ZN12ActorUnkHLMG19func_ov030_0214c21cEv kind:function(arm,size=0x4c) addr:0x0214c21c
_ZN12ActorUnkHLMG19func_ov030_0214c268Ev kind:function(arm,size=0xa4) addr:0x0214c268
_ZN12ActorUnkHLMG19func_ov030_0214c30cEv kind:function(arm,size=0x10) addr:0x0214c30c
_ZN12ActorUnkHLMG19func_ov030_0214c31cEv kind:function(arm,size=0x14) addr:0x0214c31c
_ZN19ActorProfileUnkHLMGD1Ev kind:function(arm,size=0x14) addr:0x0214c330
_ZN19ActorProfileUnkFDKY10GetProfileEv kind:function(arm,size=0xc) addr:0x0214c344
_ZN19ActorProfileUnkFDKY6CreateEv kind:function(arm,size=0x24) addr:0x0214c350
_ZN19ActorProfileUnkFDKYC1Ev kind:function(arm,size=0x40) addr:0x0214c374
_ZN12ActorUnkFDKY19func_ov030_0214c3b4Ev kind:function(arm,size=0x30) addr:0x0214c3b4
_ZN12ActorUnkFDKY19func_ov030_0214c3e4Ev kind:function(arm,size=0x40) addr:0x0214c3e4
_ZN12ActorUnkFDKYC1Ev kind:function(arm,size=0x70) addr:0x0214c424
_ZN12ActorUnkFDKYD1Ev kind:function(arm,size=0x20) addr:0x0214c494
_ZN12ActorUnkFDKYD0Ev kind:function(arm,size=0x28) addr:0x0214c4b4
_ZN12ActorUnkFDKY19func_ov030_0214c4dcEv kind:function(arm,size=0x3a8) addr:0x0214c4dc
_ZN12ActorUnkFDKY19func_ov030_0214c884Ev kind:function(arm,size=0x1a0) addr:0x0214c884
_ZN12ActorUnkFDKY19func_ov030_0214ca24Ev kind:function(arm,size=0x10) addr:0x0214ca24
_ZN12ActorUnkFDKY19func_ov030_0214ca34Ev kind:function(arm,size=0x7c) addr:0x0214ca34
_ZN12ActorUnkFDKY19func_ov030_0214cab0Ev kind:function(arm,size=0x40) addr:0x0214cab0
_ZN12ActorUnkFDKY19func_ov030_0214caf0Ev kind:function(arm,size=0x38) addr:0x0214caf0
_ZN12ActorUnkFDKY19func_ov030_0214cb28Ev kind:function(arm,size=0x1c) addr:0x0214cb28
_ZN12ActorUnkFDKY19func_ov030_0214cb44Ev kind:function(arm,size=0xc) addr:0x0214cb44
_ZN12ActorUnkFDKY19func_ov030_0214cb50Ev kind:function(arm,size=0x118) addr:0x0214cb50
_ZN12ActorUnkFDKY19func_ov030_0214cc68Ev kind:function(arm,size=0x158) addr:0x0214cc68
_ZN12ActorUnkFDKY19func_ov030_0214cdc0Ev kind:function(arm,size=0x68) addr:0x0214cdc0
_ZN19ActorProfileUnkFDKYD1Ev kind:function(arm,size=0x14) addr:0x0214ce28
_ZN19ActorProfileUnkGOVT10GetProfileEv kind:function(arm,size=0xc) addr:0x0214ce3c
_ZN19ActorProfileUnkGOVT6CreateEv kind:function(arm,size=0x24) addr:0x0214ce48
_ZN19ActorProfileUnkGOVTC1Ev kind:function(arm,size=0x28) addr:0x0214ce6c
_ZN12ActorUnkGOVTC1Ev kind:function(arm,size=0x44) addr:0x0214ce94
_ZN12ActorUnkGOVTD1Ev kind:function(arm,size=0x3c) addr:0x0214ced8
_ZN12ActorUnkGOVTD0Ev kind:function(arm,size=0x44) addr:0x0214cf14
_ZN12ActorUnkGOVT19func_ov030_0214cf58Ev kind:function(arm,size=0x44) addr:0x0214cf58
_ZN12ActorUnkGOVT19func_ov030_0214cf9cEv kind:function(arm,size=0x44) addr:0x0214cf9c
_ZN12ActorUnkGOVT19func_ov030_0214cfe0Ev kind:function(arm,size=0x38) addr:0x0214cfe0
_ZN12ActorUnkGOVT19func_ov030_0214d018Ev kind:function(arm,size=0x38) addr:0x0214d018
_ZN12ActorUnkGOVT19func_ov030_0214d050Ev kind:function(arm,size=0x4) addr:0x0214d050
_ZN12ActorUnkGOVT19func_ov030_0214d054Ev kind:function(arm,size=0x24) addr:0x0214d054
_ZN12ActorUnkGOVT19func_ov030_0214d078Ev kind:function(arm,size=0x200) addr:0x0214d078
_ZN12ActorUnkGOVT19func_ov030_0214d278Ev kind:function(arm,size=0x31c) addr:0x0214d278
_ZN12ActorUnkGOVT19func_ov030_0214d594Ev kind:function(arm,size=0x40) addr:0x0214d594
_ZN12ActorUnkGOVT19func_ov030_0214d5d4Ev kind:function(arm,size=0x4) addr:0x0214d5d4
_ZN12ActorUnkGOVT19func_ov030_0214d5d8Ev kind:function(arm,size=0x2c) addr:0x0214d5d8
_ZN12ActorUnkGOVT19func_ov030_0214d604Ev kind:function(arm,size=0x20) addr:0x0214d604
_ZN12ActorUnkGOVT19func_ov030_0214d624Ev kind:function(arm,size=0x20) addr:0x0214d624
_ZN19ActorProfileUnkGOVTD1Ev kind:function(arm,size=0x14) addr:0x0214d644
_ZN19ActorProfileUnkTTFT10GetProfileEv kind:function(arm,size=0xc) addr:0x0214d658
_ZN19ActorProfileUnkTTFT6CreateEv kind:function(arm,size=0x34) addr:0x0214d664
_ZN19ActorProfileUnkTTFTC1Ev kind:function(arm,size=0x28) addr:0x0214d698
_ZN12ActorUnkTTFT19func_ov030_0214d6c0Ev kind:function(arm,size=0x50) addr:0x0214d6c0
_ZN12ActorUnkTTFT19func_ov030_0214d710Ev kind:function(arm,size=0x14) addr:0x0214d710
_ZN12ActorUnkTTFT19func_ov030_0214d724Ev kind:function(arm,size=0x68) addr:0x0214d724
_ZN12ActorUnkTTFTD1Ev kind:function(arm,size=0x14) addr:0x0214d78c
_ZN12ActorUnkTTFTD0Ev kind:function(arm,size=0x1c) addr:0x0214d7a0
_ZN19ActorProfileUnkTTFTD1Ev kind:function(arm,size=0x14) addr:0x0214d7bc
_ZN19ActorProfileUnkSGMG10GetProfileEv kind:function(arm,size=0xc) addr:0x0214d7d0
_ZN19ActorProfileUnkSGMG6CreateEv kind:function(arm,size=0x24) addr:0x0214d7dc
_ZN19ActorProfileUnkSGMGC1Ev kind:function(arm,size=0x28) addr:0x0214d800
_ZN12ActorUnkSGMGC1Ev kind:function(arm,size=0x68) addr:0x0214d828
_ZN12ActorUnkSGMGD1Ev kind:function(arm,size=0x1c) addr:0x0214d890
_ZN12ActorUnkSGMGD0Ev kind:function(arm,size=0x24) addr:0x0214d8ac
_ZN12ActorUnkSGMG19func_ov030_0214d8d0Ev kind:function(arm,size=0x10) addr:0x0214d8d0
_ZN12ActorUnkSGMG19func_ov030_0214d8e0Ev kind:function(arm,size=0x2d4) addr:0x0214d8e0
_ZN12ActorUnkSGMG19func_ov030_0214dbb4Ev kind:function(arm,size=0x7c) addr:0x0214dbb4
_ZN12ActorUnkSGMG19func_ov030_0214dc30Ev kind:function(arm,size=0x50) addr:0x0214dc30
_ZN12ActorUnkSGMG19func_ov030_0214dc80Ev kind:function(arm,size=0x10) addr:0x0214dc80
_ZN12ActorUnkSGMG19func_ov030_0214dc90Ev kind:function(arm,size=0x14) addr:0x0214dc90
_ZN19ActorProfileUnkSGMGD1Ev kind:function(arm,size=0x14) addr:0x0214dca4
_ZN19ActorProfileUnkWKTR10GetProfileEv kind:function(arm,size=0xc) addr:0x0214dcb8
_ZN19ActorProfileUnkWKTR6CreateEv kind:function(arm,size=0x28) addr:0x0214dcc4
_ZN19ActorProfileUnkWKTRC1Ev kind:function(arm,size=0x6c) addr:0x0214dcec
_ZN12ActorUnkWKTR19func_ov030_0214dd58Ev kind:function(arm,size=0x10) addr:0x0214dd58
_ZN12ActorUnkWKTRC1Ev kind:function(arm,size=0x180) addr:0x0214dd68
_ZN12ActorUnkWKTR19func_ov030_0214dee8Ev kind:function(arm,size=0x40) addr:0x0214dee8
_ZN12ActorUnkWKTR19func_ov030_0214df28Ev kind:function(arm,size=0x14) addr:0x0214df28
_ZN12ActorUnkWKTR19func_ov030_0214df3cEv kind:function(arm,size=0x54) addr:0x0214df3c
_ZN12ActorUnkWKTRD1Ev kind:function(arm,size=0x84) addr:0x0214df90
_ZN12ActorUnkWKTRD0Ev kind:function(arm,size=0x8c) addr:0x0214e014
_ZN12ActorUnkWKTR19func_ov030_0214e0a0Ev kind:function(arm,size=0x8) addr:0x0214e0a0
_ZN12ActorUnkWKTR19func_ov030_0214e0a8Ev kind:function(arm,size=0xa4) addr:0x0214e0a8
_ZN12ActorUnkWKTR19func_ov030_0214e14cEv kind:function(arm,size=0x20) addr:0x0214e14c
_ZN12ActorUnkWKTR19func_ov030_0214e16cEv kind:function(arm,size=0x20) addr:0x0214e16c
_ZN12ActorUnkWKTR19func_ov030_0214e18cEv kind:function(arm,size=0x144) addr:0x0214e18c
_ZN12ActorUnkWKTR19func_ov030_0214e2d0Ev kind:function(arm,size=0x148) addr:0x0214e2d0
_ZN12ActorUnkWKTR19func_ov030_0214e418Ev kind:function(arm,size=0x4) addr:0x0214e418
_ZN12ActorUnkWKTR19func_ov030_0214e41cEv kind:function(arm,size=0x19c) addr:0x0214e41c
_ZN12ActorUnkWKTR19func_ov030_0214e5b8Ev kind:function(arm,size=0x7c) addr:0x0214e5b8
_ZN12ActorUnkWKTR19func_ov030_0214e634Ev kind:function(arm,size=0x30) addr:0x0214e634
_ZN12ActorUnkWKTR19func_ov030_0214e664Ev kind:function(arm,size=0x2c) addr:0x0214e664
_ZN12ActorUnkWKTR19func_ov030_0214e690Ev kind:function(arm,size=0x218) addr:0x0214e690
_ZN12ActorUnkWKTR19func_ov030_0214e8a8Ev kind:function(arm,size=0x4e8) addr:0x0214e8a8
_ZN12ActorUnkWKTR19func_ov030_0214ed90Ev kind:function(arm,size=0x68) addr:0x0214ed90
_ZN12ActorUnkWKTR19func_ov030_0214edf8Ev kind:function(arm,size=0xf8) addr:0x0214edf8
_ZN12ActorUnkWKTR19func_ov030_0214eef0Ev kind:function(arm,size=0x290) addr:0x0214eef0
_ZN12ActorUnkWKTR19func_ov030_0214f180Ev kind:function(arm,size=0x230) addr:0x0214f180
_ZN12ActorUnkWKTR19func_ov030_0214f3b0Ev kind:function(arm,size=0xec) addr:0x0214f3b0
_ZN12ActorUnkWKTR19func_ov030_0214f49cEv kind:function(arm,size=0x14) addr:0x0214f49c
_ZN12ActorUnkWKTR19func_ov030_0214f4b0Ev kind:function(arm,size=0x4) addr:0x0214f4b0
_ZN12ActorUnkWKTR19func_ov030_0214f4b4Ev kind:function(arm,size=0x3c) addr:0x0214f4b4
_ZN12ActorUnkWKTR19func_ov030_0214f4f0Ev kind:function(arm,size=0xa8) addr:0x0214f4f0
_ZN12ActorUnkWKTR19func_ov030_0214f598Ev kind:function(arm,size=0x3c) addr:0x0214f598
_ZN12ActorUnkWKTR19func_ov030_0214f5d4Ev kind:function(arm,size=0xa4) addr:0x0214f5d4
_ZN12ActorUnkWKTR19func_ov030_0214f678Ev kind:function(arm,size=0x3c) addr:0x0214f678
_ZN12ActorUnkWKTR19func_ov030_0214f6b4Ev kind:function(arm,size=0xc) addr:0x0214f6b4
_ZN12ActorUnkWKTR19func_ov030_0214f6c0Ev kind:function(arm,size=0x48) addr:0x0214f6c0
_ZN12ActorUnkWKTR19func_ov030_0214f708Ev kind:function(arm,size=0xd8) addr:0x0214f708
_ZN12ActorUnkWKTR19func_ov030_0214f7e0Ev kind:function(arm,size=0xf0) addr:0x0214f7e0
_ZN12ActorUnkWKTR19func_ov030_0214f8d0Ev kind:function(arm,size=0xbc) addr:0x0214f8d0
_ZN12ActorUnkWKTR19func_ov030_0214f98cEv kind:function(arm,size=0x44) addr:0x0214f98c
_ZN12ActorUnkWKTR19func_ov030_0214f9d0Ev kind:function(arm,size=0xac) addr:0x0214f9d0
_ZN12ActorUnkWKTR19func_ov030_0214fa7cEv kind:function(arm,size=0x5c) addr:0x0214fa7c
_ZN12ActorUnkWKTR19func_ov030_0214fad8Ev kind:function(arm,size=0xbc) addr:0x0214fad8
_ZN12ActorUnkWKTR19func_ov030_0214fb94Ev kind:function(arm,size=0x44) addr:0x0214fb94
_ZN12ActorUnkWKTR19func_ov030_0214fbd8Ev kind:function(arm,size=0xac) addr:0x0214fbd8
_ZN12ActorUnkWKTR19func_ov030_0214fc84Ev kind:function(arm,size=0x2c) addr:0x0214fc84
_ZN12ActorUnkWKTR19func_ov030_0214fcb0Ev kind:function(arm,size=0x128) addr:0x0214fcb0
_ZN12ActorUnkWKTR19func_ov030_0214fdd8Ev kind:function(arm,size=0x168) addr:0x0214fdd8
_ZN12ActorUnkWKTR19func_ov030_0214ff40Ev kind:function(arm,size=0xa8) addr:0x0214ff40
_ZN12ActorUnkWKTR19func_ov030_0214ffe8Ev kind:function(arm,size=0x128) addr:0x0214ffe8
_ZN12ActorUnkWKTR19func_ov030_02150110Ev kind:function(arm,size=0x104) addr:0x02150110
_ZN12ActorUnkWKTR19func_ov030_02150214Ev kind:function(arm,size=0x44) addr:0x02150214
_ZN12ActorUnkWKTR19func_ov030_02150258Ev kind:function(arm,size=0x130) addr:0x02150258
_ZN12ActorUnkWKTR19func_ov030_02150388Ev kind:function(arm,size=0x3c) addr:0x02150388
_ZN12ActorUnkWKTR19func_ov030_021503c4Ev kind:function(arm,size=0x190) addr:0x021503c4
_ZN12ActorUnkWKTR19func_ov030_02150554Ev kind:function(arm,size=0x24) addr:0x02150554
_ZN12ActorUnkWKTR19func_ov030_02150578Ev kind:function(arm,size=0x10) addr:0x02150578
_ZN12ActorUnkWKTR19func_ov030_02150588Ev kind:function(arm,size=0x8) addr:0x02150588
_ZN12ActorUnkWKTR19func_ov030_02150590Ev kind:function(arm,size=0x1c) addr:0x02150590
_ZN19ActorProfileUnkWKTRD1Ev kind:function(arm,size=0x14) addr:0x021505ac
func_ov030_021505c0 kind:function(arm,size=0xa0) addr:0x021505c0
_ZN19func_ov030_02150660D1Ev kind:function(arm,size=0x14) addr:0x02150660
_ZN19func_ov030_02150674D0Ev kind:function(arm,size=0x1c) addr:0x02150674
func_ov030_02150690 kind:function(arm,size=0x88) addr:0x02150690
func_ov030_02150718 kind:function(arm,size=0x88) addr:0x02150718
func_ov030_021507a0 kind:function(arm,size=0x9c) addr:0x021507a0
func_ov030_0215083c kind:function(arm,size=0x3c) addr:0x0215083c
func_ov030_02150878 kind:function(arm,size=0x1c) addr:0x02150878
data_ov030_02150894 kind:data(any) addr:0x02150894
data_ov030_02150898 kind:data(any) addr:0x02150898
data_ov030_021508a0 kind:data(any) addr:0x021508a0
data_ov030_021508b0 kind:data(any) addr:0x021508b0
data_ov030_021508b8 kind:data(any) addr:0x021508b8
data_ov030_021508cc kind:data(any) addr:0x021508cc
data_ov030_0215090c kind:data(any) addr:0x0215090c
data_ov030_0215091c kind:data(any) addr:0x0215091c
data_ov030_0215092c kind:data(any) addr:0x0215092c
data_ov030_02150934 kind:data(any) addr:0x02150934
data_ov030_0215093a kind:data(any) addr:0x0215093a
data_ov030_02150940 kind:data(any) addr:0x02150940
data_ov030_02150948 kind:data(any) addr:0x02150948
data_ov030_02150950 kind:data(any) addr:0x02150950
data_ov030_0215095c kind:data(any) addr:0x0215095c
data_ov030_02150978 kind:data(any) addr:0x02150978
data_ov030_02150980 kind:data(any) addr:0x02150980
__sinit_MapObjectUnkETTV.cpp kind:function(arm,size=0x50) addr:0x02150994
__sinit_MapObjectUnkTRFI.cpp kind:function(arm,size=0x50) addr:0x021509e4
__sinit_MapObjectUnkTRGM.cpp kind:function(arm,size=0x50) addr:0x02150a34
__sinit_MapObjectUnkTRH2.cpp kind:function(arm,size=0x50) addr:0x02150a84
__sinit_MapObjectUnkTRH3.cpp kind:function(arm,size=0x50) addr:0x02150ad4
__sinit_MapObjectUnkTRST.cpp kind:function(arm,size=0x50) addr:0x02150b24
__sinit_ActorUnkHELA.cpp kind:function(arm,size=0x13c) addr:0x02150b74
__sinit_ActorUnkHLMG.cpp kind:function(arm,size=0xe8) addr:0x02150cb0
__sinit_ActorUnkFDKY.cpp kind:function(arm,size=0x70) addr:0x02150d98
__sinit_ActorUnkGOVT.cpp kind:function(arm,size=0x84) addr:0x02150e08
__sinit_ActorUnkTTFT.cpp kind:function(arm,size=0x50) addr:0x02150e8c
__sinit_ActorUnkSGMG.cpp kind:function(arm,size=0x50) addr:0x02150edc
__sinit_ActorUnkWKTR.cpp kind:function(arm,size=0x50) addr:0x02150f2c
.p__sinit_MapObjectUnkETTV.cpp kind:data(word) addr:0x02150f7c
.p__sinit_MapObjectUnkTRFI.cpp kind:data(word) addr:0x02150f80
.p__sinit_MapObjectUnkTRGM.cpp kind:data(word) addr:0x02150f84
.p__sinit_MapObjectUnkTRH2.cpp kind:data(word) addr:0x02150f88
.p__sinit_MapObjectUnkTRH3.cpp kind:data(word) addr:0x02150f8c
.p__sinit_MapObjectUnkTRST.cpp kind:data(word) addr:0x02150f90
.p__sinit_ActorUnkHELA.cpp kind:data(word) addr:0x02150f94
.p__sinit_ActorUnkHLMG.cpp kind:data(word) addr:0x02150f98
.p__sinit_ActorUnkFDKY.cpp kind:data(word) addr:0x02150f9c
.p__sinit_ActorUnkGOVT.cpp kind:data(word) addr:0x02150fa0
.p__sinit_ActorUnkTTFT.cpp kind:data(word) addr:0x02150fa4
.p__sinit_ActorUnkSGMG.cpp kind:data(word) addr:0x02150fa8
.p__sinit_ActorUnkWKTR.cpp kind:data(word) addr:0x02150fac
data_ov030_02150fc8 kind:data(any) addr:0x02150fc8
data_ov030_02150fdd kind:data(any) addr:0x02150fdd
data_ov030_02150ffc kind:data(any) addr:0x02150ffc
data_ov030_02151030 kind:data(any) addr:0x02151030
data_ov030_0215104c kind:data(any) addr:0x0215104c
data_ov030_02151078 kind:data(any) addr:0x02151078
data_ov030_021510fc kind:data(any) addr:0x021510fc
data_ov030_02151180 kind:data(any) addr:0x02151180
data_ov030_0215119c kind:data(any) addr:0x0215119c
data_ov030_02151208 kind:data(any) addr:0x02151208
data_ov030_02151274 kind:data(any) addr:0x02151274
data_ov030_02151290 kind:data(any) addr:0x02151290
data_ov030_02151314 kind:data(any) addr:0x02151314
data_ov030_02151330 kind:data(any) addr:0x02151330
data_ov030_0215139c kind:data(any) addr:0x0215139c
data_ov030_021513b8 kind:data(any) addr:0x021513b8
data_ov030_02151424 kind:data(any) addr:0x02151424
data_ov030_02151440 kind:data(any) addr:0x02151440
data_ov030_02151480 kind:data(any) addr:0x02151480 ambiguous
data_ov030_021514a4 kind:data(any) addr:0x021514a4
data_ov030_021514a8 kind:data(any) addr:0x021514a8
data_ov030_021514ac kind:data(any) addr:0x021514ac
data_ov030_021514b0 kind:data(any) addr:0x021514b0
data_ov030_021514b4 kind:data(any) addr:0x021514b4
data_ov030_021514b8 kind:data(any) addr:0x021514b8
data_ov030_021514bc kind:data(any) addr:0x021514bc
data_ov030_021514cc kind:data(any) addr:0x021514cc
data_ov030_021514d8 kind:data(any) addr:0x021514d8
_ZTV19data_ov030_021514e0 kind:data(any) addr:0x021514e0
data_ov030_0215150c kind:data(any) addr:0x0215150c
_ZTV19data_ov030_02151550 kind:data(any) addr:0x02151550
data_ov030_021515b4 kind:data(any) addr:0x021515b4
data_ov030_021515cc kind:data(any) addr:0x021515cc
data_ov030_021515e4 kind:data(any) addr:0x021515e4
data_ov030_021515fc kind:data(any) addr:0x021515fc
data_ov030_02151614 kind:data(any) addr:0x02151614
data_ov030_0215162c kind:data(any) addr:0x0215162c
data_ov030_02151644 kind:data(any) addr:0x02151644
data_ov030_0215165c kind:data(any) addr:0x0215165c
data_ov030_02151674 kind:data(any) addr:0x02151674
data_ov030_0215168c kind:data(any) addr:0x0215168c
data_ov030_0215169c kind:data(any) addr:0x0215169c
_ZTV19data_ov030_021517f4 kind:data(any) addr:0x021517f4
_ZTV19data_ov030_02151818 kind:data(any) addr:0x02151818
data_ov030_02151874 kind:data(any) addr:0x02151874
data_ov030_02151890 kind:data(any) addr:0x02151890
data_ov030_021518ac kind:data(any) addr:0x021518ac
data_ov030_021518c8 kind:data(any) addr:0x021518c8
data_ov030_021518ec kind:data(any) addr:0x021518ec
data_ov030_021518f0 kind:data(any) addr:0x021518f0
data_ov030_021518fc kind:data(any) addr:0x021518fc
data_ov030_0215190c kind:data(any) addr:0x0215190c
data_ov030_0215192c kind:data(any) addr:0x0215192c
_ZTV19data_ov030_0215195c kind:data(any) addr:0x0215195c
_ZTV19data_ov030_02151980 kind:data(any) addr:0x02151980
_ZTV19data_ov030_02151998 kind:data(any) addr:0x02151998 ambiguous
data_ov030_021519dc kind:data(any) addr:0x021519dc
data_ov030_021519e4 kind:data(any) addr:0x021519e4
data_ov030_021519f0 kind:data(any) addr:0x021519f0
data_ov030_02151a08 kind:data(any) addr:0x02151a08
_ZTV19data_ov030_02151a20 kind:data(any) addr:0x02151a20
_ZTV19data_ov030_02151a44 kind:data(any) addr:0x02151a44
_ZTV19data_ov030_02151a58 kind:data(any) addr:0x02151a58 ambiguous
_ZTV19data_ov030_02151aa0 kind:data(any) addr:0x02151aa0
_ZTV19data_ov030_02151ac4 kind:data(any) addr:0x02151ac4
_ZTV19data_ov030_02151b0c kind:data(any) addr:0x02151b0c ambiguous
_ZTV19data_ov030_02151b28 kind:data(any) addr:0x02151b28
_ZTV19data_ov030_02151b4c kind:data(any) addr:0x02151b4c
data_ov030_02151ba8 kind:data(any) addr:0x02151ba8
_ZTV19data_ov030_02151c88 kind:data(any) addr:0x02151c88
data_ov030_02151cb4 kind:data(any) addr:0x02151cb4
_ZTV19data_ov030_02151cf4 kind:data(any) addr:0x02151cf4
_ZTV19data_ov030_02151d58 kind:data(any) addr:0x02151d58
data_ov030_02151d80 kind:bss addr:0x02151d80
data_ov030_02151d84 kind:bss addr:0x02151d84
sMapObjectProfileUnkETTV kind:bss addr:0x02151d90
data_ov030_02151db0 kind:bss addr:0x02151db0
data_ov030_02151e64 kind:bss addr:0x02151e64
data_ov030_02151e68 kind:bss addr:0x02151e68
sMapObjectProfileUnkTRFI kind:bss addr:0x02151e74
data_ov030_02151f48 kind:bss addr:0x02151f48
data_ov030_02151f4c kind:bss addr:0x02151f4c
sMapObjectProfileUnkTRGM kind:bss addr:0x02151f58
data_ov030_02152018 kind:bss addr:0x02152018 ambiguous
data_ov030_0215202c kind:bss addr:0x0215202c
data_ov030_02152030 kind:bss addr:0x02152030
sMapObjectProfileUnkTRH2 kind:bss addr:0x0215203c
data_ov030_02152054 kind:bss addr:0x02152054 ambiguous
data_ov030_02152074 kind:bss addr:0x02152074 ambiguous
data_ov030_021520e8 kind:bss addr:0x021520e8 ambiguous
data_ov030_02152110 kind:bss addr:0x02152110
data_ov030_02152114 kind:bss addr:0x02152114
sMapObjectProfileUnkTRH3 kind:bss addr:0x02152120
data_ov030_021521f4 kind:bss addr:0x021521f4
data_ov030_021521f8 kind:bss addr:0x021521f8
sMapObjectProfileUnkTRST kind:bss addr:0x02152204
data_ov030_021522d8 kind:bss addr:0x021522d8
data_ov030_021522e0 kind:bss addr:0x021522e0
data_ov030_021522ec kind:bss addr:0x021522ec
data_ov030_021522f8 kind:bss addr:0x021522f8
data_ov030_021522fc kind:bss addr:0x021522fc
data_ov030_0215230a kind:bss addr:0x0215230a
data_ov030_0215230c kind:bss addr:0x0215230c
sActorProfileUnkHELA kind:bss addr:0x02152340
data_ov030_02152418 kind:bss addr:0x02152418
data_ov030_0215242c kind:bss addr:0x0215242c
data_ov030_021528e4 kind:bss addr:0x021528e4
data_ov030_021528e8 kind:bss addr:0x021528e8
sActorProfileUnkHLMG kind:bss addr:0x021528f4
data_ov030_02152930 kind:bss addr:0x02152930
data_ov030_02152934 kind:bss addr:0x02152934
sActorProfileUnkFDKY kind:bss addr:0x02152940
data_ov030_021529c4 kind:bss addr:0x021529c4 ambiguous
data_ov030_02152a18 kind:bss addr:0x02152a18
data_ov030_02152a1c kind:bss addr:0x02152a1c
data_ov030_02152a25 kind:bss addr:0x02152a25 ambiguous
sActorProfileUnkGOVT kind:bss addr:0x02152a28
data_ov030_02152a64 kind:bss addr:0x02152a64
data_ov030_02152a68 kind:bss addr:0x02152a68
sActorProfileUnkTTFT kind:bss addr:0x02152a74
data_ov030_02152ab0 kind:bss addr:0x02152ab0
data_ov030_02152ab4 kind:bss addr:0x02152ab4
sActorProfileUnkSGMG kind:bss addr:0x02152ac0
data_ov030_02152afc kind:bss addr:0x02152afc
data_ov030_02152b00 kind:bss addr:0x02152b00
data_ov030_02152b04 kind:bss addr:0x02152b04
data_ov030_02152b08 kind:bss addr:0x02152b08
data_ov030_02152b0c kind:bss addr:0x02152b0c
data_ov030_02152b10 kind:bss addr:0x02152b10
data_ov030_02152b14 kind:bss addr:0x02152b14
data_ov030_02152b18 kind:bss addr:0x02152b18
data_ov030_02152b1c kind:bss addr:0x02152b1c
data_ov030_02152b20 kind:bss addr:0x02152b20
data_ov030_02152b24 kind:bss addr:0x02152b24
data_ov030_02152b28 kind:bss addr:0x02152b28
data_ov030_02152b2c kind:bss addr:0x02152b2c
data_ov030_02152b30 kind:bss addr:0x02152b30
data_ov030_02152b34 kind:bss addr:0x02152b34
data_ov030_02152b40 kind:bss addr:0x02152b40
data_ov030_02152b44 kind:bss addr:0x02152b44
data_ov030_02152b54 kind:bss addr:0x02152b54
data_ov030_02152b64 kind:bss addr:0x02152b64
data_ov030_02152b74 kind:bss addr:0x02152b74
data_ov030_02152b84 kind:bss addr:0x02152b84
data_ov030_02152b94 kind:bss addr:0x02152b94
data_ov030_02152ba4 kind:bss addr:0x02152ba4
data_ov030_02152bb4 kind:bss addr:0x02152bb4
data_ov030_02152bc4 kind:bss addr:0x02152bc4
data_ov030_02152bd4 kind:bss addr:0x02152bd4
data_ov030_02152be4 kind:bss addr:0x02152be4
data_ov030_02152bf4 kind:bss addr:0x02152bf4
data_ov030_02152c04 kind:bss addr:0x02152c04
data_ov030_02152c14 kind:bss addr:0x02152c14
sActorProfileUnkWKTR kind:bss addr:0x02152c24
