_ZN19ActorProfileUnkSTLF10GetProfileEv kind:function(arm,size=0xc) addr:0x021234c0
_ZN19ActorProfileUnkSTLF6CreateEv kind:function(arm,size=0x24) addr:0x021234cc
_ZN19ActorProfileUnkSTLFC1Ev kind:function(arm,size=0x50) addr:0x021234f0
_ZN12ActorUnkSTLFC1Ev kind:function(arm,size=0x1f4) addr:0x02123540
_ZN12ActorUnkSTLF19func_ov043_02123734Ev kind:function(arm,size=0x14) addr:0x02123734
_ZN12ActorUnkSTLFD1Ev kind:function(arm,size=0x60) addr:0x02123748
_ZN12ActorUnkSTLFD0Ev kind:function(arm,size=0x68) addr:0x021237a8
_ZN12ActorUnkSTLF19func_ov043_02123810Ev kind:function(arm,size=0xf0) addr:0x02123810
_ZN12ActorUnkSTLF19func_ov043_02123900Ev kind:function(arm,size=0x70) addr:0x02123900
_ZN12ActorUnkSTLF19func_ov043_02123970Ev kind:function(arm,size=0x24) addr:0x02123970
_ZN12ActorUnkSTLF19func_ov043_02123994Ev kind:function(arm,size=0x94) addr:0x02123994
_ZN12ActorUnkSTLF19func_ov043_02123a28Ev kind:function(arm,size=0x2c8) addr:0x02123a28
_ZN12ActorUnkSTLF19func_ov043_02123cf0Ev kind:function(arm,size=0xb8) addr:0x02123cf0
_ZN12ActorUnkSTLF19func_ov043_02123da8Ev kind:function(arm,size=0x80) addr:0x02123da8
_ZN12ActorUnkSTLF19func_ov043_02123e28Ev kind:function(arm,size=0x68) addr:0x02123e28
_ZN12ActorUnkSTLF19func_ov043_02123e90Ev kind:function(arm,size=0xc0) addr:0x02123e90
_ZN12ActorUnkSTLF19func_ov043_02123f50Ev kind:function(arm,size=0x54) addr:0x02123f50
_ZN12ActorUnkSTLF19func_ov043_02123fa4Ev kind:function(arm,size=0x80) addr:0x02123fa4
_ZN12ActorUnkSTLF19func_ov043_02124024Ev kind:function(arm,size=0x124) addr:0x02124024
_ZN12ActorUnkSTLF19func_ov043_02124148Ev kind:function(arm,size=0xd8) addr:0x02124148
_ZN12ActorUnkSTLF19func_ov043_02124220Ev kind:function(arm,size=0x104) addr:0x02124220
_ZN12ActorUnkSTLF19func_ov043_02124324Ev kind:function(arm,size=0x10) addr:0x02124324
_ZN12ActorUnkSTLF19func_ov043_02124334Ev kind:function(arm,size=0x8c) addr:0x02124334
_ZN12ActorUnkSTLF19func_ov043_021243c0Ev kind:function(arm,size=0xcc) addr:0x021243c0
_ZN12ActorUnkSTLF19func_ov043_0212448cEv kind:function(arm,size=0xb8) addr:0x0212448c
_ZN12ActorUnkSTLF19func_ov043_02124544Ev kind:function(arm,size=0x80) addr:0x02124544
_ZN12ActorUnkSTLF19func_ov043_021245c4Ev kind:function(arm,size=0x8c) addr:0x021245c4
_ZN12ActorUnkSTLF19func_ov043_02124650Ev kind:function(arm,size=0x7c) addr:0x02124650
_ZN12ActorUnkSTLF19func_ov043_021246ccEv kind:function(arm,size=0x84) addr:0x021246cc
_ZN12ActorUnkSTLF19func_ov043_02124750Ev kind:function(arm,size=0xd8) addr:0x02124750
_ZN12ActorUnkSTLF19func_ov043_02124828Ev kind:function(arm,size=0x120) addr:0x02124828
_ZN12ActorUnkSTLF19func_ov043_02124948Ev kind:function(arm,size=0x214) addr:0x02124948
_ZN12ActorUnkSTLF19func_ov043_02124b5cEv kind:function(arm,size=0x98) addr:0x02124b5c
_ZN12ActorUnkSTLF19func_ov043_02124bf4Ev kind:function(arm,size=0xf8) addr:0x02124bf4
_ZN12ActorUnkSTLF19func_ov043_02124cecEv kind:function(arm,size=0x9c) addr:0x02124cec
_ZN12ActorUnkSTLF19func_ov043_02124d88Ev kind:function(arm,size=0x168) addr:0x02124d88
_ZN12ActorUnkSTLF19func_ov043_02124ef0Ev kind:function(arm,size=0x7c) addr:0x02124ef0
_ZN12ActorUnkSTLF19func_ov043_02124f6cEv kind:function(arm,size=0x158) addr:0x02124f6c
_ZN12ActorUnkSTLF19func_ov043_021250c4Ev kind:function(arm,size=0xfc) addr:0x021250c4
_ZN12ActorUnkSTLF19func_ov043_021251c0Ev kind:function(arm,size=0x48) addr:0x021251c0
_ZN12ActorUnkSTLF19func_ov043_02125208Ev kind:function(arm,size=0x18) addr:0x02125208
_ZN12ActorUnkSTLF19func_ov043_02125220Ev kind:function(arm,size=0x60) addr:0x02125220
_ZN12ActorUnkSTLF19func_ov043_02125280Ev kind:function(arm,size=0xdc) addr:0x02125280
_ZN12ActorUnkSTLF19func_ov043_0212535cEv kind:function(arm,size=0x84) addr:0x0212535c
_ZN12ActorUnkSTLF19func_ov043_021253e0Ev kind:function(arm,size=0x18) addr:0x021253e0
_ZN12ActorUnkSTLF19func_ov043_021253f8Ev kind:function(arm,size=0x88) addr:0x021253f8
_ZN12ActorUnkSTLF19func_ov043_02125480Ev kind:function(arm,size=0x134) addr:0x02125480
_ZN12ActorUnkSTLF19func_ov043_021255b4Ev kind:function(arm,size=0x14c) addr:0x021255b4
_ZN12ActorUnkSTLF19func_ov043_02125700Ev kind:function(arm,size=0x128) addr:0x02125700
_ZN12ActorUnkSTLF19func_ov043_02125828Ev kind:function(arm,size=0x94) addr:0x02125828
_ZN12ActorUnkSTLF19func_ov043_021258bcEv kind:function(arm,size=0xe0) addr:0x021258bc
_ZN12ActorUnkSTLF19func_ov043_0212599cEv kind:function(arm,size=0x24) addr:0x0212599c
_ZN12ActorUnkSTLF19func_ov043_021259c0Ev kind:function(arm,size=0x74) addr:0x021259c0
_ZN12ActorUnkSTLF19func_ov043_02125a34Ev kind:function(arm,size=0x9c) addr:0x02125a34
_ZN12ActorUnkSTLF19func_ov043_02125ad0Ev kind:function(arm,size=0x78) addr:0x02125ad0
_ZN12ActorUnkSTLF19func_ov043_02125b48Ev kind:function(arm,size=0x190) addr:0x02125b48
_ZN12ActorUnkSTLF19func_ov043_02125cd8Ev kind:function(arm,size=0x18) addr:0x02125cd8
_ZN12ActorUnkSTLF19func_ov043_02125cf0Ev kind:function(arm,size=0x3b0) addr:0x02125cf0
_ZN12ActorUnkSTLF19func_ov043_021260a0Ev kind:function(arm,size=0x68) addr:0x021260a0
_ZN12ActorUnkSTLF19func_ov043_02126108Ev kind:function(arm,size=0x28) addr:0x02126108
_ZN12ActorUnkSTLF19func_ov043_02126130Ev kind:function(arm,size=0xe8) addr:0x02126130
_ZN12ActorUnkSTLF19func_ov043_02126218Ev kind:function(arm,size=0x18) addr:0x02126218
_ZN12ActorUnkSTLF19func_ov043_02126230Ev kind:function(arm,size=0x30) addr:0x02126230
_ZN12ActorUnkSTLF19func_ov043_02126260Ev kind:function(arm,size=0x94) addr:0x02126260
_ZN12ActorUnkSTLF19func_ov043_021262f4Ev kind:function(arm,size=0x1ac) addr:0x021262f4
_ZN12ActorUnkSTLF19func_ov043_021264a0Ev kind:function(arm,size=0x1f8) addr:0x021264a0
_ZN12ActorUnkSTLF19func_ov043_02126698Ev kind:function(arm,size=0x24) addr:0x02126698
_ZN12ActorUnkSTLF19func_ov043_021266bcEv kind:function(arm,size=0x2c) addr:0x021266bc
_ZN12ActorUnkSTLF19func_ov043_021266e8Ev kind:function(arm,size=0x1c) addr:0x021266e8
_ZN19ActorProfileUnkSTLFD1Ev kind:function(arm,size=0x14) addr:0x02126704
_ZN19ActorProfileUnkSTFH10GetProfileEv kind:function(arm,size=0xc) addr:0x02126718
_ZN19ActorProfileUnkSTFH6CreateEv kind:function(arm,size=0x24) addr:0x02126724
_ZN19ActorProfileUnkSTFHC1Ev kind:function(arm,size=0x64) addr:0x02126748
_ZN12ActorUnkSTFH19func_ov043_021267acEv kind:function(arm,size=0x34) addr:0x021267ac
_ZN12ActorUnkSTFH19func_ov043_021267e0Ev kind:function(arm,size=0x3c) addr:0x021267e0
_ZN12ActorUnkSTFH19func_ov043_0212681cEv kind:function(arm,size=0x20) addr:0x0212681c
_ZN12ActorUnkSTFH19func_ov043_0212683cEv kind:function(arm,size=0x24) addr:0x0212683c
_ZN12ActorUnkSTFHC1Ev kind:function(arm,size=0x260) addr:0x02126860
_ZN12ActorUnkSTFH19func_ov043_02126ac0Ev kind:function(arm,size=0x14) addr:0x02126ac0
_ZN12ActorUnkSTFH19func_ov043_02126ad4Ev kind:function(arm,size=0x14) addr:0x02126ad4
_ZN12ActorUnkSTFH19func_ov043_02126ae8Ev kind:function(arm,size=0x50) addr:0x02126ae8
_ZN12ActorUnkSTFH19func_ov043_02126b38Ev kind:function(arm,size=0x30) addr:0x02126b38
_ZN12ActorUnkSTFH19func_ov043_02126b68Ev kind:function(arm,size=0x94) addr:0x02126b68
_ZN12ActorUnkSTFH19func_ov043_02126bfcEv kind:function(arm,size=0x84) addr:0x02126bfc
_ZN12ActorUnkSTFH19func_ov043_02126c80Ev kind:function(arm,size=0x6c) addr:0x02126c80
_ZN12ActorUnkSTFH19func_ov043_02126cecEv kind:function(arm,size=0x28) addr:0x02126cec
_ZN12ActorUnkSTFH19func_ov043_02126d14Ev kind:function(arm,size=0x84) addr:0x02126d14
_ZN12ActorUnkSTFH19func_ov043_02126d98Ev kind:function(arm,size=0xd4) addr:0x02126d98
_ZN12ActorUnkSTFH19func_ov043_02126e6cEv kind:function(arm,size=0xec) addr:0x02126e6c
_ZN12ActorUnkSTFH19func_ov043_02126f58Ev kind:function(arm,size=0x100) addr:0x02126f58
_ZN12ActorUnkSTFH19func_ov043_02127058Ev kind:function(arm,size=0x4) addr:0x02127058
_ZN12ActorUnkSTFH19func_ov043_0212705cEv kind:function(arm,size=0x4c) addr:0x0212705c
_ZN12ActorUnkSTFH19func_ov043_021270a8Ev kind:function(arm,size=0x4) addr:0x021270a8
_ZN12ActorUnkSTFH19func_ov043_021270acEv kind:function(arm,size=0x44) addr:0x021270ac
_ZN12ActorUnkSTFH19func_ov043_021270f0Ev kind:function(arm,size=0x94) addr:0x021270f0
_ZN12ActorUnkSTFH19func_ov043_02127184Ev kind:function(arm,size=0x98) addr:0x02127184
_ZN12ActorUnkSTFH19func_ov043_0212721cEv kind:function(arm,size=0x8c) addr:0x0212721c
_ZN12ActorUnkSTFH19func_ov043_021272a8Ev kind:function(arm,size=0x19c) addr:0x021272a8
_ZN12ActorUnkSTFH19func_ov043_02127444Ev kind:function(arm,size=0x7c) addr:0x02127444
_ZN12ActorUnkSTFH19func_ov043_021274c0Ev kind:function(arm,size=0xd4) addr:0x021274c0
_ZN12ActorUnkSTFH19func_ov043_02127594Ev kind:function(arm,size=0xac) addr:0x02127594
_ZN12ActorUnkSTFH19func_ov043_02127640Ev kind:function(arm,size=0x138) addr:0x02127640
_ZN12ActorUnkSTFH19func_ov043_02127778Ev kind:function(arm,size=0x90) addr:0x02127778
_ZN12ActorUnkSTFH19func_ov043_02127808Ev kind:function(arm,size=0xb4) addr:0x02127808
_ZN12ActorUnkSTFH19func_ov043_021278bcEv kind:function(arm,size=0xc0) addr:0x021278bc
_ZN12ActorUnkSTFH19func_ov043_0212797cEv kind:function(arm,size=0x98) addr:0x0212797c
_ZN12ActorUnkSTFH19func_ov043_02127a14Ev kind:function(arm,size=0x24) addr:0x02127a14
_ZN12ActorUnkSTFH19func_ov043_02127a38Ev kind:function(arm,size=0x8c) addr:0x02127a38
_ZN12ActorUnkSTFH19func_ov043_02127ac4Ev kind:function(arm,size=0x9c) addr:0x02127ac4
_ZN12ActorUnkSTFH19func_ov043_02127b60Ev kind:function(arm,size=0x148) addr:0x02127b60
_ZN12ActorUnkSTFH19func_ov043_02127ca8Ev kind:function(arm,size=0xac) addr:0x02127ca8
_ZN12ActorUnkSTFH19func_ov043_02127d54Ev kind:function(arm,size=0x24) addr:0x02127d54
_ZN12ActorUnkSTFH19func_ov043_02127d78Ev kind:function(arm,size=0x60) addr:0x02127d78
_ZN12ActorUnkSTFH19func_ov043_02127dd8Ev kind:function(arm,size=0x2c) addr:0x02127dd8
_ZN12ActorUnkSTFH19func_ov043_02127e04Ev kind:function(arm,size=0xd8) addr:0x02127e04
_ZN12ActorUnkSTFH19func_ov043_02127edcEv kind:function(arm,size=0x10) addr:0x02127edc
_ZN12ActorUnkSTFH19func_ov043_02127eecEv kind:function(arm,size=0x64) addr:0x02127eec
_ZN12ActorUnkSTFH19func_ov043_02127f50Ev kind:function(arm,size=0x1fc) addr:0x02127f50
_ZN12ActorUnkSTFH19func_ov043_0212814cEv kind:function(arm,size=0x44) addr:0x0212814c
_ZN12ActorUnkSTFH19func_ov043_02128190Ev kind:function(arm,size=0xa8) addr:0x02128190
_ZN12ActorUnkSTFH19func_ov043_02128238Ev kind:function(arm,size=0x24) addr:0x02128238
_ZN12ActorUnkSTFH19func_ov043_0212825cEv kind:function(arm,size=0x10) addr:0x0212825c
_ZN12ActorUnkSTFH19func_ov043_0212826cEv kind:function(arm,size=0x8) addr:0x0212826c
_ZN12ActorUnkSTFHD0Ev kind:function(arm,size=0x1c) addr:0x02128274
_ZN12ActorUnkSTFH19func_ov043_02128290Ev kind:function(arm,size=0x1c) addr:0x02128290
_ZN12ActorUnkSTFHD1Ev kind:function(arm,size=0x40) addr:0x021282ac
_ZN12ActorUnkSTFH19func_ov043_021282ecEv kind:function(arm,size=0x48) addr:0x021282ec
_ZN19ActorProfileUnkSTFHD1Ev kind:function(arm,size=0x14) addr:0x02128334
_ZN19ActorProfileUnkSTFB10GetProfileEv kind:function(arm,size=0xc) addr:0x02128348
_ZN19ActorProfileUnkSTFB6CreateEv kind:function(arm,size=0x24) addr:0x02128354
_ZN19ActorProfileUnkSTFBC1Ev kind:function(arm,size=0x50) addr:0x02128378
_ZN12ActorUnkSTFB19func_ov043_021283c8Ev kind:function(arm,size=0x48) addr:0x021283c8
_ZN12ActorUnkSTFB19func_ov043_02128410Ev kind:function(arm,size=0x14) addr:0x02128410
_ZN12ActorUnkSTFBC1Ev kind:function(arm,size=0x10c) addr:0x02128424
_ZN12ActorUnkSTFB19func_ov043_02128530Ev kind:function(arm,size=0x14) addr:0x02128530
_ZN12ActorUnkSTFB19func_ov043_02128544Ev kind:function(arm,size=0x3c) addr:0x02128544
_ZN12ActorUnkSTFB19func_ov043_02128580Ev kind:function(arm,size=0x1fc) addr:0x02128580
_ZN12ActorUnkSTFB19func_ov043_0212877cEv kind:function(arm,size=0x7c) addr:0x0212877c
_ZN12ActorUnkSTFB19func_ov043_021287f8Ev kind:function(arm,size=0xf0) addr:0x021287f8
_ZN12ActorUnkSTFB19func_ov043_021288e8Ev kind:function(arm,size=0x6c) addr:0x021288e8
_ZN12ActorUnkSTFB19func_ov043_02128954Ev kind:function(arm,size=0x68) addr:0x02128954
_ZN12ActorUnkSTFBD0Ev kind:function(arm,size=0x1c) addr:0x021289bc
_ZN12ActorUnkSTFBD1Ev kind:function(arm,size=0x30) addr:0x021289d8
_ZN12ActorUnkSTFB19func_ov043_02128a08Ev kind:function(arm,size=0x38) addr:0x02128a08
_ZN19ActorProfileUnkSTFBD1Ev kind:function(arm,size=0x14) addr:0x02128a40
func_ov043_02128a54 kind:function(thumb,size=0x24) addr:0x02128a54
func_ov043_02128a78 kind:function(thumb,size=0x38) addr:0x02128a78
func_ov043_02128ab0 kind:function(thumb,size=0x28) addr:0x02128ab0
_ZN19ActorProfileUnkSHDL10GetProfileEv kind:function(thumb,size=0x8) addr:0x02128ad8
_ZN19ActorProfileUnkSHDL6CreateEv kind:function(thumb,size=0x1c) addr:0x02128ae0
_ZN19ActorProfileUnkSHDLC1Ev kind:function(thumb,size=0x48) addr:0x02128afc
_ZN12ActorUnkSHDL19func_ov043_02128b44Ev kind:function(thumb,size=0x250) addr:0x02128b44
_ZN12ActorUnkSHDL19func_ov043_02128d94Ev kind:function(thumb,size=0x32c) addr:0x02128d94
_ZN12ActorUnkSHDL19func_ov043_021290c0Ev kind:function(thumb,size=0x170) addr:0x021290c0
_ZN12ActorUnkSHDL19func_ov043_02129230Ev kind:function(thumb,size=0x23c) addr:0x02129230
_ZN12ActorUnkSHDL19func_ov043_0212946cEv kind:function(thumb,size=0x44) addr:0x0212946c
_ZN12ActorUnkSHDLC1Ev kind:function(thumb,size=0x164) addr:0x021294b0
_ZN12ActorUnkSHDL19func_ov043_02129614Ev kind:function(thumb,size=0x7c) addr:0x02129614
_ZN12ActorUnkSHDLD0Ev kind:function(thumb,size=0x80) addr:0x02129690
_ZN12ActorUnkSHDL19func_ov043_02129710Ev kind:function(thumb,size=0x14) addr:0x02129710
_ZN12ActorUnkSHDL19func_ov043_02129724Ev kind:function(thumb,size=0xb0) addr:0x02129724
_ZN12ActorUnkSHDL19func_ov043_021297d4Ev kind:function(thumb,size=0x2ec) addr:0x021297d4
_ZN12ActorUnkSHDL19func_ov043_02129ac0Ev kind:function(thumb,size=0x28) addr:0x02129ac0
_ZN12ActorUnkSHDL19func_ov043_02129ae8Ev kind:function(thumb,size=0x10) addr:0x02129ae8
_ZN12ActorUnkSHDL19func_ov043_02129af8Ev kind:function(thumb,size=0x9c) addr:0x02129af8
_ZN12ActorUnkSHDL19func_ov043_02129b94Ev kind:function(thumb,size=0x48) addr:0x02129b94
_ZN12ActorUnkSHDL19func_ov043_02129bdcEv kind:function(thumb,size=0x198) addr:0x02129bdc
_ZN12ActorUnkSHDL19func_ov043_02129d74Ev kind:function(thumb,size=0x5c) addr:0x02129d74
_ZN12ActorUnkSHDL19func_ov043_02129dd0Ev kind:function(thumb,size=0x20) addr:0x02129dd0
_ZN12ActorUnkSHDL19func_ov043_02129df0Ev kind:function(thumb,size=0x50) addr:0x02129df0
_ZN12ActorUnkSHDL19func_ov043_02129e40Ev kind:function(thumb,size=0xb8) addr:0x02129e40
_ZN12ActorUnkSHDL19func_ov043_02129ef8Ev kind:function(thumb,size=0x1b0) addr:0x02129ef8
_ZN12ActorUnkSHDL19func_ov043_0212a0a8Ev kind:function(thumb,size=0x68) addr:0x0212a0a8
_ZN12ActorUnkSHDL19func_ov043_0212a110Ev kind:function(thumb,size=0x16c) addr:0x0212a110
_ZN12ActorUnkSHDL19func_ov043_0212a27cEv kind:function(thumb,size=0x36) addr:0x0212a27c
_ZN12ActorUnkSHDL19func_ov043_0212a2b4Ev kind:function(thumb,size=0x4c) addr:0x0212a2b4
_ZN12ActorUnkSHDL19func_ov043_0212a300Ev kind:function(thumb,size=0xfc) addr:0x0212a300
_ZN12ActorUnkSHDL19func_ov043_0212a3fcEv kind:function(thumb,size=0x2c) addr:0x0212a3fc
_ZN12ActorUnkSHDL19func_ov043_0212a428Ev kind:function(thumb,size=0x7c) addr:0x0212a428
_ZN12ActorUnkSHDL19func_ov043_0212a4a4Ev kind:function(thumb,size=0xd8) addr:0x0212a4a4
_ZN12ActorUnkSHDL19func_ov043_0212a57cEv kind:function(thumb,size=0xc) addr:0x0212a57c
_ZN12ActorUnkSHDL19func_ov043_0212a588Ev kind:function(thumb,size=0x18) addr:0x0212a588
_ZN12ActorUnkSHDL19func_ov043_0212a5a0Ev kind:function(thumb,size=0x7c) addr:0x0212a5a0
_ZN12ActorUnkSHDL19func_ov043_0212a61cEv kind:function(thumb,size=0x60) addr:0x0212a61c
_ZN12ActorUnkSHDL19func_ov043_0212a67cEv kind:function(thumb,size=0x70) addr:0x0212a67c
_ZN12ActorUnkSHDL19func_ov043_0212a6ecEv kind:function(thumb,size=0x30) addr:0x0212a6ec
_ZN12ActorUnkSHDL19func_ov043_0212a71cEv kind:function(thumb,size=0x4c) addr:0x0212a71c
_ZN12ActorUnkSHDL19func_ov043_0212a768Ev kind:function(thumb,size=0xcc) addr:0x0212a768
_ZN12ActorUnkSHDL19func_ov043_0212a834Ev kind:function(thumb,size=0x88) addr:0x0212a834
_ZN12ActorUnkSHDL19func_ov043_0212a8bcEv kind:function(thumb,size=0x38) addr:0x0212a8bc
_ZN12ActorUnkSHDL19func_ov043_0212a8f4Ev kind:function(thumb,size=0x60) addr:0x0212a8f4
_ZN12ActorUnkSHDL19func_ov043_0212a954Ev kind:function(thumb,size=0x38) addr:0x0212a954
_ZN12ActorUnkSHDL19func_ov043_0212a98cEv kind:function(thumb,size=0x298) addr:0x0212a98c
_ZN12ActorUnkSHDL19func_ov043_0212ac24Ev kind:function(thumb,size=0x45c) addr:0x0212ac24
_ZN12ActorUnkSHDL19func_ov043_0212b080Ev kind:function(thumb,size=0x348) addr:0x0212b080
_ZN12ActorUnkSHDL19func_ov043_0212b3c8Ev kind:function(thumb,size=0xf8) addr:0x0212b3c8
_ZN12ActorUnkSHDL19func_ov043_0212b4c0Ev kind:function(thumb,size=0x84) addr:0x0212b4c0
_ZN12ActorUnkSHDL19func_ov043_0212b544Ev kind:function(thumb,size=0xb4) addr:0x0212b544
_ZN12ActorUnkSHDL19func_ov043_0212b5f8Ev kind:function(thumb,size=0x9c) addr:0x0212b5f8
_ZN12ActorUnkSHDL19func_ov043_0212b694Ev kind:function(thumb,size=0x5c) addr:0x0212b694
_ZN12ActorUnkSHDL19func_ov043_0212b6f0Ev kind:function(thumb,size=0x7c) addr:0x0212b6f0
_ZN12ActorUnkSHDL19func_ov043_0212b76cEv kind:function(thumb,size=0xa8) addr:0x0212b76c
_ZN12ActorUnkSHDL19func_ov043_0212b814Ev kind:function(thumb,size=0x40) addr:0x0212b814
_ZN12ActorUnkSHDL19func_ov043_0212b854Ev kind:function(thumb,size=0x44) addr:0x0212b854
_ZN12ActorUnkSHDL19func_ov043_0212b898Ev kind:function(thumb,size=0x80) addr:0x0212b898
_ZN12ActorUnkSHDL19func_ov043_0212b918Ev kind:function(thumb,size=0x30) addr:0x0212b918
_ZN12ActorUnkSHDL19func_ov043_0212b948Ev kind:function(thumb,size=0x2a) addr:0x0212b948
_ZN12ActorUnkSHDL19func_ov043_0212b974Ev kind:function(thumb,size=0x118) addr:0x0212b974
_ZN12ActorUnkSHDL19func_ov043_0212ba8cEv kind:function(thumb,size=0x2b8) addr:0x0212ba8c
_ZN12ActorUnkSHDL19func_ov043_0212bd44Ev kind:function(thumb,size=0x50) addr:0x0212bd44
_ZN12ActorUnkSHDL19func_ov043_0212bd94Ev kind:function(thumb,size=0x78) addr:0x0212bd94
_ZN12ActorUnkSHDL19func_ov043_0212be0cEv kind:function(thumb,size=0x80) addr:0x0212be0c
_ZN12ActorUnkSHDL19func_ov043_0212be8cEv kind:function(thumb,size=0x130) addr:0x0212be8c
_ZN12ActorUnkSHDL19func_ov043_0212bfbcEv kind:function(thumb,size=0x3c) addr:0x0212bfbc
_ZN12ActorUnkSHDL19func_ov043_0212bff8Ev kind:function(thumb,size=0x90) addr:0x0212bff8
_ZN12ActorUnkSHDL19func_ov043_0212c088Ev kind:function(thumb,size=0x7c) addr:0x0212c088
_ZN12ActorUnkSHDL19func_ov043_0212c104Ev kind:function(thumb,size=0x3c) addr:0x0212c104
_ZN12ActorUnkSHDL19func_ov043_0212c140Ev kind:function(thumb,size=0x7c) addr:0x0212c140
_ZN12ActorUnkSHDL19func_ov043_0212c1bcEv kind:function(thumb,size=0xd8) addr:0x0212c1bc
_ZN12ActorUnkSHDL19func_ov043_0212c294Ev kind:function(thumb,size=0x114) addr:0x0212c294
_ZN12ActorUnkSHDL19func_ov043_0212c3a8Ev kind:function(thumb,size=0xf0) addr:0x0212c3a8
_ZN12ActorUnkSHDL19func_ov043_0212c498Ev kind:function(thumb,size=0x12c) addr:0x0212c498
_ZN12ActorUnkSHDL19func_ov043_0212c5c4Ev kind:function(thumb,size=0xf0) addr:0x0212c5c4
_ZN12ActorUnkSHDL19func_ov043_0212c6b4Ev kind:function(thumb,size=0x6c) addr:0x0212c6b4
_ZN12ActorUnkSHDL19func_ov043_0212c720Ev kind:function(thumb,size=0x8c) addr:0x0212c720
_ZN12ActorUnkSHDL19func_ov043_0212c7acEv kind:function(thumb,size=0x98) addr:0x0212c7ac
_ZN12ActorUnkSHDL19func_ov043_0212c844Ev kind:function(thumb,size=0x48) addr:0x0212c844
_ZN12ActorUnkSHDL19func_ov043_0212c88cEv kind:function(thumb,size=0xc0) addr:0x0212c88c
_ZN12ActorUnkSHDL19func_ov043_0212c94cEv kind:function(thumb,size=0x98) addr:0x0212c94c
_ZN19ActorProfileUnkSHDLD1Ev kind:function(arm,size=0x20) addr:0x0212c9e4
data_ov043_0212ca04 kind:data(any) addr:0x0212ca04
data_ov043_0212ca08 kind:data(any) addr:0x0212ca08
data_ov043_0212ca18 kind:data(any) addr:0x0212ca18
data_ov043_0212ca28 kind:data(any) addr:0x0212ca28
data_ov043_0212ca34 kind:data(any) addr:0x0212ca34
data_ov043_0212ca38 kind:data(any) addr:0x0212ca38
data_ov043_0212ca48 kind:data(any) addr:0x0212ca48
data_ov043_0212ca70 kind:data(any) addr:0x0212ca70
data_ov043_0212ca80 kind:data(any) addr:0x0212ca80
data_ov043_0212ca82 kind:data(any) addr:0x0212ca82
data_ov043_0212ca84 kind:data(any) addr:0x0212ca84
data_ov043_0212ca86 kind:data(any) addr:0x0212ca86
data_ov043_0212ca88 kind:data(any) addr:0x0212ca88
data_ov043_0212ca8a kind:data(any) addr:0x0212ca8a
data_ov043_0212ca8c kind:data(any) addr:0x0212ca8c
data_ov043_0212ca90 kind:data(any) addr:0x0212ca90
data_ov043_0212ca91 kind:data(any) addr:0x0212ca91
__sinit_ActorUnkSTLF.cpp kind:function(arm,size=0x100) addr:0x0212cb48
__sinit_ActorUnkSTFH.cpp kind:function(arm,size=0xe0) addr:0x0212cc48
__sinit_ActorUnkSTFB.cpp kind:function(arm,size=0x50) addr:0x0212cd28
__sinit_ActorUnkSHDL.cpp kind:function(arm,size=0x78) addr:0x0212cd78
.p__sinit_ActorUnkSTLF.cpp kind:data(word) addr:0x0212cdf0
.p__sinit_ActorUnkSTFH.cpp kind:data(word) addr:0x0212cdf4
.p__sinit_ActorUnkSTFB.cpp kind:data(word) addr:0x0212cdf8
.p__sinit_ActorUnkSHDL.cpp kind:data(word) addr:0x0212cdfc
_ZTV19data_ov043_0212ce20 kind:data(any) addr:0x0212ce20
data_ov043_0212ce4c kind:data(any) addr:0x0212ce4c
_ZTV19data_ov043_0212ce90 kind:data(any) addr:0x0212ce90
data_ov043_0212cef0 kind:data(any) addr:0x0212cef0
data_ov043_0212cf08 kind:data(any) addr:0x0212cf08
data_ov043_0212cf20 kind:data(any) addr:0x0212cf20
data_ov043_0212cf38 kind:data(any) addr:0x0212cf38
data_ov043_0212cf50 kind:data(any) addr:0x0212cf50
data_ov043_0212cf68 kind:data(any) addr:0x0212cf68
data_ov043_0212cf80 kind:data(any) addr:0x0212cf80
data_ov043_0212cf98 kind:data(any) addr:0x0212cf98
data_ov043_0212cfa8 kind:data(any) addr:0x0212cfa8
data_ov043_0212d11c kind:data(any) addr:0x0212d11c ambiguous
data_ov043_0212d168 kind:data(any) addr:0x0212d168
data_ov043_0212d178 kind:data(any) addr:0x0212d178
_ZTV19data_ov043_0212d190 kind:data(any) addr:0x0212d190
data_ov043_0212d1bc kind:data(any) addr:0x0212d1bc
data_ov043_0212d204 kind:data(any) addr:0x0212d204
_ZTV19data_ov043_0212d248 kind:data(any) addr:0x0212d248
data_ov043_0212d2a8 kind:data(any) addr:0x0212d2a8
data_ov043_0212d2c0 kind:data(any) addr:0x0212d2c0
data_ov043_0212d2d8 kind:data(any) addr:0x0212d2d8
data_ov043_0212d2f0 kind:data(any) addr:0x0212d2f0
data_ov043_0212d350 kind:data(any) addr:0x0212d350
data_ov043_0212d354 kind:data(any) addr:0x0212d354 ambiguous
data_ov043_0212d360 kind:data(any) addr:0x0212d360
data_ov043_0212d488 kind:data(any) addr:0x0212d488
data_ov043_0212d490 kind:data(any) addr:0x0212d490
data_ov043_0212d498 kind:data(any) addr:0x0212d498
data_ov043_0212d4b8 kind:data(any) addr:0x0212d4b8
_ZTV19data_ov043_0212d4cc kind:data(any) addr:0x0212d4cc
_ZTV19data_ov043_0212d4f0 kind:data(any) addr:0x0212d4f0
data_ov043_0212d54c kind:data(any) addr:0x0212d54c
data_ov043_0212d558 kind:data(any) addr:0x0212d558
data_ov043_0212d568 kind:data(any) addr:0x0212d568
data_ov043_0212d578 kind:data(any) addr:0x0212d578
data_ov043_0212d588 kind:data(any) addr:0x0212d588
data_ov043_0212d598 kind:data(any) addr:0x0212d598
data_ov043_0212d5b0 kind:data(any) addr:0x0212d5b0
data_ov043_0212d5bc kind:data(any) addr:0x0212d5bc
_ZTV19data_ov043_0212d5c4 kind:data(any) addr:0x0212d5c4
data_ov043_0212d5f0 kind:data(any) addr:0x0212d5f0
_ZTV19data_ov043_0212d60c kind:data(any) addr:0x0212d60c
data_ov043_0212d66c kind:data(any) addr:0x0212d66c
data_ov043_0212d764 kind:data(any) addr:0x0212d764 ambiguous
data_ov043_0212d7cc kind:data(any) addr:0x0212d7cc
data_ov043_0212d7e0 kind:data(any) addr:0x0212d7e0
data_ov043_0212d7e4 kind:data(any) addr:0x0212d7e4
data_ov043_0212d7e8 kind:data(any) addr:0x0212d7e8
data_ov043_0212d7ec kind:data(any) addr:0x0212d7ec
_ZGVN15ProfileInstanceI19ActorProfileUnkSTLFE8sProfileE kind:bss addr:0x0212dba0
@11594 kind:bss addr:0x0212dbac
_ZN15ProfileInstanceI19ActorProfileUnkSTLFE8sProfileE kind:bss addr:0x0212dbb8
_ZGVN15ProfileInstanceI19ActorProfileUnkSTFHE8sProfileE kind:bss addr:0x0212dc90
@11600 kind:bss addr:0x0212dc94
_ZN15ProfileInstanceI19ActorProfileUnkSTFHE8sProfileE kind:bss addr:0x0212dca0
_ZGVN15ProfileInstanceI19ActorProfileUnkSTFBE8sProfileE kind:bss addr:0x0212dd78
@11606 kind:bss addr:0x0212dd7c
_ZN15ProfileInstanceI19ActorProfileUnkSTFBE8sProfileE kind:bss addr:0x0212dd88
_ZGVN15ProfileInstanceI19ActorProfileUnkSHDLE8sProfileE kind:bss addr:0x0212ddcc
@11612 kind:bss addr:0x0212ddd4
_ZN15ProfileInstanceI19ActorProfileUnkSHDLE8sProfileE kind:bss addr:0x0212dde0
data_ov043_0212de20 kind:bss addr:0x0212de20
data_ov043_0212de60 kind:bss addr:0x0212de60
