_ZN19ActorProfileUnkBDEA10GetProfileEv kind:function(arm,size=0xc) addr:0x02150c00
_ZN19ActorProfileUnkBDEA6CreateEv kind:function(arm,size=0x28) addr:0x02150c0c
_ZN19ActorProfileUnkBDEAC1Ev kind:function(arm,size=0x74) addr:0x02150c34
_ZN12ActorUnkBDEA19func_ov073_02150ca8Ev kind:function(arm,size=0x28) addr:0x02150ca8
_ZN12ActorUnkBDEA19func_ov073_02150cd0Ev kind:function(arm,size=0x1f8) addr:0x02150cd0
_ZN12ActorUnkBDEA19func_ov073_02150ec8Ev kind:function(arm,size=0x38) addr:0x02150ec8
_ZN12ActorUnkBDEA19func_ov073_02150f00Ev kind:function(arm,size=0xec) addr:0x02150f00
_ZN12ActorUnkBDEA19func_ov073_02150fecEv kind:function(arm,size=0x2c) addr:0x02150fec
_ZN12ActorUnkBDEA19func_ov073_02151018Ev kind:function(arm,size=0x30) addr:0x02151018
_ZN12ActorUnkBDEA19func_ov073_02151048Ev kind:function(arm,size=0x30) addr:0x02151048
_ZN12ActorUnkBDEA19func_ov073_02151078Ev kind:function(arm,size=0x18) addr:0x02151078
_ZN12ActorUnkBDEA19func_ov073_02151090Ev kind:function(arm,size=0x14) addr:0x02151090
_ZN12ActorUnkBDEA19func_ov073_021510a4Ev kind:function(arm,size=0xc8) addr:0x021510a4
_ZN12ActorUnkBDEA19func_ov073_0215116cEv kind:function(arm,size=0x54) addr:0x0215116c
_ZN12ActorUnkBDEAC1Ev kind:function(arm,size=0x4a0) addr:0x021511c0
_ZN12ActorUnkBDEA19func_ov073_02151660Ev kind:function(arm,size=0x14) addr:0x02151660
_ZN12ActorUnkBDEA19func_ov073_02151674Ev kind:function(arm,size=0x14) addr:0x02151674
_ZN12ActorUnkBDEA19func_ov073_02151688Ev kind:function(arm,size=0x14) addr:0x02151688
_ZN12ActorUnkBDEA19func_ov073_0215169cEv kind:function(arm,size=0x14) addr:0x0215169c
_ZN12ActorUnkBDEA19func_ov073_021516b0Ev kind:function(arm,size=0x100) addr:0x021516b0
_ZN12ActorUnkBDEAD0Ev kind:function(arm,size=0x108) addr:0x021517b0
_ZN12ActorUnkBDEA19func_ov073_021518b8Ev kind:function(arm,size=0x1b8) addr:0x021518b8
_ZN12ActorUnkBDEA19func_ov073_02151a70Ev kind:function(arm,size=0x50) addr:0x02151a70
_ZN12ActorUnkBDEA19func_ov073_02151ac0Ev kind:function(arm,size=0x2c) addr:0x02151ac0
_ZN12ActorUnkBDEA19func_ov073_02151aecEv kind:function(arm,size=0x60) addr:0x02151aec
_ZN12ActorUnkBDEA19func_ov073_02151b4cEv kind:function(arm,size=0x160) addr:0x02151b4c
_ZN12ActorUnkBDEA19func_ov073_02151cacEv kind:function(arm,size=0xd8) addr:0x02151cac
_ZN12ActorUnkBDEA19func_ov073_02151d84Ev kind:function(arm,size=0xa8) addr:0x02151d84
_ZN12ActorUnkBDEA19func_ov073_02151e2cEv kind:function(arm,size=0x1298) addr:0x02151e2c
_ZN12ActorUnkBDEA19func_ov073_021530c4Ev kind:function(arm,size=0xec) addr:0x021530c4
_ZN12ActorUnkBDEA19func_ov073_021531b0Ev kind:function(arm,size=0x8c) addr:0x021531b0
_ZN12ActorUnkBDEA19func_ov073_0215323cEv kind:function(arm,size=0x1ac) addr:0x0215323c
_ZN12ActorUnkBDEA19func_ov073_021533e8Ev kind:function(arm,size=0x7c) addr:0x021533e8
_ZN12ActorUnkBDEA19func_ov073_02153464Ev kind:function(arm,size=0x78) addr:0x02153464
_ZN12ActorUnkBDEA19func_ov073_021534dcEv kind:function(arm,size=0xc8) addr:0x021534dc
_ZN12ActorUnkBDEA19func_ov073_021535a4Ev kind:function(arm,size=0x444) addr:0x021535a4
_ZN12ActorUnkBDEA19func_ov073_021539e8Ev kind:function(arm,size=0xb0) addr:0x021539e8
_ZN12ActorUnkBDEA19func_ov073_02153a98Ev kind:function(arm,size=0x374) addr:0x02153a98
_ZN12ActorUnkBDEA19func_ov073_02153e0cEv kind:function(arm,size=0xa0) addr:0x02153e0c
_ZN12ActorUnkBDEA19func_ov073_02153eacEv kind:function(arm,size=0x190) addr:0x02153eac
_ZN12ActorUnkBDEA19func_ov073_0215403cEv kind:function(arm,size=0xb8) addr:0x0215403c
_ZN12ActorUnkBDEA19func_ov073_021540f4Ev kind:function(arm,size=0x280) addr:0x021540f4
_ZN12ActorUnkBDEA19func_ov073_02154374Ev kind:function(arm,size=0x330) addr:0x02154374
_ZN12ActorUnkBDEA19func_ov073_021546a4Ev kind:function(arm,size=0x740) addr:0x021546a4
_ZN12ActorUnkBDEA19func_ov073_02154de4Ev kind:function(arm,size=0x7c) addr:0x02154de4
_ZN12ActorUnkBDEA19func_ov073_02154e60Ev kind:function(arm,size=0x138) addr:0x02154e60
_ZN12ActorUnkBDEA19func_ov073_02154f98Ev kind:function(arm,size=0x7c) addr:0x02154f98
_ZN12ActorUnkBDEA19func_ov073_02155014Ev kind:function(arm,size=0xf4) addr:0x02155014
_ZN12ActorUnkBDEA19func_ov073_02155108Ev kind:function(arm,size=0x7c) addr:0x02155108
_ZN12ActorUnkBDEA19func_ov073_02155184Ev kind:function(arm,size=0x120) addr:0x02155184
_ZN12ActorUnkBDEA19func_ov073_021552a4Ev kind:function(arm,size=0xc0) addr:0x021552a4
_ZN12ActorUnkBDEA19func_ov073_02155364Ev kind:function(arm,size=0x5c8) addr:0x02155364
_ZN12ActorUnkBDEA19func_ov073_0215592cEv kind:function(arm,size=0xb8) addr:0x0215592c
_ZN12ActorUnkBDEA19func_ov073_021559e4Ev kind:function(arm,size=0x90) addr:0x021559e4
_ZN12ActorUnkBDEA19func_ov073_02155a74Ev kind:function(arm,size=0x74) addr:0x02155a74
_ZN12ActorUnkBDEA19func_ov073_02155ae8Ev kind:function(arm,size=0x58) addr:0x02155ae8
_ZN12ActorUnkBDEA19func_ov073_02155b40Ev kind:function(arm,size=0x6c) addr:0x02155b40
_ZN12ActorUnkBDEA19func_ov073_02155bacEv kind:function(arm,size=0x10) addr:0x02155bac
_ZN12ActorUnkBDEA19func_ov073_02155bbcEv kind:function(arm,size=0x164) addr:0x02155bbc
_ZN12ActorUnkBDEA19func_ov073_02155d20Ev kind:function(arm,size=0x494) addr:0x02155d20
_ZN12ActorUnkBDEA19func_ov073_021561b4Ev kind:function(arm,size=0x12c) addr:0x021561b4
_ZN12ActorUnkBDEA19func_ov073_021562e0Ev kind:function(arm,size=0x484) addr:0x021562e0
_ZN12ActorUnkBDEA19func_ov073_02156764Ev kind:function(arm,size=0x18c) addr:0x02156764
_ZN12ActorUnkBDEA19func_ov073_021568f0Ev kind:function(arm,size=0x1d0) addr:0x021568f0
_ZN12ActorUnkBDEA19func_ov073_02156ac0Ev kind:function(arm,size=0x188) addr:0x02156ac0
_ZN12ActorUnkBDEA19func_ov073_02156c48Ev kind:function(arm,size=0x138) addr:0x02156c48
_ZN12ActorUnkBDEA19func_ov073_02156d80Ev kind:function(arm,size=0x25c) addr:0x02156d80
_ZN12ActorUnkBDEA19func_ov073_02156fdcEv kind:function(arm,size=0x724) addr:0x02156fdc
_ZN12ActorUnkBDEA19func_ov073_02157700Ev kind:function(arm,size=0xa0) addr:0x02157700
_ZN12ActorUnkBDEA19func_ov073_021577a0Ev kind:function(arm,size=0x33c) addr:0x021577a0
_ZN12ActorUnkBDEA19func_ov073_02157adcEv kind:function(arm,size=0x74) addr:0x02157adc
_ZN12ActorUnkBDEA19func_ov073_02157b50Ev kind:function(arm,size=0x370) addr:0x02157b50
_ZN12ActorUnkBDEA19func_ov073_02157ec0Ev kind:function(arm,size=0x78) addr:0x02157ec0
_ZN12ActorUnkBDEA19func_ov073_02157f38Ev kind:function(arm,size=0x8cc) addr:0x02157f38
_ZN12ActorUnkBDEA19func_ov073_02158804Ev kind:function(arm,size=0x194) addr:0x02158804
_ZN12ActorUnkBDEA19func_ov073_02158998Ev kind:function(arm,size=0x918) addr:0x02158998
_ZN12ActorUnkBDEA19func_ov073_021592b0Ev kind:function(arm,size=0x7c) addr:0x021592b0
_ZN12ActorUnkBDEA19func_ov073_0215932cEv kind:function(arm,size=0x7c0) addr:0x0215932c
_ZN12ActorUnkBDEA19func_ov073_02159aecEv kind:function(arm,size=0x5c) addr:0x02159aec
_ZN12ActorUnkBDEA19func_ov073_02159b48Ev kind:function(arm,size=0x80) addr:0x02159b48
_ZN12ActorUnkBDEA19func_ov073_02159bc8Ev kind:function(arm,size=0x5fc) addr:0x02159bc8
_ZN12ActorUnkBDEA19func_ov073_0215a1c4Ev kind:function(arm,size=0x21c) addr:0x0215a1c4
_ZN12ActorUnkBDEA19func_ov073_0215a3e0Ev kind:function(arm,size=0x27c) addr:0x0215a3e0
_ZN12ActorUnkBDEA19func_ov073_0215a65cEv kind:function(arm,size=0x9c) addr:0x0215a65c
_ZN12ActorUnkBDEA19func_ov073_0215a6f8Ev kind:function(arm,size=0xdc) addr:0x0215a6f8
_ZN12ActorUnkBDEA19func_ov073_0215a7d4Ev kind:function(arm,size=0x9c) addr:0x0215a7d4
_ZN12ActorUnkBDEA19func_ov073_0215a870Ev kind:function(arm,size=0x18c) addr:0x0215a870
_ZN12ActorUnkBDEA19func_ov073_0215a9fcEv kind:function(arm,size=0x4c4) addr:0x0215a9fc
_ZN12ActorUnkBDEA19func_ov073_0215aec0Ev kind:function(arm,size=0x108) addr:0x0215aec0
_ZN12ActorUnkBDEA19func_ov073_0215afc8Ev kind:function(arm,size=0x4f4) addr:0x0215afc8
_ZN12ActorUnkBDEA19func_ov073_0215b4bcEv kind:function(arm,size=0xf0) addr:0x0215b4bc
_ZN12ActorUnkBDEA19func_ov073_0215b5acEv kind:function(arm,size=0x9c) addr:0x0215b5ac
_ZN12ActorUnkBDEA19func_ov073_0215b648Ev kind:function(arm,size=0x384) addr:0x0215b648
_ZN12ActorUnkBDEA19func_ov073_0215b9ccEv kind:function(arm,size=0x70) addr:0x0215b9cc
_ZN12ActorUnkBDEA19func_ov073_0215ba3cEv kind:function(arm,size=0xac) addr:0x0215ba3c
_ZN12ActorUnkBDEA19func_ov073_0215bae8Ev kind:function(arm,size=0x84) addr:0x0215bae8
_ZN12ActorUnkBDEA19func_ov073_0215bb6cEv kind:function(arm,size=0xa0) addr:0x0215bb6c
_ZN12ActorUnkBDEA19func_ov073_0215bc0cEv kind:function(arm,size=0x6c) addr:0x0215bc0c
_ZN12ActorUnkBDEA19func_ov073_0215bc78Ev kind:function(arm,size=0x17c) addr:0x0215bc78
_ZN12ActorUnkBDEA19func_ov073_0215bdf4Ev kind:function(arm,size=0x80) addr:0x0215bdf4
_ZN12ActorUnkBDEA19func_ov073_0215be74Ev kind:function(arm,size=0x1300) addr:0x0215be74
_ZN12ActorUnkBDEA19func_ov073_0215d174Ev kind:function(arm,size=0x15c) addr:0x0215d174
_ZN12ActorUnkBDEA19func_ov073_0215d2d0Ev kind:function(arm,size=0x1050) addr:0x0215d2d0
_ZN12ActorUnkBDEA19func_ov073_0215e320Ev kind:function(arm,size=0x9c) addr:0x0215e320
_ZN12ActorUnkBDEA19func_ov073_0215e3bcEv kind:function(arm,size=0x968) addr:0x0215e3bc
_ZN12ActorUnkBDEA19func_ov073_0215ed24Ev kind:function(arm,size=0x6c) addr:0x0215ed24
_ZN12ActorUnkBDEA19func_ov073_0215ed90Ev kind:function(arm,size=0x68) addr:0x0215ed90
_ZN12ActorUnkBDEA19func_ov073_0215edf8Ev kind:function(arm,size=0x240) addr:0x0215edf8
_ZN12ActorUnkBDEA19func_ov073_0215f038Ev kind:function(arm,size=0x5d4) addr:0x0215f038
_ZN12ActorUnkBDEA19func_ov073_0215f60cEv kind:function(arm,size=0x14) addr:0x0215f60c
_ZN12ActorUnkBDEA19func_ov073_0215f620Ev kind:function(arm,size=0x110) addr:0x0215f620
_ZN12ActorUnkBDEA19func_ov073_0215f730Ev kind:function(arm,size=0x29c) addr:0x0215f730
_ZN12ActorUnkBDEA19func_ov073_0215f9ccEv kind:function(arm,size=0xac) addr:0x0215f9cc
_ZN12ActorUnkBDEA19func_ov073_0215fa78Ev kind:function(arm,size=0x210) addr:0x0215fa78
_ZN12ActorUnkBDEA19func_ov073_0215fc88Ev kind:function(arm,size=0x78) addr:0x0215fc88
_ZN12ActorUnkBDEA19func_ov073_0215fd00Ev kind:function(arm,size=0x2f4) addr:0x0215fd00
_ZN12ActorUnkBDEA19func_ov073_0215fff4Ev kind:function(arm,size=0xb4) addr:0x0215fff4
_ZN12ActorUnkBDEA19func_ov073_021600a8Ev kind:function(arm,size=0x144) addr:0x021600a8
_ZN12ActorUnkBDEA19func_ov073_021601ecEv kind:function(arm,size=0x18) addr:0x021601ec
_ZN12ActorUnkBDEA19func_ov073_02160204Ev kind:function(arm,size=0x2f8) addr:0x02160204
_ZN12ActorUnkBDEA19func_ov073_021604fcEv kind:function(arm,size=0x168) addr:0x021604fc
_ZN12ActorUnkBDEA19func_ov073_02160664Ev kind:function(arm,size=0x2bc) addr:0x02160664
_ZN12ActorUnkBDEA19func_ov073_02160920Ev kind:function(arm,size=0x268) addr:0x02160920
_ZN12ActorUnkBDEA19func_ov073_02160b88Ev kind:function(arm,size=0x2c) addr:0x02160b88
_ZN12ActorUnkBDEA19func_ov073_02160bb4Ev kind:function(arm,size=0x20c) addr:0x02160bb4
_ZN12ActorUnkBDEA19func_ov073_02160dc0Ev kind:function(arm,size=0x50) addr:0x02160dc0
_ZN12ActorUnkBDEA19func_ov073_02160e10Ev kind:function(arm,size=0x54) addr:0x02160e10
_ZN12ActorUnkBDEA19func_ov073_02160e64Ev kind:function(arm,size=0xd8) addr:0x02160e64
_ZN12ActorUnkBDEA19func_ov073_02160f3cEv kind:function(arm,size=0x120) addr:0x02160f3c
_ZN12ActorUnkBDEA19func_ov073_0216105cEv kind:function(arm,size=0xd8) addr:0x0216105c
_ZN12ActorUnkBDEA19func_ov073_02161134Ev kind:function(arm,size=0x74) addr:0x02161134
_ZN12ActorUnkBDEA19func_ov073_021611a8Ev kind:function(arm,size=0xe0) addr:0x021611a8
_ZN12ActorUnkBDEA19func_ov073_02161288Ev kind:function(arm,size=0x70) addr:0x02161288
_ZN12ActorUnkBDEA19func_ov073_021612f8Ev kind:function(arm,size=0x44) addr:0x021612f8
_ZN12ActorUnkBDEA19func_ov073_0216133cEv kind:function(arm,size=0x50) addr:0x0216133c
_ZN12ActorUnkBDEA19func_ov073_0216138cEv kind:function(arm,size=0x274) addr:0x0216138c
_ZN12ActorUnkBDEA19func_ov073_02161600Ev kind:function(arm,size=0x50) addr:0x02161600
_ZN12ActorUnkBDEA19func_ov073_02161650Ev kind:function(arm,size=0x114) addr:0x02161650
_ZN12ActorUnkBDEA19func_ov073_02161764Ev kind:function(arm,size=0x1e8) addr:0x02161764
_ZN12ActorUnkBDEA19func_ov073_0216194cEv kind:function(arm,size=0x14) addr:0x0216194c
_ZN12ActorUnkBDEA19func_ov073_02161960Ev kind:function(arm,size=0x78) addr:0x02161960
_ZN12ActorUnkBDEA19func_ov073_021619d8Ev kind:function(arm,size=0x90) addr:0x021619d8
_ZN12ActorUnkBDEA19func_ov073_02161a68Ev kind:function(arm,size=0x24) addr:0x02161a68
_ZN12ActorUnkBDEA19func_ov073_02161a8cEv kind:function(arm,size=0x84) addr:0x02161a8c
_ZN12ActorUnkBDEA19func_ov073_02161b10Ev kind:function(arm,size=0x214) addr:0x02161b10
_ZN12ActorUnkBDEA19func_ov073_02161d24Ev kind:function(arm,size=0x74) addr:0x02161d24
_ZN12ActorUnkBDEA19func_ov073_02161d98Ev kind:function(arm,size=0x240) addr:0x02161d98
_ZN12ActorUnkBDEA19func_ov073_02161fd8Ev kind:function(arm,size=0x64) addr:0x02161fd8
_ZN12ActorUnkBDEA19func_ov073_0216203cEv kind:function(arm,size=0x5c) addr:0x0216203c
_ZN12ActorUnkBDEA19func_ov073_02162098Ev kind:function(arm,size=0x90) addr:0x02162098
_ZN12ActorUnkBDEA19func_ov073_02162128Ev kind:function(arm,size=0x90) addr:0x02162128
_ZN12ActorUnkBDEA19func_ov073_021621b8Ev kind:function(arm,size=0x20) addr:0x021621b8
_ZN12ActorUnkBDEA19func_ov073_021621d8Ev kind:function(arm,size=0x18) addr:0x021621d8
_ZN12ActorUnkBDEA19func_ov073_021621f0Ev kind:function(arm,size=0x19c) addr:0x021621f0
_ZN12ActorUnkBDEA19func_ov073_0216238cEv kind:function(arm,size=0x8) addr:0x0216238c
_ZN12ActorUnkBDEA19func_ov073_02162394Ev kind:function(arm,size=0x114) addr:0x02162394
_ZN12ActorUnkBDEA19func_ov073_021624a8Ev kind:function(arm,size=0x10) addr:0x021624a8
_ZN12ActorUnkBDEA19func_ov073_021624b8Ev kind:function(arm,size=0x38) addr:0x021624b8
_ZN12ActorUnkBDEA19func_ov073_021624f0Ev kind:function(arm,size=0x38) addr:0x021624f0
_ZN12ActorUnkBDEA19func_ov073_02162528Ev kind:function(arm,size=0x25c) addr:0x02162528
_ZN12ActorUnkBDEA19func_ov073_02162784Ev kind:function(arm,size=0x40) addr:0x02162784
_ZN12ActorUnkBDEA19func_ov073_021627c4Ev kind:function(arm,size=0xf8) addr:0x021627c4
_ZN12ActorUnkBDEA19func_ov073_021628bcEv kind:function(arm,size=0x6c) addr:0x021628bc
_ZN12ActorUnkBDEA19func_ov073_02162928Ev kind:function(arm,size=0x190) addr:0x02162928
_ZN12ActorUnkBDEA19func_ov073_02162ab8Ev kind:function(arm,size=0x63c) addr:0x02162ab8
_ZN12ActorUnkBDEA19func_ov073_021630f4Ev kind:function(arm,size=0x24) addr:0x021630f4
_ZN12ActorUnkBDEA19func_ov073_02163118Ev kind:function(arm,size=0x10) addr:0x02163118
_ZN12ActorUnkBDEA19func_ov073_02163128Ev kind:function(arm,size=0x8) addr:0x02163128
_ZN12ActorUnkBDEA19func_ov073_02163130Ev kind:function(arm,size=0x24) addr:0x02163130
_ZN12ActorUnkBDEA19func_ov073_02163154Ev kind:function(arm,size=0x2c) addr:0x02163154
_ZN12ActorUnkBDEA19func_ov073_02163180Ev kind:function(arm,size=0x18) addr:0x02163180
_ZN12ActorUnkBDEA19func_ov073_02163198Ev kind:function(arm,size=0xc) addr:0x02163198
_ZN12ActorUnkBDEA19func_ov073_021631a4Ev kind:function(arm,size=0x1c) addr:0x021631a4
_ZN12ActorUnkBDEA19func_ov073_021631c0Ev kind:function(arm,size=0x1c) addr:0x021631c0
_ZN12ActorUnkBDEA19func_ov073_021631dcEv kind:function(arm,size=0x1c) addr:0x021631dc
_ZN12ActorUnkBDEA19func_ov073_021631f8Ev kind:function(arm,size=0x1c) addr:0x021631f8
_ZN19ActorProfileUnkBDEAD1Ev kind:function(arm,size=0x14) addr:0x02163214
_ZN19ActorProfileUnkDGPC10GetProfileEv kind:function(arm,size=0xc) addr:0x02163228
_ZN19ActorProfileUnkDGPC6CreateEv kind:function(arm,size=0x24) addr:0x02163234
_ZN19ActorProfileUnkDGPCC1Ev kind:function(arm,size=0x28) addr:0x02163258
_ZN12ActorUnkDGPCC1Ev kind:function(arm,size=0x4c) addr:0x02163280
_ZN12ActorUnkDGPC19func_ov073_021632ccEv kind:function(arm,size=0x40) addr:0x021632cc
_ZN12ActorUnkDGPC19func_ov073_0216330cEv kind:function(arm,size=0x30) addr:0x0216330c
_ZN12ActorUnkDGPC19func_ov073_0216333cEv kind:function(arm,size=0x14) addr:0x0216333c
_ZN12ActorUnkDGPC19func_ov073_02163350Ev kind:function(arm,size=0x18) addr:0x02163350
_ZN12ActorUnkDGPC19func_ov073_02163368Ev kind:function(arm,size=0x20) addr:0x02163368
_ZN12ActorUnkDGPC19func_ov073_02163388Ev kind:function(arm,size=0x38) addr:0x02163388
_ZN12ActorUnkDGPC19func_ov073_021633c0Ev kind:function(arm,size=0x8) addr:0x021633c0
_ZN12ActorUnkDGPC19func_ov073_021633c8Ev kind:function(arm,size=0x68) addr:0x021633c8
_ZN12ActorUnkDGPCD0Ev kind:function(arm,size=0x28) addr:0x02163430
_ZN12ActorUnkDGPCD2Ev kind:function(arm,size=0x20) addr:0x02163458
_ZN19ActorProfileUnkDGPCD1Ev kind:function(arm,size=0x14) addr:0x02163478
func_ov073_0216348c kind:function(arm,size=0x10) addr:0x0216348c
func_ov073_0216349c kind:function(arm,size=0x10) addr:0x0216349c
func_ov073_021634ac kind:function(arm,size=0x10) addr:0x021634ac
func_ov073_021634bc kind:function(arm,size=0x10) addr:0x021634bc
func_ov073_021634cc kind:function(arm,size=0x150) addr:0x021634cc
func_ov073_0216361c kind:function(arm,size=0x26c) addr:0x0216361c
func_ov073_02163888 kind:function(arm,size=0x1e0) addr:0x02163888
func_ov073_02163a68 kind:function(arm,size=0x1d8) addr:0x02163a68
data_ov073_02163c48 kind:data(any) addr:0x02163c48
data_ov073_02163c4c kind:data(any) addr:0x02163c4c
data_ov073_02163c50 kind:data(any) addr:0x02163c50
data_ov073_02163c54 kind:data(any) addr:0x02163c54
data_ov073_02163c58 kind:data(any) addr:0x02163c58
data_ov073_02163c5c kind:data(any) addr:0x02163c5c
data_ov073_02163c68 kind:data(any) addr:0x02163c68
data_ov073_02163c78 kind:data(any) addr:0x02163c78
data_ov073_02163c98 kind:data(any) addr:0x02163c98
data_ov073_02163cb8 kind:data(any) addr:0x02163cb8
data_ov073_02163cd8 kind:data(any) addr:0x02163cd8
data_ov073_02163ce8 kind:data(any) addr:0x02163ce8
data_ov073_02163cf8 kind:data(any) addr:0x02163cf8
data_ov073_02163d08 kind:data(any) addr:0x02163d08
data_ov073_02163d18 kind:data(any) addr:0x02163d18
data_ov073_02163d28 kind:data(any) addr:0x02163d28
data_ov073_02163d38 kind:data(any) addr:0x02163d38
__sinit_ActorUnkBDEA.cpp kind:function(arm,size=0x124) addr:0x02163d48
__sinit_ActorUnkDGPC.cpp kind:function(arm,size=0x50) addr:0x02163e6c
.p__sinit_ActorUnkBDEA.cpp kind:data(word) addr:0x02163ebc
.p__sinit_ActorUnkDGPC.cpp kind:data(word) addr:0x02163ec0
data_ov073_02163ee0 kind:data(any) addr:0x02163ee0
data_ov073_02163ef4 kind:data(any) addr:0x02163ef4
data_ov073_02163f00 kind:data(any) addr:0x02163f00
data_ov073_02163f0c kind:data(any) addr:0x02163f0c
data_ov073_02163f24 kind:data(any) addr:0x02163f24
data_ov073_02163f30 kind:data(any) addr:0x02163f30
data_ov073_02163f40 kind:data(any) addr:0x02163f40
data_ov073_02163f60 kind:data(any) addr:0x02163f60
data_ov073_02163f6c kind:data(any) addr:0x02163f6c
data_ov073_02163f78 kind:data(any) addr:0x02163f78
data_ov073_02163f88 kind:data(any) addr:0x02163f88
data_ov073_02163fa0 kind:data(any) addr:0x02163fa0
_ZTV19data_ov073_02163fb4 kind:data(any) addr:0x02163fb4
data_ov073_02163fe0 kind:data(any) addr:0x02163fe0
data_ov073_02163ff4 kind:data(any) addr:0x02163ff4 ambiguous
data_ov073_0216400c kind:data(any) addr:0x0216400c
data_ov073_02164054 kind:data(any) addr:0x02164054
_ZTV19data_ov073_02164098 kind:data(any) addr:0x02164098
data_ov073_021640f8 kind:data(any) addr:0x021640f8
data_ov073_02164144 kind:data(any) addr:0x02164144 ambiguous
data_ov073_021641c8 kind:data(any) addr:0x021641c8 ambiguous
data_ov073_021641d0 kind:data(any) addr:0x021641d0 ambiguous
data_ov073_02164210 kind:data(any) addr:0x02164210
data_ov073_021642fc kind:data(any) addr:0x021642fc ambiguous
data_ov073_02164328 kind:data(any) addr:0x02164328
data_ov073_02164340 kind:data(any) addr:0x02164340
data_ov073_02164358 kind:data(any) addr:0x02164358
data_ov073_02164370 kind:data(any) addr:0x02164370
data_ov073_02164388 kind:data(any) addr:0x02164388
data_ov073_021643a0 kind:data(any) addr:0x021643a0
data_ov073_021643b8 kind:data(any) addr:0x021643b8
data_ov073_021643d0 kind:data(any) addr:0x021643d0
data_ov073_021643e8 kind:data(any) addr:0x021643e8
data_ov073_02164400 kind:data(any) addr:0x02164400
data_ov073_02164418 kind:data(any) addr:0x02164418
data_ov073_02164430 kind:data(any) addr:0x02164430
data_ov073_02164448 kind:data(any) addr:0x02164448
data_ov073_02164460 kind:data(any) addr:0x02164460
data_ov073_02164478 kind:data(any) addr:0x02164478
data_ov073_02164490 kind:data(any) addr:0x02164490
data_ov073_021644a8 kind:data(any) addr:0x021644a8
data_ov073_021644c0 kind:data(any) addr:0x021644c0
data_ov073_021644d8 kind:data(any) addr:0x021644d8
data_ov073_021644f0 kind:data(any) addr:0x021644f0
data_ov073_02164508 kind:data(any) addr:0x02164508
data_ov073_02164520 kind:data(any) addr:0x02164520
data_ov073_02164538 kind:data(any) addr:0x02164538
data_ov073_02164550 kind:data(any) addr:0x02164550
data_ov073_02164568 kind:data(any) addr:0x02164568
data_ov073_02164580 kind:data(any) addr:0x02164580
data_ov073_02164598 kind:data(any) addr:0x02164598
data_ov073_021645b0 kind:data(any) addr:0x021645b0
data_ov073_021645c8 kind:data(any) addr:0x021645c8
data_ov073_021645e0 kind:data(any) addr:0x021645e0
data_ov073_021645f8 kind:data(any) addr:0x021645f8
data_ov073_02164610 kind:data(any) addr:0x02164610
data_ov073_02164628 kind:data(any) addr:0x02164628
data_ov073_02164640 kind:data(any) addr:0x02164640
data_ov073_02164658 kind:data(any) addr:0x02164658
data_ov073_02164670 kind:data(any) addr:0x02164670
data_ov073_02164688 kind:data(any) addr:0x02164688
data_ov073_02164690 kind:data(any) addr:0x02164690 ambiguous
data_ov073_021646a0 kind:data(any) addr:0x021646a0
data_ov073_021646b8 kind:data(any) addr:0x021646b8
data_ov073_021646d0 kind:data(any) addr:0x021646d0
data_ov073_021646e8 kind:data(any) addr:0x021646e8
_ZTV19data_ov073_02164700 kind:data(any) addr:0x02164700
_ZTV19data_ov073_02164724 kind:data(any) addr:0x02164724
_ZTV19data_ov073_0216478c kind:data(any) addr:0x0216478c
_ZGVN15ProfileInstanceI19ActorProfileUnkBDEAE8sProfileE kind:bss addr:0x021647c0
@13335 kind:bss addr:0x021647c4
_ZN15ProfileInstanceI19ActorProfileUnkBDEAE8sProfileE kind:bss addr:0x021647d0
data_ov073_021647d4 kind:bss addr:0x021647d4
data_ov073_021648a8 kind:bss addr:0x021648a8
data_ov073_021648ac kind:bss addr:0x021648ac
_ZN15ProfileInstanceI19ActorProfileUnkDGPCE8sProfileE kind:bss addr:0x021648b8
