_ZN19ActorProfileUnkSTLF10GetProfileEv kind:function(arm,size=0xc) addr:0x02125280
_ZN19ActorProfileUnkSTLF6CreateEv kind:function(arm,size=0x24) addr:0x0212528c
_ZN19ActorProfileUnkSTLFC1Ev kind:function(arm,size=0x50) addr:0x021252b0
_ZN12ActorUnkSTLFC1Ev kind:function(arm,size=0x1f4) addr:0x02125300
_ZN12ActorUnkSTLF19func_ov043_02123734Ev kind:function(arm,size=0x14) addr:0x021254f4
_ZN12ActorUnkSTLFD1Ev kind:function(arm,size=0x60) addr:0x02125508
_ZN12ActorUnkSTLFD0Ev kind:function(arm,size=0x68) addr:0x02125568
_ZN12ActorUnkSTLF19func_ov043_02123810Ev kind:function(arm,size=0xf0) addr:0x021255d0
_ZN12ActorUnkSTLF19func_ov043_02123900Ev kind:function(arm,size=0x70) addr:0x021256c0
_ZN12ActorUnkSTLF19func_ov043_02123970Ev kind:function(arm,size=0x24) addr:0x02125730
_ZN12ActorUnkSTLF19func_ov043_02123994Ev kind:function(arm,size=0x94) addr:0x02125754
_ZN12ActorUnkSTLF19func_ov043_02123a28Ev kind:function(arm,size=0x2c8) addr:0x021257e8
_ZN12ActorUnkSTLF19func_ov043_02123cf0Ev kind:function(arm,size=0xb8) addr:0x02125ab0
_ZN12ActorUnkSTLF19func_ov043_02123da8Ev kind:function(arm,size=0x80) addr:0x02125b68
_ZN12ActorUnkSTLF19func_ov043_02123e28Ev kind:function(arm,size=0x68) addr:0x02125be8
_ZN12ActorUnkSTLF19func_ov043_02123e90Ev kind:function(arm,size=0xc0) addr:0x02125c50
_ZN12ActorUnkSTLF19func_ov043_02123f50Ev kind:function(arm,size=0x54) addr:0x02125d10
_ZN12ActorUnkSTLF19func_ov043_02123fa4Ev kind:function(arm,size=0x80) addr:0x02125d64
_ZN12ActorUnkSTLF19func_ov043_02124024Ev kind:function(arm,size=0x124) addr:0x02125de4
_ZN12ActorUnkSTLF19func_ov043_02124148Ev kind:function(arm,size=0xd8) addr:0x02125f08
_ZN12ActorUnkSTLF19func_ov043_02124220Ev kind:function(arm,size=0x104) addr:0x02125fe0
_ZN12ActorUnkSTLF19func_ov043_02124324Ev kind:function(arm,size=0x10) addr:0x021260e4
_ZN12ActorUnkSTLF19func_ov043_02124334Ev kind:function(arm,size=0x8c) addr:0x021260f4
_ZN12ActorUnkSTLF19func_ov043_021243c0Ev kind:function(arm,size=0xcc) addr:0x02126180
_ZN12ActorUnkSTLF19func_ov043_0212448cEv kind:function(arm,size=0xb8) addr:0x0212624c
_ZN12ActorUnkSTLF19func_ov043_02124544Ev kind:function(arm,size=0x80) addr:0x02126304
_ZN12ActorUnkSTLF19func_ov043_021245c4Ev kind:function(arm,size=0x8c) addr:0x02126384
_ZN12ActorUnkSTLF19func_ov043_02124650Ev kind:function(arm,size=0x7c) addr:0x02126410
_ZN12ActorUnkSTLF19func_ov043_021246ccEv kind:function(arm,size=0x84) addr:0x0212648c
_ZN12ActorUnkSTLF19func_ov043_02124750Ev kind:function(arm,size=0xd8) addr:0x02126510
_ZN12ActorUnkSTLF19func_ov043_02124828Ev kind:function(arm,size=0x120) addr:0x021265e8
_ZN12ActorUnkSTLF19func_ov043_02124948Ev kind:function(arm,size=0x214) addr:0x02126708
_ZN12ActorUnkSTLF19func_ov043_02124b5cEv kind:function(arm,size=0x98) addr:0x0212691c
_ZN12ActorUnkSTLF19func_ov043_02124bf4Ev kind:function(arm,size=0xf8) addr:0x021269b4
_ZN12ActorUnkSTLF19func_ov043_02124cecEv kind:function(arm,size=0x9c) addr:0x02126aac
_ZN12ActorUnkSTLF19func_ov043_02124d88Ev kind:function(arm,size=0x168) addr:0x02126b48
_ZN12ActorUnkSTLF19func_ov043_02124ef0Ev kind:function(arm,size=0x7c) addr:0x02126cb0
_ZN12ActorUnkSTLF19func_ov043_02124f6cEv kind:function(arm,size=0x158) addr:0x02126d2c
_ZN12ActorUnkSTLF19func_ov043_021250c4Ev kind:function(arm,size=0xfc) addr:0x02126e84
_ZN12ActorUnkSTLF19func_ov043_021251c0Ev kind:function(arm,size=0x48) addr:0x02126f80
_ZN12ActorUnkSTLF19func_ov043_02125208Ev kind:function(arm,size=0x18) addr:0x02126fc8
_ZN12ActorUnkSTLF19func_ov043_02125220Ev kind:function(arm,size=0x60) addr:0x02126fe0
_ZN12ActorUnkSTLF19func_ov043_02125280Ev kind:function(arm,size=0xdc) addr:0x02127040
_ZN12ActorUnkSTLF19func_ov043_0212535cEv kind:function(arm,size=0x84) addr:0x0212711c
_ZN12ActorUnkSTLF19func_ov043_021253e0Ev kind:function(arm,size=0x18) addr:0x021271a0
_ZN12ActorUnkSTLF19func_ov043_021253f8Ev kind:function(arm,size=0x88) addr:0x021271b8
_ZN12ActorUnkSTLF19func_ov043_02125480Ev kind:function(arm,size=0x134) addr:0x02127240
_ZN12ActorUnkSTLF19func_ov043_021255b4Ev kind:function(arm,size=0x14c) addr:0x02127374
_ZN12ActorUnkSTLF19func_ov043_02125700Ev kind:function(arm,size=0x128) addr:0x021274c0
_ZN12ActorUnkSTLF19func_ov043_02125828Ev kind:function(arm,size=0x94) addr:0x021275e8
_ZN12ActorUnkSTLF19func_ov043_021258bcEv kind:function(arm,size=0xe0) addr:0x0212767c
_ZN12ActorUnkSTLF19func_ov043_0212599cEv kind:function(arm,size=0x24) addr:0x0212775c
_ZN12ActorUnkSTLF19func_ov043_021259c0Ev kind:function(arm,size=0x74) addr:0x02127780
_ZN12ActorUnkSTLF19func_ov043_02125a34Ev kind:function(arm,size=0x9c) addr:0x021277f4
_ZN12ActorUnkSTLF19func_ov043_02125ad0Ev kind:function(arm,size=0x78) addr:0x02127890
_ZN12ActorUnkSTLF19func_ov043_02125b48Ev kind:function(arm,size=0x190) addr:0x02127908
_ZN12ActorUnkSTLF19func_ov043_02125cd8Ev kind:function(arm,size=0x18) addr:0x02127a98
_ZN12ActorUnkSTLF19func_ov043_02125cf0Ev kind:function(arm,size=0x3b0) addr:0x02127ab0
_ZN12ActorUnkSTLF19func_ov043_021260a0Ev kind:function(arm,size=0x68) addr:0x02127e60
_ZN12ActorUnkSTLF19func_ov043_02126108Ev kind:function(arm,size=0x28) addr:0x02127ec8
_ZN12ActorUnkSTLF19func_ov043_02126130Ev kind:function(arm,size=0xe8) addr:0x02127ef0
_ZN12ActorUnkSTLF19func_ov043_02126218Ev kind:function(arm,size=0x18) addr:0x02127fd8
_ZN12ActorUnkSTLF19func_ov043_02126230Ev kind:function(arm,size=0x30) addr:0x02127ff0
_ZN12ActorUnkSTLF19func_ov043_02126260Ev kind:function(arm,size=0x94) addr:0x02128020
_ZN12ActorUnkSTLF19func_ov043_021262f4Ev kind:function(arm,size=0x1ac) addr:0x021280b4
_ZN12ActorUnkSTLF19func_ov043_021264a0Ev kind:function(arm,size=0x1f8) addr:0x02128260
_ZN12ActorUnkSTLF19func_ov043_02126698Ev kind:function(arm,size=0x24) addr:0x02128458
_ZN12ActorUnkSTLF19func_ov043_021266bcEv kind:function(arm,size=0x2c) addr:0x0212847c
_ZN12ActorUnkSTLF19func_ov043_021266e8Ev kind:function(arm,size=0x1c) addr:0x021284a8
_ZN19ActorProfileUnkSTLFD1Ev kind:function(arm,size=0x14) addr:0x021284c4
_ZN19ActorProfileUnkSTFH10GetProfileEv kind:function(arm,size=0xc) addr:0x021284d8
_ZN19ActorProfileUnkSTFH6CreateEv kind:function(arm,size=0x24) addr:0x021284e4
_ZN19ActorProfileUnkSTFHC1Ev kind:function(arm,size=0x64) addr:0x02128508
_ZN12ActorUnkSTFH19func_ov043_021267acEv kind:function(arm,size=0x34) addr:0x0212856c
_ZN12ActorUnkSTFH19func_ov043_021267e0Ev kind:function(arm,size=0x3c) addr:0x021285a0
_ZN12ActorUnkSTFH19func_ov043_0212681cEv kind:function(arm,size=0x20) addr:0x021285dc
_ZN12ActorUnkSTFH19func_ov043_0212683cEv kind:function(arm,size=0x24) addr:0x021285fc
_ZN12ActorUnkSTFHC1Ev kind:function(arm,size=0x260) addr:0x02128620
_ZN12ActorUnkSTFH19func_ov043_02126ac0Ev kind:function(arm,size=0x14) addr:0x02128880
_ZN12ActorUnkSTFH19func_ov043_02126ad4Ev kind:function(arm,size=0x14) addr:0x02128894
_ZN12ActorUnkSTFH19func_ov043_02126ae8Ev kind:function(arm,size=0x50) addr:0x021288a8
_ZN12ActorUnkSTFH19func_ov043_02126b38Ev kind:function(arm,size=0x30) addr:0x021288f8
_ZN12ActorUnkSTFH19func_ov043_02126b68Ev kind:function(arm,size=0x94) addr:0x02128928
_ZN12ActorUnkSTFH19func_ov043_02126bfcEv kind:function(arm,size=0x84) addr:0x021289bc
_ZN12ActorUnkSTFH19func_ov043_02126c80Ev kind:function(arm,size=0x6c) addr:0x02128a40
_ZN12ActorUnkSTFH19func_ov043_02126cecEv kind:function(arm,size=0x28) addr:0x02128aac
_ZN12ActorUnkSTFH19func_ov043_02126d14Ev kind:function(arm,size=0x84) addr:0x02128ad4
_ZN12ActorUnkSTFH19func_ov043_02126d98Ev kind:function(arm,size=0xd4) addr:0x02128b58
_ZN12ActorUnkSTFH19func_ov043_02126e6cEv kind:function(arm,size=0xec) addr:0x02128c2c
_ZN12ActorUnkSTFH19func_ov043_02126f58Ev kind:function(arm,size=0x100) addr:0x02128d18
_ZN12ActorUnkSTFH19func_ov043_02127058Ev kind:function(arm,size=0x4) addr:0x02128e18
_ZN12ActorUnkSTFH19func_ov043_0212705cEv kind:function(arm,size=0x4c) addr:0x02128e1c
_ZN12ActorUnkSTFH19func_ov043_021270a8Ev kind:function(arm,size=0x4) addr:0x02128e68
_ZN12ActorUnkSTFH19func_ov043_021270acEv kind:function(arm,size=0x44) addr:0x02128e6c
_ZN12ActorUnkSTFH19func_ov043_021270f0Ev kind:function(arm,size=0x94) addr:0x02128eb0
_ZN12ActorUnkSTFH19func_ov043_02127184Ev kind:function(arm,size=0x98) addr:0x02128f44
_ZN12ActorUnkSTFH19func_ov043_0212721cEv kind:function(arm,size=0x8c) addr:0x02128fdc
_ZN12ActorUnkSTFH19func_ov043_021272a8Ev kind:function(arm,size=0x19c) addr:0x02129068
_ZN12ActorUnkSTFH19func_ov043_02127444Ev kind:function(arm,size=0x7c) addr:0x02129204
_ZN12ActorUnkSTFH19func_ov043_021274c0Ev kind:function(arm,size=0xd4) addr:0x02129280
_ZN12ActorUnkSTFH19func_ov043_02127594Ev kind:function(arm,size=0xac) addr:0x02129354
_ZN12ActorUnkSTFH19func_ov043_02127640Ev kind:function(arm,size=0x138) addr:0x02129400
_ZN12ActorUnkSTFH19func_ov043_02127778Ev kind:function(arm,size=0x90) addr:0x02129538
_ZN12ActorUnkSTFH19func_ov043_02127808Ev kind:function(arm,size=0xb4) addr:0x021295c8
_ZN12ActorUnkSTFH19func_ov043_021278bcEv kind:function(arm,size=0xc0) addr:0x0212967c
_ZN12ActorUnkSTFH19func_ov043_0212797cEv kind:function(arm,size=0x98) addr:0x0212973c
_ZN12ActorUnkSTFH19func_ov043_02127a14Ev kind:function(arm,size=0x24) addr:0x021297d4
_ZN12ActorUnkSTFH19func_ov043_02127a38Ev kind:function(arm,size=0x8c) addr:0x021297f8
_ZN12ActorUnkSTFH19func_ov043_02127ac4Ev kind:function(arm,size=0x9c) addr:0x02129884
_ZN12ActorUnkSTFH19func_ov043_02127b60Ev kind:function(arm,size=0x148) addr:0x02129920
_ZN12ActorUnkSTFH19func_ov043_02127ca8Ev kind:function(arm,size=0xac) addr:0x02129a68
_ZN12ActorUnkSTFH19func_ov043_02127d54Ev kind:function(arm,size=0x24) addr:0x02129b14
_ZN12ActorUnkSTFH19func_ov043_02127d78Ev kind:function(arm,size=0x60) addr:0x02129b38
_ZN12ActorUnkSTFH19func_ov043_02127dd8Ev kind:function(arm,size=0x2c) addr:0x02129b98
_ZN12ActorUnkSTFH19func_ov043_02127e04Ev kind:function(arm,size=0xd8) addr:0x02129bc4
_ZN12ActorUnkSTFH19func_ov043_02127edcEv kind:function(arm,size=0x10) addr:0x02129c9c
_ZN12ActorUnkSTFH19func_ov043_02127eecEv kind:function(arm,size=0x64) addr:0x02129cac
_ZN12ActorUnkSTFH19func_ov043_02127f50Ev kind:function(arm,size=0x1fc) addr:0x02129d10
_ZN12ActorUnkSTFH19func_ov043_0212814cEv kind:function(arm,size=0x44) addr:0x02129f0c
_ZN12ActorUnkSTFH19func_ov043_02128190Ev kind:function(arm,size=0xa8) addr:0x02129f50
_ZN12ActorUnkSTFH19func_ov043_02128238Ev kind:function(arm,size=0x24) addr:0x02129ff8
_ZN12ActorUnkSTFH19func_ov043_0212825cEv kind:function(arm,size=0x10) addr:0x0212a01c
_ZN12ActorUnkSTFH19func_ov043_0212826cEv kind:function(arm,size=0x8) addr:0x0212a02c
_ZN12ActorUnkSTFHD0Ev kind:function(arm,size=0x1c) addr:0x0212a034
_ZN12ActorUnkSTFH19func_ov043_02128290Ev kind:function(arm,size=0x1c) addr:0x0212a050
_ZN12ActorUnkSTFHD1Ev kind:function(arm,size=0x40) addr:0x0212a06c
_ZN12ActorUnkSTFH19func_ov043_021282ecEv kind:function(arm,size=0x48) addr:0x0212a0ac
_ZN19ActorProfileUnkSTFHD1Ev kind:function(arm,size=0x14) addr:0x0212a0f4
_ZN19ActorProfileUnkSTFB10GetProfileEv kind:function(arm,size=0xc) addr:0x0212a108
_ZN19ActorProfileUnkSTFB6CreateEv kind:function(arm,size=0x24) addr:0x0212a114
_ZN19ActorProfileUnkSTFBC1Ev kind:function(arm,size=0x50) addr:0x0212a138
_ZN12ActorUnkSTFB19func_ov043_021283c8Ev kind:function(arm,size=0x48) addr:0x0212a188
_ZN12ActorUnkSTFB19func_ov043_02128410Ev kind:function(arm,size=0x14) addr:0x0212a1d0
_ZN12ActorUnkSTFBC1Ev kind:function(arm,size=0x10c) addr:0x0212a1e4
_ZN12ActorUnkSTFB19func_ov043_02128530Ev kind:function(arm,size=0x14) addr:0x0212a2f0
_ZN12ActorUnkSTFB19func_ov043_02128544Ev kind:function(arm,size=0x3c) addr:0x0212a304
_ZN12ActorUnkSTFB19func_ov043_02128580Ev kind:function(arm,size=0x1fc) addr:0x0212a340
_ZN12ActorUnkSTFB19func_ov043_0212877cEv kind:function(arm,size=0x7c) addr:0x0212a53c
_ZN12ActorUnkSTFB19func_ov043_021287f8Ev kind:function(arm,size=0xf0) addr:0x0212a5b8
_ZN12ActorUnkSTFB19func_ov043_021288e8Ev kind:function(arm,size=0x6c) addr:0x0212a6a8
_ZN12ActorUnkSTFB19func_ov043_02128954Ev kind:function(arm,size=0x68) addr:0x0212a714
_ZN12ActorUnkSTFBD0Ev kind:function(arm,size=0x1c) addr:0x0212a77c
_ZN12ActorUnkSTFBD1Ev kind:function(arm,size=0x30) addr:0x0212a798
_ZN12ActorUnkSTFB19func_ov043_02128a08Ev kind:function(arm,size=0x38) addr:0x0212a7c8
_ZN19ActorProfileUnkSTFBD1Ev kind:function(arm,size=0x14) addr:0x0212a800
func_ov043_0212a814 kind:function(thumb,size=0x24) addr:0x0212a814
func_ov043_0212a838 kind:function(thumb,size=0x38) addr:0x0212a838
func_ov043_0212a870 kind:function(thumb,size=0x28) addr:0x0212a870
_ZN19ActorProfileUnkSHDL10GetProfileEv kind:function(thumb,size=0x8) addr:0x0212a898
_ZN19ActorProfileUnkSHDL6CreateEv kind:function(thumb,size=0x1c) addr:0x0212a8a0
_ZN19ActorProfileUnkSHDLC1Ev kind:function(thumb,size=0x48) addr:0x0212a8bc
_ZN12ActorUnkSHDL19func_ov043_02128b44Ev kind:function(thumb,size=0x250) addr:0x0212a904
_ZN12ActorUnkSHDL19func_ov043_02128d94Ev kind:function(thumb,size=0x32c) addr:0x0212ab54
_ZN12ActorUnkSHDL19func_ov043_021290c0Ev kind:function(thumb,size=0x170) addr:0x0212ae80
_ZN12ActorUnkSHDL19func_ov043_02129230Ev kind:function(thumb,size=0x23c) addr:0x0212aff0
_ZN12ActorUnkSHDL19func_ov043_0212946cEv kind:function(thumb,size=0x44) addr:0x0212b22c
_ZN12ActorUnkSHDLC1Ev kind:function(thumb,size=0x164) addr:0x0212b270
_ZN12ActorUnkSHDL19func_ov043_02129614Ev kind:function(thumb,size=0x7c) addr:0x0212b3d4
_ZN12ActorUnkSHDLD0Ev kind:function(thumb,size=0x80) addr:0x0212b450
_ZN12ActorUnkSHDL19func_ov043_02129710Ev kind:function(thumb,size=0x14) addr:0x0212b4d0
_ZN12ActorUnkSHDL19func_ov043_02129724Ev kind:function(thumb,size=0xb0) addr:0x0212b4e4
_ZN12ActorUnkSHDL19func_ov043_021297d4Ev kind:function(thumb,size=0x2ec) addr:0x0212b594
_ZN12ActorUnkSHDL19func_ov043_02129ac0Ev kind:function(thumb,size=0x28) addr:0x0212b880
_ZN12ActorUnkSHDL19func_ov043_02129ae8Ev kind:function(thumb,size=0x10) addr:0x0212b8a8
_ZN12ActorUnkSHDL19func_ov043_02129af8Ev kind:function(thumb,size=0x9c) addr:0x0212b8b8
_ZN12ActorUnkSHDL19func_ov043_02129b94Ev kind:function(thumb,size=0x48) addr:0x0212b954
_ZN12ActorUnkSHDL19func_ov043_02129bdcEv kind:function(thumb,size=0x198) addr:0x0212b99c
_ZN12ActorUnkSHDL19func_ov043_02129d74Ev kind:function(thumb,size=0x5c) addr:0x0212bb34
_ZN12ActorUnkSHDL19func_ov043_02129dd0Ev kind:function(thumb,size=0x20) addr:0x0212bb90
_ZN12ActorUnkSHDL19func_ov043_02129df0Ev kind:function(thumb,size=0x50) addr:0x0212bbb0
_ZN12ActorUnkSHDL19func_ov043_02129e40Ev kind:function(thumb,size=0xb8) addr:0x0212bc00
_ZN12ActorUnkSHDL19func_ov043_02129ef8Ev kind:function(thumb,size=0x1b0) addr:0x0212bcb8
_ZN12ActorUnkSHDL19func_ov043_0212a0a8Ev kind:function(thumb,size=0x68) addr:0x0212be68
_ZN12ActorUnkSHDL19func_ov043_0212a110Ev kind:function(thumb,size=0x16c) addr:0x0212bed0
_ZN12ActorUnkSHDL19func_ov043_0212a27cEv kind:function(thumb,size=0x36) addr:0x0212c03c
_ZN12ActorUnkSHDL19func_ov043_0212a2b4Ev kind:function(thumb,size=0x4c) addr:0x0212c074
_ZN12ActorUnkSHDL19func_ov043_0212a300Ev kind:function(thumb,size=0xfc) addr:0x0212c0c0
_ZN12ActorUnkSHDL19func_ov043_0212a3fcEv kind:function(thumb,size=0x2c) addr:0x0212c1bc
_ZN12ActorUnkSHDL19func_ov043_0212a428Ev kind:function(thumb,size=0x7c) addr:0x0212c1e8
_ZN12ActorUnkSHDL19func_ov043_0212a4a4Ev kind:function(thumb,size=0xd8) addr:0x0212c264
_ZN12ActorUnkSHDL19func_ov043_0212a57cEv kind:function(thumb,size=0xc) addr:0x0212c33c
_ZN12ActorUnkSHDL19func_ov043_0212a588Ev kind:function(thumb,size=0x18) addr:0x0212c348
_ZN12ActorUnkSHDL19func_ov043_0212a5a0Ev kind:function(thumb,size=0x7c) addr:0x0212c360
_ZN12ActorUnkSHDL19func_ov043_0212a61cEv kind:function(thumb,size=0x60) addr:0x0212c3dc
_ZN12ActorUnkSHDL19func_ov043_0212a67cEv kind:function(thumb,size=0xa0) addr:0x0212c43c
_ZN12ActorUnkSHDL19func_ov043_0212a6ecEv kind:function(thumb,size=0x30) addr:0x0212c4dc
_ZN12ActorUnkSHDL19func_ov043_0212a71cEv kind:function(thumb,size=0x4c) addr:0x0212c50c
_ZN12ActorUnkSHDL19func_ov043_0212a768Ev kind:function(thumb,size=0xcc) addr:0x0212c558
_ZN12ActorUnkSHDL19func_ov043_0212a834Ev kind:function(thumb,size=0x88) addr:0x0212c624
_ZN12ActorUnkSHDL19func_ov043_0212a8bcEv kind:function(thumb,size=0x38) addr:0x0212c6ac
_ZN12ActorUnkSHDL19func_ov043_0212a8f4Ev kind:function(thumb,size=0x60) addr:0x0212c6e4
_ZN12ActorUnkSHDL19func_ov043_0212a954Ev kind:function(thumb,size=0x38) addr:0x0212c744
_ZN12ActorUnkSHDL19func_ov043_0212a98cEv kind:function(thumb,size=0x298) addr:0x0212c77c
_ZN12ActorUnkSHDL19func_ov043_0212ac24Ev kind:function(thumb,size=0x45c) addr:0x0212ca14
_ZN12ActorUnkSHDL19func_ov043_0212b080Ev kind:function(thumb,size=0x348) addr:0x0212ce70
_ZN12ActorUnkSHDL19func_ov043_0212b3c8Ev kind:function(thumb,size=0xf8) addr:0x0212d1b8
_ZN12ActorUnkSHDL19func_ov043_0212b4c0Ev kind:function(thumb,size=0x84) addr:0x0212d2b0
_ZN12ActorUnkSHDL19func_ov043_0212b544Ev kind:function(thumb,size=0xb4) addr:0x0212d334
_ZN12ActorUnkSHDL19func_ov043_0212b5f8Ev kind:function(thumb,size=0x9c) addr:0x0212d3e8
_ZN12ActorUnkSHDL19func_ov043_0212b694Ev kind:function(thumb,size=0x5c) addr:0x0212d484
_ZN12ActorUnkSHDL19func_ov043_0212b6f0Ev kind:function(thumb,size=0x7c) addr:0x0212d4e0
_ZN12ActorUnkSHDL19func_ov043_0212b76cEv kind:function(thumb,size=0xa8) addr:0x0212d55c
_ZN12ActorUnkSHDL19func_ov043_0212b814Ev kind:function(thumb,size=0x40) addr:0x0212d604
_ZN12ActorUnkSHDL19func_ov043_0212b854Ev kind:function(thumb,size=0x44) addr:0x0212d644
_ZN12ActorUnkSHDL19func_ov043_0212b898Ev kind:function(thumb,size=0x80) addr:0x0212d688
_ZN12ActorUnkSHDL19func_ov043_0212b918Ev kind:function(thumb,size=0x30) addr:0x0212d708
_ZN12ActorUnkSHDL19func_ov043_0212b948Ev kind:function(thumb,size=0x2a) addr:0x0212d738
_ZN12ActorUnkSHDL19func_ov043_0212b974Ev kind:function(thumb,size=0x118) addr:0x0212d764
_ZN12ActorUnkSHDL19func_ov043_0212ba8cEv kind:function(thumb,size=0x2b8) addr:0x0212d87c
_ZN12ActorUnkSHDL19func_ov043_0212bd44Ev kind:function(thumb,size=0x50) addr:0x0212db34
_ZN12ActorUnkSHDL19func_ov043_0212bd94Ev kind:function(thumb,size=0x78) addr:0x0212db84
_ZN12ActorUnkSHDL19func_ov043_0212be0cEv kind:function(thumb,size=0x80) addr:0x0212dbfc
_ZN12ActorUnkSHDL19func_ov043_0212be8cEv kind:function(thumb,size=0x130) addr:0x0212dc7c
_ZN12ActorUnkSHDL19func_ov043_0212bfbcEv kind:function(thumb,size=0x3c) addr:0x0212ddac
_ZN12ActorUnkSHDL19func_ov043_0212bff8Ev kind:function(thumb,size=0x90) addr:0x0212dde8
_ZN12ActorUnkSHDL19func_ov043_0212c088Ev kind:function(thumb,size=0x7c) addr:0x0212de78
_ZN12ActorUnkSHDL19func_ov043_0212c104Ev kind:function(thumb,size=0x3c) addr:0x0212def4
_ZN12ActorUnkSHDL19func_ov043_0212c140Ev kind:function(thumb,size=0x7c) addr:0x0212df30
_ZN12ActorUnkSHDL19func_ov043_0212c1bcEv kind:function(thumb,size=0xd8) addr:0x0212dfac
_ZN12ActorUnkSHDL19func_ov043_0212c294Ev kind:function(thumb,size=0x114) addr:0x0212e084
_ZN12ActorUnkSHDL19func_ov043_0212c3a8Ev kind:function(thumb,size=0xf0) addr:0x0212e198
_ZN12ActorUnkSHDL19func_ov043_0212c498Ev kind:function(thumb,size=0x12c) addr:0x0212e288
_ZN12ActorUnkSHDL19func_ov043_0212c5c4Ev kind:function(thumb,size=0xf0) addr:0x0212e3b4
_ZN12ActorUnkSHDL19func_ov043_0212c6b4Ev kind:function(thumb,size=0x6c) addr:0x0212e4a4
_ZN12ActorUnkSHDL19func_ov043_0212c720Ev kind:function(thumb,size=0x8c) addr:0x0212e510
_ZN12ActorUnkSHDL19func_ov043_0212c7acEv kind:function(thumb,size=0x98) addr:0x0212e59c
_ZN12ActorUnkSHDL19func_ov043_0212c844Ev kind:function(thumb,size=0x48) addr:0x0212e634
_ZN12ActorUnkSHDL19func_ov043_0212c88cEv kind:function(thumb,size=0xc0) addr:0x0212e67c
_ZN12ActorUnkSHDL19func_ov043_0212c94cEv kind:function(thumb,size=0x98) addr:0x0212e73c
_ZN19ActorProfileUnkSHDLD1Ev kind:function(arm,size=0x20) addr:0x0212e7d4
data_ov043_0212e7f4 kind:data(any) addr:0x0212e7f4
data_ov043_0212e7f8 kind:data(any) addr:0x0212e7f8
data_ov043_0212e808 kind:data(any) addr:0x0212e808
data_ov043_0212e818 kind:data(any) addr:0x0212e818
data_ov043_0212e824 kind:data(any) addr:0x0212e824
data_ov043_0212e828 kind:data(any) addr:0x0212e828
data_ov043_0212e838 kind:data(any) addr:0x0212e838
data_ov043_0212e860 kind:data(any) addr:0x0212e860
data_ov043_0212e870 kind:data(any) addr:0x0212e870
data_ov043_0212e872 kind:data(any) addr:0x0212e872
data_ov043_0212e874 kind:data(any) addr:0x0212e874
data_ov043_0212e876 kind:data(any) addr:0x0212e876
data_ov043_0212e878 kind:data(any) addr:0x0212e878
data_ov043_0212e87a kind:data(any) addr:0x0212e87a
data_ov043_0212e87c kind:data(any) addr:0x0212e87c
data_ov043_0212e880 kind:data(any) addr:0x0212e880
data_ov043_0212e881 kind:data(any) addr:0x0212e881
__sinit_ActorUnkSTLF.cpp kind:function(arm,size=0x100) addr:0x0212e938
__sinit_ActorUnkSTFH.cpp kind:function(arm,size=0xe0) addr:0x0212ea38
__sinit_ActorUnkSTFB.cpp kind:function(arm,size=0x50) addr:0x0212eb18
__sinit_ActorUnkSHDL.cpp kind:function(arm,size=0x78) addr:0x0212eb68
.p__sinit_ActorUnkSTLF.cpp kind:data(word) addr:0x0212ebe0
.p__sinit_ActorUnkSTFH.cpp kind:data(word) addr:0x0212ebe4
.p__sinit_ActorUnkSTFB.cpp kind:data(word) addr:0x0212ebe8
.p__sinit_ActorUnkSHDL.cpp kind:data(word) addr:0x0212ebec
_ZTV19data_ov043_0212ec00 kind:data(any) addr:0x0212ec00
data_ov043_0212ec2c kind:data(any) addr:0x0212ec2c
_ZTV19data_ov043_0212ec70 kind:data(any) addr:0x0212ec70
data_ov043_0212ecd0 kind:data(any) addr:0x0212ecd0
data_ov043_0212ece8 kind:data(any) addr:0x0212ece8
data_ov043_0212ed00 kind:data(any) addr:0x0212ed00
data_ov043_0212ed18 kind:data(any) addr:0x0212ed18
data_ov043_0212ed30 kind:data(any) addr:0x0212ed30
data_ov043_0212ed48 kind:data(any) addr:0x0212ed48
data_ov043_0212ed60 kind:data(any) addr:0x0212ed60
data_ov043_0212ed6c kind:data(any) addr:0x0212ed6c ambiguous
data_ov043_0212ed78 kind:data(any) addr:0x0212ed78
data_ov043_0212ed88 kind:data(any) addr:0x0212ed88
data_ov043_0212ee68 kind:data(any) addr:0x0212ee68 ambiguous
data_ov043_0212ef48 kind:data(any) addr:0x0212ef48
data_ov043_0212ef58 kind:data(any) addr:0x0212ef58
_ZTV19data_ov043_0212ef70 kind:data(any) addr:0x0212ef70
data_ov043_0212ef9c kind:data(any) addr:0x0212ef9c
data_ov043_0212efe4 kind:data(any) addr:0x0212efe4
_ZTV19data_ov043_0212f028 kind:data(any) addr:0x0212f028
data_ov043_0212f088 kind:data(any) addr:0x0212f088
data_ov043_0212f0a0 kind:data(any) addr:0x0212f0a0
data_ov043_0212f0b8 kind:data(any) addr:0x0212f0b8
data_ov043_0212f0d0 kind:data(any) addr:0x0212f0d0
data_ov043_0212f130 kind:data(any) addr:0x0212f130
data_ov043_0212f140 kind:data(any) addr:0x0212f140
data_ov043_0212f17c kind:data(any) addr:0x0212f17c ambiguous
data_ov043_0212f268 kind:data(any) addr:0x0212f268
data_ov043_0212f270 kind:data(any) addr:0x0212f270
data_ov043_0212f278 kind:data(any) addr:0x0212f278
data_ov043_0212f298 kind:data(any) addr:0x0212f298
_ZTV19data_ov043_0212f2ac kind:data(any) addr:0x0212f2ac
_ZTV19data_ov043_0212f2d0 kind:data(any) addr:0x0212f2d0
data_ov043_0212f32c kind:data(any) addr:0x0212f32c
data_ov043_0212f338 kind:data(any) addr:0x0212f338
data_ov043_0212f348 kind:data(any) addr:0x0212f348
data_ov043_0212f358 kind:data(any) addr:0x0212f358
data_ov043_0212f368 kind:data(any) addr:0x0212f368
data_ov043_0212f378 kind:data(any) addr:0x0212f378
data_ov043_0212f390 kind:data(any) addr:0x0212f390
data_ov043_0212f39c kind:data(any) addr:0x0212f39c
_ZTV19data_ov043_0212f3a4 kind:data(any) addr:0x0212f3a4
data_ov043_0212f3d0 kind:data(any) addr:0x0212f3d0
_ZTV19data_ov043_0212f3ec kind:data(any) addr:0x0212f3ec
data_ov043_0212f44c kind:data(any) addr:0x0212f44c
data_ov043_0212f5ac kind:data(any) addr:0x0212f5ac
data_ov043_0212f5c0 kind:data(any) addr:0x0212f5c0
data_ov043_0212f5c4 kind:data(any) addr:0x0212f5c4
data_ov043_0212f5c8 kind:data(any) addr:0x0212f5c8
data_ov043_0212f5cc kind:data(any) addr:0x0212f5cc
_ZGVN15ProfileInstanceI19ActorProfileUnkSTLFE8sProfileE kind:bss addr:0x0212f980
@31599 kind:bss addr:0x0212f98c
_ZN15ProfileInstanceI19ActorProfileUnkSTLFE8sProfileE kind:bss addr:0x0212f998
_ZGVN15ProfileInstanceI19ActorProfileUnkSTFHE8sProfileE kind:bss addr:0x0212fa70
@31605 kind:bss addr:0x0212fa74
_ZN15ProfileInstanceI19ActorProfileUnkSTFHE8sProfileE kind:bss addr:0x0212fa80
_ZGVN15ProfileInstanceI19ActorProfileUnkSTFBE8sProfileE kind:bss addr:0x0212fb58
@31611 kind:bss addr:0x0212fb5c
_ZN15ProfileInstanceI19ActorProfileUnkSTFBE8sProfileE kind:bss addr:0x0212fb68
_ZGVN15ProfileInstanceI19ActorProfileUnkSHDLE8sProfileE kind:bss addr:0x0212fbac
@31617 kind:bss addr:0x0212fbb4
_ZN15ProfileInstanceI19ActorProfileUnkSHDLE8sProfileE kind:bss addr:0x0212fbc0
data_ov043_0212fc00 kind:bss addr:0x0212fc00
data_ov043_0212fc40 kind:bss addr:0x0212fc40
