_ZN19ActorProfileUnkSZRD10GetProfileEv kind:function(arm,size=0xc) addr:0x021658a0
_ZN19ActorProfileUnkSZRD6CreateEv kind:function(arm,size=0x28) addr:0x021658ac
_ZN19ActorProfileUnkSZRDC1Ev kind:function(arm,size=0x68) addr:0x021658d4
_ZN12ActorUnkSZRD19func_ov090_0216593cEv kind:function(arm,size=0x18) addr:0x0216593c
_ZN12ActorUnkSZRD19func_ov090_02165954Ev kind:function(arm,size=0x28) addr:0x02165954
_ZN12ActorUnkSZRD19func_ov090_0216597cEv kind:function(arm,size=0x68) addr:0x0216597c
_ZN12ActorUnkSZRD19func_ov090_021659e4Ev kind:function(arm,size=0x24) addr:0x021659e4
_ZN12ActorUnkSZRD19func_ov090_02165a08Ev kind:function(arm,size=0x7c) addr:0x02165a08
_ZN12ActorUnkSZRD19func_ov090_02165a84Ev kind:function(arm,size=0x28) addr:0x02165a84
_ZN12ActorUnkSZRD19func_ov090_02165aacEv kind:function(arm,size=0x2c) addr:0x02165aac
_ZN12ActorUnkSZRDC1Ev kind:function(arm,size=0x314) addr:0x02165ad8
_ZN12ActorUnkSZRD19func_ov090_02165decEv kind:function(arm,size=0x14) addr:0x02165dec
_ZN12ActorUnkSZRD19func_ov090_02165e00Ev kind:function(arm,size=0x14) addr:0x02165e00
_ZN12ActorUnkSZRDD1Ev kind:function(arm,size=0x7c) addr:0x02165e14
_ZN12ActorUnkSZRDD0Ev kind:function(arm,size=0x84) addr:0x02165e90
_ZN12ActorUnkSZRD19func_ov090_02165f14Ev kind:function(arm,size=0x1d4) addr:0x02165f14
_ZN12ActorUnkSZRD19func_ov090_021660e8Ev kind:function(arm,size=0xa4) addr:0x021660e8
_ZN12ActorUnkSZRD19func_ov090_0216618cEv kind:function(arm,size=0x198) addr:0x0216618c
_ZN12ActorUnkSZRD19func_ov090_02166324Ev kind:function(arm,size=0xa4) addr:0x02166324
_ZN12ActorUnkSZRD19func_ov090_021663c8Ev kind:function(arm,size=0xe0) addr:0x021663c8
_ZN12ActorUnkSZRD19func_ov090_021664a8Ev kind:function(arm,size=0x50) addr:0x021664a8
_ZN12ActorUnkSZRD19func_ov090_021664f8Ev kind:function(arm,size=0xd4) addr:0x021664f8
_ZN12ActorUnkSZRD19func_ov090_021665ccEv kind:function(arm,size=0xdc) addr:0x021665cc
_ZN12ActorUnkSZRD19func_ov090_021666a8Ev kind:function(arm,size=0x1c4) addr:0x021666a8
_ZN12ActorUnkSZRD19func_ov090_0216686cEv kind:function(arm,size=0x9c) addr:0x0216686c
_ZN12ActorUnkSZRD19func_ov090_02166908Ev kind:function(arm,size=0x1d0) addr:0x02166908
_ZN12ActorUnkSZRD19func_ov090_02166ad8Ev kind:function(arm,size=0x78) addr:0x02166ad8
_ZN12ActorUnkSZRD19func_ov090_02166b50Ev kind:function(arm,size=0x144) addr:0x02166b50
_ZN12ActorUnkSZRD19func_ov090_02166c94Ev kind:function(arm,size=0x70) addr:0x02166c94
_ZN12ActorUnkSZRD19func_ov090_02166d04Ev kind:function(arm,size=0x20c) addr:0x02166d04
_ZN12ActorUnkSZRD19func_ov090_02166f10Ev kind:function(arm,size=0xc) addr:0x02166f10
_ZN12ActorUnkSZRD19func_ov090_02166f1cEv kind:function(arm,size=0x5c) addr:0x02166f1c
_ZN12ActorUnkSZRD19func_ov090_02166f78Ev kind:function(arm,size=0xe0) addr:0x02166f78
_ZN12ActorUnkSZRD19func_ov090_02167058Ev kind:function(arm,size=0x1dc) addr:0x02167058
_ZN12ActorUnkSZRD19func_ov090_02167234Ev kind:function(arm,size=0x58) addr:0x02167234
_ZN12ActorUnkSZRD19func_ov090_0216728cEv kind:function(arm,size=0x610) addr:0x0216728c
_ZN12ActorUnkSZRD19func_ov090_0216789cEv kind:function(arm,size=0xc) addr:0x0216789c
_ZN12ActorUnkSZRD19func_ov090_021678a8Ev kind:function(arm,size=0x168) addr:0x021678a8
_ZN12ActorUnkSZRD19func_ov090_02167a10Ev kind:function(arm,size=0x94) addr:0x02167a10
_ZN12ActorUnkSZRD19func_ov090_02167aa4Ev kind:function(arm,size=0x138) addr:0x02167aa4
_ZN12ActorUnkSZRD19func_ov090_02167bdcEv kind:function(arm,size=0x358) addr:0x02167bdc
_ZN12ActorUnkSZRD19func_ov090_02167f34Ev kind:function(arm,size=0x10) addr:0x02167f34
_ZN12ActorUnkSZRD19func_ov090_02167f44Ev kind:function(arm,size=0x434) addr:0x02167f44
_ZN12ActorUnkSZRD19func_ov090_02168378Ev kind:function(arm,size=0x14) addr:0x02168378
_ZN12ActorUnkSZRD19func_ov090_0216838cEv kind:function(arm,size=0x38) addr:0x0216838c
_ZN12ActorUnkSZRD19func_ov090_021683c4Ev kind:function(arm,size=0xd0) addr:0x021683c4
_ZN12ActorUnkSZRD19func_ov090_02168494Ev kind:function(arm,size=0x28) addr:0x02168494
_ZN12ActorUnkSZRD19func_ov090_021684bcEv kind:function(arm,size=0x74) addr:0x021684bc
_ZN12ActorUnkSZRD19func_ov090_02168530Ev kind:function(arm,size=0x4c) addr:0x02168530
_ZN12ActorUnkSZRD19func_ov090_0216857cEv kind:function(arm,size=0x2c) addr:0x0216857c
_ZN12ActorUnkSZRD19func_ov090_021685a8Ev kind:function(arm,size=0x94) addr:0x021685a8
_ZN12ActorUnkSZRD19func_ov090_0216863cEv kind:function(arm,size=0x18) addr:0x0216863c
_ZN12ActorUnkSZRD19func_ov090_02168654Ev kind:function(arm,size=0xc4) addr:0x02168654
_ZN12ActorUnkSZRD19func_ov090_02168718Ev kind:function(arm,size=0x90) addr:0x02168718
_ZN12ActorUnkSZRD19func_ov090_021687a8Ev kind:function(arm,size=0x190) addr:0x021687a8
_ZN12ActorUnkSZRD19func_ov090_02168938Ev kind:function(arm,size=0x13c) addr:0x02168938
_ZN12ActorUnkSZRD19func_ov090_02168a74Ev kind:function(arm,size=0x24) addr:0x02168a74
_ZN12ActorUnkSZRD19func_ov090_02168a98Ev kind:function(arm,size=0x10) addr:0x02168a98
_ZN12ActorUnkSZRD19func_ov090_02168aa8Ev kind:function(arm,size=0x8) addr:0x02168aa8
_ZN12ActorUnkSZRD19func_ov090_02168ab0Ev kind:function(arm,size=0x24) addr:0x02168ab0
_ZN12ActorUnkSZRD19func_ov090_02168ad4Ev kind:function(arm,size=0x2c) addr:0x02168ad4
_ZN12ActorUnkSZRD19func_ov090_02168b00Ev kind:function(arm,size=0x1c) addr:0x02168b00
_ZN12ActorUnkSZRD19func_ov090_02168b1cEv kind:function(arm,size=0x1c) addr:0x02168b1c
_ZN19ActorProfileUnkSZRDD1Ev kind:function(arm,size=0x14) addr:0x02168b38
_ZN19ActorProfileUnkWDBA10GetProfileEv kind:function(arm,size=0xc) addr:0x02168b4c
_ZN19ActorProfileUnkWDBA6CreateEv kind:function(arm,size=0x24) addr:0x02168b58
_ZN19ActorProfileUnkWDBAC1Ev kind:function(arm,size=0x70) addr:0x02168b7c
_ZN12ActorUnkWDBAC1Ev kind:function(arm,size=0x228) addr:0x02168bec
_ZN12ActorUnkWDBA19func_ov090_02168e14Ev kind:function(arm,size=0x294) addr:0x02168e14
_ZN12ActorUnkWDBA19func_ov090_021690a8Ev kind:function(arm,size=0x5c) addr:0x021690a8
_ZN12ActorUnkWDBA19func_ov090_02169104Ev kind:function(arm,size=0x4c) addr:0x02169104
_ZN12ActorUnkWDBA19func_ov090_02169150Ev kind:function(arm,size=0x394) addr:0x02169150
_ZN12ActorUnkWDBA19func_ov090_021694e4Ev kind:function(arm,size=0xec) addr:0x021694e4
_ZN12ActorUnkWDBA19func_ov090_021695d0Ev kind:function(arm,size=0x104) addr:0x021695d0
_ZN12ActorUnkWDBA19func_ov090_021696d4Ev kind:function(arm,size=0x10c) addr:0x021696d4
_ZN12ActorUnkWDBA19func_ov090_021697e0Ev kind:function(arm,size=0x180) addr:0x021697e0
_ZN12ActorUnkWDBA19func_ov090_02169960Ev kind:function(arm,size=0x158) addr:0x02169960
_ZN12ActorUnkWDBA19func_ov090_02169ab8Ev kind:function(arm,size=0x33c) addr:0x02169ab8
_ZN12ActorUnkWDBA19func_ov090_02169df4Ev kind:function(arm,size=0x140) addr:0x02169df4
_ZN12ActorUnkWDBA19func_ov090_02169f34Ev kind:function(arm,size=0x2a0) addr:0x02169f34
_ZN12ActorUnkWDBA19func_ov090_0216a1d4Ev kind:function(arm,size=0x90) addr:0x0216a1d4
_ZN12ActorUnkWDBA19func_ov090_0216a264Ev kind:function(arm,size=0x3ac) addr:0x0216a264
_ZN12ActorUnkWDBA19func_ov090_0216a610Ev kind:function(arm,size=0x4c) addr:0x0216a610
_ZN12ActorUnkWDBA19func_ov090_0216a65cEv kind:function(arm,size=0xb4) addr:0x0216a65c
_ZN12ActorUnkWDBA19func_ov090_0216a710Ev kind:function(arm,size=0x21c) addr:0x0216a710
_ZN12ActorUnkWDBA19func_ov090_0216a92cEv kind:function(arm,size=0x84) addr:0x0216a92c
_ZN12ActorUnkWDBA19func_ov090_0216a9b0Ev kind:function(arm,size=0x19c) addr:0x0216a9b0
_ZN12ActorUnkWDBA19func_ov090_0216ab4cEv kind:function(arm,size=0x54) addr:0x0216ab4c
_ZN12ActorUnkWDBA19func_ov090_0216aba0Ev kind:function(arm,size=0xd0) addr:0x0216aba0
_ZN12ActorUnkWDBA19func_ov090_0216ac70Ev kind:function(arm,size=0x70) addr:0x0216ac70
_ZN12ActorUnkWDBA19func_ov090_0216ace0Ev kind:function(arm,size=0x270) addr:0x0216ace0
_ZN12ActorUnkWDBA19func_ov090_0216af50Ev kind:function(arm,size=0x104) addr:0x0216af50
_ZN12ActorUnkWDBA19func_ov090_0216b054Ev kind:function(arm,size=0x300) addr:0x0216b054
_ZN12ActorUnkWDBA19func_ov090_0216b354Ev kind:function(arm,size=0x98) addr:0x0216b354
_ZN12ActorUnkWDBA19func_ov090_0216b3ecEv kind:function(arm,size=0x19c) addr:0x0216b3ec
_ZN12ActorUnkWDBA19func_ov090_0216b588Ev kind:function(arm,size=0x150) addr:0x0216b588
_ZN12ActorUnkWDBA19func_ov090_0216b6d8Ev kind:function(arm,size=0xdc) addr:0x0216b6d8
_ZN12ActorUnkWDBA19func_ov090_0216b7b4Ev kind:function(arm,size=0x8c) addr:0x0216b7b4
_ZN12ActorUnkWDBA19func_ov090_0216b840Ev kind:function(arm,size=0x4) addr:0x0216b840
_ZN12ActorUnkWDBA19func_ov090_0216b844Ev kind:function(arm,size=0xb1c) addr:0x0216b844
_ZN12ActorUnkWDBA19func_ov090_0216c360Ev kind:function(arm,size=0x220) addr:0x0216c360
_ZN12ActorUnkWDBA19func_ov090_0216c580Ev kind:function(arm,size=0xb0) addr:0x0216c580
_ZN12ActorUnkWDBA19func_ov090_0216c630Ev kind:function(arm,size=0xb8) addr:0x0216c630
_ZN12ActorUnkWDBA19func_ov090_0216c6e8Ev kind:function(arm,size=0xb8) addr:0x0216c6e8
_ZN12ActorUnkWDBA19func_ov090_0216c7a0Ev kind:function(arm,size=0x74) addr:0x0216c7a0
_ZN12ActorUnkWDBA19func_ov090_0216c814Ev kind:function(arm,size=0x160) addr:0x0216c814
_ZN12ActorUnkWDBA19func_ov090_0216c974Ev kind:function(arm,size=0x28) addr:0x0216c974
_ZN12ActorUnkWDBA19func_ov090_0216c99cEv kind:function(arm,size=0x2e4) addr:0x0216c99c
_ZN12ActorUnkWDBA19func_ov090_0216cc80Ev kind:function(arm,size=0x88) addr:0x0216cc80
_ZN12ActorUnkWDBA19func_ov090_0216cd08Ev kind:function(arm,size=0x4c) addr:0x0216cd08
_ZN12ActorUnkWDBA19func_ov090_0216cd54Ev kind:function(arm,size=0x28) addr:0x0216cd54
_ZN12ActorUnkWDBA19func_ov090_0216cd7cEv kind:function(arm,size=0x58) addr:0x0216cd7c
_ZN12ActorUnkWDBA19func_ov090_0216cdd4Ev kind:function(arm,size=0xa4) addr:0x0216cdd4
_ZN12ActorUnkWDBA19func_ov090_0216ce78Ev kind:function(arm,size=0x68) addr:0x0216ce78
_ZN12ActorUnkWDBA19func_ov090_0216cee0Ev kind:function(arm,size=0x3c) addr:0x0216cee0
_ZN12ActorUnkWDBA19func_ov090_0216cf1cEv kind:function(arm,size=0x88) addr:0x0216cf1c
_ZN12ActorUnkWDBA19func_ov090_0216cfa4Ev kind:function(arm,size=0xcc) addr:0x0216cfa4
_ZN12ActorUnkWDBA19func_ov090_0216d070Ev kind:function(arm,size=0x30) addr:0x0216d070
_ZN12ActorUnkWDBA19func_ov090_0216d0a0Ev kind:function(arm,size=0xd8) addr:0x0216d0a0
_ZN12ActorUnkWDBA19func_ov090_0216d178Ev kind:function(arm,size=0x1c8) addr:0x0216d178
_ZN12ActorUnkWDBA19func_ov090_0216d340Ev kind:function(arm,size=0xc0) addr:0x0216d340
_ZN12ActorUnkWDBA19func_ov090_0216d400Ev kind:function(arm,size=0x128) addr:0x0216d400
_ZN12ActorUnkWDBA19func_ov090_0216d528Ev kind:function(arm,size=0x28) addr:0x0216d528
_ZN12ActorUnkWDBAD1Ev kind:function(arm,size=0x1c) addr:0x0216d550
_ZN12ActorUnkWDBAD0Ev kind:function(arm,size=0x24) addr:0x0216d56c
_ZN12ActorUnkWDBA19func_ov090_0216d590Ev kind:function(arm,size=0x8) addr:0x0216d590
_ZN12ActorUnkWDBA19func_ov090_0216d598Ev kind:function(arm,size=0x2d4) addr:0x0216d598
_ZN12ActorUnkWDBA19func_ov090_0216d86cEv kind:function(arm,size=0x1fc) addr:0x0216d86c
_ZN12ActorUnkWDBA19func_ov090_0216da68Ev kind:function(arm,size=0x90) addr:0x0216da68
_ZN12ActorUnkWDBA19func_ov090_0216daf8Ev kind:function(arm,size=0x1a8) addr:0x0216daf8
_ZN12ActorUnkWDBA19func_ov090_0216dca0Ev kind:function(arm,size=0x38) addr:0x0216dca0
_ZN12ActorUnkWDBA19func_ov090_0216dcd8Ev kind:function(arm,size=0x40) addr:0x0216dcd8
_ZN19ActorProfileUnkWDBAD1Ev kind:function(arm,size=0x14) addr:0x0216dd18
_ZN19ActorProfileUnkWDRD10GetProfileEv kind:function(arm,size=0xc) addr:0x0216dd2c
_ZN19ActorProfileUnkWDRD6CreateEv kind:function(arm,size=0x24) addr:0x0216dd38
_ZN19ActorProfileUnkWDRDC1Ev kind:function(arm,size=0x6c) addr:0x0216dd5c
_ZN12ActorUnkWDRDC1Ev kind:function(arm,size=0x160) addr:0x0216ddc8
_ZN12ActorUnkWDRD19func_ov090_0216df28Ev kind:function(arm,size=0x5c) addr:0x0216df28
_ZN12ActorUnkWDRD19func_ov090_0216df84Ev kind:function(arm,size=0x50) addr:0x0216df84
_ZN12ActorUnkWDRD19func_ov090_0216dfd4Ev kind:function(arm,size=0x38) addr:0x0216dfd4
_ZN12ActorUnkWDRD19func_ov090_0216e00cEv kind:function(arm,size=0xb0) addr:0x0216e00c
_ZN12ActorUnkWDRD19func_ov090_0216e0bcEv kind:function(arm,size=0x64) addr:0x0216e0bc
_ZN12ActorUnkWDRD19func_ov090_0216e120Ev kind:function(arm,size=0x8c) addr:0x0216e120
_ZN12ActorUnkWDRD19func_ov090_0216e1acEv kind:function(arm,size=0x68) addr:0x0216e1ac
_ZN12ActorUnkWDRD19func_ov090_0216e214Ev kind:function(arm,size=0xf4) addr:0x0216e214
_ZN12ActorUnkWDRD19func_ov090_0216e308Ev kind:function(arm,size=0x124) addr:0x0216e308
_ZN12ActorUnkWDRD19func_ov090_0216e42cEv kind:function(arm,size=0x64) addr:0x0216e42c
_ZN12ActorUnkWDRD19func_ov090_0216e490Ev kind:function(arm,size=0xb4) addr:0x0216e490
_ZN12ActorUnkWDRD19func_ov090_0216e544Ev kind:function(arm,size=0xac) addr:0x0216e544
_ZN12ActorUnkWDRD19func_ov090_0216e5f0Ev kind:function(arm,size=0xbc) addr:0x0216e5f0
_ZN12ActorUnkWDRD19func_ov090_0216e6acEv kind:function(arm,size=0x8c) addr:0x0216e6ac
_ZN12ActorUnkWDRD19func_ov090_0216e738Ev kind:function(arm,size=0x198) addr:0x0216e738
_ZN12ActorUnkWDRD19func_ov090_0216e8d0Ev kind:function(arm,size=0x84) addr:0x0216e8d0
_ZN12ActorUnkWDRD19func_ov090_0216e954Ev kind:function(arm,size=0x98) addr:0x0216e954
_ZN12ActorUnkWDRD19func_ov090_0216e9ecEv kind:function(arm,size=0xe0) addr:0x0216e9ec
_ZN12ActorUnkWDRD19func_ov090_0216eaccEv kind:function(arm,size=0x7c) addr:0x0216eacc
_ZN12ActorUnkWDRD19func_ov090_0216eb48Ev kind:function(arm,size=0x38) addr:0x0216eb48
_ZN12ActorUnkWDRD19func_ov090_0216eb80Ev kind:function(arm,size=0x4) addr:0x0216eb80
_ZN12ActorUnkWDRD19func_ov090_0216eb84Ev kind:function(arm,size=0x60) addr:0x0216eb84
_ZN12ActorUnkWDRD19func_ov090_0216ebe4Ev kind:function(arm,size=0x64) addr:0x0216ebe4
_ZN12ActorUnkWDRD19func_ov090_0216ec48Ev kind:function(arm,size=0x98) addr:0x0216ec48
_ZN12ActorUnkWDRD19func_ov090_0216ece0Ev kind:function(arm,size=0xf0) addr:0x0216ece0
_ZN12ActorUnkWDRD19func_ov090_0216edd0Ev kind:function(arm,size=0x98) addr:0x0216edd0
_ZN12ActorUnkWDRD19func_ov090_0216ee68Ev kind:function(arm,size=0x80) addr:0x0216ee68
_ZN12ActorUnkWDRD19func_ov090_0216eee8Ev kind:function(arm,size=0x74) addr:0x0216eee8
_ZN12ActorUnkWDRD19func_ov090_0216ef5cEv kind:function(arm,size=0x184) addr:0x0216ef5c
_ZN12ActorUnkWDRD19func_ov090_0216f0e0Ev kind:function(arm,size=0x104) addr:0x0216f0e0
_ZN12ActorUnkWDRD19func_ov090_0216f1e4Ev kind:function(arm,size=0x1c) addr:0x0216f1e4
_ZN12ActorUnkWDRD19func_ov090_0216f200Ev kind:function(arm,size=0x254) addr:0x0216f200
_ZN12ActorUnkWDRDD1Ev kind:function(arm,size=0x30) addr:0x0216f454
_ZN12ActorUnkWDRDD0Ev kind:function(arm,size=0x38) addr:0x0216f484
_ZN19ActorProfileUnkWDRDD1Ev kind:function(arm,size=0x14) addr:0x0216f4bc
_ZN19ActorProfileUnkSPID10GetProfileEv kind:function(arm,size=0xc) addr:0x0216f4d0
_ZN19ActorProfileUnkSPID6CreateEv kind:function(arm,size=0x24) addr:0x0216f4dc
_ZN19ActorProfileUnkSPIDC1Ev kind:function(arm,size=0x7c) addr:0x0216f500
_ZN12ActorUnkSPIDC1Ev kind:function(arm,size=0x250) addr:0x0216f57c
_ZN12ActorUnkSPID19func_ov090_0216f7ccEv kind:function(arm,size=0x14) addr:0x0216f7cc
_ZN12ActorUnkSPID19func_ov090_0216f7e0Ev kind:function(arm,size=0x14) addr:0x0216f7e0
_ZN12ActorUnkSPID19func_ov090_0216f7f4Ev kind:function(arm,size=0x58) addr:0x0216f7f4
_ZN12ActorUnkSPID19func_ov090_0216f84cEv kind:function(arm,size=0x34) addr:0x0216f84c
_ZN12ActorUnkSPID19func_ov090_0216f880Ev kind:function(arm,size=0x278) addr:0x0216f880
_ZN12ActorUnkSPID19func_ov090_0216faf8Ev kind:function(arm,size=0x54) addr:0x0216faf8
_ZN12ActorUnkSPID19func_ov090_0216fb4cEv kind:function(arm,size=0x2f4) addr:0x0216fb4c
_ZN12ActorUnkSPID19func_ov090_0216fe40Ev kind:function(arm,size=0x88) addr:0x0216fe40
_ZN12ActorUnkSPID19func_ov090_0216fec8Ev kind:function(arm,size=0x120) addr:0x0216fec8
_ZN12ActorUnkSPID19func_ov090_0216ffe8Ev kind:function(arm,size=0x13c) addr:0x0216ffe8
_ZN12ActorUnkSPID19func_ov090_02170124Ev kind:function(arm,size=0x11c) addr:0x02170124
_ZN12ActorUnkSPID19func_ov090_02170240Ev kind:function(arm,size=0x88) addr:0x02170240
_ZN12ActorUnkSPID19func_ov090_021702c8Ev kind:function(arm,size=0x80) addr:0x021702c8
_ZN12ActorUnkSPID19func_ov090_02170348Ev kind:function(arm,size=0x44) addr:0x02170348
_ZN12ActorUnkSPID19func_ov090_0217038cEv kind:function(arm,size=0x24) addr:0x0217038c
_ZN12ActorUnkSPID19func_ov090_021703b0Ev kind:function(arm,size=0x1c) addr:0x021703b0
_ZN12ActorUnkSPID19func_ov090_021703ccEv kind:function(arm,size=0xb8) addr:0x021703cc
_ZN12ActorUnkSPID19func_ov090_02170484Ev kind:function(arm,size=0x18) addr:0x02170484
_ZN12ActorUnkSPID19func_ov090_0217049cEv kind:function(arm,size=0x60) addr:0x0217049c
_ZN12ActorUnkSPID19func_ov090_021704fcEv kind:function(arm,size=0x40) addr:0x021704fc
_ZN12ActorUnkSPID19func_ov090_0217053cEv kind:function(arm,size=0x14c) addr:0x0217053c
_ZN12ActorUnkSPID19func_ov090_02170688Ev kind:function(arm,size=0x2c) addr:0x02170688
_ZN12ActorUnkSPID19func_ov090_021706b4Ev kind:function(arm,size=0x14c) addr:0x021706b4
_ZN12ActorUnkSPID19func_ov090_02170800Ev kind:function(arm,size=0x18) addr:0x02170800
_ZN12ActorUnkSPID19func_ov090_02170818Ev kind:function(arm,size=0x38) addr:0x02170818
_ZN12ActorUnkSPID19func_ov090_02170850Ev kind:function(arm,size=0x24) addr:0x02170850
_ZN12ActorUnkSPID19func_ov090_02170874Ev kind:function(arm,size=0x114) addr:0x02170874
_ZN12ActorUnkSPID19func_ov090_02170988Ev kind:function(arm,size=0x8c) addr:0x02170988
_ZN12ActorUnkSPID19func_ov090_02170a14Ev kind:function(arm,size=0xc4) addr:0x02170a14
_ZN12ActorUnkSPID19func_ov090_02170ad8Ev kind:function(arm,size=0xcc) addr:0x02170ad8
_ZN12ActorUnkSPID19func_ov090_02170ba4Ev kind:function(arm,size=0xf4) addr:0x02170ba4
_ZN12ActorUnkSPID19func_ov090_02170c98Ev kind:function(arm,size=0x30) addr:0x02170c98
_ZN12ActorUnkSPID19func_ov090_02170cc8Ev kind:function(arm,size=0xac) addr:0x02170cc8
_ZN12ActorUnkSPID19func_ov090_02170d74Ev kind:function(arm,size=0x18) addr:0x02170d74
_ZN12ActorUnkSPID19func_ov090_02170d8cEv kind:function(arm,size=0x5c) addr:0x02170d8c
_ZN12ActorUnkSPID19func_ov090_02170de8Ev kind:function(arm,size=0xac) addr:0x02170de8
_ZN12ActorUnkSPID19func_ov090_02170e94Ev kind:function(arm,size=0x34) addr:0x02170e94
_ZN12ActorUnkSPIDD0Ev kind:function(arm,size=0x1c) addr:0x02170ec8
_ZN12ActorUnkSPID19func_ov090_02170ee4Ev kind:function(arm,size=0x1c) addr:0x02170ee4
_ZN12ActorUnkSPIDD1Ev kind:function(arm,size=0x30) addr:0x02170f00
_ZN12ActorUnkSPID19func_ov090_02170f30Ev kind:function(arm,size=0x38) addr:0x02170f30
_ZN19ActorProfileUnkSPIDD1Ev kind:function(arm,size=0x14) addr:0x02170f68
_ZN19ActorProfileUnkE3GL10GetProfileEv kind:function(arm,size=0xc) addr:0x02170f7c
_ZN19ActorProfileUnkE3GL6CreateEv kind:function(arm,size=0x24) addr:0x02170f88
_ZN19ActorProfileUnkE3GLC1Ev kind:function(arm,size=0x28) addr:0x02170fac
_ZN12ActorUnkE3GLC1Ev kind:function(arm,size=0x50) addr:0x02170fd4
_ZN12ActorUnkE3GLD1Ev kind:function(arm,size=0x14) addr:0x02171024
_ZN12ActorUnkE3GLD0Ev kind:function(arm,size=0x1c) addr:0x02171038
_ZN12ActorUnkE3GL19func_ov090_02171054Ev kind:function(arm,size=0x10) addr:0x02171054
_ZN12ActorUnkE3GL19func_ov090_02171064Ev kind:function(arm,size=0x10) addr:0x02171064
_ZN12ActorUnkE3GL19func_ov090_02171074Ev kind:function(arm,size=0x94) addr:0x02171074
_ZN19ActorProfileUnkE3GLD1Ev kind:function(arm,size=0x14) addr:0x02171108
_ZN19ActorProfileUnkE3TT10GetProfileEv kind:function(arm,size=0xc) addr:0x0217111c
_ZN19ActorProfileUnkE3TT6CreateEv kind:function(arm,size=0x24) addr:0x02171128
_ZN19ActorProfileUnkE3TTC1Ev kind:function(arm,size=0x28) addr:0x0217114c
_ZN12ActorUnkE3TTC1Ev kind:function(arm,size=0x30) addr:0x02171174
_ZN12ActorUnkE3TT19func_ov090_021711a4Ev kind:function(arm,size=0x30) addr:0x021711a4
_ZN12ActorUnkE3TT19func_ov090_021711d4Ev kind:function(arm,size=0x230) addr:0x021711d4
_ZN12ActorUnkE3TTD1Ev kind:function(arm,size=0x14) addr:0x02171404
_ZN12ActorUnkE3TTD0Ev kind:function(arm,size=0x1c) addr:0x02171418
_ZN19ActorProfileUnkE3TTD1Ev kind:function(arm,size=0x14) addr:0x02171434
_ZN19ActorProfileUnkE3ST10GetProfileEv kind:function(arm,size=0xc) addr:0x02171448
_ZN19ActorProfileUnkE3ST6CreateEv kind:function(arm,size=0x24) addr:0x02171454
_ZN19ActorProfileUnkE3STC1Ev kind:function(arm,size=0x28) addr:0x02171478
_ZN12ActorUnkE3STC1Ev kind:function(arm,size=0x40) addr:0x021714a0
_ZN12ActorUnkE3STD1Ev kind:function(arm,size=0x14) addr:0x021714e0
_ZN12ActorUnkE3STD0Ev kind:function(arm,size=0x1c) addr:0x021714f4
_ZN12ActorUnkE3ST19func_ov090_02171510Ev kind:function(arm,size=0x94) addr:0x02171510
_ZN19ActorProfileUnkE3STD1Ev kind:function(arm,size=0x14) addr:0x021715a4
_ZN23MapObjectProfileUnkTWPG10GetProfileEv kind:function(arm,size=0xc) addr:0x021715b8
_ZN23MapObjectProfileUnkTWPG6CreateEv kind:function(arm,size=0x24) addr:0x021715c4
_ZN23MapObjectProfileUnkTWPGC1Ev kind:function(arm,size=0x50) addr:0x021715e8
_ZN16MapObjectUnkTWPG19func_ov090_02171638Ev kind:function(arm,size=0x7c) addr:0x02171638
_ZN16MapObjectUnkTWPGC1Ev kind:function(arm,size=0x7c) addr:0x021716b4
_ZN16MapObjectUnkTWPG19func_ov090_02171730Ev kind:function(arm,size=0x37c) addr:0x02171730
_ZN16MapObjectUnkTWPG19func_ov090_02171aacEv kind:function(arm,size=0x4) addr:0x02171aac
_ZN16MapObjectUnkTWPG19func_ov090_02171ab0Ev kind:function(arm,size=0x390) addr:0x02171ab0
_ZN16MapObjectUnkTWPG19func_ov090_02171e40Ev kind:function(arm,size=0x14) addr:0x02171e40
_ZN16MapObjectUnkTWPG19func_ov090_02171e54Ev kind:function(arm,size=0x1c) addr:0x02171e54
_ZN16MapObjectUnkTWPG19func_ov090_02171e70Ev kind:function(arm,size=0x84) addr:0x02171e70
_ZN16MapObjectUnkTWPG19func_ov090_02171ef4Ev kind:function(arm,size=0xc0) addr:0x02171ef4
_ZN16MapObjectUnkTWPG19func_ov090_02171fb4Ev kind:function(arm,size=0x74) addr:0x02171fb4
_ZN16MapObjectUnkTWPG19func_ov090_02172028Ev kind:function(arm,size=0x8) addr:0x02172028
_ZN16MapObjectUnkTWPG19func_ov090_02172030Ev kind:function(arm,size=0x50) addr:0x02172030
_ZN16MapObjectUnkTWPG19func_ov090_02172080Ev kind:function(arm,size=0x38) addr:0x02172080
_ZN16MapObjectUnkTWPG19func_ov090_021720b8Ev kind:function(arm,size=0x38) addr:0x021720b8
_ZN16MapObjectUnkTWPG19func_ov090_021720f0Ev kind:function(arm,size=0x14) addr:0x021720f0
_ZN16MapObjectUnkTWPG19func_ov090_02172104Ev kind:function(arm,size=0x38) addr:0x02172104
_ZN16MapObjectUnkTWPG19func_ov090_0217213cEv kind:function(arm,size=0xc) addr:0x0217213c
_ZN16MapObjectUnkTWPG19func_ov090_02172148Ev kind:function(arm,size=0x8) addr:0x02172148
_ZN16MapObjectUnkTWPGD1Ev kind:function(arm,size=0x38) addr:0x02172150
_ZN16MapObjectUnkTWPGD0Ev kind:function(arm,size=0x40) addr:0x02172188
_ZN23MapObjectProfileUnkTWPGD1Ev kind:function(arm,size=0x14) addr:0x021721c8
_ZN23MapObjectProfileUnkTWGS10GetProfileEv kind:function(arm,size=0xc) addr:0x021721dc
_ZN23MapObjectProfileUnkTWGS6CreateEv kind:function(arm,size=0x24) addr:0x021721e8
_ZN23MapObjectProfileUnkTWGSC1Ev kind:function(arm,size=0xbc) addr:0x0217220c
_ZN16MapObjectUnkTWGSC1Ev kind:function(arm,size=0x4c) addr:0x021722c8
_ZN16MapObjectUnkTWGS19func_ov090_02172314Ev kind:function(arm,size=0x14) addr:0x02172314
_ZN16MapObjectUnkTWGS19func_ov090_02172328Ev kind:function(arm,size=0x48) addr:0x02172328
_ZN16MapObjectUnkTWGS19func_ov090_02172370Ev kind:function(arm,size=0xdc) addr:0x02172370
_ZN16MapObjectUnkTWGS19func_ov090_0217244cEv kind:function(arm,size=0x14) addr:0x0217244c
_ZN16MapObjectUnkTWGS19func_ov090_02172460Ev kind:function(arm,size=0x2d4) addr:0x02172460
_ZN16MapObjectUnkTWGS19func_ov090_02172734Ev kind:function(arm,size=0x50) addr:0x02172734
_ZN16MapObjectUnkTWGS19func_ov090_02172784Ev kind:function(arm,size=0x38) addr:0x02172784
_ZN16MapObjectUnkTWGS19func_ov090_021727bcEv kind:function(arm,size=0x38) addr:0x021727bc
_ZN16MapObjectUnkTWGS19func_ov090_021727f4Ev kind:function(arm,size=0x14) addr:0x021727f4
_ZN16MapObjectUnkTWGS19func_ov090_02172808Ev kind:function(arm,size=0x38) addr:0x02172808
_ZN16MapObjectUnkTWGS19func_ov090_02172840Ev kind:function(arm,size=0x38) addr:0x02172840
_ZN16MapObjectUnkTWGSD0Ev kind:function(arm,size=0x1c) addr:0x02172878
_ZN16MapObjectUnkTWGSD1Ev kind:function(arm,size=0x40) addr:0x02172894
_ZN16MapObjectUnkTWGS19func_ov090_021728d4Ev kind:function(arm,size=0x48) addr:0x021728d4
_ZN23MapObjectProfileUnkTWGSD1Ev kind:function(arm,size=0x14) addr:0x0217291c
_ZN23MapObjectProfileUnkTWPC10GetProfileEv kind:function(arm,size=0xc) addr:0x02172930
_ZN23MapObjectProfileUnkTWPC6CreateEv kind:function(arm,size=0x24) addr:0x0217293c
_ZN23MapObjectProfileUnkTWPCC1Ev kind:function(arm,size=0x50) addr:0x02172960
_ZN16MapObjectUnkTWPCC1Ev kind:function(arm,size=0x3c) addr:0x021729b0
_ZN16MapObjectUnkTWPCD1Ev kind:function(arm,size=0x38) addr:0x021729ec
_ZN16MapObjectUnkTWPCD0Ev kind:function(arm,size=0x40) addr:0x02172a24
_ZN16MapObjectUnkTWPC19func_ov090_02172a64Ev kind:function(arm,size=0xe4) addr:0x02172a64
_ZN16MapObjectUnkTWPC19func_ov090_02172b48Ev kind:function(arm,size=0xe4) addr:0x02172b48
_ZN16MapObjectUnkTWPC19func_ov090_02172c2cEv kind:function(arm,size=0x8) addr:0x02172c2c
_ZN16MapObjectUnkTWPC19func_ov090_02172c34Ev kind:function(arm,size=0x8) addr:0x02172c34
_ZN16MapObjectUnkTWPC19func_ov090_02172c3cEv kind:function(arm,size=0x4) addr:0x02172c3c
_ZN16MapObjectUnkTWPC19func_ov090_02172c40Ev kind:function(arm,size=0x4) addr:0x02172c40
_ZN16MapObjectUnkTWPC19func_ov090_02172c44Ev kind:function(arm,size=0x3c) addr:0x02172c44
_ZN16MapObjectUnkTWPC19func_ov090_02172c80Ev kind:function(arm,size=0x2c) addr:0x02172c80
_ZN16MapObjectUnkTWPC19func_ov090_02172cacEv kind:function(arm,size=0x2c) addr:0x02172cac
_ZN16MapObjectUnkTWPC19func_ov090_02172cd8Ev kind:function(arm,size=0x2c) addr:0x02172cd8
_ZN16MapObjectUnkTWPC19func_ov090_02172d04Ev kind:function(arm,size=0x8) addr:0x02172d04
_ZN16MapObjectUnkTWPC19func_ov090_02172d0cEv kind:function(arm,size=0x28) addr:0x02172d0c
_ZN16MapObjectUnkTWPCD2Ev kind:function(arm,size=0x20) addr:0x02172d34
_ZN23MapObjectProfileUnkTWPCD1Ev kind:function(arm,size=0x14) addr:0x02172d54
_ZN23MapObjectProfileUnkSTTR10GetProfileEv kind:function(arm,size=0xc) addr:0x02172d68
_ZN23MapObjectProfileUnkSTTR6CreateEv kind:function(arm,size=0x24) addr:0x02172d74
_ZN23MapObjectProfileUnkSTTRC1Ev kind:function(arm,size=0x28) addr:0x02172d98
_ZN16MapObjectUnkSTTRC1Ev kind:function(arm,size=0x48) addr:0x02172dc0
_ZN16MapObjectUnkSTTR19func_ov090_02172e08Ev kind:function(arm,size=0xe0) addr:0x02172e08
_ZN16MapObjectUnkSTTR19func_ov090_02172ee8Ev kind:function(arm,size=0x50) addr:0x02172ee8
_ZN16MapObjectUnkSTTR19func_ov090_02172f38Ev kind:function(arm,size=0x4) addr:0x02172f38
_ZN16MapObjectUnkSTTR19func_ov090_02172f3cEv kind:function(arm,size=0x1c) addr:0x02172f3c
_ZN16MapObjectUnkSTTR19func_ov090_02172f58Ev kind:function(arm,size=0x4c) addr:0x02172f58
_ZN16MapObjectUnkSTTR19func_ov090_02172fa4Ev kind:function(arm,size=0x40) addr:0x02172fa4
_ZN16MapObjectUnkSTTR19func_ov090_02172fe4Ev kind:function(arm,size=0x10) addr:0x02172fe4
_ZN16MapObjectUnkSTTR19func_ov090_02172ff4Ev kind:function(arm,size=0x24) addr:0x02172ff4
_ZN16MapObjectUnkSTTR19func_ov090_02173018Ev kind:function(arm,size=0x20) addr:0x02173018
_ZN16MapObjectUnkSTTRD1Ev kind:function(arm,size=0x14) addr:0x02173038
_ZN16MapObjectUnkSTTRD0Ev kind:function(arm,size=0x1c) addr:0x0217304c
_ZN23MapObjectProfileUnkSTTRD1Ev kind:function(arm,size=0x14) addr:0x02173068
_ZN23MapObjectProfileUnkTRGW10GetProfileEv kind:function(arm,size=0xc) addr:0x0217307c
_ZN23MapObjectProfileUnkTRGW6CreateEv kind:function(arm,size=0x24) addr:0x02173088
_ZN23MapObjectProfileUnkTRGWC1Ev kind:function(arm,size=0xb0) addr:0x021730ac
_ZN16MapObjectUnkTRGWC1Ev kind:function(arm,size=0x3c) addr:0x0217315c
_ZN16MapObjectUnkTRGW19func_ov090_02173198Ev kind:function(arm,size=0x50) addr:0x02173198
_ZN16MapObjectUnkTRGW19func_ov090_021731e8Ev kind:function(arm,size=0xdc) addr:0x021731e8
_ZN16MapObjectUnkTRGW19func_ov090_021732c4Ev kind:function(arm,size=0x50) addr:0x021732c4
_ZN16MapObjectUnkTRGW19func_ov090_02173314Ev kind:function(arm,size=0xc) addr:0x02173314
_ZN16MapObjectUnkTRGW19func_ov090_02173320Ev kind:function(arm,size=0x8c) addr:0x02173320
_ZN16MapObjectUnkTRGWD1Ev kind:function(arm,size=0x20) addr:0x021733ac
_ZN16MapObjectUnkTRGWD0Ev kind:function(arm,size=0x28) addr:0x021733cc
_ZN23MapObjectProfileUnkTRGWD1Ev kind:function(arm,size=0x14) addr:0x021733f4
_ZN23MapObjectProfileUnkTRSD10GetProfileEv kind:function(arm,size=0xc) addr:0x02173408
_ZN23MapObjectProfileUnkTRSD6CreateEv kind:function(arm,size=0x24) addr:0x02173414
_ZN23MapObjectProfileUnkTRSDC1Ev kind:function(arm,size=0xb0) addr:0x02173438
_ZN16MapObjectUnkTRSDC1Ev kind:function(arm,size=0x38) addr:0x021734e8
_ZN16MapObjectUnkTRSD19func_ov090_02173520Ev kind:function(arm,size=0xb8) addr:0x02173520
_ZN16MapObjectUnkTRSD19func_ov090_021735d8Ev kind:function(arm,size=0x50) addr:0x021735d8
_ZN16MapObjectUnkTRSD19func_ov090_02173628Ev kind:function(arm,size=0xc) addr:0x02173628
_ZN16MapObjectUnkTRSD19func_ov090_02173634Ev kind:function(arm,size=0x8c) addr:0x02173634
_ZN16MapObjectUnkTRSDD1Ev kind:function(arm,size=0x20) addr:0x021736c0
_ZN16MapObjectUnkTRSDD0Ev kind:function(arm,size=0x28) addr:0x021736e0
_ZN23MapObjectProfileUnkTRSDD1Ev kind:function(arm,size=0x14) addr:0x02173708
_ZN23MapObjectProfileUnkNPST10GetProfileEv kind:function(arm,size=0xc) addr:0x0217371c
_ZN23MapObjectProfileUnkNPST6CreateEv kind:function(arm,size=0x24) addr:0x02173728
_ZN23MapObjectProfileUnkNPSTC1Ev kind:function(arm,size=0xac) addr:0x0217374c
_ZN16MapObjectUnkNPSTC1Ev kind:function(arm,size=0x184) addr:0x021737f8
_ZN16MapObjectUnkNPST19func_ov090_0217397cEv kind:function(arm,size=0x14) addr:0x0217397c
_ZN16MapObjectUnkNPST19func_ov090_02173990Ev kind:function(arm,size=0x4) addr:0x02173990
_ZN16MapObjectUnkNPST19func_ov090_02173994Ev kind:function(arm,size=0x14) addr:0x02173994
_ZN16MapObjectUnkNPST19func_ov090_021739a8Ev kind:function(arm,size=0x14) addr:0x021739a8
_ZN16MapObjectUnkNPST19func_ov090_021739bcEv kind:function(arm,size=0x14) addr:0x021739bc
_ZN16MapObjectUnkNPST19func_ov090_021739d0Ev kind:function(arm,size=0x80) addr:0x021739d0
_ZN16MapObjectUnkNPST19func_ov090_02173a50Ev kind:function(arm,size=0x310) addr:0x02173a50
_ZN16MapObjectUnkNPST19func_ov090_02173d60Ev kind:function(arm,size=0xcc) addr:0x02173d60
_ZN16MapObjectUnkNPST19func_ov090_02173e2cEv kind:function(arm,size=0x130) addr:0x02173e2c
_ZN16MapObjectUnkNPST19func_ov090_02173f5cEv kind:function(arm,size=0x10c) addr:0x02173f5c
_ZN16MapObjectUnkNPST19func_ov090_02174068Ev kind:function(arm,size=0x98) addr:0x02174068
_ZN16MapObjectUnkNPST19func_ov090_02174100Ev kind:function(arm,size=0xa8) addr:0x02174100
_ZN16MapObjectUnkNPST19func_ov090_021741a8Ev kind:function(arm,size=0xd0) addr:0x021741a8
_ZN16MapObjectUnkNPST19func_ov090_02174278Ev kind:function(arm,size=0x158) addr:0x02174278
_ZN16MapObjectUnkNPST19func_ov090_021743d0Ev kind:function(arm,size=0x6c) addr:0x021743d0
_ZN16MapObjectUnkNPST19func_ov090_0217443cEv kind:function(arm,size=0x50) addr:0x0217443c
_ZN16MapObjectUnkNPST19func_ov090_0217448cEv kind:function(arm,size=0x74) addr:0x0217448c
_ZN16MapObjectUnkNPST19func_ov090_02174500Ev kind:function(arm,size=0x78) addr:0x02174500
_ZN16MapObjectUnkNPST19func_ov090_02174578Ev kind:function(arm,size=0x1c) addr:0x02174578
_ZN16MapObjectUnkNPST19func_ov090_02174594Ev kind:function(arm,size=0x1c) addr:0x02174594
_ZN16MapObjectUnkNPST19func_ov090_021745b0Ev kind:function(arm,size=0x14) addr:0x021745b0
_ZN16MapObjectUnkNPSTD0Ev kind:function(arm,size=0x1c) addr:0x021745c4
_ZN16MapObjectUnkNPST19func_ov090_021745e0Ev kind:function(arm,size=0x1c) addr:0x021745e0
_ZN16MapObjectUnkNPSTD1Ev kind:function(arm,size=0x58) addr:0x021745fc
_ZN16MapObjectUnkNPST19func_ov090_02174654Ev kind:function(arm,size=0x60) addr:0x02174654
_ZN23MapObjectProfileUnkNPSTD1Ev kind:function(arm,size=0x14) addr:0x021746b4
_ZN23MapObjectProfileUnkRBRC10GetProfileEv kind:function(arm,size=0xc) addr:0x021746c8
_ZN23MapObjectProfileUnkRBRC6CreateEv kind:function(arm,size=0x24) addr:0x021746d4
_ZN23MapObjectProfileUnkRBRCC1Ev kind:function(arm,size=0x8c) addr:0x021746f8
_ZN16MapObjectUnkRBRCC1Ev kind:function(arm,size=0x20) addr:0x02174784
_ZN16MapObjectUnkRBRC19func_ov090_021747a4Ev kind:function(arm,size=0x14) addr:0x021747a4
_ZN16MapObjectUnkRBRC19func_ov090_021747b8Ev kind:function(arm,size=0xa8) addr:0x021747b8
_ZN16MapObjectUnkRBRCD1Ev kind:function(arm,size=0x20) addr:0x02174860
_ZN16MapObjectUnkRBRCD0Ev kind:function(arm,size=0x28) addr:0x02174880
_ZN23MapObjectProfileUnkRBRCD1Ev kind:function(arm,size=0x14) addr:0x021748a8
_ZN23MapObjectProfileUnkTRMR10GetProfileEv kind:function(arm,size=0xc) addr:0x021748bc
_ZN23MapObjectProfileUnkTRMR6CreateEv kind:function(arm,size=0x24) addr:0x021748c8
_ZN23MapObjectProfileUnkTRMRC1Ev kind:function(arm,size=0x94) addr:0x021748ec
_ZN16MapObjectUnkTRMR19func_ov090_02174980Ev kind:function(arm,size=0x20) addr:0x02174980
_ZN16MapObjectUnkTRMRC1Ev kind:function(arm,size=0x20) addr:0x021749a0
_ZN16MapObjectUnkTRMR19func_ov090_021749c0Ev kind:function(arm,size=0x50) addr:0x021749c0
_ZN16MapObjectUnkTRMR19func_ov090_02174a10Ev kind:function(arm,size=0xc) addr:0x02174a10
_ZN16MapObjectUnkTRMR19func_ov090_02174a1cEv kind:function(arm,size=0xa4) addr:0x02174a1c
_ZN16MapObjectUnkTRMRD1Ev kind:function(arm,size=0x20) addr:0x02174ac0
_ZN16MapObjectUnkTRMRD0Ev kind:function(arm,size=0x28) addr:0x02174ae0
_ZN23MapObjectProfileUnkTRMRD1Ev kind:function(arm,size=0x14) addr:0x02174b08
_ZN23MapObjectProfileUnkRBMR10GetProfileEv kind:function(arm,size=0xc) addr:0x02174b1c
_ZN23MapObjectProfileUnkRBMR6CreateEv kind:function(arm,size=0x24) addr:0x02174b28
_ZN23MapObjectProfileUnkRBMRC1Ev kind:function(arm,size=0x8c) addr:0x02174b4c
_ZN16MapObjectUnkRBMRC1Ev kind:function(arm,size=0x20) addr:0x02174bd8
_ZN16MapObjectUnkRBMR19func_ov090_02174bf8Ev kind:function(arm,size=0x14) addr:0x02174bf8
_ZN16MapObjectUnkRBMR19func_ov090_02174c0cEv kind:function(arm,size=0xa8) addr:0x02174c0c
_ZN16MapObjectUnkRBMRD1Ev kind:function(arm,size=0x20) addr:0x02174cb4
_ZN16MapObjectUnkRBMRD0Ev kind:function(arm,size=0x28) addr:0x02174cd4
_ZN23MapObjectProfileUnkRBMRD1Ev kind:function(arm,size=0x14) addr:0x02174cfc
_ZN23MapObjectProfileUnkTRDT10GetProfileEv kind:function(arm,size=0xc) addr:0x02174d10
_ZN23MapObjectProfileUnkTRDT6CreateEv kind:function(arm,size=0x24) addr:0x02174d1c
_ZN23MapObjectProfileUnkTRDTC1Ev kind:function(arm,size=0x90) addr:0x02174d40
_ZN16MapObjectUnkTRDTC1Ev kind:function(arm,size=0x90) addr:0x02174dd0
_ZN16MapObjectUnkTRDT19func_ov090_02174e60Ev kind:function(arm,size=0x4c) addr:0x02174e60
_ZN16MapObjectUnkTRDT19func_ov090_02174eacEv kind:function(arm,size=0x94) addr:0x02174eac
_ZN16MapObjectUnkTRDT19func_ov090_02174f40Ev kind:function(arm,size=0x10) addr:0x02174f40
_ZN16MapObjectUnkTRDTD1Ev kind:function(arm,size=0x20) addr:0x02174f50
_ZN16MapObjectUnkTRDTD0Ev kind:function(arm,size=0x28) addr:0x02174f70
_ZN23MapObjectProfileUnkTRDTD1Ev kind:function(arm,size=0x14) addr:0x02174f98
_ZN23MapObjectProfileUnkTRCC10GetProfileEv kind:function(arm,size=0xc) addr:0x02174fac
_ZN23MapObjectProfileUnkTRCC6CreateEv kind:function(arm,size=0x24) addr:0x02174fb8
_ZN23MapObjectProfileUnkTRCCC1Ev kind:function(arm,size=0x90) addr:0x02174fdc
_ZN16MapObjectUnkTRCCC1Ev kind:function(arm,size=0x90) addr:0x0217506c
_ZN16MapObjectUnkTRCC19func_ov090_021750fcEv kind:function(arm,size=0x4c) addr:0x021750fc
_ZN16MapObjectUnkTRCC19func_ov090_02175148Ev kind:function(arm,size=0x94) addr:0x02175148
_ZN16MapObjectUnkTRCC19func_ov090_021751dcEv kind:function(arm,size=0x10) addr:0x021751dc
_ZN16MapObjectUnkTRCCD1Ev kind:function(arm,size=0x20) addr:0x021751ec
_ZN16MapObjectUnkTRCCD0Ev kind:function(arm,size=0x28) addr:0x0217520c
_ZN23MapObjectProfileUnkTRCCD1Ev kind:function(arm,size=0x14) addr:0x02175234
_ZN23MapObjectProfileUnkETNM10GetProfileEv kind:function(arm,size=0xc) addr:0x02175248
_ZN23MapObjectProfileUnkETNM6CreateEv kind:function(arm,size=0x24) addr:0x02175254
_ZN23MapObjectProfileUnkETNMC1Ev kind:function(arm,size=0x34) addr:0x02175278
_ZN16MapObjectUnkETNMC1Ev kind:function(arm,size=0x20) addr:0x021752ac
_ZN16MapObjectUnkETNM19func_ov090_021752ccEv kind:function(arm,size=0x50) addr:0x021752cc
_ZN16MapObjectUnkETNMD1Ev kind:function(arm,size=0x30) addr:0x0217531c
_ZN16MapObjectUnkETNMD0Ev kind:function(arm,size=0x38) addr:0x0217534c
_ZN23MapObjectProfileUnkETNMD1Ev kind:function(arm,size=0x14) addr:0x02175384
data_ov090_02175398 kind:data(any) addr:0x02175398
data_ov090_021753a8 kind:data(any) addr:0x021753a8
data_ov090_021753b8 kind:data(any) addr:0x021753b8
data_ov090_02175400 kind:data(any) addr:0x02175400
data_ov090_02175410 kind:data(any) addr:0x02175410
data_ov090_02175420 kind:data(any) addr:0x02175420
data_ov090_02175430 kind:data(any) addr:0x02175430
data_ov090_02175440 kind:data(any) addr:0x02175440
data_ov090_02175450 kind:data(any) addr:0x02175450
data_ov090_02175460 kind:data(any) addr:0x02175460
data_ov090_02175468 kind:data(any) addr:0x02175468 ambiguous
data_ov090_02175470 kind:data(any) addr:0x02175470
data_ov090_02175484 kind:data(any) addr:0x02175484
data_ov090_021754a0 kind:data(any) addr:0x021754a0
data_ov090_021754b0 kind:data(any) addr:0x021754b0
data_ov090_021754c0 kind:data(any) addr:0x021754c0
data_ov090_021754f0 kind:data(any) addr:0x021754f0
__sinit_ActorUnkSZRD.cpp kind:function(arm,size=0x108) addr:0x021754fc
__sinit_ActorUnkWDBA.cpp kind:function(arm,size=0x70) addr:0x02175604
__sinit_ActorUnkWDRD.cpp kind:function(arm,size=0x50) addr:0x02175674
__sinit_ActorUnkSPID.cpp kind:function(arm,size=0x5c) addr:0x021756c4
__sinit_ActorUnkE3GL.cpp kind:function(arm,size=0x50) addr:0x02175720
__sinit_ActorUnkE3TT.cpp kind:function(arm,size=0x50) addr:0x02175770
__sinit_ActorUnkE3ST.cpp kind:function(arm,size=0x50) addr:0x021757c0
__sinit_MapObjectUnkTWPG.cpp kind:function(arm,size=0x50) addr:0x02175810
__sinit_MapObjectUnkTWGS.cpp kind:function(arm,size=0x74) addr:0x02175860
__sinit_MapObjectUnkTWPC.cpp kind:function(arm,size=0x50) addr:0x021758d4
__sinit_MapObjectUnkSTTR.cpp kind:function(arm,size=0x68) addr:0x02175924
__sinit_MapObjectUnkTRGW.cpp kind:function(arm,size=0x50) addr:0x0217598c
__sinit_MapObjectUnkTRSD.cpp kind:function(arm,size=0x50) addr:0x021759dc
__sinit_MapObjectUnkNPST.cpp kind:function(arm,size=0x50) addr:0x02175a2c
__sinit_MapObjectUnkRBRC.cpp kind:function(arm,size=0x50) addr:0x02175a7c
__sinit_MapObjectUnkTRMR.cpp kind:function(arm,size=0x50) addr:0x02175acc
__sinit_MapObjectUnkRBMR.cpp kind:function(arm,size=0x50) addr:0x02175b1c
__sinit_MapObjectUnkTRDT.cpp kind:function(arm,size=0x50) addr:0x02175b6c
__sinit_MapObjectUnkTRCC.cpp kind:function(arm,size=0x50) addr:0x02175bbc
__sinit_MapObjectUnkETNM.cpp kind:function(arm,size=0x50) addr:0x02175c0c
.p__sinit_ActorUnkSZRD.cpp kind:data(word) addr:0x02175c5c
.p__sinit_ActorUnkWDBA.cpp kind:data(word) addr:0x02175c60
.p__sinit_ActorUnkWDRD.cpp kind:data(word) addr:0x02175c64
.p__sinit_ActorUnkSPID.cpp kind:data(word) addr:0x02175c68
.p__sinit_ActorUnkE3GL.cpp kind:data(word) addr:0x02175c6c
.p__sinit_ActorUnkE3TT.cpp kind:data(word) addr:0x02175c70
.p__sinit_ActorUnkE3ST.cpp kind:data(word) addr:0x02175c74
.p__sinit_MapObjectUnkTWPG.cpp kind:data(word) addr:0x02175c78
.p__sinit_MapObjectUnkTWGS.cpp kind:data(word) addr:0x02175c7c
.p__sinit_MapObjectUnkTWPC.cpp kind:data(word) addr:0x02175c80
.p__sinit_MapObjectUnkSTTR.cpp kind:data(word) addr:0x02175c84
.p__sinit_MapObjectUnkTRGW.cpp kind:data(word) addr:0x02175c88
.p__sinit_MapObjectUnkTRSD.cpp kind:data(word) addr:0x02175c8c
.p__sinit_MapObjectUnkNPST.cpp kind:data(word) addr:0x02175c90
.p__sinit_MapObjectUnkRBRC.cpp kind:data(word) addr:0x02175c94
.p__sinit_MapObjectUnkTRMR.cpp kind:data(word) addr:0x02175c98
.p__sinit_MapObjectUnkRBMR.cpp kind:data(word) addr:0x02175c9c
.p__sinit_MapObjectUnkTRDT.cpp kind:data(word) addr:0x02175ca0
.p__sinit_MapObjectUnkTRCC.cpp kind:data(word) addr:0x02175ca4
.p__sinit_MapObjectUnkETNM.cpp kind:data(word) addr:0x02175ca8
data_ov090_02175cc8 kind:data(any) addr:0x02175cc8
data_ov090_02175ccc kind:data(any) addr:0x02175ccc
data_ov090_02175cd0 kind:data(any) addr:0x02175cd0 ambiguous
data_ov090_02175ce4 kind:data(any) addr:0x02175ce4
_ZTV19data_ov090_02175cfc kind:data(any) addr:0x02175cfc
data_ov090_02175d28 kind:data(any) addr:0x02175d28
data_ov090_02175d70 kind:data(any) addr:0x02175d70
_ZTV19data_ov090_02175db4 kind:data(any) addr:0x02175db4
data_ov090_02175e18 kind:data(any) addr:0x02175e18
data_ov090_02175e30 kind:data(any) addr:0x02175e30
data_ov090_02175e48 kind:data(any) addr:0x02175e48
data_ov090_02175e60 kind:data(any) addr:0x02175e60
data_ov090_02175e78 kind:data(any) addr:0x02175e78
data_ov090_02175e90 kind:data(any) addr:0x02175e90
data_ov090_02175ea8 kind:data(any) addr:0x02175ea8
data_ov090_02175ec0 kind:data(any) addr:0x02175ec0
data_ov090_02175ed0 kind:data(any) addr:0x02175ed0
data_ov090_02175fc8 kind:data(any) addr:0x02175fc8
data_ov090_02175fd8 kind:data(any) addr:0x02175fd8
_ZTV19data_ov090_02175fec kind:data(any) addr:0x02175fec
_ZTV19data_ov090_02176010 kind:data(any) addr:0x02176010
data_ov090_02176074 kind:data(any) addr:0x02176074
data_ov090_021760c8 kind:data(any) addr:0x021760c8 ambiguous
data_ov090_021760dc kind:data(any) addr:0x021760dc
data_ov090_02176144 kind:data(any) addr:0x02176144
data_ov090_0217615c kind:data(any) addr:0x0217615c
data_ov090_02176174 kind:data(any) addr:0x02176174
data_ov090_0217618c kind:data(any) addr:0x0217618c
data_ov090_021761a4 kind:data(any) addr:0x021761a4
data_ov090_021761bc kind:data(any) addr:0x021761bc
data_ov090_021761d4 kind:data(any) addr:0x021761d4
data_ov090_021761d8 kind:data(any) addr:0x021761d8
_ZTV19data_ov090_021761dc kind:data(any) addr:0x021761dc
data_ov090_02176200 kind:data(any) addr:0x02176200
data_ov090_02176240 kind:data(any) addr:0x02176240
_ZTV19data_ov090_02176280 kind:data(any) addr:0x02176280
data_ov090_021762e4 kind:data(any) addr:0x021762e4
data_ov090_021762fc kind:data(any) addr:0x021762fc
data_ov090_02176314 kind:data(any) addr:0x02176314
data_ov090_0217632c kind:data(any) addr:0x0217632c
data_ov090_02176344 kind:data(any) addr:0x02176344
data_ov090_0217635c kind:data(any) addr:0x0217635c
data_ov090_02176374 kind:data(any) addr:0x02176374
data_ov090_0217638c kind:data(any) addr:0x0217638c
_ZTV19data_ov090_021763a4 kind:data(any) addr:0x021763a4
data_ov090_021763d0 kind:data(any) addr:0x021763d0
data_ov090_021763fc kind:data(any) addr:0x021763fc
data_ov090_0217643c kind:data(any) addr:0x0217643c
data_ov090_02176494 kind:data(any) addr:0x02176494
_ZTV19data_ov090_021764ec kind:data(any) addr:0x021764ec
data_ov090_02176568 kind:data(any) addr:0x02176568
data_ov090_02176580 kind:data(any) addr:0x02176580
data_ov090_021765b0 kind:data(any) addr:0x021765b0
_ZTV19data_ov090_021765c8 kind:data(any) addr:0x021765c8
_ZTV19data_ov090_021765ec kind:data(any) addr:0x021765ec
_ZTV19data_ov090_02176648 kind:data(any) addr:0x02176648
_ZTV19data_ov090_0217666c kind:data(any) addr:0x0217666c
_ZTV19data_ov090_021766c8 kind:data(any) addr:0x021766c8
_ZTV19data_ov090_021766ec kind:data(any) addr:0x021766ec
data_ov090_02176750 kind:data(any) addr:0x02176750
data_ov090_0217676c kind:data(any) addr:0x0217676c
data_ov090_021767f4 kind:data(any) addr:0x021767f4
data_ov090_02176808 kind:data(any) addr:0x02176808
data_ov090_0217681c kind:data(any) addr:0x0217681c
data_ov090_02176838 kind:data(any) addr:0x02176838
data_ov090_02176854 kind:data(any) addr:0x02176854
data_ov090_0217687c kind:data(any) addr:0x0217687c
data_ov090_0217690c kind:data(any) addr:0x0217690c
data_ov090_02176928 kind:data(any) addr:0x02176928
data_ov090_02176988 kind:data(any) addr:0x02176988
data_ov090_021769e0 kind:data(any) addr:0x021769e0
data_ov090_021769f4 kind:data(any) addr:0x021769f4
data_ov090_02176a10 kind:data(any) addr:0x02176a10
data_ov090_02176a6c kind:data(any) addr:0x02176a6c
data_ov090_02176a88 kind:data(any) addr:0x02176a88
data_ov090_02176aa4 kind:data(any) addr:0x02176aa4
data_ov090_02176aa8 kind:data(any) addr:0x02176aa8 ambiguous
data_ov090_02176acc kind:data(any) addr:0x02176acc
data_ov090_02176af4 kind:data(any) addr:0x02176af4 ambiguous
data_ov090_02176b2c kind:data(any) addr:0x02176b2c
data_ov090_02176b48 kind:data(any) addr:0x02176b48
data_ov090_02176ba8 kind:data(any) addr:0x02176ba8
data_ov090_02176bbc kind:data(any) addr:0x02176bbc
data_ov090_02176bd8 kind:data(any) addr:0x02176bd8
data_ov090_02176c04 kind:data(any) addr:0x02176c04
data_ov090_02176c5c kind:data(any) addr:0x02176c5c
data_ov090_02176c70 kind:data(any) addr:0x02176c70
data_ov090_02176c8c kind:data(any) addr:0x02176c8c
data_ov090_02176ca8 kind:data(any) addr:0x02176ca8
data_ov090_02176d08 kind:data(any) addr:0x02176d08
data_ov090_02176d24 kind:data(any) addr:0x02176d24
data_ov090_02176d84 kind:data(any) addr:0x02176d84
data_ov090_02176da0 kind:data(any) addr:0x02176da0
data_ov090_02176e00 kind:data(any) addr:0x02176e00
data_ov090_02176e1c kind:data(any) addr:0x02176e1c
data_ov090_02176e6c kind:data(any) addr:0x02176e6c
data_ov090_02176e88 kind:data(any) addr:0x02176e88
data_ov090_02176ed8 kind:data(any) addr:0x02176ed8
data_ov090_02176ef4 kind:data(any) addr:0x02176ef4
data_ov090_02176f80 kind:bss addr:0x02176f80
data_ov090_02176f88 kind:bss addr:0x02176f88
data_ov090_02176f94 kind:bss addr:0x02176f94
data_ov090_02176fa0 kind:bss addr:0x02176fa0
sActorProfileUnkSZRD kind:bss addr:0x02176fb4
data_ov090_0217708c kind:bss addr:0x0217708c
data_ov090_02177094 kind:bss addr:0x02177094
data_ov090_021770a0 kind:bss addr:0x021770a0
sActorProfileUnkWDBA kind:bss addr:0x021770ac
data_ov090_021770f0 kind:bss addr:0x021770f0 ambiguous
data_ov090_02177184 kind:bss addr:0x02177184
data_ov090_02177188 kind:bss addr:0x02177188
sActorProfileUnkWDRD kind:bss addr:0x02177194
data_ov090_02177218 kind:bss addr:0x02177218 ambiguous
data_ov090_02177228 kind:bss addr:0x02177228 ambiguous
data_ov090_0217726c kind:bss addr:0x0217726c
data_ov090_02177270 kind:bss addr:0x02177270
data_ov090_0217727c kind:bss addr:0x0217727c
sActorProfileUnkSPID kind:bss addr:0x02177288
data_ov090_02177360 kind:bss addr:0x02177360
data_ov090_02177364 kind:bss addr:0x02177364
sActorProfileUnkE3GL kind:bss addr:0x02177370
data_ov090_021773ac kind:bss addr:0x021773ac
data_ov090_021773b0 kind:bss addr:0x021773b0
sActorProfileUnkE3TT kind:bss addr:0x021773bc
data_ov090_021773f8 kind:bss addr:0x021773f8
data_ov090_021773fc kind:bss addr:0x021773fc
sActorProfileUnkE3ST kind:bss addr:0x02177408
data_ov090_02177444 kind:bss addr:0x02177444
data_ov090_02177448 kind:bss addr:0x02177448
sMapObjectProfileUnkTWPG kind:bss addr:0x02177454
data_ov090_02177474 kind:bss addr:0x02177474
data_ov090_02177528 kind:bss addr:0x02177528
data_ov090_0217752c kind:bss addr:0x0217752c
sMapObjectProfileUnkTWGS kind:bss addr:0x02177538
data_ov090_02177558 kind:bss addr:0x02177558
data_ov090_0217756c kind:bss addr:0x0217756c ambiguous
data_ov090_0217760c kind:bss addr:0x0217760c
data_ov090_02177630 kind:bss addr:0x02177630
data_ov090_02177634 kind:bss addr:0x02177634
sMapObjectProfileUnkTWPC kind:bss addr:0x02177640
data_ov090_02177660 kind:bss addr:0x02177660
data_ov090_02177668 kind:bss addr:0x02177668
sMapObjectProfileUnkSTTR kind:bss addr:0x02177674
data_ov090_02177694 kind:bss addr:0x02177694
data_ov090_02177698 kind:bss addr:0x02177698
sMapObjectProfileUnkTRGW kind:bss addr:0x021776a4
data_ov090_02177778 kind:bss addr:0x02177778
data_ov090_02177798 kind:bss addr:0x02177798
data_ov090_0217779c kind:bss addr:0x0217779c
sMapObjectProfileUnkTRSD kind:bss addr:0x021777a8
data_ov090_0217787c kind:bss addr:0x0217787c
data_ov090_0217789c kind:bss addr:0x0217789c
data_ov090_021778a0 kind:bss addr:0x021778a0
sMapObjectProfileUnkNPST kind:bss addr:0x021778ac
data_ov090_021778cc kind:bss addr:0x021778cc
data_ov090_02177948 kind:bss addr:0x02177948 ambiguous
data_ov090_02177980 kind:bss addr:0x02177980
data_ov090_021779a0 kind:bss addr:0x021779a0
data_ov090_021779a4 kind:bss addr:0x021779a4
sMapObjectProfileUnkRBRC kind:bss addr:0x021779b0
data_ov090_021779f4 kind:bss addr:0x021779f4
data_ov090_021779f8 kind:bss addr:0x021779f8
sMapObjectProfileUnkTRMR kind:bss addr:0x02177a04
data_ov090_02177aa0 kind:bss addr:0x02177aa0 ambiguous
data_ov090_02177ad8 kind:bss addr:0x02177ad8
data_ov090_02177af8 kind:bss addr:0x02177af8
data_ov090_02177afc kind:bss addr:0x02177afc
sMapObjectProfileUnkRBMR kind:bss addr:0x02177b08
data_ov090_02177b48 kind:bss addr:0x02177b48 ambiguous
data_ov090_02177b4c kind:bss addr:0x02177b4c
data_ov090_02177b50 kind:bss addr:0x02177b50
sMapObjectProfileUnkTRDT kind:bss addr:0x02177b5c
data_ov090_02177c30 kind:bss addr:0x02177c30
data_ov090_02177c50 kind:bss addr:0x02177c50
data_ov090_02177c54 kind:bss addr:0x02177c54
sMapObjectProfileUnkTRCC kind:bss addr:0x02177c60
data_ov090_02177d00 kind:bss addr:0x02177d00 ambiguous
data_ov090_02177d04 kind:bss addr:0x02177d04 ambiguous
data_ov090_02177d0c kind:bss addr:0x02177d0c ambiguous
data_ov090_02177d14 kind:bss addr:0x02177d14 ambiguous
data_ov090_02177d28 kind:bss addr:0x02177d28 ambiguous
data_ov090_02177d30 kind:bss addr:0x02177d30 ambiguous
data_ov090_02177d34 kind:bss addr:0x02177d34
data_ov090_02177d38 kind:bss addr:0x02177d38 ambiguous
data_ov090_02177d54 kind:bss addr:0x02177d54
data_ov090_02177d58 kind:bss addr:0x02177d58
sMapObjectProfileUnkETNM kind:bss addr:0x02177d64
