_ZN19ActorProfileUnkGYAM10GetProfileEv kind:function(arm,size=0xc) addr:0x021304a0
_ZN19ActorProfileUnkGYAM6CreateEv kind:function(arm,size=0x24) addr:0x021304ac
_ZN19ActorProfileUnkGYAMC1Ev kind:function(arm,size=0x44) addr:0x021304d0
_ZN12ActorUnkGYAM19func_ov051_02130514Ev kind:function(arm,size=0x5c) addr:0x02130514
_ZN12ActorUnkGYAMC1Ev kind:function(arm,size=0x24c) addr:0x02130570
_ZN12ActorUnkGYAM19func_ov051_021307bcEv kind:function(arm,size=0x14) addr:0x021307bc
_ZN12ActorUnkGYAM19func_ov051_021307d0Ev kind:function(arm,size=0x14) addr:0x021307d0
_ZN12ActorUnkGYAM19func_ov051_021307e4Ev kind:function(arm,size=0x14) addr:0x021307e4
_ZN12ActorUnkGYAM19func_ov051_021307f8Ev kind:function(arm,size=0x14) addr:0x021307f8
_ZN12ActorUnkGYAM19func_ov051_0213080cEv kind:function(arm,size=0xb0) addr:0x0213080c
_ZN12ActorUnkGYAMD0Ev kind:function(arm,size=0xb8) addr:0x021308bc
_ZN12ActorUnkGYAM19func_ov051_02130974Ev kind:function(arm,size=0xe4) addr:0x02130974
_ZN12ActorUnkGYAM19func_ov051_02130a58Ev kind:function(arm,size=0x5c) addr:0x02130a58
_ZN12ActorUnkGYAM19func_ov051_02130ab4Ev kind:function(arm,size=0x48) addr:0x02130ab4
_ZN12ActorUnkGYAM19func_ov051_02130afcEv kind:function(arm,size=0x94) addr:0x02130afc
_ZN12ActorUnkGYAM19func_ov051_02130b90Ev kind:function(arm,size=0xa30) addr:0x02130b90
_ZN12ActorUnkGYAM19func_ov051_021315c0Ev kind:function(arm,size=0xd8) addr:0x021315c0
_ZN12ActorUnkGYAM19func_ov051_02131698Ev kind:function(arm,size=0x70) addr:0x02131698
_ZN12ActorUnkGYAM19func_ov051_02131708Ev kind:function(arm,size=0x40) addr:0x02131708
_ZN12ActorUnkGYAM19func_ov051_02131748Ev kind:function(arm,size=0x70) addr:0x02131748
_ZN12ActorUnkGYAM19func_ov051_021317b8Ev kind:function(arm,size=0xf8) addr:0x021317b8
_ZN12ActorUnkGYAM19func_ov051_021318b0Ev kind:function(arm,size=0x70) addr:0x021318b0
_ZN12ActorUnkGYAM19func_ov051_02131920Ev kind:function(arm,size=0x34) addr:0x02131920
_ZN12ActorUnkGYAM19func_ov051_02131954Ev kind:function(arm,size=0x78) addr:0x02131954
_ZN12ActorUnkGYAM19func_ov051_021319ccEv kind:function(arm,size=0x50) addr:0x021319cc
_ZN12ActorUnkGYAM19func_ov051_02131a1cEv kind:function(arm,size=0x70) addr:0x02131a1c
_ZN12ActorUnkGYAM19func_ov051_02131a8cEv kind:function(arm,size=0x50) addr:0x02131a8c
_ZN12ActorUnkGYAM19func_ov051_02131adcEv kind:function(arm,size=0x20) addr:0x02131adc
_ZN12ActorUnkGYAM19func_ov051_02131afcEv kind:function(arm,size=0x240) addr:0x02131afc
_ZN12ActorUnkGYAM19func_ov051_02131d3cEv kind:function(arm,size=0xf4) addr:0x02131d3c
_ZN12ActorUnkGYAM19func_ov051_02131e30Ev kind:function(arm,size=0x4c4) addr:0x02131e30
_ZN12ActorUnkGYAM19func_ov051_021322f4Ev kind:function(arm,size=0x88) addr:0x021322f4
_ZN12ActorUnkGYAM19func_ov051_0213237cEv kind:function(arm,size=0x508) addr:0x0213237c
_ZN12ActorUnkGYAM19func_ov051_02132884Ev kind:function(arm,size=0x14) addr:0x02132884
_ZN12ActorUnkGYAM19func_ov051_02132898Ev kind:function(arm,size=0x43c) addr:0x02132898
_ZN12ActorUnkGYAM19func_ov051_02132cd4Ev kind:function(arm,size=0x32c) addr:0x02132cd4
_ZN12ActorUnkGYAM19func_ov051_02133000Ev kind:function(arm,size=0x30c) addr:0x02133000
_ZN12ActorUnkGYAM19func_ov051_0213330cEv kind:function(arm,size=0x1b0) addr:0x0213330c
_ZN12ActorUnkGYAM19func_ov051_021334bcEv kind:function(arm,size=0x30c) addr:0x021334bc
_ZN12ActorUnkGYAM19func_ov051_021337c8Ev kind:function(arm,size=0x1a0) addr:0x021337c8
_ZN12ActorUnkGYAM19func_ov051_02133968Ev kind:function(arm,size=0x258) addr:0x02133968
_ZN12ActorUnkGYAM19func_ov051_02133bc0Ev kind:function(arm,size=0x80) addr:0x02133bc0
_ZN12ActorUnkGYAM19func_ov051_02133c40Ev kind:function(arm,size=0x3c) addr:0x02133c40
_ZN12ActorUnkGYAM19func_ov051_02133c7cEv kind:function(arm,size=0x8c) addr:0x02133c7c
_ZN12ActorUnkGYAM19func_ov051_02133d08Ev kind:function(arm,size=0x28) addr:0x02133d08
_ZN12ActorUnkGYAM19func_ov051_02133d30Ev kind:function(arm,size=0x70) addr:0x02133d30
_ZN12ActorUnkGYAM19func_ov051_02133da0Ev kind:function(arm,size=0x34) addr:0x02133da0
_ZN12ActorUnkGYAM19func_ov051_02133dd4Ev kind:function(arm,size=0x10c) addr:0x02133dd4
_ZN12ActorUnkGYAM19func_ov051_02133ee0Ev kind:function(arm,size=0x170) addr:0x02133ee0
_ZN12ActorUnkGYAM19func_ov051_02134050Ev kind:function(arm,size=0xbc) addr:0x02134050
_ZN12ActorUnkGYAM19func_ov051_0213410cEv kind:function(arm,size=0x104) addr:0x0213410c
_ZN12ActorUnkGYAM19func_ov051_02134210Ev kind:function(arm,size=0x28) addr:0x02134210
_ZN12ActorUnkGYAM19func_ov051_02134238Ev kind:function(arm,size=0x34) addr:0x02134238
_ZN12ActorUnkGYAM19func_ov051_0213426cEv kind:function(arm,size=0x1ac) addr:0x0213426c
_ZN12ActorUnkGYAM19func_ov051_02134418Ev kind:function(arm,size=0x5dc) addr:0x02134418
_ZN12ActorUnkGYAM19func_ov051_021349f4Ev kind:function(arm,size=0xb8) addr:0x021349f4
_ZN12ActorUnkGYAM19func_ov051_02134aacEv kind:function(arm,size=0x80) addr:0x02134aac
_ZN12ActorUnkGYAM19func_ov051_02134b2cEv kind:function(arm,size=0x40) addr:0x02134b2c
_ZN12ActorUnkGYAM19func_ov051_02134b6cEv kind:function(arm,size=0x94) addr:0x02134b6c
_ZN12ActorUnkGYAM19func_ov051_02134c00Ev kind:function(arm,size=0x48) addr:0x02134c00
_ZN12ActorUnkGYAM19func_ov051_02134c48Ev kind:function(arm,size=0xd0) addr:0x02134c48
_ZN12ActorUnkGYAM19func_ov051_02134d18Ev kind:function(arm,size=0xd0) addr:0x02134d18
_ZN12ActorUnkGYAM19func_ov051_02134de8Ev kind:function(arm,size=0x18) addr:0x02134de8
_ZN12ActorUnkGYAM19func_ov051_02134e00Ev kind:function(arm,size=0x2e8) addr:0x02134e00
_ZN12ActorUnkGYAM19func_ov051_021350e8Ev kind:function(arm,size=0xb4) addr:0x021350e8
_ZN12ActorUnkGYAM19func_ov051_0213519cEv kind:function(arm,size=0x48) addr:0x0213519c
_ZN12ActorUnkGYAM19func_ov051_021351e4Ev kind:function(arm,size=0xb4) addr:0x021351e4
_ZN12ActorUnkGYAM19func_ov051_02135298Ev kind:function(arm,size=0xa0) addr:0x02135298
_ZN12ActorUnkGYAM19func_ov051_02135338Ev kind:function(arm,size=0xb4) addr:0x02135338
_ZN12ActorUnkGYAM19func_ov051_021353ecEv kind:function(arm,size=0xcc) addr:0x021353ec
_ZN12ActorUnkGYAM19func_ov051_021354b8Ev kind:function(arm,size=0x110) addr:0x021354b8
_ZN12ActorUnkGYAM19func_ov051_021355c8Ev kind:function(arm,size=0x10) addr:0x021355c8
_ZN12ActorUnkGYAM19func_ov051_021355d8Ev kind:function(arm,size=0x74) addr:0x021355d8
_ZN12ActorUnkGYAM19func_ov051_0213564cEv kind:function(arm,size=0xa0) addr:0x0213564c
_ZN12ActorUnkGYAM19func_ov051_021356ecEv kind:function(arm,size=0xdc) addr:0x021356ec
_ZN12ActorUnkGYAM19func_ov051_021357c8Ev kind:function(arm,size=0x18) addr:0x021357c8
_ZN12ActorUnkGYAM19func_ov051_021357e0Ev kind:function(arm,size=0x2d0) addr:0x021357e0
_ZN12ActorUnkGYAM19func_ov051_02135ab0Ev kind:function(arm,size=0x12c) addr:0x02135ab0
_ZN12ActorUnkGYAM19func_ov051_02135bdcEv kind:function(arm,size=0x78) addr:0x02135bdc
_ZN12ActorUnkGYAM19func_ov051_02135c54Ev kind:function(arm,size=0x64) addr:0x02135c54
_ZN12ActorUnkGYAM19func_ov051_02135cb8Ev kind:function(arm,size=0x78) addr:0x02135cb8
_ZN12ActorUnkGYAM19func_ov051_02135d30Ev kind:function(arm,size=0x114) addr:0x02135d30
_ZN12ActorUnkGYAM19func_ov051_02135e44Ev kind:function(arm,size=0x520) addr:0x02135e44
_ZN12ActorUnkGYAM19func_ov051_02136364Ev kind:function(arm,size=0x180) addr:0x02136364
_ZN12ActorUnkGYAM19func_ov051_021364e4Ev kind:function(arm,size=0x38) addr:0x021364e4
_ZN12ActorUnkGYAM19func_ov051_0213651cEv kind:function(arm,size=0x5c) addr:0x0213651c
_ZN12ActorUnkGYAM19func_ov051_02136578Ev kind:function(arm,size=0x11c) addr:0x02136578
_ZN12ActorUnkGYAM19func_ov051_02136694Ev kind:function(arm,size=0x508) addr:0x02136694
_ZN12ActorUnkGYAM19func_ov051_02136b9cEv kind:function(arm,size=0x8) addr:0x02136b9c
_ZN12ActorUnkGYAM19func_ov051_02136ba4Ev kind:function(arm,size=0x2c) addr:0x02136ba4
_ZN12ActorUnkGYAM19func_ov051_02136bd0Ev kind:function(arm,size=0x24) addr:0x02136bd0
_ZN12ActorUnkGYAM19func_ov051_02136bf4Ev kind:function(arm,size=0x24) addr:0x02136bf4
_ZN12ActorUnkGYAM19func_ov051_02136c18Ev kind:function(arm,size=0x2c) addr:0x02136c18
_ZN12ActorUnkGYAM19func_ov051_02136c44Ev kind:function(arm,size=0xc) addr:0x02136c44
_ZN12ActorUnkGYAM19func_ov051_02136c50Ev kind:function(arm,size=0x1c) addr:0x02136c50
_ZN12ActorUnkGYAM19func_ov051_02136c6cEv kind:function(arm,size=0x1c) addr:0x02136c6c
_ZN12ActorUnkGYAM19func_ov051_02136c88Ev kind:function(arm,size=0x1c) addr:0x02136c88
_ZN12ActorUnkGYAM19func_ov051_02136ca4Ev kind:function(arm,size=0x1c) addr:0x02136ca4
_ZN19ActorProfileUnkGYAMD1Ev kind:function(arm,size=0x14) addr:0x02136cc0
data_ov051_02136cd8 kind:data(any) addr:0x02136cd8
data_ov051_02136ce8 kind:data(any) addr:0x02136ce8
data_ov051_02136cf8 kind:data(any) addr:0x02136cf8
__sinit_ActorUnkGYAM.cpp kind:function(arm,size=0x8c) addr:0x02136d08
.p__sinit_ActorUnkGYAM.cpp kind:data(word) addr:0x02136d94
data_ov051_02136da8 kind:data(any) addr:0x02136da8
data_ov051_02136dac kind:data(any) addr:0x02136dac
data_ov051_02136db8 kind:data(any) addr:0x02136db8
data_ov051_02136dd0 kind:data(any) addr:0x02136dd0
data_ov051_02136ddc kind:data(any) addr:0x02136ddc
data_ov051_02136df8 kind:data(any) addr:0x02136df8
_ZTV19data_ov051_02136e0c kind:data(any) addr:0x02136e0c
data_ov051_02136e38 kind:data(any) addr:0x02136e38
data_ov051_02136e64 kind:data(any) addr:0x02136e64
_ZTV19data_ov051_02136ea8 kind:data(any) addr:0x02136ea8
data_ov051_02136f08 kind:data(any) addr:0x02136f08
data_ov051_02136fa0 kind:data(any) addr:0x02136fa0
data_ov051_02137038 kind:data(any) addr:0x02137038
data_ov051_02137050 kind:data(any) addr:0x02137050
data_ov051_02137068 kind:data(any) addr:0x02137068
data_ov051_02137080 kind:data(any) addr:0x02137080
data_ov051_02137098 kind:data(any) addr:0x02137098
data_ov051_021370b0 kind:data(any) addr:0x021370b0
data_ov051_021370c8 kind:data(any) addr:0x021370c8
data_ov051_021370e0 kind:data(any) addr:0x021370e0
data_ov051_021370f8 kind:data(any) addr:0x021370f8
data_ov051_02137110 kind:data(any) addr:0x02137110
data_ov051_02137128 kind:data(any) addr:0x02137128
data_ov051_02137140 kind:data(any) addr:0x02137140
data_ov051_02137158 kind:data(any) addr:0x02137158
data_ov051_02137170 kind:data(any) addr:0x02137170
data_ov051_02137188 kind:data(any) addr:0x02137188
data_ov051_021371a0 kind:bss addr:0x021371a0
data_ov051_021371a4 kind:bss addr:0x021371a4
sActorProfileUnkGYAM kind:bss addr:0x021371b0
