_ZN19ActorProfileUnkRMAJ10GetProfileEv kind:function(arm,size=0xc) addr:0x02159be0
_ZN19ActorProfileUnkRMAJ6CreateEv kind:function(arm,size=0x24) addr:0x02159bec
_ZN19ActorProfileUnkRMAJC1Ev kind:function(arm,size=0x28) addr:0x02159c10
_ZN12ActorUnkRMAJC1Ev kind:function(arm,size=0x20) addr:0x02159c38
_ZN12ActorUnkRMAJ19func_ov068_02159c58Ev kind:function(arm,size=0x20) addr:0x02159c58
_ZN12ActorUnkRMAJ19func_ov068_02159c78Ev kind:function(arm,size=0x1c) addr:0x02159c78
_ZN12ActorUnkRMAJ19func_ov068_02159c94Ev kind:function(arm,size=0x4) addr:0x02159c94
_ZN12ActorUnkRMAJ19func_ov068_02159c98Ev kind:function(arm,size=0x4) addr:0x02159c98
_ZN12ActorUnkRMAJD1Ev kind:function(arm,size=0x14) addr:0x02159c9c
_ZN12ActorUnkRMAJD0Ev kind:function(arm,size=0x1c) addr:0x02159cb0
_ZN19ActorProfileUnkRMAJD1Ev kind:function(arm,size=0x14) addr:0x02159ccc
_ZN19ActorProfileUnkAJMN10GetProfileEv kind:function(arm,size=0xc) addr:0x02159ce0
_ZN19ActorProfileUnkAJMN6CreateEv kind:function(arm,size=0x24) addr:0x02159cec
_ZN19ActorProfileUnkAJMNC1Ev kind:function(arm,size=0x50) addr:0x02159d10
_ZN12ActorUnkAJMNC1Ev kind:function(arm,size=0x7c) addr:0x02159d60
_ZN12ActorUnkAJMND1Ev kind:function(arm,size=0x24) addr:0x02159ddc
_ZN12ActorUnkAJMND0Ev kind:function(arm,size=0x2c) addr:0x02159e00
_ZN12ActorUnkAJMN19func_ov068_02159e2cEv kind:function(arm,size=0x38) addr:0x02159e2c
_ZN12ActorUnkAJMN19func_ov068_02159e64Ev kind:function(arm,size=0x38) addr:0x02159e64
_ZN12ActorUnkAJMN19func_ov068_02159e9cEv kind:function(arm,size=0xc) addr:0x02159e9c
_ZN12ActorUnkAJMN19func_ov068_02159ea8Ev kind:function(arm,size=0x48) addr:0x02159ea8
_ZN12ActorUnkAJMN19func_ov068_02159ef0Ev kind:function(arm,size=0x38) addr:0x02159ef0
_ZN12ActorUnkAJMN19func_ov068_02159f28Ev kind:function(arm,size=0x4) addr:0x02159f28
_ZN12ActorUnkAJMN19func_ov068_02159f2cEv kind:function(arm,size=0x24) addr:0x02159f2c
_ZN12ActorUnkAJMN19func_ov068_02159f50Ev kind:function(arm,size=0x20) addr:0x02159f50
_ZN12ActorUnkAJMN19func_ov068_02159f70Ev kind:function(arm,size=0x1d4) addr:0x02159f70
_ZN12ActorUnkAJMN19func_ov068_0215a144Ev kind:function(arm,size=0x4) addr:0x0215a144
_ZN12ActorUnkAJMN19func_ov068_0215a148Ev kind:function(arm,size=0x124) addr:0x0215a148
_ZN12ActorUnkAJMN19func_ov068_0215a26cEv kind:function(arm,size=0x4) addr:0x0215a26c
_ZN12ActorUnkAJMN19func_ov068_0215a270Ev kind:function(arm,size=0xd0) addr:0x0215a270
_ZN12ActorUnkAJMN19func_ov068_0215a340Ev kind:function(arm,size=0x4) addr:0x0215a340
_ZN12ActorUnkAJMN19func_ov068_0215a344Ev kind:function(arm,size=0x68) addr:0x0215a344
_ZN12ActorUnkAJMN19func_ov068_0215a3acEv kind:function(arm,size=0xac) addr:0x0215a3ac
_ZN12ActorUnkAJMN19func_ov068_0215a458Ev kind:function(arm,size=0xb4) addr:0x0215a458
_ZN12ActorUnkAJMN19func_ov068_0215a50cEv kind:function(arm,size=0x6c) addr:0x0215a50c
_ZN12ActorUnkAJMN19func_ov068_0215a578Ev kind:function(arm,size=0xe4) addr:0x0215a578
_ZN12ActorUnkAJMN19func_ov068_0215a65cEv kind:function(arm,size=0x70) addr:0x0215a65c
_ZN12ActorUnkAJMN19func_ov068_0215a6ccEv kind:function(arm,size=0x8c) addr:0x0215a6cc
_ZN12ActorUnkAJMN19func_ov068_0215a758Ev kind:function(arm,size=0xb8) addr:0x0215a758
_ZN19ActorProfileUnkAJMND1Ev kind:function(arm,size=0x14) addr:0x0215a810
_ZN19ActorProfileUnkAJAI10GetProfileEv kind:function(arm,size=0xc) addr:0x0215a824
_ZN19ActorProfileUnkAJAI6CreateEv kind:function(arm,size=0x24) addr:0x0215a830
_ZN19ActorProfileUnkAJAIC1Ev kind:function(arm,size=0x4c) addr:0x0215a854
_ZN12ActorUnkAJAIC1Ev kind:function(arm,size=0xb8) addr:0x0215a8a0
_ZN12ActorUnkAJAI19func_ov068_0215a958Ev kind:function(arm,size=0x70) addr:0x0215a958
_ZN12ActorUnkAJAI19func_ov068_0215a9c8Ev kind:function(arm,size=0xc) addr:0x0215a9c8
_ZN12ActorUnkAJAI19func_ov068_0215a9d4Ev kind:function(arm,size=0x48) addr:0x0215a9d4
_ZN12ActorUnkAJAI19func_ov068_0215aa1cEv kind:function(arm,size=0x6c) addr:0x0215aa1c
_ZN12ActorUnkAJAI19func_ov068_0215aa88Ev kind:function(arm,size=0x30) addr:0x0215aa88
_ZN12ActorUnkAJAI19func_ov068_0215aab8Ev kind:function(arm,size=0x14) addr:0x0215aab8
_ZN12ActorUnkAJAI19func_ov068_0215aaccEv kind:function(arm,size=0x4) addr:0x0215aacc
_ZN12ActorUnkAJAI19func_ov068_0215aad0Ev kind:function(arm,size=0x1c) addr:0x0215aad0
_ZN12ActorUnkAJAI19func_ov068_0215aaecEv kind:function(arm,size=0x34) addr:0x0215aaec
_ZN12ActorUnkAJAI19func_ov068_0215ab20Ev kind:function(arm,size=0xd4) addr:0x0215ab20
_ZN12ActorUnkAJAI19func_ov068_0215abf4Ev kind:function(arm,size=0xac) addr:0x0215abf4
_ZN12ActorUnkAJAI19func_ov068_0215aca0Ev kind:function(arm,size=0x20) addr:0x0215aca0
_ZN12ActorUnkAJAI19func_ov068_0215acc0Ev kind:function(arm,size=0x1b8) addr:0x0215acc0
_ZN12ActorUnkAJAI19func_ov068_0215ae78Ev kind:function(arm,size=0x30) addr:0x0215ae78
_ZN12ActorUnkAJAI19func_ov068_0215aea8Ev kind:function(arm,size=0x30) addr:0x0215aea8
_ZN12ActorUnkAJAI19func_ov068_0215aed8Ev kind:function(arm,size=0x60) addr:0x0215aed8
_ZN12ActorUnkAJAI19func_ov068_0215af38Ev kind:function(arm,size=0x10) addr:0x0215af38
_ZN12ActorUnkAJAI19func_ov068_0215af48Ev kind:function(arm,size=0x84) addr:0x0215af48
_ZN12ActorUnkAJAI19func_ov068_0215afccEv kind:function(arm,size=0x50) addr:0x0215afcc
_ZN12ActorUnkAJAID1Ev kind:function(arm,size=0x20) addr:0x0215b01c
_ZN12ActorUnkAJAID0Ev kind:function(arm,size=0x28) addr:0x0215b03c
_ZN19ActorProfileUnkAJAID1Ev kind:function(arm,size=0x14) addr:0x0215b064
_ZN19ActorProfileUnkAJEM10GetProfileEv kind:function(arm,size=0xc) addr:0x0215b078
_ZN19ActorProfileUnkAJEM6CreateEv kind:function(arm,size=0x24) addr:0x0215b084
_ZN19ActorProfileUnkAJEMC1Ev kind:function(arm,size=0x58) addr:0x0215b0a8
_ZN12ActorUnkAJEMC1Ev kind:function(arm,size=0x158) addr:0x0215b100
_ZN12ActorUnkAJEM19func_ov068_0215b258Ev kind:function(arm,size=0x14) addr:0x0215b258
_ZN12ActorUnkAJEM19func_ov068_0215b26cEv kind:function(arm,size=0x64) addr:0x0215b26c
_ZN12ActorUnkAJEM19func_ov068_0215b2d0Ev kind:function(arm,size=0x24) addr:0x0215b2d0
_ZN12ActorUnkAJEM19func_ov068_0215b2f4Ev kind:function(arm,size=0x48) addr:0x0215b2f4
_ZN12ActorUnkAJEM19func_ov068_0215b33cEv kind:function(arm,size=0x28c) addr:0x0215b33c
_ZN12ActorUnkAJEM19func_ov068_0215b5c8Ev kind:function(arm,size=0xac) addr:0x0215b5c8
_ZN12ActorUnkAJEM19func_ov068_0215b674Ev kind:function(arm,size=0x70) addr:0x0215b674
_ZN12ActorUnkAJEM19func_ov068_0215b6e4Ev kind:function(arm,size=0x88) addr:0x0215b6e4
_ZN12ActorUnkAJEM19func_ov068_0215b76cEv kind:function(arm,size=0x70) addr:0x0215b76c
_ZN12ActorUnkAJEM19func_ov068_0215b7dcEv kind:function(arm,size=0x30) addr:0x0215b7dc
_ZN12ActorUnkAJEM19func_ov068_0215b80cEv kind:function(arm,size=0x90) addr:0x0215b80c
_ZN12ActorUnkAJEM19func_ov068_0215b89cEv kind:function(arm,size=0x120) addr:0x0215b89c
_ZN12ActorUnkAJEM19func_ov068_0215b9bcEv kind:function(arm,size=0x80) addr:0x0215b9bc
_ZN12ActorUnkAJEM19func_ov068_0215ba3cEv kind:function(arm,size=0x194) addr:0x0215ba3c
_ZN12ActorUnkAJEM19func_ov068_0215bbd0Ev kind:function(arm,size=0x70) addr:0x0215bbd0
_ZN12ActorUnkAJEM19func_ov068_0215bc40Ev kind:function(arm,size=0x1a0) addr:0x0215bc40
_ZN12ActorUnkAJEM19func_ov068_0215bde0Ev kind:function(arm,size=0x88) addr:0x0215bde0
_ZN12ActorUnkAJEM19func_ov068_0215be68Ev kind:function(arm,size=0x1b8) addr:0x0215be68
_ZN12ActorUnkAJEM19func_ov068_0215c020Ev kind:function(arm,size=0xfc) addr:0x0215c020
_ZN12ActorUnkAJEM19func_ov068_0215c11cEv kind:function(arm,size=0x4) addr:0x0215c11c
_ZN12ActorUnkAJEM19func_ov068_0215c120Ev kind:function(arm,size=0x80) addr:0x0215c120
_ZN12ActorUnkAJEM19func_ov068_0215c1a0Ev kind:function(arm,size=0x4) addr:0x0215c1a0
_ZN12ActorUnkAJEM19func_ov068_0215c1a4Ev kind:function(arm,size=0x90) addr:0x0215c1a4
_ZN12ActorUnkAJEM19func_ov068_0215c234Ev kind:function(arm,size=0x15c) addr:0x0215c234
_ZN12ActorUnkAJEM19func_ov068_0215c390Ev kind:function(arm,size=0x20) addr:0x0215c390
_ZN12ActorUnkAJEM19func_ov068_0215c3b0Ev kind:function(arm,size=0x6c) addr:0x0215c3b0
_ZN12ActorUnkAJEM19func_ov068_0215c41cEv kind:function(arm,size=0xb8) addr:0x0215c41c
_ZN12ActorUnkAJEM19func_ov068_0215c4d4Ev kind:function(arm,size=0x60) addr:0x0215c4d4
_ZN12ActorUnkAJEM19func_ov068_0215c534Ev kind:function(arm,size=0x24) addr:0x0215c534
_ZN12ActorUnkAJEM19func_ov068_0215c558Ev kind:function(arm,size=0x2c) addr:0x0215c558
_ZN12ActorUnkAJEMD0Ev kind:function(arm,size=0x1c) addr:0x0215c584
_ZN12ActorUnkAJEMD1Ev kind:function(arm,size=0x28) addr:0x0215c5a0
_ZN12ActorUnkAJEM19func_ov068_0215c5c8Ev kind:function(arm,size=0x30) addr:0x0215c5c8
_ZN19ActorProfileUnkAJEMD1Ev kind:function(arm,size=0x14) addr:0x0215c5f8
_ZN19ActorProfileUnkTSCN10GetProfileEv kind:function(arm,size=0xc) addr:0x0215c60c
_ZN19ActorProfileUnkTSCN6CreateEv kind:function(arm,size=0x24) addr:0x0215c618
_ZN19ActorProfileUnkTSCNC1Ev kind:function(arm,size=0x28) addr:0x0215c63c
_ZN12ActorUnkTSCNC1Ev kind:function(arm,size=0x30) addr:0x0215c664
_ZN12ActorUnkTSCN19func_ov068_0215c694Ev kind:function(arm,size=0x1c) addr:0x0215c694
_ZN12ActorUnkTSCN19func_ov068_0215c6b0Ev kind:function(arm,size=0x118) addr:0x0215c6b0
_ZN12ActorUnkTSCN19func_ov068_0215c7c8Ev kind:function(arm,size=0xf0) addr:0x0215c7c8
_ZN12ActorUnkTSCND1Ev kind:function(arm,size=0x14) addr:0x0215c8b8
_ZN12ActorUnkTSCND0Ev kind:function(arm,size=0x1c) addr:0x0215c8cc
_ZN19ActorProfileUnkTSCND1Ev kind:function(arm,size=0x14) addr:0x0215c8e8
_ZN19ActorProfileUnkAJET10GetProfileEv kind:function(arm,size=0xc) addr:0x0215c8fc
_ZN19ActorProfileUnkAJET6CreateEv kind:function(arm,size=0x24) addr:0x0215c908
_ZN19ActorProfileUnkAJETC1Ev kind:function(arm,size=0x54) addr:0x0215c92c
_ZN12ActorUnkAJETC1Ev kind:function(arm,size=0x154) addr:0x0215c980
_ZN12ActorUnkAJET19func_ov068_0215cad4Ev kind:function(arm,size=0x40) addr:0x0215cad4
_ZN12ActorUnkAJET19func_ov068_0215cb14Ev kind:function(arm,size=0x28) addr:0x0215cb14
_ZN12ActorUnkAJET19func_ov068_0215cb3cEv kind:function(arm,size=0x48) addr:0x0215cb3c
_ZN12ActorUnkAJET19func_ov068_0215cb84Ev kind:function(arm,size=0x22c) addr:0x0215cb84
_ZN12ActorUnkAJET19func_ov068_0215cdb0Ev kind:function(arm,size=0x108) addr:0x0215cdb0
_ZN12ActorUnkAJET19func_ov068_0215ceb8Ev kind:function(arm,size=0x178) addr:0x0215ceb8
_ZN12ActorUnkAJET19func_ov068_0215d030Ev kind:function(arm,size=0x20) addr:0x0215d030
_ZN12ActorUnkAJET19func_ov068_0215d050Ev kind:function(arm,size=0x4) addr:0x0215d050
_ZN12ActorUnkAJET19func_ov068_0215d054Ev kind:function(arm,size=0x70) addr:0x0215d054
_ZN12ActorUnkAJET19func_ov068_0215d0c4Ev kind:function(arm,size=0x68) addr:0x0215d0c4
_ZN12ActorUnkAJET19func_ov068_0215d12cEv kind:function(arm,size=0x6c) addr:0x0215d12c
_ZN12ActorUnkAJET19func_ov068_0215d198Ev kind:function(arm,size=0x1c0) addr:0x0215d198
_ZN12ActorUnkAJET19func_ov068_0215d358Ev kind:function(arm,size=0x1c0) addr:0x0215d358
_ZN12ActorUnkAJET19func_ov068_0215d518Ev kind:function(arm,size=0xfc) addr:0x0215d518
_ZN12ActorUnkAJET19func_ov068_0215d614Ev kind:function(arm,size=0x190) addr:0x0215d614
_ZN12ActorUnkAJET19func_ov068_0215d7a4Ev kind:function(arm,size=0x54) addr:0x0215d7a4
_ZN12ActorUnkAJET19func_ov068_0215d7f8Ev kind:function(arm,size=0x6c) addr:0x0215d7f8
_ZN12ActorUnkAJET19func_ov068_0215d864Ev kind:function(arm,size=0x84) addr:0x0215d864
_ZN12ActorUnkAJET19func_ov068_0215d8e8Ev kind:function(arm,size=0x13c) addr:0x0215d8e8
_ZN12ActorUnkAJET19func_ov068_0215da24Ev kind:function(arm,size=0xb8) addr:0x0215da24
_ZN12ActorUnkAJET19func_ov068_0215dadcEv kind:function(arm,size=0x7c) addr:0x0215dadc
_ZN12ActorUnkAJET19func_ov068_0215db58Ev kind:function(arm,size=0x98) addr:0x0215db58
_ZN12ActorUnkAJET19func_ov068_0215dbf0Ev kind:function(arm,size=0xb4) addr:0x0215dbf0
_ZN12ActorUnkAJET19func_ov068_0215dca4Ev kind:function(arm,size=0x6c) addr:0x0215dca4
_ZN12ActorUnkAJET19func_ov068_0215dd10Ev kind:function(arm,size=0x158) addr:0x0215dd10
_ZN12ActorUnkAJET19func_ov068_0215de68Ev kind:function(arm,size=0x190) addr:0x0215de68
_ZN12ActorUnkAJETD1Ev kind:function(arm,size=0x28) addr:0x0215dff8
_ZN12ActorUnkAJETD0Ev kind:function(arm,size=0x30) addr:0x0215e020
_ZN19ActorProfileUnkAJETD1Ev kind:function(arm,size=0x14) addr:0x0215e050
_ZN19ActorProfileUnkAJTM10GetProfileEv kind:function(arm,size=0xc) addr:0x0215e064
_ZN19ActorProfileUnkAJTM6CreateEv kind:function(arm,size=0x24) addr:0x0215e070
_ZN19ActorProfileUnkAJTMC1Ev kind:function(arm,size=0x50) addr:0x0215e094
_ZN12ActorUnkAJTMC1Ev kind:function(arm,size=0xc4) addr:0x0215e0e4
_ZN12ActorUnkAJTMD1Ev kind:function(arm,size=0x24) addr:0x0215e1a8
_ZN12ActorUnkAJTMD0Ev kind:function(arm,size=0x2c) addr:0x0215e1cc
_ZN12ActorUnkAJTM19func_ov068_0215e1f8Ev kind:function(arm,size=0xa0) addr:0x0215e1f8
_ZN12ActorUnkAJTM19func_ov068_0215e298Ev kind:function(arm,size=0xc) addr:0x0215e298
_ZN12ActorUnkAJTM19func_ov068_0215e2a4Ev kind:function(arm,size=0x48) addr:0x0215e2a4
_ZN12ActorUnkAJTM19func_ov068_0215e2ecEv kind:function(arm,size=0x14) addr:0x0215e2ec
_ZN12ActorUnkAJTM19func_ov068_0215e300Ev kind:function(arm,size=0x160) addr:0x0215e300
_ZN12ActorUnkAJTM19func_ov068_0215e460Ev kind:function(arm,size=0x14) addr:0x0215e460
_ZN12ActorUnkAJTM19func_ov068_0215e474Ev kind:function(arm,size=0x38) addr:0x0215e474
_ZN12ActorUnkAJTM19func_ov068_0215e4acEv kind:function(arm,size=0x34) addr:0x0215e4ac
_ZN12ActorUnkAJTM19func_ov068_0215e4e0Ev kind:function(arm,size=0xa8) addr:0x0215e4e0
_ZN12ActorUnkAJTM19func_ov068_0215e588Ev kind:function(arm,size=0x4) addr:0x0215e588
_ZN12ActorUnkAJTM19func_ov068_0215e58cEv kind:function(arm,size=0x1c) addr:0x0215e58c
_ZN12ActorUnkAJTM19func_ov068_0215e5a8Ev kind:function(arm,size=0x1f0) addr:0x0215e5a8
_ZN12ActorUnkAJTM19func_ov068_0215e798Ev kind:function(arm,size=0xa4) addr:0x0215e798
_ZN12ActorUnkAJTM19func_ov068_0215e83cEv kind:function(arm,size=0x54) addr:0x0215e83c
_ZN12ActorUnkAJTM19func_ov068_0215e890Ev kind:function(arm,size=0x2c) addr:0x0215e890
_ZN12ActorUnkAJTM19func_ov068_0215e8bcEv kind:function(arm,size=0x48) addr:0x0215e8bc
_ZN12ActorUnkAJTM19func_ov068_0215e904Ev kind:function(arm,size=0x84) addr:0x0215e904
_ZN12ActorUnkAJTM19func_ov068_0215e988Ev kind:function(arm,size=0x1ec) addr:0x0215e988
_ZN12ActorUnkAJTM19func_ov068_0215eb74Ev kind:function(arm,size=0x18) addr:0x0215eb74
_ZN12ActorUnkAJTM19func_ov068_0215eb8cEv kind:function(arm,size=0x268) addr:0x0215eb8c
_ZN12ActorUnkAJTM19func_ov068_0215edf4Ev kind:function(arm,size=0x140) addr:0x0215edf4
_ZN12ActorUnkAJTM19func_ov068_0215ef34Ev kind:function(arm,size=0x68) addr:0x0215ef34
_ZN19ActorProfileUnkAJTMD1Ev kind:function(arm,size=0x14) addr:0x0215ef9c
_ZN19ActorProfileUnkAJNP10GetProfileEv kind:function(thumb,size=0x8) addr:0x0215efb0
_ZN19ActorProfileUnkAJNP6CreateEv kind:function(thumb,size=0x18) addr:0x0215efb8
_ZN19ActorProfileUnkAJNPC1Ev kind:function(thumb,size=0x44) addr:0x0215efd0
_ZN12ActorUnkAJNP19func_ov068_0215f014Ev kind:function(thumb,size=0xec) addr:0x0215f014
_ZN12ActorUnkAJNP19func_ov068_0215f100Ev kind:function(thumb,size=0x2c) addr:0x0215f100
_ZN12ActorUnkAJNPD0Ev kind:function(thumb,size=0x30) addr:0x0215f12c
_ZN12ActorUnkAJNP19func_ov068_0215f15cEv kind:function(arm,size=0x108) addr:0x0215f15c
_ZN12ActorUnkAJNP19func_ov068_0215f264Ev kind:function(arm,size=0x2c) addr:0x0215f264
_ZN12ActorUnkAJNP19func_ov068_0215f290Ev kind:function(arm,size=0x20) addr:0x0215f290
_ZN12ActorUnkAJNP19func_ov068_0215f2b0Ev kind:function(arm,size=0x58) addr:0x0215f2b0
_ZN12ActorUnkAJNP19func_ov068_0215f308Ev kind:function(arm,size=0x128) addr:0x0215f308
_ZN12ActorUnkAJNP19func_ov068_0215f430Ev kind:function(arm,size=0x14) addr:0x0215f430
_ZN12ActorUnkAJNP19func_ov068_0215f444Ev kind:function(arm,size=0x30) addr:0x0215f444
_ZN12ActorUnkAJNP19func_ov068_0215f474Ev kind:function(arm,size=0x4) addr:0x0215f474
_ZN12ActorUnkAJNP19func_ov068_0215f478Ev kind:function(arm,size=0x84) addr:0x0215f478
_ZN12ActorUnkAJNP19func_ov068_0215f4fcEv kind:function(arm,size=0x90) addr:0x0215f4fc
_ZN12ActorUnkAJNP19func_ov068_0215f58cEv kind:function(arm,size=0x90) addr:0x0215f58c
_ZN12ActorUnkAJNP19func_ov068_0215f61cEv kind:function(arm,size=0x6c) addr:0x0215f61c
_ZN12ActorUnkAJNP19func_ov068_0215f688Ev kind:function(arm,size=0x5c) addr:0x0215f688
_ZN12ActorUnkAJNP19func_ov068_0215f6e4Ev kind:function(arm,size=0x28) addr:0x0215f6e4
_ZN12ActorUnkAJNP19func_ov068_0215f70cEv kind:function(arm,size=0x28) addr:0x0215f70c
_ZN12ActorUnkAJNPD2Ev kind:function(arm,size=0x20) addr:0x0215f734
_ZN19ActorProfileUnkAJNPD1Ev kind:function(arm,size=0x14) addr:0x0215f754
_ZN19ActorProfileUnkAJCR10GetProfileEv kind:function(arm,size=0xc) addr:0x0215f768
_ZN19ActorProfileUnkAJCR6CreateEv kind:function(arm,size=0x24) addr:0x0215f774
_ZN19ActorProfileUnkAJCRC1Ev kind:function(arm,size=0x28) addr:0x0215f798
_ZN12ActorUnkAJCRC1Ev kind:function(arm,size=0x30) addr:0x0215f7c0
_ZN12ActorUnkAJCR19func_ov068_0215f7f0Ev kind:function(arm,size=0xe4) addr:0x0215f7f0
_ZN12ActorUnkAJCR19func_ov068_0215f8d4Ev kind:function(arm,size=0x10) addr:0x0215f8d4
_ZN12ActorUnkAJCRD1Ev kind:function(arm,size=0x14) addr:0x0215f8e4
_ZN12ActorUnkAJCRD0Ev kind:function(arm,size=0x1c) addr:0x0215f8f8
_ZN19ActorProfileUnkAJCRD1Ev kind:function(arm,size=0x14) addr:0x0215f914
func_ov068_0215f928 kind:function(arm,size=0x94) addr:0x0215f928
_ZN19func_ov068_0215f9bcD1Ev kind:function(arm,size=0x48) addr:0x0215f9bc
_ZN19func_ov068_0215fa04D0Ev kind:function(arm,size=0x50) addr:0x0215fa04
func_ov068_0215fa54 kind:function(arm,size=0x8) addr:0x0215fa54
func_ov068_0215fa5c kind:function(arm,size=0x48) addr:0x0215fa5c
func_ov068_0215faa4 kind:function(arm,size=0x198) addr:0x0215faa4
func_ov068_0215fc3c kind:function(arm,size=0x70) addr:0x0215fc3c
func_ov068_0215fcac kind:function(arm,size=0x4) addr:0x0215fcac
func_ov068_0215fcb0 kind:function(arm,size=0x18) addr:0x0215fcb0
func_ov068_0215fcc8 kind:function(arm,size=0x50) addr:0x0215fcc8
func_ov068_0215fd18 kind:function(arm,size=0x48) addr:0x0215fd18
func_ov068_0215fd60 kind:function(arm,size=0x144) addr:0x0215fd60
func_ov068_0215fea4 kind:function(arm,size=0x10) addr:0x0215fea4
func_ov068_0215feb4 kind:function(arm,size=0x30) addr:0x0215feb4
func_ov068_0215fee4 kind:function(arm,size=0x20) addr:0x0215fee4
func_ov068_0215ff04 kind:function(arm,size=0xf8) addr:0x0215ff04
func_ov068_0215fffc kind:function(arm,size=0x4) addr:0x0215fffc
func_ov068_02160000 kind:function(arm,size=0xc) addr:0x02160000
func_ov068_0216000c kind:function(arm,size=0x4) addr:0x0216000c
func_ov068_02160010 kind:function(arm,size=0xc) addr:0x02160010
func_ov068_0216001c kind:function(arm,size=0x20) addr:0x0216001c
func_ov068_0216003c kind:function(arm,size=0x24) addr:0x0216003c
func_ov068_02160060 kind:function(arm,size=0x4) addr:0x02160060
func_ov068_02160064 kind:function(arm,size=0xe0) addr:0x02160064
func_ov068_02160144 kind:function(arm,size=0x1c) addr:0x02160144
func_ov068_02160160 kind:function(arm,size=0x7c) addr:0x02160160
func_ov068_021601dc kind:function(arm,size=0x34) addr:0x021601dc
func_ov068_02160210 kind:function(arm,size=0xa4) addr:0x02160210
func_ov068_021602b4 kind:function(arm,size=0x20) addr:0x021602b4
func_ov068_021602d4 kind:function(arm,size=0x4) addr:0x021602d4
func_ov068_021602d8 kind:function(arm,size=0x4) addr:0x021602d8
func_ov068_021602dc kind:function(arm,size=0x50) addr:0x021602dc
func_ov068_0216032c kind:function(arm,size=0x10) addr:0x0216032c
func_ov068_0216033c kind:function(arm,size=0x30) addr:0x0216033c
func_ov068_0216036c kind:function(arm,size=0x68) addr:0x0216036c
func_ov068_021603d4 kind:function(arm,size=0x20) addr:0x021603d4
func_ov068_021603f4 kind:function(arm,size=0x28) addr:0x021603f4
func_ov068_0216041c kind:function(arm,size=0x20) addr:0x0216041c
func_ov068_0216043c kind:function(arm,size=0x140) addr:0x0216043c
_ZN19ActorProfileUnkMGAJ10GetProfileEv kind:function(arm,size=0xc) addr:0x0216057c
_ZN19ActorProfileUnkMGAJ6CreateEv kind:function(arm,size=0x24) addr:0x02160588
_ZN19ActorProfileUnkMGAJC1Ev kind:function(arm,size=0x60) addr:0x021605ac
_ZN12ActorUnkMGAJC1Ev kind:function(arm,size=0x12c) addr:0x0216060c
_ZN12ActorUnkMGAJ19func_ov068_02160738Ev kind:function(arm,size=0x98) addr:0x02160738
_ZN12ActorUnkMGAJ19func_ov068_021607d0Ev kind:function(arm,size=0x40) addr:0x021607d0
_ZN12ActorUnkMGAJ19func_ov068_02160810Ev kind:function(arm,size=0xc) addr:0x02160810
_ZN12ActorUnkMGAJ19func_ov068_0216081cEv kind:function(arm,size=0x2c) addr:0x0216081c
_ZN12ActorUnkMGAJ19func_ov068_02160848Ev kind:function(arm,size=0xb0) addr:0x02160848
_ZN12ActorUnkMGAJ19func_ov068_021608f8Ev kind:function(arm,size=0xc) addr:0x021608f8
_ZN12ActorUnkMGAJD1Ev kind:function(arm,size=0x28) addr:0x02160904
_ZN12ActorUnkMGAJD0Ev kind:function(arm,size=0x30) addr:0x0216092c
_ZN19ActorProfileUnkMGAJD1Ev kind:function(arm,size=0x14) addr:0x0216095c
_ZN19ActorProfileUnkAJBS10GetProfileEv kind:function(arm,size=0xc) addr:0x02160970
_ZN19ActorProfileUnkAJBS6CreateEv kind:function(arm,size=0x28) addr:0x0216097c
_ZN19ActorProfileUnkAJBSC1Ev kind:function(arm,size=0x54) addr:0x021609a4
_ZN12ActorUnkAJBSC1Ev kind:function(arm,size=0x234) addr:0x021609f8
_ZN12ActorUnkAJBS19func_ov068_02160c2cEv kind:function(arm,size=0x14) addr:0x02160c2c
_ZN12ActorUnkAJBS19func_ov068_02160c40Ev kind:function(arm,size=0x114) addr:0x02160c40
_ZN12ActorUnkAJBS19func_ov068_02160d54Ev kind:function(arm,size=0x4) addr:0x02160d54
_ZN12ActorUnkAJBS19func_ov068_02160d58Ev kind:function(arm,size=0x1c) addr:0x02160d58
_ZN12ActorUnkAJBS19func_ov068_02160d74Ev kind:function(arm,size=0x48) addr:0x02160d74
_ZN12ActorUnkAJBS19func_ov068_02160dbcEv kind:function(arm,size=0x68) addr:0x02160dbc
_ZN12ActorUnkAJBS19func_ov068_02160e24Ev kind:function(arm,size=0x230) addr:0x02160e24
_ZN12ActorUnkAJBS19func_ov068_02161054Ev kind:function(arm,size=0xfc) addr:0x02161054
_ZN12ActorUnkAJBS19func_ov068_02161150Ev kind:function(arm,size=0x40) addr:0x02161150
_ZN12ActorUnkAJBS19func_ov068_02161190Ev kind:function(arm,size=0xf0) addr:0x02161190
_ZN12ActorUnkAJBS19func_ov068_02161280Ev kind:function(arm,size=0x64) addr:0x02161280
_ZN12ActorUnkAJBS19func_ov068_021612e4Ev kind:function(arm,size=0x84) addr:0x021612e4
_ZN12ActorUnkAJBS19func_ov068_02161368Ev kind:function(arm,size=0x64) addr:0x02161368
_ZN12ActorUnkAJBS19func_ov068_021613ccEv kind:function(arm,size=0x44) addr:0x021613cc
_ZN12ActorUnkAJBS19func_ov068_02161410Ev kind:function(arm,size=0x7c) addr:0x02161410
_ZN12ActorUnkAJBS19func_ov068_0216148cEv kind:function(arm,size=0x220) addr:0x0216148c
_ZN12ActorUnkAJBS19func_ov068_021616acEv kind:function(arm,size=0x9c) addr:0x021616ac
_ZN12ActorUnkAJBS19func_ov068_02161748Ev kind:function(arm,size=0xfc) addr:0x02161748
_ZN12ActorUnkAJBS19func_ov068_02161844Ev kind:function(arm,size=0x20) addr:0x02161844
_ZN12ActorUnkAJBS19func_ov068_02161864Ev kind:function(arm,size=0x210) addr:0x02161864
_ZN12ActorUnkAJBS19func_ov068_02161a74Ev kind:function(arm,size=0x190) addr:0x02161a74
_ZN12ActorUnkAJBS19func_ov068_02161c04Ev kind:function(arm,size=0xc4) addr:0x02161c04
_ZN12ActorUnkAJBS19func_ov068_02161cc8Ev kind:function(arm,size=0x6c) addr:0x02161cc8
_ZN12ActorUnkAJBS19func_ov068_02161d34Ev kind:function(arm,size=0x29c) addr:0x02161d34
_ZN12ActorUnkAJBS19func_ov068_02161fd0Ev kind:function(arm,size=0x18) addr:0x02161fd0
_ZN12ActorUnkAJBS19func_ov068_02161fe8Ev kind:function(arm,size=0x68) addr:0x02161fe8
_ZN12ActorUnkAJBS19func_ov068_02162050Ev kind:function(arm,size=0x34) addr:0x02162050
_ZN12ActorUnkAJBS19func_ov068_02162084Ev kind:function(arm,size=0x1a4) addr:0x02162084
_ZN12ActorUnkAJBS19func_ov068_02162228Ev kind:function(arm,size=0x16c) addr:0x02162228
_ZN12ActorUnkAJBSD0Ev kind:function(arm,size=0x1c) addr:0x02162394
_ZN12ActorUnkAJBSD1Ev kind:function(arm,size=0x38) addr:0x021623b0
_ZN12ActorUnkAJBS19func_ov068_021623e8Ev kind:function(arm,size=0x40) addr:0x021623e8
_ZN19ActorProfileUnkAJBSD1Ev kind:function(arm,size=0x14) addr:0x02162428
_ZN19ActorProfileUnkRMA110GetProfileEv kind:function(arm,size=0xc) addr:0x0216243c
_ZN19ActorProfileUnkRMA16CreateEv kind:function(arm,size=0x24) addr:0x02162448
_ZN19ActorProfileUnkRMA1C1Ev kind:function(arm,size=0x28) addr:0x0216246c
_ZN12ActorUnkRMA1C1Ev kind:function(arm,size=0x20) addr:0x02162494
_ZN12ActorUnkRMA119func_ov068_02160450Ev kind:function(arm,size=0x28) addr:0x021624b4
_ZN12ActorUnkRMA119func_ov068_02160478Ev kind:function(arm,size=0x4) addr:0x021624dc
_ZN12ActorUnkRMA119func_ov068_0216047cEv kind:function(arm,size=0x50) addr:0x021624e0
_ZN12ActorUnkRMA1D1Ev kind:function(arm,size=0x20) addr:0x02162530
_ZN12ActorUnkRMA1D0Ev kind:function(arm,size=0x28) addr:0x02162550
_ZN19ActorProfileUnkRMA1D1Ev kind:function(arm,size=0x14) addr:0x02162578
_ZN19ActorProfileUnkRMA210GetProfileEv kind:function(arm,size=0xc) addr:0x0216258c
_ZN19ActorProfileUnkRMA26CreateEv kind:function(arm,size=0x24) addr:0x02162598
_ZN19ActorProfileUnkRMA2C1Ev kind:function(arm,size=0x28) addr:0x021625bc
_ZN12ActorUnkRMA2C1Ev kind:function(arm,size=0x20) addr:0x021625e4
_ZN12ActorUnkRMA219func_ov068_021605a0Ev kind:function(arm,size=0x28) addr:0x02162604
_ZN12ActorUnkRMA219func_ov068_021605c8Ev kind:function(arm,size=0x4) addr:0x0216262c
_ZN12ActorUnkRMA219func_ov068_021605ccEv kind:function(arm,size=0x50) addr:0x02162630
_ZN12ActorUnkRMA2D1Ev kind:function(arm,size=0x20) addr:0x02162680
_ZN12ActorUnkRMA2D0Ev kind:function(arm,size=0x28) addr:0x021626a0
_ZN19ActorProfileUnkRMA2D1Ev kind:function(arm,size=0x14) addr:0x021626c8
_ZN19ActorProfileUnkRMA010GetProfileEv kind:function(arm,size=0xc) addr:0x021626dc
_ZN19ActorProfileUnkRMA06CreateEv kind:function(arm,size=0x24) addr:0x021626e8
_ZN19ActorProfileUnkRMA0C1Ev kind:function(arm,size=0x28) addr:0x0216270c
_ZN12ActorUnkRMA0C1Ev kind:function(arm,size=0x20) addr:0x02162734
_ZN12ActorUnkRMA019func_ov068_021606f0Ev kind:function(arm,size=0x28) addr:0x02162754
_ZN12ActorUnkRMA019func_ov068_02160718Ev kind:function(arm,size=0x4) addr:0x0216277c
_ZN12ActorUnkRMA019func_ov068_0216071cEv kind:function(arm,size=0x50) addr:0x02162780
_ZN12ActorUnkRMA0D1Ev kind:function(arm,size=0x20) addr:0x021627d0
_ZN12ActorUnkRMA0D0Ev kind:function(arm,size=0x28) addr:0x021627f0
_ZN19ActorProfileUnkRMA0D1Ev kind:function(arm,size=0x14) addr:0x02162818
_ZN19ActorProfileUnkRMA310GetProfileEv kind:function(arm,size=0xc) addr:0x0216282c
_ZN19ActorProfileUnkRMA36CreateEv kind:function(arm,size=0x24) addr:0x02162838
_ZN19ActorProfileUnkRMA3C1Ev kind:function(arm,size=0x28) addr:0x0216285c
_ZN12ActorUnkRMA3C1Ev kind:function(arm,size=0x20) addr:0x02162884
_ZN12ActorUnkRMA319func_ov068_02160840Ev kind:function(arm,size=0x28) addr:0x021628a4
_ZN12ActorUnkRMA319func_ov068_02160868Ev kind:function(arm,size=0x4) addr:0x021628cc
_ZN12ActorUnkRMA319func_ov068_0216086cEv kind:function(arm,size=0x50) addr:0x021628d0
_ZN12ActorUnkRMA3D1Ev kind:function(arm,size=0x20) addr:0x02162920
_ZN12ActorUnkRMA3D0Ev kind:function(arm,size=0x28) addr:0x02162940
_ZN19ActorProfileUnkRMA3D1Ev kind:function(arm,size=0x14) addr:0x02162968
_ZN19ActorProfileUnkAJSP10GetProfileEv kind:function(arm,size=0xc) addr:0x0216297c
_ZN19ActorProfileUnkAJSP6CreateEv kind:function(arm,size=0x24) addr:0x02162988
_ZN19ActorProfileUnkAJSPC1Ev kind:function(arm,size=0x30) addr:0x021629ac
_ZN12ActorUnkAJSPC1Ev kind:function(arm,size=0x90) addr:0x021629dc
_ZN12ActorUnkAJSP19func_ov068_02160a08Ev kind:function(arm,size=0xc8) addr:0x02162a6c
_ZN12ActorUnkAJSP19func_ov068_02160ad0Ev kind:function(arm,size=0x34) addr:0x02162b34
_ZN12ActorUnkAJSPD1Ev kind:function(arm,size=0x28) addr:0x02162b68
_ZN12ActorUnkAJSPD0Ev kind:function(arm,size=0x30) addr:0x02162b90
_ZN19ActorProfileUnkAJSPD1Ev kind:function(arm,size=0x14) addr:0x02162bc0
_ZN23MapObjectProfileUnkDRVC10GetProfileEv kind:function(arm,size=0xc) addr:0x02162bd4
_ZN23MapObjectProfileUnkDRVC6CreateEv kind:function(arm,size=0x24) addr:0x02162be0
_ZN23MapObjectProfileUnkDRVCC1Ev kind:function(arm,size=0x48) addr:0x02162c04
_ZN16MapObjectUnkDRVC19func_ov068_02160be8Ev kind:function(arm,size=0x3c) addr:0x02162c4c
_ZN16MapObjectUnkDRVCD1Ev kind:function(arm,size=0x1c) addr:0x02162c88
_ZN16MapObjectUnkDRVCD0Ev kind:function(arm,size=0x24) addr:0x02162ca4
_ZN16MapObjectUnkDRVC19func_ov068_02160c64Ev kind:function(arm,size=0xc) addr:0x02162cc8
_ZN16MapObjectUnkDRVC19func_ov068_02160c70Ev kind:function(arm,size=0x84) addr:0x02162cd4
_ZN16MapObjectUnkDRVCC1Ev kind:function(arm,size=0xf4) addr:0x02162d58
_ZN16MapObjectUnkDRVC19func_ov068_02160de8Ev kind:function(arm,size=0xec) addr:0x02162e4c
_ZN16MapObjectUnkDRVC19func_ov068_02160ed4Ev kind:function(arm,size=0x4c) addr:0x02162f38
_ZN16MapObjectUnkDRVC19func_ov068_02160f20Ev kind:function(arm,size=0x29c) addr:0x02162f84
_ZN16MapObjectUnkDRVC19func_ov068_021611bcEv kind:function(arm,size=0x20c) addr:0x02163220
_ZN16MapObjectUnkDRVC19func_ov068_021613c8Ev kind:function(arm,size=0x14) addr:0x0216342c
_ZN16MapObjectUnkDRVC19func_ov068_021613dcEv kind:function(arm,size=0x14) addr:0x02163440
_ZN16MapObjectUnkDRVC19func_ov068_021613f0Ev kind:function(arm,size=0x1c) addr:0x02163454
_ZN16MapObjectUnkDRVC19func_ov068_0216140cEv kind:function(arm,size=0x88) addr:0x02163470
_ZN16MapObjectUnkDRVC19func_ov068_02161494Ev kind:function(arm,size=0x38) addr:0x021634f8
_ZN16MapObjectUnkDRVC19func_ov068_021614ccEv kind:function(arm,size=0x40) addr:0x02163530
_ZN23MapObjectProfileUnkDRVCD1Ev kind:function(arm,size=0x14) addr:0x02163570
_ZN23MapObjectProfileUnkRKAG10GetProfileEv kind:function(arm,size=0xc) addr:0x02163584
_ZN23MapObjectProfileUnkRKAG6CreateEv kind:function(arm,size=0x24) addr:0x02163590
_ZN23MapObjectProfileUnkRKAGC1Ev kind:function(arm,size=0x9c) addr:0x021635b4
_ZN16MapObjectUnkRKAGC1Ev kind:function(arm,size=0x88) addr:0x02163650
_ZN16MapObjectUnkRKAG19func_ov068_02161674Ev kind:function(arm,size=0x10) addr:0x021636d8
_ZN16MapObjectUnkRKAG19func_ov068_02161684Ev kind:function(arm,size=0x8) addr:0x021636e8
_ZN16MapObjectUnkRKAG19func_ov068_0216168cEv kind:function(arm,size=0x8) addr:0x021636f0
_ZN16MapObjectUnkRKAG19func_ov068_02161694Ev kind:function(arm,size=0x4) addr:0x021636f8
_ZN16MapObjectUnkRKAG19func_ov068_02161698Ev kind:function(arm,size=0x54) addr:0x021636fc
_ZN16MapObjectUnkRKAGD1Ev kind:function(arm,size=0x20) addr:0x02163750
_ZN16MapObjectUnkRKAGD0Ev kind:function(arm,size=0x28) addr:0x02163770
_ZN23MapObjectProfileUnkRKAGD1Ev kind:function(arm,size=0x14) addr:0x02163798
func_ov068_02161748 kind:function(arm,size=0xbc) addr:0x021637ac
_ZN19func_ov068_02161804D1Ev kind:function(arm,size=0x20) addr:0x02163868
_ZN19func_ov068_02161824D0Ev kind:function(arm,size=0x28) addr:0x02163888
func_ov068_0216184c kind:function(arm,size=0xec) addr:0x021638b0
func_ov068_02161938 kind:function(arm,size=0x4) addr:0x0216399c
func_ov068_0216193c kind:function(arm,size=0x4) addr:0x021639a0
func_ov068_02161940 kind:function(arm,size=0x100) addr:0x021639a4
func_ov068_02161a40 kind:function(arm,size=0x3c) addr:0x02163aa4
func_ov068_02161a7c kind:function(arm,size=0x3c) addr:0x02163ae0
func_ov068_02161ab8 kind:function(arm,size=0x9c) addr:0x02163b1c
func_ov068_02161b54 kind:function(arm,size=0x4) addr:0x02163bb8
func_ov068_02161b58 kind:function(arm,size=0x4) addr:0x02163bbc
func_ov068_02161b5c kind:function(arm,size=0x8) addr:0x02163bc0
func_ov068_02161b64 kind:function(arm,size=0x7c) addr:0x02163bc8
func_ov068_02161be0 kind:function(arm,size=0x108) addr:0x02163c44
func_ov068_02161ce8 kind:function(arm,size=0x114) addr:0x02163d4c
data_ov068_02163e60 kind:data(any) addr:0x02163e60
data_ov068_02163e74 kind:data(any) addr:0x02163e74
data_ov068_02163e80 kind:data(any) addr:0x02163e80
data_ov068_02163e8c kind:data(any) addr:0x02163e8c
data_ov068_02163e98 kind:data(any) addr:0x02163e98
data_ov068_02163ea0 kind:data(any) addr:0x02163ea0
data_ov068_02163ea8 kind:data(any) addr:0x02163ea8
data_ov068_02163ebc kind:data(any) addr:0x02163ebc
__sinit_ActorUnkRMAJ.cpp kind:function(arm,size=0x50) addr:0x02163ed0
__sinit_ActorUnkAJMN.cpp kind:function(arm,size=0x50) addr:0x02163f20
__sinit_ActorUnkAJAI.cpp kind:function(arm,size=0x50) addr:0x02163f70
__sinit_ActorUnkAJEM.cpp kind:function(arm,size=0x50) addr:0x02163fc0
__sinit_ActorUnkTSCN.cpp kind:function(arm,size=0x50) addr:0x02164010
__sinit_ActorUnkAJET.cpp kind:function(arm,size=0x50) addr:0x02164060
__sinit_ActorUnkAJTM.cpp kind:function(arm,size=0x50) addr:0x021640b0
__sinit_ActorUnkAJNP.cpp kind:function(arm,size=0x50) addr:0x02164100
__sinit_ActorUnkAJCR.cpp kind:function(arm,size=0x50) addr:0x02164150
__sinit_ov068_021641a0 kind:function(arm,size=0x50) addr:0x021641a0
__sinit_ActorUnkMGAJ.cpp kind:function(arm,size=0x50) addr:0x021641f0
__sinit_ActorUnkAJBS.cpp kind:function(arm,size=0x50) addr:0x02164240
__sinit_ActorUnkRMA1.cpp kind:function(arm,size=0x50) addr:0x02164290
__sinit_ActorUnkRMA2.cpp kind:function(arm,size=0x50) addr:0x021642e0
__sinit_ActorUnkRMA0.cpp kind:function(arm,size=0x50) addr:0x02164330
__sinit_ActorUnkRMA3.cpp kind:function(arm,size=0x50) addr:0x02164380
__sinit_ActorUnkAJSP.cpp kind:function(arm,size=0x50) addr:0x021643d0
__sinit_MapObjectUnkDRVC.cpp kind:function(arm,size=0x50) addr:0x02164420
__sinit_MapObjectUnkRKAG.cpp kind:function(arm,size=0x50) addr:0x02164470
.p__sinit_ActorUnkRMAJ.cpp kind:data(word) addr:0x021644c0
.p__sinit_ActorUnkAJMN.cpp kind:data(word) addr:0x021644c4
.p__sinit_ActorUnkAJAI.cpp kind:data(word) addr:0x021644c8
.p__sinit_ActorUnkAJEM.cpp kind:data(word) addr:0x021644cc
.p__sinit_ActorUnkTSCN.cpp kind:data(word) addr:0x021644d0
.p__sinit_ActorUnkAJET.cpp kind:data(word) addr:0x021644d4
.p__sinit_ActorUnkAJTM.cpp kind:data(word) addr:0x021644d8
.p__sinit_ActorUnkAJNP.cpp kind:data(word) addr:0x021644dc
.p__sinit_ActorUnkAJCR.cpp kind:data(word) addr:0x021644e0
.p__sinit_ov068_021641a0 kind:data(word) addr:0x021644e4
.p__sinit_ActorUnkMGAJ.cpp kind:data(word) addr:0x021644e8
.p__sinit_ActorUnkAJBS.cpp kind:data(word) addr:0x021644ec
.p__sinit_ActorUnkRMA1.cpp kind:data(word) addr:0x021644f0
.p__sinit_ActorUnkRMA2.cpp kind:data(word) addr:0x021644f4
.p__sinit_ActorUnkRMA0.cpp kind:data(word) addr:0x021644f8
.p__sinit_ActorUnkRMA3.cpp kind:data(word) addr:0x021644fc
.p__sinit_ActorUnkAJSP.cpp kind:data(word) addr:0x02164500
.p__sinit_MapObjectUnkDRVC.cpp kind:data(word) addr:0x02164504
.p__sinit_MapObjectUnkRKAG.cpp kind:data(word) addr:0x02164508
_ZTV19data_ov068_02164520 kind:data(any) addr:0x02164520
_ZTV19data_ov068_02164544 kind:data(any) addr:0x02164544
_ZTV19data_ov068_021645a0 kind:data(any) addr:0x021645a0
data_ov068_021645c4 kind:data(any) addr:0x021645c4
data_ov068_021645ec kind:data(any) addr:0x021645ec
_ZTV19data_ov068_02164614 kind:data(any) addr:0x02164614
_ZTV19data_ov068_02164670 kind:data(any) addr:0x02164670
data_ov068_02164694 kind:data(any) addr:0x02164694
data_ov068_021646bc kind:data(any) addr:0x021646bc
_ZTV19data_ov068_021646e4 kind:data(any) addr:0x021646e4
data_ov068_0216473c kind:data(any) addr:0x0216473c ambiguous
_ZTV19data_ov068_02164740 kind:data(any) addr:0x02164740
data_ov068_02164764 kind:data(any) addr:0x02164764
data_ov068_021647a4 kind:data(any) addr:0x021647a4
data_ov068_021647ec kind:data(any) addr:0x021647ec
_ZTV19data_ov068_02164830 kind:data(any) addr:0x02164830
data_ov068_02164890 kind:data(any) addr:0x02164890
data_ov068_021648e4 kind:data(any) addr:0x021648e4 ambiguous
data_ov068_02164938 kind:data(any) addr:0x02164938
data_ov068_02164950 kind:data(any) addr:0x02164950
_ZTV19data_ov068_02164968 kind:data(any) addr:0x02164968
_ZTV19data_ov068_0216498c kind:data(any) addr:0x0216498c
_ZTV19data_ov068_021649e8 kind:data(any) addr:0x021649e8
data_ov068_02164a08 kind:data(any) addr:0x02164a08 ambiguous
data_ov068_02164a0c kind:data(any) addr:0x02164a0c
data_ov068_02164a34 kind:data(any) addr:0x02164a34
_ZTV19data_ov068_02164a5c kind:data(any) addr:0x02164a5c
data_ov068_02164abc kind:data(any) addr:0x02164abc
data_ov068_02164b64 kind:data(any) addr:0x02164b64
data_ov068_02164b7c kind:data(any) addr:0x02164b7c
data_ov068_02164b94 kind:data(any) addr:0x02164b94
data_ov068_02164bac kind:data(any) addr:0x02164bac
_ZTV19data_ov068_02164bc4 kind:data(any) addr:0x02164bc4
_ZTV19data_ov068_02164be8 kind:data(any) addr:0x02164be8
_ZTV19data_ov068_02164c44 kind:data(any) addr:0x02164c44
data_ov068_02164c68 kind:data(any) addr:0x02164c68
data_ov068_02164cb8 kind:data(any) addr:0x02164cb8
data_ov068_02164d08 kind:data(any) addr:0x02164d08
_ZTV19data_ov068_02164d98 kind:data(any) addr:0x02164d98
_ZTV19data_ov068_02164eb4 kind:data(any) addr:0x02164eb4
_ZTV19data_ov068_02164fd0 kind:data(any) addr:0x02164fd0
_ZTV19data_ov068_02164ff4 kind:data(any) addr:0x02164ff4
data_ov068_02165050 kind:data(any) addr:0x02165050
data_ov068_02165080 kind:data(any) addr:0x02165080
data_ov068_021650b8 kind:data(any) addr:0x021650b8
_ZTV19data_ov068_021650e8 kind:data(any) addr:0x021650e8
data_ov068_0216510c kind:data(any) addr:0x0216510c
_ZTV19data_ov068_02165154 kind:data(any) addr:0x02165154
_ZTV19data_ov068_0216518c kind:data(any) addr:0x0216518c ambiguous
data_ov068_02165248 kind:data(any) addr:0x02165248 ambiguous
_ZTV19data_ov068_02165270 kind:data(any) addr:0x02165270
data_ov068_0216529c kind:data(any) addr:0x0216529c
data_ov068_021652c0 kind:data(any) addr:0x021652c0
data_ov068_021652f0 kind:data(any) addr:0x021652f0
_ZTV19data_ov068_02165320 kind:data(any) addr:0x02165320
data_ov068_02165380 kind:data(any) addr:0x02165380
data_ov068_021653b0 kind:data(any) addr:0x021653b0
data_ov068_02165410 kind:data(any) addr:0x02165410
data_ov068_02165470 kind:data(any) addr:0x02165470
_ZTV19data_ov068_02165488 kind:data(any) addr:0x02165488
_ZTV19data_ov068_021654ac kind:data(any) addr:0x021654ac
_ZTV19data_ov068_0216550c kind:data(any) addr:0x0216550c
_ZTV19data_ov068_02165510 kind:data(any) addr:0x02165510 ambiguous
_ZTV19data_ov068_02165530 kind:data(any) addr:0x02165530
_ZTV19data_ov068_02165590 kind:data(any) addr:0x02165590
_ZTV19data_ov068_021655b4 kind:data(any) addr:0x021655b4
_ZTV19data_ov068_02165614 kind:data(any) addr:0x02165614
_ZTV19data_ov068_02165638 kind:data(any) addr:0x02165638
_ZTV19data_ov068_02165698 kind:data(any) addr:0x02165698
data_ov068_021656c4 kind:data(any) addr:0x021656c4
_ZTV19data_ov068_021656e4 kind:data(any) addr:0x021656e4
data_ov068_02165740 kind:data(any) addr:0x02165740
data_ov068_02165748 kind:data(any) addr:0x02165748
data_ov068_02165750 kind:data(any) addr:0x02165750
data_ov068_02165758 kind:data(any) addr:0x02165758
data_ov068_02165760 kind:data(any) addr:0x02165760
data_ov068_02165768 kind:data(any) addr:0x02165768
data_ov068_02165770 kind:data(any) addr:0x02165770
data_ov068_02165778 kind:data(any) addr:0x02165778
data_ov068_02165780 kind:data(any) addr:0x02165780
data_ov068_02165788 kind:data(any) addr:0x02165788
data_ov068_02165790 kind:data(any) addr:0x02165790
data_ov068_02165798 kind:data(any) addr:0x02165798
data_ov068_021657a0 kind:data(any) addr:0x021657a0
data_ov068_021657a8 kind:data(any) addr:0x021657a8
data_ov068_021657b0 kind:data(any) addr:0x021657b0
data_ov068_021657b8 kind:data(any) addr:0x021657b8
data_ov068_021657c0 kind:data(any) addr:0x021657c0
data_ov068_021657c8 kind:data(any) addr:0x021657c8
data_ov068_021657d0 kind:data(any) addr:0x021657d0
data_ov068_021657d8 kind:data(any) addr:0x021657d8
data_ov068_021657e0 kind:data(any) addr:0x021657e0
data_ov068_021657e8 kind:data(any) addr:0x021657e8
data_ov068_021657f0 kind:data(any) addr:0x021657f0
data_ov068_021657f8 kind:data(any) addr:0x021657f8
data_ov068_02165800 kind:data(any) addr:0x02165800
data_ov068_02165808 kind:data(any) addr:0x02165808
data_ov068_02165810 kind:data(any) addr:0x02165810
data_ov068_02165818 kind:data(any) addr:0x02165818
data_ov068_02165820 kind:data(any) addr:0x02165820
data_ov068_0216582c kind:data(any) addr:0x0216582c
data_ov068_02165838 kind:data(any) addr:0x02165838
data_ov068_02165844 kind:data(any) addr:0x02165844
data_ov068_02165850 kind:data(any) addr:0x02165850
data_ov068_0216585c kind:data(any) addr:0x0216585c
data_ov068_02165868 kind:data(any) addr:0x02165868
data_ov068_02165874 kind:data(any) addr:0x02165874
data_ov068_02165880 kind:data(any) addr:0x02165880
data_ov068_0216588c kind:data(any) addr:0x0216588c
data_ov068_02165898 kind:data(any) addr:0x02165898
data_ov068_021658a4 kind:data(any) addr:0x021658a4
data_ov068_021658b0 kind:data(any) addr:0x021658b0
data_ov068_021658bc kind:data(any) addr:0x021658bc
data_ov068_021658c8 kind:data(any) addr:0x021658c8
data_ov068_021658e4 kind:data(any) addr:0x021658e4
data_ov068_02165900 kind:data(any) addr:0x02165900
data_ov068_0216591c kind:data(any) addr:0x0216591c
data_ov068_02165954 kind:data(any) addr:0x02165954
data_ov068_02165a60 kind:data(any) addr:0x02165a60
data_ov068_02165a7c kind:data(any) addr:0x02165a7c
data_ov068_02165a98 kind:data(any) addr:0x02165a98
data_ov068_02165ac0 kind:data(any) addr:0x02165ac0
data_ov068_02165b04 kind:data(any) addr:0x02165b04
_ZGVN15ProfileInstanceI19ActorProfileUnkRMAJE8sProfileE kind:bss addr:0x02165b20
@32977 kind:bss addr:0x02165b24
_ZN15ProfileInstanceI19ActorProfileUnkRMAJE8sProfileE kind:bss addr:0x02165b30
_ZGVN15ProfileInstanceI19ActorProfileUnkAJMNE8sProfileE kind:bss addr:0x02165b6c
@32983 kind:bss addr:0x02165b70
_ZN15ProfileInstanceI19ActorProfileUnkAJMNE8sProfileE kind:bss addr:0x02165b7c
_ZGVN15ProfileInstanceI19ActorProfileUnkAJAIE8sProfileE kind:bss addr:0x02165bb8
@32989 kind:bss addr:0x02165bbc
_ZN15ProfileInstanceI19ActorProfileUnkAJAIE8sProfileE kind:bss addr:0x02165bc8
_ZGVN15ProfileInstanceI19ActorProfileUnkAJEME8sProfileE kind:bss addr:0x02165ca0
@32995 kind:bss addr:0x02165ca8
_ZN15ProfileInstanceI19ActorProfileUnkAJEME8sProfileE kind:bss addr:0x02165cb4
_ZGVN15ProfileInstanceI19ActorProfileUnkTSCNE8sProfileE kind:bss addr:0x02165d8c
@33001 kind:bss addr:0x02165d90
_ZN15ProfileInstanceI19ActorProfileUnkTSCNE8sProfileE kind:bss addr:0x02165d9c
_ZGVN15ProfileInstanceI19ActorProfileUnkAJETE8sProfileE kind:bss addr:0x02165dd8
@33007 kind:bss addr:0x02165ddc
_ZN15ProfileInstanceI19ActorProfileUnkAJETE8sProfileE kind:bss addr:0x02165de8
_ZGVN15ProfileInstanceI19ActorProfileUnkAJTME8sProfileE kind:bss addr:0x02165ec0
@33013 kind:bss addr:0x02165ec4
_ZN15ProfileInstanceI19ActorProfileUnkAJTME8sProfileE kind:bss addr:0x02165ed0
_ZGVN15ProfileInstanceI19ActorProfileUnkAJNPE8sProfileE kind:bss addr:0x02165f0c
@33019 kind:bss addr:0x02165f10
_ZN15ProfileInstanceI19ActorProfileUnkAJNPE8sProfileE kind:bss addr:0x02165f1c
data_ov068_02165fe8 kind:bss addr:0x02165fe8 ambiguous
data_ov068_02165ff0 kind:bss addr:0x02165ff0 ambiguous
_ZGVN15ProfileInstanceI19ActorProfileUnkAJCRE8sProfileE kind:bss addr:0x02165ff4
@33025 kind:bss addr:0x02165ff8
_ZN15ProfileInstanceI19ActorProfileUnkAJCRE8sProfileE kind:bss addr:0x02166004
data_ov068_02166040 kind:bss addr:0x02166040
data_ov068_02166048 kind:bss addr:0x02166048
data_ov068_02166054 kind:bss addr:0x02166054
data_ov068_0216611c kind:bss addr:0x0216611c ambiguous
data_ov068_02166254 kind:bss addr:0x02166254
_ZGVN15ProfileInstanceI19ActorProfileUnkMGAJE8sProfileE kind:bss addr:0x021662b4
@33031 kind:bss addr:0x021662b8
_ZN15ProfileInstanceI19ActorProfileUnkMGAJE8sProfileE kind:bss addr:0x021662c4
data_ov068_0216639c kind:bss addr:0x0216639c
_ZGVN15ProfileInstanceI19ActorProfileUnkAJBSE8sProfileE kind:bss addr:0x021663a0
@33037 kind:bss addr:0x021663a4 ambiguous
_ZN15ProfileInstanceI19ActorProfileUnkAJBSE8sProfileE kind:bss addr:0x021663ac
_ZGVN15ProfileInstanceI19ActorProfileUnkRMA1E8sProfileE kind:bss addr:0x02166484
@33043 kind:bss addr:0x02166488
_ZN15ProfileInstanceI19ActorProfileUnkRMA1E8sProfileE kind:bss addr:0x02166494
_ZGVN15ProfileInstanceI19ActorProfileUnkRMA2E8sProfileE kind:bss addr:0x0216656c
@33049 kind:bss addr:0x02166570
_ZN15ProfileInstanceI19ActorProfileUnkRMA2E8sProfileE kind:bss addr:0x0216657c
_ZGVN15ProfileInstanceI19ActorProfileUnkRMA0E8sProfileE kind:bss addr:0x02166654
@33055 kind:bss addr:0x02166658
_ZN15ProfileInstanceI19ActorProfileUnkRMA0E8sProfileE kind:bss addr:0x02166664
_ZGVN15ProfileInstanceI19ActorProfileUnkRMA3E8sProfileE kind:bss addr:0x0216673c
@33061 kind:bss addr:0x02166740
_ZN15ProfileInstanceI19ActorProfileUnkRMA3E8sProfileE kind:bss addr:0x0216674c
_ZGVN15ProfileInstanceI19ActorProfileUnkAJSPE8sProfileE kind:bss addr:0x02166824
@33067 kind:bss addr:0x02166828
_ZN15ProfileInstanceI19ActorProfileUnkAJSPE8sProfileE kind:bss addr:0x02166834
data_ov068_021668f0 kind:bss addr:0x021668f0 ambiguous
_ZGVN15ProfileInstanceI23MapObjectProfileUnkDRVCE8sProfileE kind:bss addr:0x0216690c
@32665 kind:bss addr:0x02166910
_ZN15ProfileInstanceI23MapObjectProfileUnkDRVCE8sProfileE kind:bss addr:0x0216691c
_ZGVN15ProfileInstanceI23MapObjectProfileUnkRKAGE8sProfileE kind:bss addr:0x021669f0
@32671 kind:bss addr:0x021669f4
_ZN15ProfileInstanceI23MapObjectProfileUnkRKAGE8sProfileE kind:bss addr:0x02166a00
data_ov068_02166ad4 kind:bss addr:0x02166ad4
