_ZN19ActorProfileUnkDSBN10GetProfileEv kind:function(arm,size=0xc) addr:0x021564a0
_ZN19ActorProfileUnkDSBN6CreateEv kind:function(arm,size=0x24) addr:0x021564ac
_ZN19ActorProfileUnkDSBNC1Ev kind:function(arm,size=0x58) addr:0x021564d0
_ZN12ActorUnkDSBNC1Ev kind:function(arm,size=0x654) addr:0x02156528
_ZN12ActorUnkDSBN19func_ov087_02154b1cEv kind:function(arm,size=0x14) addr:0x02156b7c
_ZN12ActorUnkDSBN19func_ov087_02154b30Ev kind:function(arm,size=0x14) addr:0x02156b90
_ZN12ActorUnkDSBN19func_ov087_02154b44Ev kind:function(arm,size=0x14) addr:0x02156ba4
_ZN12ActorUnkDSBN19func_ov087_02154b58Ev kind:function(arm,size=0x1e8) addr:0x02156bb8
_ZN12ActorUnkDSBN19func_ov087_02154d40Ev kind:function(arm,size=0x24) addr:0x02156da0
_ZN12ActorUnkDSBN19func_ov087_02154d64Ev kind:function(arm,size=0x3c) addr:0x02156dc4
_ZN12ActorUnkDSBN19func_ov087_02154da0Ev kind:function(arm,size=0x48) addr:0x02156e00
_ZN12ActorUnkDSBN19func_ov087_02154de8Ev kind:function(arm,size=0x1d4) addr:0x02156e48
_ZN12ActorUnkDSBN19func_ov087_02154fbcEv kind:function(arm,size=0x68) addr:0x0215701c
_ZN12ActorUnkDSBN19func_ov087_02155024Ev kind:function(arm,size=0x1114) addr:0x02157084
_ZN12ActorUnkDSBN19func_ov087_02156138Ev kind:function(arm,size=0x58) addr:0x02158198
_ZN12ActorUnkDSBN19func_ov087_02156190Ev kind:function(arm,size=0x1e4) addr:0x021581f0
_ZN12ActorUnkDSBN19func_ov087_02156374Ev kind:function(arm,size=0x98) addr:0x021583d4
_ZN12ActorUnkDSBN19func_ov087_0215640cEv kind:function(arm,size=0x60) addr:0x0215846c
_ZN12ActorUnkDSBN19func_ov087_0215646cEv kind:function(arm,size=0x3c) addr:0x021584cc
_ZN12ActorUnkDSBN19func_ov087_021564a8Ev kind:function(arm,size=0x7c) addr:0x02158508
_ZN12ActorUnkDSBN19func_ov087_02156524Ev kind:function(arm,size=0xb8) addr:0x02158584
_ZN12ActorUnkDSBN19func_ov087_021565dcEv kind:function(arm,size=0x138) addr:0x0215863c
_ZN12ActorUnkDSBN19func_ov087_02156714Ev kind:function(arm,size=0x3c) addr:0x02158774
_ZN12ActorUnkDSBN19func_ov087_02156750Ev kind:function(arm,size=0x110) addr:0x021587b0
_ZN12ActorUnkDSBN19func_ov087_02156860Ev kind:function(arm,size=0x50) addr:0x021588c0
_ZN12ActorUnkDSBN19func_ov087_021568b0Ev kind:function(arm,size=0x19c) addr:0x02158910
_ZN12ActorUnkDSBN19func_ov087_02156a4cEv kind:function(arm,size=0xa8) addr:0x02158aac
_ZN12ActorUnkDSBN19func_ov087_02156af4Ev kind:function(arm,size=0xd0) addr:0x02158b54
_ZN12ActorUnkDSBN19func_ov087_02156bc4Ev kind:function(arm,size=0x68) addr:0x02158c24
_ZN12ActorUnkDSBN19func_ov087_02156c2cEv kind:function(arm,size=0xf8) addr:0x02158c8c
_ZN12ActorUnkDSBN19func_ov087_02156d24Ev kind:function(arm,size=0x4c) addr:0x02158d84
_ZN12ActorUnkDSBN19func_ov087_02156d70Ev kind:function(arm,size=0x140) addr:0x02158dd0
_ZN12ActorUnkDSBN19func_ov087_02156eb0Ev kind:function(arm,size=0x48) addr:0x02158f10
_ZN12ActorUnkDSBN19func_ov087_02156ed4Ev kind:function(arm,size=0x64) addr:0x02158f58
_ZN12ActorUnkDSBN19func_ov087_02156f38Ev kind:function(arm,size=0x1cc) addr:0x02158fbc
_ZN12ActorUnkDSBN19func_ov087_02157104Ev kind:function(arm,size=0x76c) addr:0x02159188
_ZN12ActorUnkDSBN19func_ov087_02157870Ev kind:function(arm,size=0x140) addr:0x021598f4
_ZN12ActorUnkDSBN19func_ov087_021579b0Ev kind:function(arm,size=0x7e0) addr:0x02159a34
_ZN12ActorUnkDSBN19func_ov087_02158190Ev kind:function(arm,size=0xf4) addr:0x0215a214
_ZN12ActorUnkDSBN19func_ov087_02158284Ev kind:function(arm,size=0x8c) addr:0x0215a308
_ZN12ActorUnkDSBN19func_ov087_02158310Ev kind:function(arm,size=0x210) addr:0x0215a394
_ZN12ActorUnkDSBN19func_ov087_02158520Ev kind:function(arm,size=0x118) addr:0x0215a5a4
_ZN12ActorUnkDSBN19func_ov087_02158638Ev kind:function(arm,size=0x138) addr:0x0215a6bc
_ZN12ActorUnkDSBN19func_ov087_02158770Ev kind:function(arm,size=0xd8) addr:0x0215a7f4
_ZN12ActorUnkDSBN19func_ov087_02158848Ev kind:function(arm,size=0xac) addr:0x0215a8cc
_ZN12ActorUnkDSBN19func_ov087_021588f4Ev kind:function(arm,size=0x134) addr:0x0215a978
_ZN12ActorUnkDSBN19func_ov087_02158a34Ev kind:function(arm,size=0x9c) addr:0x0215aaac
_ZN12ActorUnkDSBN19func_ov087_02158ad0Ev kind:function(arm,size=0x24) addr:0x0215ab48
_ZN12ActorUnkDSBN19func_ov087_02158af4Ev kind:function(arm,size=0x200) addr:0x0215ab6c
_ZN12ActorUnkDSBN19func_ov087_02158cf4Ev kind:function(arm,size=0x10) addr:0x0215ad6c
_ZN12ActorUnkDSBN19func_ov087_02158d04Ev kind:function(arm,size=0xb8) addr:0x0215ad7c
_ZN12ActorUnkDSBN19func_ov087_02158dbcEv kind:function(arm,size=0x108) addr:0x0215ae34
_ZN12ActorUnkDSBN19func_ov087_02158ec4Ev kind:function(arm,size=0x80) addr:0x0215af3c
_ZN12ActorUnkDSBN19func_ov087_02158f44Ev kind:function(arm,size=0x20) addr:0x0215afbc
_ZN12ActorUnkDSBN19func_ov087_02158f64Ev kind:function(arm,size=0xa8) addr:0x0215afdc
_ZN12ActorUnkDSBN19func_ov087_0215900cEv kind:function(arm,size=0x1c8) addr:0x0215b084
_ZN12ActorUnkDSBN19func_ov087_021591d4Ev kind:function(arm,size=0x548) addr:0x0215b24c
_ZN12ActorUnkDSBN19func_ov087_0215971cEv kind:function(arm,size=0x40) addr:0x0215b794
_ZN12ActorUnkDSBN19func_ov087_0215975cEv kind:function(arm,size=0x300) addr:0x0215b7d4
_ZN12ActorUnkDSBN19func_ov087_02159a5cEv kind:function(arm,size=0x13c) addr:0x0215bad4
_ZN12ActorUnkDSBN19func_ov087_02159b98Ev kind:function(arm,size=0x3e0) addr:0x0215bc10
_ZN12ActorUnkDSBN19func_ov087_02159f78Ev kind:function(arm,size=0x64) addr:0x0215bff0
_ZN12ActorUnkDSBN19func_ov087_02159fdcEv kind:function(arm,size=0x68) addr:0x0215c054
_ZN12ActorUnkDSBN19func_ov087_0215a044Ev kind:function(arm,size=0x34) addr:0x0215c0bc
_ZN12ActorUnkDSBN19func_ov087_0215a078Ev kind:function(arm,size=0x8cc) addr:0x0215c0f0
_ZN12ActorUnkDSBN19func_ov087_0215a944Ev kind:function(arm,size=0x3b8) addr:0x0215c9bc
_ZN12ActorUnkDSBN19func_ov087_0215acfcEv kind:function(arm,size=0x2c) addr:0x0215cd74
_ZN12ActorUnkDSBN19func_ov087_0215ad28Ev kind:function(arm,size=0x18) addr:0x0215cda0
_ZN12ActorUnkDSBN19func_ov087_0215ad40Ev kind:function(arm,size=0x9c) addr:0x0215cdb8
_ZN12ActorUnkDSBN19func_ov087_0215addcEv kind:function(arm,size=0x84) addr:0x0215ce54
_ZN12ActorUnkDSBN19func_ov087_0215ae84Ev kind:function(arm,size=0x118) addr:0x0215ced8
_ZN12ActorUnkDSBN19func_ov087_0215af9cEv kind:function(arm,size=0x10) addr:0x0215cff0
_ZN12ActorUnkDSBN19func_ov087_0215afacEv kind:function(arm,size=0x8) addr:0x0215d000
_ZN12ActorUnkDSBND0Ev kind:function(arm,size=0x1c) addr:0x0215d008
_ZN12ActorUnkDSBN19func_ov087_0215afd0Ev kind:function(arm,size=0x1c) addr:0x0215d024
_ZN12ActorUnkDSBN19func_ov087_0215afecEv kind:function(arm,size=0x1c) addr:0x0215d040
_ZN12ActorUnkDSBND1Ev kind:function(arm,size=0xc8) addr:0x0215d05c
_ZN12ActorUnkDSBN19func_ov087_0215b0d0Ev kind:function(arm,size=0xd0) addr:0x0215d124
_ZN19ActorProfileUnkDSBND1Ev kind:function(arm,size=0x14) addr:0x0215d1f4
_ZN19ActorProfileUnkDSBB10GetProfileEv kind:function(arm,size=0xc) addr:0x0215d208
_ZN19ActorProfileUnkDSBB6CreateEv kind:function(arm,size=0x24) addr:0x0215d214
_ZN19ActorProfileUnkDSBBC1Ev kind:function(arm,size=0x68) addr:0x0215d238
_ZN12ActorUnkDSBBC1Ev kind:function(arm,size=0x1e4) addr:0x0215d2a0
_ZN12ActorUnkDSBB19func_ov087_0215b430Ev kind:function(arm,size=0x14) addr:0x0215d484
_ZN12ActorUnkDSBB19func_ov087_0215b444Ev kind:function(arm,size=0x14) addr:0x0215d498
_ZN12ActorUnkDSBBD1Ev kind:function(arm,size=0x7c) addr:0x0215d4ac
_ZN12ActorUnkDSBBD0Ev kind:function(arm,size=0x84) addr:0x0215d528
_ZN12ActorUnkDSBB19func_ov087_0215b558Ev kind:function(arm,size=0xe0) addr:0x0215d5ac
_ZN12ActorUnkDSBB19func_ov087_0215b638Ev kind:function(arm,size=0x24) addr:0x0215d68c
_ZN12ActorUnkDSBB19func_ov087_0215b65cEv kind:function(arm,size=0x48) addr:0x0215d6b0
_ZN12ActorUnkDSBB19func_ov087_0215b6a4Ev kind:function(arm,size=0x40) addr:0x0215d6f8
_ZN12ActorUnkDSBB19func_ov087_0215b6e4Ev kind:function(arm,size=0xe0) addr:0x0215d738
_ZN12ActorUnkDSBB19func_ov087_0215b7c4Ev kind:function(arm,size=0x80) addr:0x0215d818
_ZN12ActorUnkDSBB19func_ov087_0215b844Ev kind:function(arm,size=0x80) addr:0x0215d898
_ZN12ActorUnkDSBB19func_ov087_0215b8c4Ev kind:function(arm,size=0xcc) addr:0x0215d918
_ZN12ActorUnkDSBB19func_ov087_0215b990Ev kind:function(arm,size=0x15c) addr:0x0215d9e4
_ZN12ActorUnkDSBB19func_ov087_0215baecEv kind:function(arm,size=0x6c) addr:0x0215db40
_ZN12ActorUnkDSBB19func_ov087_0215bb58Ev kind:function(arm,size=0x64) addr:0x0215dbac
_ZN12ActorUnkDSBB19func_ov087_0215bbbcEv kind:function(arm,size=0x88) addr:0x0215dc10
_ZN12ActorUnkDSBB19func_ov087_0215bc44Ev kind:function(arm,size=0xd8) addr:0x0215dc98
_ZN12ActorUnkDSBB19func_ov087_0215bd1cEv kind:function(arm,size=0x37c) addr:0x0215dd70
_ZN12ActorUnkDSBB19func_ov087_0215c08cEv kind:function(arm,size=0x20) addr:0x0215e0ec
_ZN12ActorUnkDSBB19func_ov087_0215c0acEv kind:function(arm,size=0x44) addr:0x0215e10c
_ZN12ActorUnkDSBB19func_ov087_0215c0f0Ev kind:function(arm,size=0x4c) addr:0x0215e150
_ZN12ActorUnkDSBB19func_ov087_0215c13cEv kind:function(arm,size=0x88) addr:0x0215e19c
_ZN12ActorUnkDSBB19func_ov087_0215c1c4Ev kind:function(arm,size=0x88) addr:0x0215e224
_ZN12ActorUnkDSBB19func_ov087_0215c24cEv kind:function(arm,size=0x1c) addr:0x0215e2ac
_ZN12ActorUnkDSBB19func_ov087_0215c268Ev kind:function(arm,size=0x1c) addr:0x0215e2c8
_ZN19ActorProfileUnkDSBBD1Ev kind:function(arm,size=0x14) addr:0x0215e2e4
_ZN19ActorProfileUnkDSBH10GetProfileEv kind:function(arm,size=0xc) addr:0x0215e2f8
_ZN19ActorProfileUnkDSBH6CreateEv kind:function(arm,size=0x24) addr:0x0215e304
_ZN19ActorProfileUnkDSBHC1Ev kind:function(arm,size=0x74) addr:0x0215e328
_ZN12ActorUnkDSBHC1Ev kind:function(arm,size=0x394) addr:0x0215e39c
_ZN12ActorUnkDSBH19func_ov087_0215c6d0Ev kind:function(arm,size=0x60) addr:0x0215e730
_ZN12ActorUnkDSBH19func_ov087_0215c730Ev kind:function(arm,size=0x24) addr:0x0215e790
_ZN12ActorUnkDSBH19func_ov087_0215c754Ev kind:function(arm,size=0x48) addr:0x0215e7b4
_ZN12ActorUnkDSBH19func_ov087_0215c79cEv kind:function(arm,size=0x260) addr:0x0215e7fc
_ZN12ActorUnkDSBH19func_ov087_0215c9fcEv kind:function(arm,size=0x80) addr:0x0215ea5c
_ZN12ActorUnkDSBH19func_ov087_0215ca7cEv kind:function(arm,size=0x114) addr:0x0215eadc
_ZN12ActorUnkDSBH19func_ov087_0215cb90Ev kind:function(arm,size=0x4) addr:0x0215ebf0
_ZN12ActorUnkDSBH19func_ov087_0215cb94Ev kind:function(arm,size=0x270) addr:0x0215ebf4
_ZN12ActorUnkDSBH19func_ov087_0215ce04Ev kind:function(arm,size=0x8c) addr:0x0215ee64
_ZN12ActorUnkDSBH19func_ov087_0215ce90Ev kind:function(arm,size=0x1b8) addr:0x0215eef0
_ZN12ActorUnkDSBH19func_ov087_0215d048Ev kind:function(arm,size=0xa4) addr:0x0215f0a8
_ZN12ActorUnkDSBH19func_ov087_0215d0ecEv kind:function(arm,size=0x24) addr:0x0215f14c
_ZN12ActorUnkDSBH19func_ov087_0215d110Ev kind:function(arm,size=0x74) addr:0x0215f170
_ZN12ActorUnkDSBH19func_ov087_0215d184Ev kind:function(arm,size=0x3c) addr:0x0215f1e4
_ZN12ActorUnkDSBH19func_ov087_0215d1c0Ev kind:function(arm,size=0x84) addr:0x0215f220
_ZN12ActorUnkDSBH19func_ov087_0215d244Ev kind:function(arm,size=0x58) addr:0x0215f2a4
_ZN12ActorUnkDSBH19func_ov087_0215d29cEv kind:function(arm,size=0x150) addr:0x0215f2fc
_ZN12ActorUnkDSBH19func_ov087_0215d3ecEv kind:function(arm,size=0x944) addr:0x0215f44c
_ZN12ActorUnkDSBH19func_ov087_0215dd30Ev kind:function(arm,size=0xf0) addr:0x0215fd90
_ZN12ActorUnkDSBH19func_ov087_0215de20Ev kind:function(arm,size=0xe4) addr:0x0215fe80
_ZN12ActorUnkDSBH19func_ov087_0215df04Ev kind:function(arm,size=0xbc) addr:0x0215ff64
_ZN12ActorUnkDSBH19func_ov087_0215dfc0Ev kind:function(arm,size=0x578) addr:0x02160020
_ZN12ActorUnkDSBH19func_ov087_0215e538Ev kind:function(arm,size=0x6d8) addr:0x02160598
_ZN12ActorUnkDSBH19func_ov087_0215ec10Ev kind:function(arm,size=0x8c) addr:0x02160c70
_ZN12ActorUnkDSBH19func_ov087_0215ec9cEv kind:function(arm,size=0x88) addr:0x02160cfc
_ZN12ActorUnkDSBH19func_ov087_0215ed24Ev kind:function(arm,size=0x44) addr:0x02160d84
_ZN12ActorUnkDSBH19func_ov087_0215ed68Ev kind:function(arm,size=0x1f8) addr:0x02160dc8
_ZN12ActorUnkDSBH19func_ov087_0215ef60Ev kind:function(arm,size=0x80) addr:0x02160fc0
_ZN12ActorUnkDSBH19func_ov087_0215efe0Ev kind:function(arm,size=0x64) addr:0x02161040
_ZN12ActorUnkDSBH19func_ov087_0215f044Ev kind:function(arm,size=0x74) addr:0x021610a4
_ZN12ActorUnkDSBH19func_ov087_0215f0b8Ev kind:function(arm,size=0x104) addr:0x02161118
_ZN12ActorUnkDSBH19func_ov087_0215f1bcEv kind:function(arm,size=0x1dc) addr:0x0216121c
_ZN12ActorUnkDSBH19func_ov087_0215f398Ev kind:function(arm,size=0xc) addr:0x021613f8
_ZN12ActorUnkDSBH19func_ov087_0215f3a4Ev kind:function(arm,size=0x384) addr:0x02161404
_ZN12ActorUnkDSBH19func_ov087_0215f728Ev kind:function(arm,size=0x210) addr:0x02161788
_ZN12ActorUnkDSBH19func_ov087_0215f938Ev kind:function(arm,size=0x2c) addr:0x02161998
_ZN12ActorUnkDSBH19func_ov087_0215f964Ev kind:function(arm,size=0x8c) addr:0x021619c4
_ZN12ActorUnkDSBH19func_ov087_0215f9f0Ev kind:function(arm,size=0x44) addr:0x02161a50
_ZN12ActorUnkDSBH19func_ov087_0215fa34Ev kind:function(arm,size=0x108) addr:0x02161a94
_ZN12ActorUnkDSBH19func_ov087_0215fb3cEv kind:function(arm,size=0x6a8) addr:0x02161b9c
_ZN12ActorUnkDSBH19func_ov087_021601e4Ev kind:function(arm,size=0xf8) addr:0x02162244
_ZN12ActorUnkDSBH19func_ov087_021602dcEv kind:function(arm,size=0x204) addr:0x0216233c
_ZN12ActorUnkDSBH19func_ov087_021604e0Ev kind:function(arm,size=0xb8) addr:0x02162540
_ZN12ActorUnkDSBH19func_ov087_02160598Ev kind:function(arm,size=0xe8) addr:0x021625f8
_ZN12ActorUnkDSBH19func_ov087_02160680Ev kind:function(arm,size=0xfc) addr:0x021626e0
_ZN12ActorUnkDSBH19func_ov087_0216077cEv kind:function(arm,size=0x68) addr:0x021627dc
_ZN12ActorUnkDSBH19func_ov087_021607e4Ev kind:function(arm,size=0x34) addr:0x02162844
_ZN12ActorUnkDSBH19func_ov087_02160818Ev kind:function(arm,size=0x148) addr:0x02162878
_ZN12ActorUnkDSBH19func_ov087_02160960Ev kind:function(arm,size=0x28) addr:0x021629c0
_ZN12ActorUnkDSBHD1Ev kind:function(arm,size=0x1c) addr:0x021629e8
_ZN12ActorUnkDSBHD0Ev kind:function(arm,size=0x24) addr:0x02162a04
_ZN12ActorUnkDSBH19func_ov087_021609c8Ev kind:function(arm,size=0xb4) addr:0x02162a28
_ZN12ActorUnkDSBH19func_ov087_02160a7cEv kind:function(arm,size=0x28) addr:0x02162adc
_ZN12ActorUnkDSBH19func_ov087_02160aa4Ev kind:function(arm,size=0x24) addr:0x02162b04
_ZN12ActorUnkDSBH19func_ov087_02160ac8Ev kind:function(arm,size=0x40) addr:0x02162b28
_ZN12ActorUnkDSBH19func_ov087_02160b08Ev kind:function(arm,size=0x244) addr:0x02162b68
_ZN12ActorUnkDSBH19func_ov087_02160d4cEv kind:function(arm,size=0x338) addr:0x02162dac
_ZN12ActorUnkDSBH19func_ov087_02161084Ev kind:function(arm,size=0x6c) addr:0x021630e4
_ZN12ActorUnkDSBH19func_ov087_021610f0Ev kind:function(arm,size=0x74) addr:0x02163150
_ZN19ActorProfileUnkDSBHD1Ev kind:function(arm,size=0x14) addr:0x021631c4
_ZN19ActorProfileUnkRBDS10GetProfileEv kind:function(arm,size=0xc) addr:0x021631d8
_ZN19ActorProfileUnkRBDS6CreateEv kind:function(arm,size=0x24) addr:0x021631e4
_ZN19ActorProfileUnkRBDSC1Ev kind:function(arm,size=0x28) addr:0x02163208
_ZN12ActorUnkRBDSC1Ev kind:function(arm,size=0x74) addr:0x02163230
_ZN12ActorUnkRBDS19func_ov087_02161244Ev kind:function(arm,size=0x70) addr:0x021632a4
_ZN12ActorUnkRBDS19func_ov087_021612b4Ev kind:function(arm,size=0x4) addr:0x02163314
_ZN12ActorUnkRBDS19func_ov087_021612b8Ev kind:function(arm,size=0x14) addr:0x02163318
_ZN12ActorUnkRBDS19func_ov087_021612ccEv kind:function(arm,size=0x14) addr:0x0216332c
_ZN12ActorUnkRBDS19func_ov087_021612e0Ev kind:function(arm,size=0xc) addr:0x02163340
_ZN12ActorUnkRBDS19func_ov087_021612ecEv kind:function(arm,size=0x50) addr:0x0216334c
_ZN12ActorUnkRBDSD1Ev kind:function(arm,size=0x28) addr:0x0216339c
_ZN12ActorUnkRBDSD0Ev kind:function(arm,size=0x30) addr:0x021633c4
_ZN19ActorProfileUnkRBDSD1Ev kind:function(arm,size=0x14) addr:0x021633f4
_ZN19ActorProfileUnkRBD210GetProfileEv kind:function(arm,size=0xc) addr:0x02163408
_ZN19ActorProfileUnkRBD26CreateEv kind:function(arm,size=0x24) addr:0x02163414
_ZN19ActorProfileUnkRBD2C1Ev kind:function(arm,size=0x28) addr:0x02163438
_ZN12ActorUnkRBD2C1Ev kind:function(arm,size=0x1bc) addr:0x02163460
_ZN12ActorUnkRBD219func_ov087_021615bcEv kind:function(arm,size=0x110) addr:0x0216361c
_ZN12ActorUnkRBD219func_ov087_021616ccEv kind:function(arm,size=0x4) addr:0x0216372c
_ZN12ActorUnkRBD219func_ov087_021616d0Ev kind:function(arm,size=0x7c) addr:0x02163730
_ZN12ActorUnkRBD219func_ov087_0216174cEv kind:function(arm,size=0x20) addr:0x021637ac
_ZN12ActorUnkRBD219func_ov087_0216176cEv kind:function(arm,size=0x7c) addr:0x021637cc
_ZN12ActorUnkRBD219func_ov087_021617e8Ev kind:function(arm,size=0x40) addr:0x02163848
_ZN12ActorUnkRBD219func_ov087_02161828Ev kind:function(arm,size=0x58) addr:0x02163888
_ZN12ActorUnkRBD219func_ov087_02161880Ev kind:function(arm,size=0xbc) addr:0x021638e0
_ZN12ActorUnkRBD219func_ov087_0216193cEv kind:function(arm,size=0x50) addr:0x0216399c
_ZN12ActorUnkRBD2D1Ev kind:function(arm,size=0x40) addr:0x021639ec
_ZN12ActorUnkRBD2D0Ev kind:function(arm,size=0x48) addr:0x02163a2c
_ZN19ActorProfileUnkRBD2D1Ev kind:function(arm,size=0x14) addr:0x02163a74
_ZN23MapObjectProfileUnkSTSD10GetProfileEv kind:function(arm,size=0xc) addr:0x02163a88
_ZN23MapObjectProfileUnkSTSD6CreateEv kind:function(arm,size=0x24) addr:0x02163a94
_ZN23MapObjectProfileUnkSTSDC1Ev kind:function(arm,size=0x4c) addr:0x02163ab8
_ZN16MapObjectUnkSTSDC1Ev kind:function(arm,size=0x5c) addr:0x02163b04
_ZN16MapObjectUnkSTSD19func_ov087_02161b00Ev kind:function(arm,size=0x84) addr:0x02163b60
_ZN16MapObjectUnkSTSD19func_ov087_02161b84Ev kind:function(arm,size=0x54) addr:0x02163be4
_ZN16MapObjectUnkSTSD19func_ov087_02161bd8Ev kind:function(arm,size=0x60) addr:0x02163c38
_ZN16MapObjectUnkSTSD19func_ov087_02161c38Ev kind:function(arm,size=0xc) addr:0x02163c98
_ZN16MapObjectUnkSTSDD1Ev kind:function(arm,size=0x28) addr:0x02163ca4
_ZN16MapObjectUnkSTSDD0Ev kind:function(arm,size=0x30) addr:0x02163ccc
_ZN23MapObjectProfileUnkSTSDD1Ev kind:function(arm,size=0x14) addr:0x02163cfc
_ZN19func_ov087_02163d10D0Ev kind:function(arm,size=0x1c) addr:0x02163d10
func_ov087_02163d2c kind:function(arm,size=0x10) addr:0x02163d2c
func_ov087_02163d3c kind:function(arm,size=0xec) addr:0x02163d3c
func_ov087_02163e28 kind:function(arm,size=0xec) addr:0x02163e28
data_ov087_02163f14 kind:data(any) addr:0x02163f14
data_ov087_02163f18 kind:data(any) addr:0x02163f18
data_ov087_02163f28 kind:data(any) addr:0x02163f28
data_ov087_02163f38 kind:data(any) addr:0x02163f38
data_ov087_02163f48 kind:data(any) addr:0x02163f48
data_ov087_02163f58 kind:data(any) addr:0x02163f58
data_ov087_02163f68 kind:data(any) addr:0x02163f68
data_ov087_02163f78 kind:data(any) addr:0x02163f78
data_ov087_02163f8a kind:data(any) addr:0x02163f8a
data_ov087_02163f8c kind:data(any) addr:0x02163f8c
data_ov087_02163f90 kind:data(any) addr:0x02163f90
data_ov087_02163fa0 kind:data(any) addr:0x02163fa0
data_ov087_02163fb0 kind:data(any) addr:0x02163fb0
data_ov087_02163fc0 kind:data(any) addr:0x02163fc0
__sinit_ActorUnkDSBN.cpp kind:function(arm,size=0x50) addr:0x02163fd0
__sinit_ActorUnkDSBB.cpp kind:function(arm,size=0x50) addr:0x02164020
__sinit_ActorUnkDSBH.cpp kind:function(arm,size=0x50) addr:0x02164070
__sinit_ActorUnkRBDS.cpp kind:function(arm,size=0x50) addr:0x021640c0
__sinit_ActorUnkRBD2.cpp kind:function(arm,size=0x50) addr:0x02164110
__sinit_MapObjectUnkSTSD.cpp kind:function(arm,size=0x70) addr:0x02164160
.p__sinit_ActorUnkDSBN.cpp kind:data(word) addr:0x021641d0
.p__sinit_ActorUnkDSBB.cpp kind:data(word) addr:0x021641d4
.p__sinit_ActorUnkDSBH.cpp kind:data(word) addr:0x021641d8
.p__sinit_ActorUnkRBDS.cpp kind:data(word) addr:0x021641dc
.p__sinit_ActorUnkRBD2.cpp kind:data(word) addr:0x021641e0
.p__sinit_MapObjectUnkSTSD.cpp kind:data(word) addr:0x021641e4
_ZTV19data_ov087_02164200 kind:data(any) addr:0x02164200
data_ov087_0216422c kind:data(any) addr:0x0216422c
data_ov087_02164250 kind:data(any) addr:0x02164250
data_ov087_02164268 kind:data(any) addr:0x02164268
data_ov087_02164288 kind:data(any) addr:0x02164288
data_ov087_021642d0 kind:data(any) addr:0x021642d0
data_ov087_02164300 kind:data(any) addr:0x02164300 ambiguous
_ZTV19data_ov087_02164314 kind:data(any) addr:0x02164314
data_ov087_02164374 kind:data(any) addr:0x02164374
data_ov087_021643dc kind:data(any) addr:0x021643dc
data_ov087_02164444 kind:data(any) addr:0x02164444
data_ov087_0216445c kind:data(any) addr:0x0216445c
data_ov087_02164484 kind:data(any) addr:0x02164484 ambiguous
data_ov087_02164594 kind:data(any) addr:0x02164594
data_ov087_021645ac kind:data(any) addr:0x021645ac
data_ov087_021645c4 kind:data(any) addr:0x021645c4
data_ov087_021645dc kind:data(any) addr:0x021645dc
data_ov087_021645fc kind:data(any) addr:0x021645fc
_ZTV19data_ov087_02164610 kind:data(any) addr:0x02164610
data_ov087_0216463c kind:data(any) addr:0x0216463c
_ZTV19data_ov087_02164680 kind:data(any) addr:0x02164680
data_ov087_021646dc kind:data(any) addr:0x021646dc
data_ov087_021646e0 kind:data(any) addr:0x021646e0
data_ov087_021646e4 kind:data(any) addr:0x021646e4
data_ov087_021646fc kind:data(any) addr:0x021646fc
data_ov087_0216471c kind:data(any) addr:0x0216471c
data_ov087_0216472c kind:data(any) addr:0x0216472c
data_ov087_0216473c kind:data(any) addr:0x0216473c ambiguous
_ZTV19data_ov087_02164740 kind:data(any) addr:0x02164740
_ZTV19data_ov087_02164764 kind:data(any) addr:0x02164764
data_ov087_021647c4 kind:data(any) addr:0x021647c4
data_ov087_0216482c kind:data(any) addr:0x0216482c
data_ov087_02164894 kind:data(any) addr:0x02164894
data_ov087_021648ac kind:data(any) addr:0x021648ac
data_ov087_021648c4 kind:data(any) addr:0x021648c4
data_ov087_021648dc kind:data(any) addr:0x021648dc
data_ov087_021648e4 kind:data(any) addr:0x021648e4 ambiguous
data_ov087_021648f4 kind:data(any) addr:0x021648f4
data_ov087_0216490c kind:data(any) addr:0x0216490c
data_ov087_02164924 kind:data(any) addr:0x02164924
data_ov087_0216493c kind:data(any) addr:0x0216493c
data_ov087_02164954 kind:data(any) addr:0x02164954
_ZTV19data_ov087_0216496c kind:data(any) addr:0x0216496c
_ZTV19data_ov087_02164990 kind:data(any) addr:0x02164990
_ZTV19data_ov087_021649f0 kind:data(any) addr:0x021649f0
data_ov087_02164a08 kind:data(any) addr:0x02164a08 ambiguous
data_ov087_02164a14 kind:data(any) addr:0x02164a14
data_ov087_02164a2c kind:data(any) addr:0x02164a2c
data_ov087_02164a44 kind:data(any) addr:0x02164a44
_ZTV19data_ov087_02164a5c kind:data(any) addr:0x02164a5c
data_ov087_02164abc kind:data(any) addr:0x02164abc
data_ov087_02164ad0 kind:data(any) addr:0x02164ad0
data_ov087_02164af8 kind:data(any) addr:0x02164af8
data_ov087_02164b68 kind:data(any) addr:0x02164b68
data_ov087_02164b80 kind:bss addr:0x02164b80
data_ov087_02164b84 kind:bss addr:0x02164b84
sActorProfileUnkDSBN kind:bss addr:0x02164b90
data_ov087_02164c68 kind:bss addr:0x02164c68
data_ov087_02164c6c kind:bss addr:0x02164c6c
sActorProfileUnkDSBB kind:bss addr:0x02164c78
data_ov087_02164d50 kind:bss addr:0x02164d50
data_ov087_02164d54 kind:bss addr:0x02164d54
sActorProfileUnkDSBH kind:bss addr:0x02164d60
data_ov087_02164e38 kind:bss addr:0x02164e38
data_ov087_02164e3c kind:bss addr:0x02164e3c
sActorProfileUnkRBDS kind:bss addr:0x02164e48
data_ov087_02164f20 kind:bss addr:0x02164f20
data_ov087_02164f24 kind:bss addr:0x02164f24
sActorProfileUnkRBD2 kind:bss addr:0x02164f30
data_ov087_02165008 kind:bss addr:0x02165008
data_ov087_0216500c kind:bss addr:0x0216500c
sMapObjectProfileUnkSTSD kind:bss addr:0x02165018
