_ZN18GameModeFileSelect6CreateEv kind:function(arm,size=0x24) addr:0x020c6060
_ZN18GameModeFileSelectC1Ev kind:function(arm,size=0xb0) addr:0x020c6084
_ZN25UnkSystem1_ov019_Derived1D1Ev kind:function(arm,size=0x14) addr:0x020c6134
_ZN18GameModeFileSelectD1Ev kind:function(arm,size=0x84) addr:0x020c6148
_ZN18GameModeFileSelectD0Ev kind:function(arm,size=0x8c) addr:0x020c61cc
_ZN18GameModeFileSelect8vfunc_08Ev kind:function(arm,size=0x70) addr:0x020c6258
_ZN18GameModeFileSelect8vfunc_14Ev kind:function(arm,size=0x4) addr:0x020c62c8
_ZN18GameModeFileSelect8vfunc_0CEv kind:function(arm,size=0x30) addr:0x020c62cc
_ZN18GameModeFileSelect8vfunc_18Ev kind:function(arm,size=0x4) addr:0x020c62fc
_ZN18GameModeFileSelect8vfunc_20Ev kind:function(arm,size=0x4) addr:0x020c6300
_ZN18GameModeFileSelect17LoadAdventureModeEt kind:function(arm,size=0x48) addr:0x020c6304
_ZN18GameModeFileSelect14LoadBattleModeEt kind:function(arm,size=0x28) addr:0x020c634c
_ZN18GameModeFileSelect15LoadContactModeEt kind:function(arm,size=0x28) addr:0x020c6374
_ZN17FileSelectManager6CreateEi kind:function(arm,size=0x2c) addr:0x020c639c
_ZN17FileSelectManagerC1Ei kind:function(arm,size=0x90) addr:0x020c63c8
_ZN25UnkSystem1_ov019_Derived2D1Ev kind:function(arm,size=0x14) addr:0x020c6458
_ZN17FileSelectManagerD1Ev kind:function(arm,size=0xc8) addr:0x020c646c
_ZN17FileSelectManagerD0Ev kind:function(arm,size=0xd0) addr:0x020c6534
_ZN19FileSelectSubScreenD0Ev kind:function(arm,size=0xf4) addr:0x020c6604
_ZN17FileSelectManager8vfunc_10Eiii kind:function(arm,size=0x120) addr:0x020c66f8
_ZN17FileSelectManager8vfunc_24Ev kind:function(arm,size=0x40) addr:0x020c6818
_ZN17FileSelectManager19func_ov019_020c5038Ev kind:function(arm,size=0x4) addr:0x020c6858
_ZN17FileSelectManager19func_ov019_020c503cEv kind:function(arm,size=0x12c) addr:0x020c685c
_ZN17FileSelectManager8vfunc_28EPc kind:function(arm,size=0x20) addr:0x020c6988
_ZN17FileSelectManager8vfunc_2CEPc kind:function(arm,size=0x20) addr:0x020c69a8
_ZN17FileSelectManager19func_ov019_020c51a8Ev kind:function(arm,size=0x44) addr:0x020c69c8
_ZN23UnkStruct_0204a088_BaseD2Ev kind:function(arm,size=0x14) addr:0x020c6a0c
_ZN25UnkSystem1_ov019_Derived1C1Ev kind:function(arm,size=0x3c) addr:0x020c6a20
_ZN25UnkSystem1_ov019_Derived18vfunc_08Ei kind:function(arm,size=0x48) addr:0x020c6a5c
_ZN25UnkSystem1_ov019_Derived18vfunc_1CEjii kind:function(arm,size=0x1ac) addr:0x020c6aa4
_ZN25UnkSystem1_ov019_Derived18vfunc_20Eiii kind:function(arm,size=0x110) addr:0x020c6c50
_ZN25UnkSystem1_ov019_Derived119func_ov019_020c5540Ebs kind:function(arm,size=0x50) addr:0x020c6d60
_ZN25UnkSystem1_ov019_Derived119func_ov019_020c5590Eiii kind:function(arm,size=0x84) addr:0x020c6db0
_ZN25UnkSystem1_ov019_Derived1D0Ev kind:function(arm,size=0x1c) addr:0x020c6e34
_ZN14FileSelectMainC1Ev kind:function(arm,size=0x9a0) addr:0x020c6e50
_ZN25UnkSystem1_ov019_Derived3D1Ev kind:function(arm,size=0x14) addr:0x020c77f0
_ZN14FileSelectMainD1Ev kind:function(arm,size=0x1f8) addr:0x020c7804
_ZN14FileSelectMainD0Ev kind:function(arm,size=0x200) addr:0x020c79fc
func_ov019_020c63dc kind:function(arm,size=0x838) addr:0x020c7bfc
_ZN14FileSelectMain19func_ov019_020c6c14Ev kind:function(arm,size=0x4) addr:0x020c8434
_ZN14FileSelectMain19func_ov019_020c6c18Ev kind:function(arm,size=0x3c) addr:0x020c8438
_ZN14FileSelectMain19func_ov019_020c6c54Ev kind:function(arm,size=0x48) addr:0x020c8474
_ZN14FileSelectMain19func_ov019_020c6c9cEv kind:function(arm,size=0x4) addr:0x020c84bc
_ZN14FileSelectMain19func_ov019_020c6ca0Ev kind:function(arm,size=0x30) addr:0x020c84c0
_ZN14FileSelectMain19func_ov019_020c6cd0Ev kind:function(arm,size=0x38) addr:0x020c84f0
_ZN14FileSelectMain19func_ov019_020c6d08Ev kind:function(arm,size=0x4) addr:0x020c8528
_ZN14FileSelectMain19func_ov019_020c6d0cEv kind:function(arm,size=0x4) addr:0x020c852c
_ZN14FileSelectMain19func_ov019_020c6d10Ev kind:function(arm,size=0x38) addr:0x020c8530
_ZN14FileSelectMain19func_ov019_020c6d48Ev kind:function(arm,size=0xcc) addr:0x020c8568
_ZN14FileSelectMain19func_ov019_020c6e14Ev kind:function(arm,size=0x28) addr:0x020c8634
_ZN14FileSelectMain19func_ov019_020c6e3cEv kind:function(arm,size=0x1c4) addr:0x020c865c
_ZN14FileSelectMain19func_ov019_020c7000Ev kind:function(arm,size=0x17c) addr:0x020c8820
_ZN14FileSelectMain19func_ov019_020c717cEv kind:function(arm,size=0x54) addr:0x020c899c
_ZN14FileSelectMain19func_ov019_020c71d0Ev kind:function(arm,size=0x20) addr:0x020c89f0
_ZN14FileSelectMain19func_ov019_020c71f0Ev kind:function(arm,size=0x20) addr:0x020c8a10
_ZN14FileSelectMain19func_ov019_020c7210Ev kind:function(arm,size=0x64) addr:0x020c8a30
_ZN14FileSelectMain19func_ov019_020c7274Ev kind:function(arm,size=0x2c) addr:0x020c8a94
_ZN14FileSelectMain19func_ov019_020c72a0Ev kind:function(arm,size=0x2dc) addr:0x020c8ac0
_ZN14FileSelectMain19func_ov019_020c757cEv kind:function(arm,size=0x1ec) addr:0x020c8d9c
_ZN14FileSelectMain19func_ov019_020c7768Ev kind:function(arm,size=0x50) addr:0x020c8f88
_ZN14FileSelectMain19func_ov019_020c77b8Ev kind:function(arm,size=0x4c) addr:0x020c8fd8
_ZN14FileSelectMain19func_ov019_020c7804Ev kind:function(arm,size=0x54) addr:0x020c9024
_ZN14FileSelectMain19func_ov019_020c7858Ev kind:function(arm,size=0x20) addr:0x020c9078
_ZN14FileSelectMain19func_ov019_020c7878Ev kind:function(arm,size=0x34) addr:0x020c9098
_ZN14FileSelectMain19func_ov019_020c78acEv kind:function(arm,size=0x64) addr:0x020c90cc
_ZN14FileSelectMain19func_ov019_020c7910Ev kind:function(arm,size=0x134) addr:0x020c9130
_ZN14FileSelectMain19func_ov019_020c7a44Ev kind:function(arm,size=0x1f8) addr:0x020c9264
_ZN14FileSelectMain19func_ov019_020c7c3cEv kind:function(arm,size=0xc) addr:0x020c945c
_ZN14FileSelectMain19func_ov019_020c7c48Ev kind:function(arm,size=0x28) addr:0x020c9468
_ZN14FileSelectMain19func_ov019_020c7c70Ev kind:function(arm,size=0xcc) addr:0x020c9490
_ZN14FileSelectMain19func_ov019_020c7d3cEv kind:function(arm,size=0x8c) addr:0x020c955c
_ZN14FileSelectMain19func_ov019_020c7dc8Ev kind:function(arm,size=0x314) addr:0x020c95e8
_ZN14FileSelectMain19func_ov019_020c80dcEv kind:function(arm,size=0xc) addr:0x020c98fc
_ZN14FileSelectMain19func_ov019_020c80e8Ev kind:function(arm,size=0xc) addr:0x020c9908
_ZN14FileSelectMain19func_ov019_020c80f4Ev kind:function(arm,size=0x4) addr:0x020c9914
_ZN14FileSelectMain8vfunc_08EP5InputP12TouchControl kind:function(arm,size=0x198) addr:0x020c9918
_ZN14FileSelectMain19func_ov019_020c8290Ev kind:function(arm,size=0x34) addr:0x020c9ab0
_ZN14FileSelectMain19func_ov019_020c82c4Ev kind:function(arm,size=0x190) addr:0x020c9ae4
_ZN14FileSelectMain19func_ov019_020c8454Ev kind:function(arm,size=0xd0) addr:0x020c9c74
_ZN14FileSelectMain19func_ov019_020c8524Ev kind:function(arm,size=0x28) addr:0x020c9d44
_ZN14FileSelectMain19func_ov019_020c854cEv kind:function(arm,size=0x560) addr:0x020c9d6c
_ZN14FileSelectMain19func_ov019_020c8aacEv kind:function(arm,size=0x2c) addr:0x020ca2cc
_ZN14FileSelectMain19func_ov019_020c8ad8Ev kind:function(arm,size=0x38) addr:0x020ca2f8
_ZN14FileSelectMain19func_ov019_020c8b10Ev kind:function(arm,size=0x38) addr:0x020ca330
_ZN14FileSelectMain19func_ov019_020c8b48Ev kind:function(arm,size=0x2c) addr:0x020ca368
_ZN14FileSelectMain19func_ov019_020c8b74Ev kind:function(arm,size=0xd8) addr:0x020ca394
_ZN14FileSelectMain19func_ov019_020c8c4cEv kind:function(arm,size=0x690) addr:0x020ca46c
_ZN14FileSelectMain19func_ov019_020c92dcEv kind:function(arm,size=0x84c) addr:0x020caafc
_ZN14FileSelectMain19func_ov019_020c9b28Ev kind:function(arm,size=0x48) addr:0x020cb348
_ZN14FileSelectMain19func_ov019_020c9b70Ev kind:function(arm,size=0x5c) addr:0x020cb390
_ZN14FileSelectMain19func_ov019_020c9bccEv kind:function(arm,size=0x4c) addr:0x020cb3ec
_ZN14FileSelectMain19func_ov019_020c9c18Ev kind:function(arm,size=0x58) addr:0x020cb438
_ZN14FileSelectMain19func_ov019_020c9c70Ev kind:function(arm,size=0x118) addr:0x020cb490
_ZN14FileSelectMain19func_ov019_020c9d88Ev kind:function(arm,size=0x80) addr:0x020cb5a8
_ZN14FileSelectMain19func_ov019_020c9e08Ev kind:function(arm,size=0x89c) addr:0x020cb628
_ZN14FileSelectMain19func_ov019_020ca6a4Ev kind:function(arm,size=0x168) addr:0x020cbec4
_ZN14FileSelectMain19func_ov019_020ca80cEv kind:function(arm,size=0x38) addr:0x020cc02c
_ZN14FileSelectMain19func_ov019_020ca844Ev kind:function(arm,size=0x38) addr:0x020cc064
_ZN14FileSelectMain19func_ov019_020ca87cEv kind:function(arm,size=0x38) addr:0x020cc09c
_ZN14FileSelectMain19func_ov019_020ca8b4Ev kind:function(arm,size=0x8c) addr:0x020cc0d4
_ZN14FileSelectMain19func_ov019_020ca940Ev kind:function(arm,size=0x840) addr:0x020cc160
_ZN14FileSelectMain19func_ov019_020cb180Ev kind:function(arm,size=0x5c) addr:0x020cc9a0
_ZN14FileSelectMain19func_ov019_020cb1dcEv kind:function(arm,size=0x5c) addr:0x020cc9fc
_ZN14FileSelectMain19func_ov019_020cb238Ev kind:function(arm,size=0x30) addr:0x020cca58
_ZN14FileSelectMain19func_ov019_020cb268Ev kind:function(arm,size=0x4) addr:0x020cca88
_ZN14FileSelectMain19func_ov019_020cb26cEv kind:function(arm,size=0x4) addr:0x020cca8c
_ZN14FileSelectMain8vfunc_10EPc kind:function(arm,size=0x38) addr:0x020cca90
_ZN14FileSelectMain19func_ov019_020cb2a8Ev kind:function(arm,size=0x34) addr:0x020ccac8
_ZN14FileSelectMain19func_ov019_020cb2dcEv kind:function(arm,size=0x48) addr:0x020ccafc
_ZN14FileSelectMain19func_ov019_020cb324Ev kind:function(arm,size=0x198) addr:0x020ccb44
_ZN14FileSelectMain19func_ov019_020cb4bcEv kind:function(arm,size=0xc) addr:0x020cccdc
_ZN14FileSelectMain19func_ov019_020cb4c8Ev kind:function(arm,size=0xc) addr:0x020ccce8
_ZN14FileSelectMain19func_ov019_020cb4d4Ev kind:function(arm,size=0xc) addr:0x020cccf4
_ZN14FileSelectMain19func_ov019_020cb4e0Ev kind:function(arm,size=0xc) addr:0x020ccd00
_ZN14FileSelectMain19func_ov019_020cb4ecEv kind:function(arm,size=0xc) addr:0x020ccd0c
_ZN14FileSelectMain19func_ov019_020cb4f8Ev kind:function(arm,size=0xc) addr:0x020ccd18
_ZN14FileSelectMain19func_ov019_020cb504Ev kind:function(arm,size=0xc) addr:0x020ccd24
_ZN14FileSelectMain19func_ov019_020cb510Ev kind:function(arm,size=0xc) addr:0x020ccd30
_ZN14FileSelectMain19func_ov019_020cb51cEv kind:function(arm,size=0xc) addr:0x020ccd3c
_ZN14FileSelectMain19func_ov019_020cb528Ev kind:function(arm,size=0xc) addr:0x020ccd48
_ZN14FileSelectMain19func_ov019_020cb534Ev kind:function(arm,size=0xc) addr:0x020ccd54
_ZN14FileSelectMain19func_ov019_020cb540Ev kind:function(arm,size=0xc) addr:0x020ccd60
_ZN14FileSelectMain19func_ov019_020cb54cEv kind:function(arm,size=0xc) addr:0x020ccd6c
_ZN14FileSelectMain19func_ov019_020cb558Ev kind:function(arm,size=0xc) addr:0x020ccd78
_ZN14FileSelectMain19func_ov019_020cb564Ev kind:function(arm,size=0xc) addr:0x020ccd84
_ZN14FileSelectMain19func_ov019_020cb570Ev kind:function(arm,size=0xc) addr:0x020ccd90
_ZN14FileSelectMain19func_ov019_020cb57cEv kind:function(arm,size=0xc) addr:0x020ccd9c
_ZN14FileSelectMain19func_ov019_020cb588Ev kind:function(arm,size=0x28) addr:0x020ccda8
_ZN14FileSelectMain19func_ov019_020cb5b0Ev kind:function(arm,size=0xc) addr:0x020ccdd0
_ZN14FileSelectMain19func_ov019_020cb5bcEv kind:function(arm,size=0xc) addr:0x020ccddc
_ZN14FileSelectMain8SetStateEj kind:function(arm,size=0x10) addr:0x020ccde8
_ZN14FileSelectMain8vfunc_18Ev kind:function(arm,size=0x4) addr:0x020ccdf8
_ZN14FileSelectMain19func_ov019_020cb5dcEv kind:function(arm,size=0x88) addr:0x020ccdfc
_ZN14FileSelectMain19func_ov019_020cb664Ev kind:function(arm,size=0x84) addr:0x020cce84
_ZN14FileSelectMain19func_ov019_020cb6e8Ev kind:function(arm,size=0x30) addr:0x020ccf08
_ZN14FileSelectMain19func_ov019_020cb718Ev kind:function(arm,size=0x30) addr:0x020ccf38
_ZN14FileSelectMain19func_ov019_020cb748Ev kind:function(arm,size=0x20) addr:0x020ccf68
_ZN13UnkSubStruct9C2E13stack_struct1 kind:function(arm,size=0x384) addr:0x020ccf88
_ZN13UnkSubStruct919func_ov019_020cbaecEv kind:function(arm,size=0x24) addr:0x020cd30c
_ZN13UnkSubStruct915IsPlayerNameSetEv kind:function(arm,size=0x30) addr:0x020cd330
_ZN13UnkSubStruct919func_ov019_020cbb40Ev kind:function(arm,size=0x54) addr:0x020cd360
_ZN13UnkSubStruct919func_ov019_020cbb94Ev kind:function(arm,size=0x78) addr:0x020cd3b4
_ZN13UnkSubStruct919func_ov019_020cbc0cEv kind:function(arm,size=0x9a0) addr:0x020cd42c
_ZN13UnkSubStruct919func_ov019_020cc5acEP6Vec2us kind:function(arm,size=0x14) addr:0x020cddcc
_ZN24FileSelectOptionsManager6CreateEPvi kind:function(arm,size=0x34) addr:0x020cdde0
_ZN24FileSelectOptionsManagerC1EPvi kind:function(arm,size=0xb8) addr:0x020cde14
_ZN24FileSelectOptionsManagerD1Ev kind:function(arm,size=0x6c) addr:0x020cdecc
_ZN24FileSelectOptionsManagerD0Ev kind:function(arm,size=0x74) addr:0x020cdf38
_ZN24FileSelectOptionsManager8vfunc_08EP5InputP12TouchControl kind:function(arm,size=0xd0) addr:0x020cdfac
_ZN24FileSelectOptionsManager19func_ov019_020cc85cEi kind:function(arm,size=0x18) addr:0x020ce07c
_ZN24FileSelectOptionsManager19func_ov019_020cc874Ev kind:function(arm,size=0xc) addr:0x020ce094
_ZN17FileSelectOptionsC1Ei kind:function(arm,size=0x298) addr:0x020ce0a0
_ZN17FileSelectOptionsD1Ev kind:function(arm,size=0x110) addr:0x020ce338
_ZN17FileSelectOptionsD0Ev kind:function(arm,size=0x118) addr:0x020ce448
_ZN17FileSelectOptions19func_ov019_020ccd40Ev kind:function(arm,size=0x38) addr:0x020ce560
_ZN17FileSelectOptions8vfunc_08EP5InputP12TouchControl kind:function(arm,size=0x38) addr:0x020ce598
_ZN17FileSelectOptions8vfunc_10EPc kind:function(arm,size=0x44) addr:0x020ce5d0
_ZN17FileSelectOptions19func_ov019_020ccdf4Ev kind:function(arm,size=0x10) addr:0x020ce614
_ZN17FileSelectOptions19func_ov019_020cce04Ev kind:function(arm,size=0x2c) addr:0x020ce624
_ZN17FileSelectOptions19func_ov019_020cce30Ev kind:function(arm,size=0x33c) addr:0x020ce650
_ZN17FileSelectOptions19func_ov019_020cd16cEv kind:function(arm,size=0x2b0) addr:0x020ce98c
_ZN17FileSelectOptions19func_ov019_020cd41cEv kind:function(arm,size=0x1dc) addr:0x020cec3c
_ZN17FileSelectOptions19func_ov019_020cd5f8Ev kind:function(arm,size=0x1c) addr:0x020cee18
_ZN17FileSelectOptions19func_ov019_020cd614Ev kind:function(arm,size=0x174) addr:0x020cee34
_ZN17FileSelectOptions19func_ov019_020cd788Ev kind:function(arm,size=0x70) addr:0x020cefa8
_ZN17FileSelectOptions19func_ov019_020cd7f8Ev kind:function(arm,size=0xdc) addr:0x020cf018
_ZN17FileSelectOptions19func_ov019_020cd8d4Ev kind:function(arm,size=0x308) addr:0x020cf0f4
_ZN17FileSelectOptions19func_ov019_020cdbdcEv kind:function(arm,size=0x30) addr:0x020cf3fc
_ZN17FileSelectOptions19func_ov019_020cdc0cEv kind:function(arm,size=0x2c) addr:0x020cf42c
_ZN17FileSelectOptions19func_ov019_020cdc38Ev kind:function(arm,size=0x24) addr:0x020cf458
_ZN17FileSelectOptions19func_ov019_020cdc5cEv kind:function(arm,size=0x4) addr:0x020cf47c
_ZN17FileSelectOptions19func_ov019_020cdc60Ev kind:function(arm,size=0x2c) addr:0x020cf480
_ZN17FileSelectOptions19func_ov019_020cdc8cEv kind:function(arm,size=0x2c) addr:0x020cf4ac
_ZN17FileSelectOptions19func_ov019_020cdcb8Ev kind:function(arm,size=0x1d4) addr:0x020cf4d8
_ZN17FileSelectOptions19func_ov019_020cde8cEj kind:function(arm,size=0x10) addr:0x020cf6ac
_ZN17FileSelectOptions19func_ov019_020cde9cEv kind:function(arm,size=0x10) addr:0x020cf6bc
_ZN30UnkStruct_ov019_020d24c8_2C_24C1EP26GameModeManagerBase_104_0Ci kind:function(arm,size=0x468) addr:0x020cf6cc
_ZN30UnkStruct_ov019_020d24c8_2C_24D1Ev kind:function(arm,size=0x100) addr:0x020cfb34
_ZN30UnkStruct_ov019_020d24c8_2C_2419func_ov019_020ce414Ev kind:function(arm,size=0xc8) addr:0x020cfc34
_ZN30UnkStruct_ov019_020d24c8_2C_2419func_ov019_020ce4dcEv kind:function(arm,size=0x140) addr:0x020cfcfc
_ZN30UnkStruct_ov019_020d24c8_2C_2419func_ov019_020ce61cEb kind:function(arm,size=0x4c) addr:0x020cfe3c
_ZN30UnkStruct_ov019_020d24c8_2C_2419func_ov019_020ce668Eb kind:function(arm,size=0x60) addr:0x020cfe88
_ZN30UnkStruct_ov019_020d24c8_2C_2419func_ov019_020ce6c8Ev kind:function(arm,size=0x3c) addr:0x020cfee8
_ZN30UnkStruct_ov019_020d24c8_2C_2419func_ov019_020ce704Eh kind:function(arm,size=0x48) addr:0x020cff24
_ZN30UnkStruct_ov019_020d24c8_2C_2419func_ov019_020ce74cEh kind:function(arm,size=0x54) addr:0x020cff6c
_ZN30UnkStruct_ov019_020d24c8_2C_2419func_ov019_020ce7a0Eh kind:function(arm,size=0x34) addr:0x020cffc0
_ZN30UnkStruct_ov019_020d24c8_2C_2419func_ov019_020ce7d4Ei kind:function(arm,size=0x4c) addr:0x020cfff4
_ZN22OptionsManagerAssessorC2Ev kind:function(arm,size=0x10) addr:0x020d0040
_ZN22OptionsManagerAssessorD2Ev kind:function(arm,size=0x14) addr:0x020d0050
_ZN17FileSelectMicTestC1Ev kind:function(arm,size=0x160) addr:0x020d0064
_ZN17FileSelectMicTestD1Ev kind:function(arm,size=0x60) addr:0x020d01c4
_ZN17FileSelectMicTestD0Ev kind:function(arm,size=0x68) addr:0x020d0224
_ZN17FileSelectMicTest19func_ov019_020cea6cEv kind:function(arm,size=0x4) addr:0x020d028c
_ZN17FileSelectMicTest19func_ov019_020cea70Ev kind:function(arm,size=0x4) addr:0x020d0290
_ZN17FileSelectMicTest19func_ov019_020cea74Ev kind:function(arm,size=0x38) addr:0x020d0294
_ZN17FileSelectMicTest19func_ov019_020ceaacEv kind:function(arm,size=0x120) addr:0x020d02cc
_ZN17FileSelectMicTest19func_ov019_020cebccEv kind:function(arm,size=0x98) addr:0x020d03ec
_ZN17FileSelectMicTest8vfunc_08EP5InputP12TouchControl kind:function(arm,size=0x2a0) addr:0x020d0484
_ZN17FileSelectMicTest8vfunc_10EPc kind:function(arm,size=0x68) addr:0x020d0724
_ZN17FileSelectMicTest8vfunc_14EPc kind:function(arm,size=0x78) addr:0x020d078c
_ZN17FileSelectMicTest19func_ov019_020cefe4Ev kind:function(arm,size=0x14) addr:0x020d0804
_ZN17FileSelectMicTest19func_ov019_020ceff8Ev kind:function(arm,size=0x14) addr:0x020d0818
_ZN31UnkStruct_ov019_020d24c8_28_270C1Ev kind:function(arm,size=0x124) addr:0x020d082c
_ZN31UnkStruct_ov019_020d24c8_28_27019func_ov019_020cf130Ev kind:function(arm,size=0x38) addr:0x020d0950
_ZN31UnkStruct_ov019_020d24c8_28_27019func_ov019_020cf168Ev kind:function(arm,size=0xb4) addr:0x020d0988
_ZN31UnkStruct_ov019_020d24c8_28_27019func_ov019_020cf21cEv kind:function(arm,size=0x70) addr:0x020d0a3c
_ZN19FileSelectSubScreenC1Ev kind:function(arm,size=0x35c) addr:0x020d0aac
_ZN19FileSelectSubScreen8vfunc_08EP5InputP12TouchControl kind:function(arm,size=0x154) addr:0x020d0e08
_ZN19FileSelectSubScreen19func_ov019_020cf73cEii kind:function(arm,size=0x120) addr:0x020d0f5c
_ZN19FileSelectSubScreen8vfunc_10EPc kind:function(arm,size=0x14) addr:0x020d107c
_ZN13UnkStructSub2C1Ev kind:function(arm,size=0x18c) addr:0x020d1090
_ZN20FileSelect_UnkClass78vfunc_00Ev kind:function(arm,size=0xd4) addr:0x020d121c
_ZN20FileSelect_UnkClass78vfunc_04Ev kind:function(arm,size=0x58) addr:0x020d12f0
_ZN19FileSelectSubScreenD1Ev kind:function(arm,size=0xec) addr:0x020d1348
_ZN21FileSelectManager_160C1EP23GameModeManagerBase_104P14FileSelectMain kind:function(arm,size=0x54) addr:0x020d1434
_ZN21FileSelectManager_160D1Ev kind:function(arm,size=0x14) addr:0x020d1488
_ZN21FileSelectManager_160D0Ev kind:function(arm,size=0x1c) addr:0x020d149c
_ZN21FileSelectManager_1608vfunc_08Ei kind:function(arm,size=0x50) addr:0x020d14b8
_ZN21FileSelectManager_1608vfunc_0CEi kind:function(arm,size=0x64) addr:0x020d1508
_ZN21FileSelectManager_1608vfunc_14Ev kind:function(arm,size=0x4) addr:0x020d156c
_ZN21FileSelectManager_1608vfunc_10Ev kind:function(arm,size=0x8c) addr:0x020d1570
_ZN21FileSelectManager_1608vfunc_18Ei kind:function(arm,size=0x10) addr:0x020d15fc
_ZN21FileSelectManager_1608vfunc_1CEi kind:function(arm,size=0x64) addr:0x020d160c
_ZN21FileSelectManager_1608vfunc_20Ev kind:function(arm,size=0xac) addr:0x020d1670
_ZN21FileSelectManager_1608vfunc_24Ev kind:function(arm,size=0x34) addr:0x020d171c
_ZN21FileSelectManager_164C1EP23GameModeManagerBase_104P14FileSelectMain kind:function(arm,size=0x4c) addr:0x020d1750
_ZN21FileSelectManager_164D1Ev kind:function(arm,size=0x3c) addr:0x020d179c
_ZN21FileSelectManager_164D0Ev kind:function(arm,size=0x44) addr:0x020d17d8
_ZN21FileSelectManager_1648vfunc_08Ei kind:function(arm,size=0x50) addr:0x020d181c
_ZN21FileSelectManager_1648vfunc_0CEi kind:function(arm,size=0x90) addr:0x020d186c
_ZN21FileSelectManager_1648vfunc_14Ev kind:function(arm,size=0x4) addr:0x020d18fc
_ZN21FileSelectManager_1648vfunc_10Ev kind:function(arm,size=0xa8) addr:0x020d1900
_ZN21FileSelectManager_1648vfunc_18Ei kind:function(arm,size=0x38) addr:0x020d19a8
_ZN21FileSelectManager_1648vfunc_1CEi kind:function(arm,size=0xa4) addr:0x020d19e0
_ZN21FileSelectManager_1648vfunc_20Ev kind:function(arm,size=0x90) addr:0x020d1a84
_ZN21FileSelectManager_16419func_ov019_020d02f4Ev kind:function(arm,size=0x28) addr:0x020d1b14
_ZN25UnkSystem1_ov019_Derived2C1Ev kind:function(arm,size=0x40) addr:0x020d1b3c
_ZN25UnkSystem1_ov019_Derived28vfunc_08Ei kind:function(arm,size=0x48) addr:0x020d1b7c
_ZN25UnkSystem1_ov019_Derived28vfunc_1CEjii kind:function(arm,size=0x1f0) addr:0x020d1bc4
_ZN25UnkSystem1_ov019_Derived2D0Ev kind:function(arm,size=0x1c) addr:0x020d1db4
_ZN25UnkSystem1_ov019_Derived3C2Ev kind:function(arm,size=0x4c) addr:0x020d1dd0
_ZN25UnkSystem1_ov019_Derived38vfunc_04Ev kind:function(arm,size=0x14) addr:0x020d1e1c
_ZN25UnkSystem1_ov019_Derived38vfunc_08Ei kind:function(arm,size=0x48) addr:0x020d1e30
_ZN25UnkSystem1_ov019_Derived38vfunc_1CEjii kind:function(arm,size=0x1f8) addr:0x020d1e78
_ZN25UnkSystem1_ov019_Derived3D0Ev kind:function(arm,size=0x1c) addr:0x020d2070
_ZN11SaveManager19func_ov019_020d086cEt kind:function(arm,size=0x90) addr:0x020d208c
_ZN11SaveManager19func_ov019_020d08fcEiM8SaveFileFvvE kind:function(arm,size=0x68) addr:0x020d211c
_ZN11SaveManager19func_ov019_020d0964Ev kind:function(arm,size=0x78) addr:0x020d2184
_ZN11SaveManager19func_ov019_020d09dcEt kind:function(arm,size=0x28) addr:0x020d21fc
_ZN11SaveManager19func_ov019_020d0a04Et kind:function(arm,size=0x28) addr:0x020d2224
_ZN11SaveManager19func_ov019_020d0a2cEt kind:function(arm,size=0xb4) addr:0x020d224c
_ZN11SaveManager19func_ov019_020d0ae0Ei kind:function(arm,size=0x24) addr:0x020d2300
_ZN8SaveFileC1Ev kind:function(arm,size=0x148) addr:0x020d2324
_ZN8SaveFile19func_ov019_020d0c4cEii kind:function(arm,size=0x44) addr:0x020d246c
_ZN8SaveFile19func_ov019_020d0c90Ei kind:function(arm,size=0xc0) addr:0x020d24b0
_ZN8SaveFile19func_ov019_020d0d50Ev kind:function(arm,size=0xc8) addr:0x020d2570
_ZN8SaveFile19func_ov019_020d0e18Ei kind:function(arm,size=0x90) addr:0x020d2638
_ZN8SaveFile19func_ov019_020d0ea8Ev kind:function(arm,size=0x260) addr:0x020d26c8
_ZN8SaveFile19func_ov019_020d1108Ev kind:function(arm,size=0x174) addr:0x020d2928
_ZN8SaveFile19func_ov019_020d127cEv kind:function(arm,size=0x13c) addr:0x020d2a9c
_ZN8SaveFile19func_ov019_020d13b8Ev kind:function(arm,size=0x48) addr:0x020d2bd8
_ZN8SaveSub719func_ov019_020d1400Ev kind:function(arm,size=0x34) addr:0x020d2c20
_ZN8SaveFile19func_ov019_020d1434Ev kind:function(arm,size=0x8c) addr:0x020d2c54
_ZN8SaveSub519func_ov019_020d14c0Ev kind:function(arm,size=0x3c) addr:0x020d2ce0
_ZN8SaveInfo19func_ov019_020d14fcEv kind:function(arm,size=0x3c) addr:0x020d2d1c
_ZN8SaveFile19func_ov019_020d1538Ev kind:function(arm,size=0x94) addr:0x020d2d58
_ZN8SaveSub619func_ov019_020d15ccEv kind:function(arm,size=0x34) addr:0x020d2dec
_ZN13SaveTreasures19func_ov019_020d1600Ev kind:function(arm,size=0x34) addr:0x020d2e20
_ZN8SaveFile19func_ov019_020d1634Ev kind:function(arm,size=0x9c) addr:0x020d2e54
_ZN8SaveFile19func_ov019_020d16d0Ev kind:function(arm,size=0x110) addr:0x020d2ef0
_ZN8SaveFile19func_ov019_020d17e0Ev kind:function(arm,size=0x28) addr:0x020d3000
_ZN8SaveFile19func_ov019_020d1808Ei kind:function(arm,size=0x2a4) addr:0x020d3028
_ZN8SaveFile19func_ov019_020d1aacEiPKw kind:function(arm,size=0x68) addr:0x020d32cc
_ZN8SaveFile19func_ov019_020d1b14Ei kind:function(arm,size=0x9c) addr:0x020d3334
data_ov019_020d1bb0 kind:data(any) addr:0x020d33d0
data_ov019_020d1bbc kind:data(any) addr:0x020d33dc
data_ov019_020d1bcc kind:data(any) addr:0x020d33ec
data_ov019_020d1bd4 kind:data(any) addr:0x020d33f4
data_ov019_020d1be8 kind:data(any) addr:0x020d3408
__sinit_GameModeFileSelect.cpp kind:function(arm,size=0x18) addr:0x020d341c
__sinit_FileSelectManager.cpp kind:function(arm,size=0x18) addr:0x020d3434
__sinit_FileSelectMain.cpp kind:function(arm,size=0xa8) addr:0x020d344c
__sinit_FileSelectOptions.cpp kind:function(arm,size=0x68) addr:0x020d34f4
__sinit_FileSelectMicTest.cpp kind:function(arm,size=0x28) addr:0x020d355c
.p__sinit_GameModeFileSelect.cpp kind:data(word) addr:0x020d3584
.p__sinit_FileSelectManager.cpp kind:data(word) addr:0x020d3588
.p__sinit_FileSelectMain.cpp kind:data(word) addr:0x020d358c
.p__sinit_FileSelectOptions.cpp kind:data(word) addr:0x020d3590
.p__sinit_FileSelectMicTest.cpp kind:data(word) addr:0x020d3594
data_ov019_020d1d80 kind:data(any) addr:0x020d35a0
_ZTV18GameModeFileSelect kind:data(any) addr:0x020d35a4
data_ov019_020d1db4 kind:data(any) addr:0x020d35d4
_ZTV17FileSelectManager kind:data(any) addr:0x020d35d8
_ZTV25UnkSystem1_ov019_Derived1 kind:data(any) addr:0x020d3618
@1299 kind:data(any) addr:0x020d364c local
@1300 kind:data(any) addr:0x020d3654 local
@1301 kind:data(any) addr:0x020d365c local
@1302 kind:data(any) addr:0x020d3664 local
_ZN24UnkStruct_ov019_020d1e7019data_ov019_020d1e4cE kind:data(any) addr:0x020d366c
data_ov019_020d1e70 kind:data(any) addr:0x020d3690
_ZN24UnkStruct_ov019_020d1e7019data_ov019_020d1e94E kind:data(any) addr:0x020d36b4
_ZTV14FileSelectMain kind:data(any) addr:0x020d36d8
data_ov019_020d36fc kind:data(any) addr:0x020d36fc
data_ov019_020d37b4 kind:data(any) addr:0x020d37b4
data_ov019_020d386c kind:data(any) addr:0x020d386c
data_ov019_020d3924 kind:data(any) addr:0x020d3924
data_ov019_020d393c kind:data(any) addr:0x020d393c
data_ov019_020d3940 kind:data(any) addr:0x020d3940
data_ov019_020d394c kind:data(any) addr:0x020d394c
data_ov019_020d395c kind:data(any) addr:0x020d395c
data_ov019_020d3968 kind:data(any) addr:0x020d3968
_ZN24UnkStruct_ov019_020d217019data_ov019_020d215cE kind:data(any) addr:0x020d397c
data_ov019_020d2170 kind:data(any) addr:0x020d3990
data_ov019_020d2188 kind:data(any) addr:0x020d39a8
data_ov019_020d21c0 kind:data(any) addr:0x020d39e0
_ZTV17FileSelectOptions kind:data(any) addr:0x020d3a18
_ZTV24FileSelectOptionsManager kind:data(any) addr:0x020d3a3c
@2446 kind:data(any) addr:0x020d3a60 local
data_ov019_020d3a68 kind:data(any) addr:0x020d3a68
data_ov019_020d3a7c kind:data(any) addr:0x020d3a7c
_ZTV17FileSelectMicTest kind:data(any) addr:0x020d3a9c
_ZTV20FileSelect_UnkClass7 kind:data(any) addr:0x020d3ac0
_ZTV19FileSelectSubScreen kind:data(any) addr:0x020d3ad0
data_ov019_020d3af4 kind:data(any) addr:0x020d3af4
data_ov019_020d3b0c kind:data(any) addr:0x020d3b0c
data_ov019_020d3b24 kind:data(any) addr:0x020d3b24
data_ov019_020d3b2a kind:data(any) addr:0x020d3b2a
data_ov019_020d3b2c kind:data(any) addr:0x020d3b2c ambiguous
data_ov019_020d3b3c kind:data(any) addr:0x020d3b3c
data_ov019_020d3b54 kind:data(any) addr:0x020d3b54
data_ov019_020d3b6c kind:data(any) addr:0x020d3b6c
data_ov019_020d3b70 kind:data(any) addr:0x020d3b70
data_ov019_020d3b74 kind:data(any) addr:0x020d3b74
data_ov019_020d3b78 kind:data(any) addr:0x020d3b78
data_ov019_020d3b7c kind:data(any) addr:0x020d3b7c
data_ov019_020d3b80 kind:data(any) addr:0x020d3b80
data_ov019_020d3b8c kind:data(any) addr:0x020d3b8c
data_ov019_020d3b90 kind:data(any) addr:0x020d3b90 ambiguous
data_ov019_020d3b98 kind:data(any) addr:0x020d3b98
data_ov019_020d3ba4 kind:data(any) addr:0x020d3ba4
data_ov019_020d3bb0 kind:data(any) addr:0x020d3bb0
data_ov019_020d3bbc kind:data(any) addr:0x020d3bbc
data_ov019_020d3bd0 kind:data(any) addr:0x020d3bd0
data_ov019_020d3bd4 kind:data(any) addr:0x020d3bd4
data_ov019_020d3be0 kind:data(any) addr:0x020d3be0
data_ov019_020d3bec kind:data(any) addr:0x020d3bec
_ZTV21FileSelectManager_160 kind:data(any) addr:0x020d3bf8
_ZTV21FileSelectManager_164 kind:data(any) addr:0x020d3c28
_ZTV25UnkSystem1_ov019_Derived2 kind:data(any) addr:0x020d3c58
_ZTV25UnkSystem1_ov019_Derived3 kind:data(any) addr:0x020d3c8c
data_ov019_020d3cc0 kind:data(any) addr:0x020d3cc0
data_ov019_020d3cc8 kind:data(any) addr:0x020d3cc8
data_ov019_020d3cd0 kind:data(any) addr:0x020d3cd0
data_ov019_020d3ce0 kind:bss addr:0x020d3ce0
gpFSOptionsManager kind:bss addr:0x020d3ce8
data_ov019_020d24cc kind:bss addr:0x020d3cec
data_ov019_020e00cc kind:bss addr:0x020e18ec
data_ov019_020edccc kind:bss addr:0x020ef4ec
data_ov019_020fb8cc kind:bss addr:0x020fd0ec
data_ov019_021094cc kind:bss(size=0xdc00) addr:0x0210acec
