_ZN19ActorProfileUnkRMBD10GetProfileEv kind:function(arm,size=0xc) addr:0x021234c0
_ZN19ActorProfileUnkRMBD6CreateEv kind:function(arm,size=0x24) addr:0x021234cc
_ZN19ActorProfileUnkRMBDC1Ev kind:function(arm,size=0x3c) addr:0x021234f0
_ZN12ActorUnkRMBD19func_ov045_0212352cEv kind:function(arm,size=0x14) addr:0x0212352c
_ZN12ActorUnkRMBD19func_ov045_02123540Ev kind:function(arm,size=0xcc) addr:0x02123540
_ZN12ActorUnkRMBD19func_ov045_0212360cEv kind:function(arm,size=0xc8) addr:0x0212360c
_ZN12ActorUnkRMBDC1Ev kind:function(arm,size=0x1b4) addr:0x021236d4
_ZN12ActorUnkRMBDD1Ev kind:function(arm,size=0x68) addr:0x02123888
_ZN12ActorUnkRMBDD0Ev kind:function(arm,size=0x70) addr:0x021238f0
_ZN12ActorUnkRMBD19func_ov045_02123960Ev kind:function(arm,size=0x2ac) addr:0x02123960
_ZN12ActorUnkRMBD19func_ov045_02123c0cEv kind:function(arm,size=0x38) addr:0x02123c0c
_ZN12ActorUnkRMBD19func_ov045_02123c44Ev kind:function(arm,size=0x68) addr:0x02123c44
_ZN12ActorUnkRMBD19func_ov045_02123cacEv kind:function(arm,size=0x4) addr:0x02123cac
_ZN12ActorUnkRMBD19func_ov045_02123cb0Ev kind:function(arm,size=0x94) addr:0x02123cb0
_ZN12ActorUnkRMBD19func_ov045_02123d44Ev kind:function(arm,size=0x108) addr:0x02123d44
_ZN12ActorUnkRMBD19func_ov045_02123e4cEv kind:function(arm,size=0x10) addr:0x02123e4c
_ZN12ActorUnkRMBD19func_ov045_02123e5cEv kind:function(arm,size=0x38) addr:0x02123e5c
_ZN12ActorUnkRMBD19func_ov045_02123e94Ev kind:function(arm,size=0x2c) addr:0x02123e94
_ZN12ActorUnkRMBD19func_ov045_02123ec0Ev kind:function(arm,size=0x1c) addr:0x02123ec0
_ZN12ActorUnkRMBD19func_ov045_02123edcEv kind:function(arm,size=0x2c) addr:0x02123edc
_ZN12ActorUnkRMBD19func_ov045_02123f08Ev kind:function(arm,size=0xe8) addr:0x02123f08
_ZN12ActorUnkRMBD19func_ov045_02123ff0Ev kind:function(arm,size=0x14c) addr:0x02123ff0
_ZN12ActorUnkRMBD19func_ov045_0212413cEv kind:function(arm,size=0x20) addr:0x0212413c
_ZN12ActorUnkRMBD19func_ov045_0212415cEv kind:function(arm,size=0xc) addr:0x0212415c
_ZN19ActorProfileUnkRMBDD1Ev kind:function(arm,size=0x20) addr:0x02124168
_ZN19ActorProfileUnkBDGA10GetProfileEv kind:function(arm,size=0xc) addr:0x02124188
_ZN19ActorProfileUnkBDGA6CreateEv kind:function(arm,size=0x24) addr:0x02124194
_ZN19ActorProfileUnkBDGAC1Ev kind:function(arm,size=0x5c) addr:0x021241b8
_ZN12ActorUnkBDGA19func_ov045_02124214Ev kind:function(arm,size=0x48) addr:0x02124214
_ZN12ActorUnkBDGAC1Ev kind:function(arm,size=0x1dc) addr:0x0212425c
_ZN12ActorUnkBDGA19func_ov045_02124438Ev kind:function(arm,size=0x14) addr:0x02124438
_ZN12ActorUnkBDGA19func_ov045_0212444cEv kind:function(arm,size=0x14) addr:0x0212444c
_ZN12ActorUnkBDGA19func_ov045_02124460Ev kind:function(arm,size=0x8c) addr:0x02124460
_ZN12ActorUnkBDGA19func_ov045_021244ecEv kind:function(arm,size=0x60) addr:0x021244ec
_ZN12ActorUnkBDGA19func_ov045_0212454cEv kind:function(arm,size=0x178) addr:0x0212454c
_ZN12ActorUnkBDGA19func_ov045_021246c4Ev kind:function(arm,size=0xc0) addr:0x021246c4
_ZN12ActorUnkBDGA19func_ov045_02124784Ev kind:function(arm,size=0x20) addr:0x02124784
_ZN12ActorUnkBDGA19func_ov045_021247a4Ev kind:function(arm,size=0x4) addr:0x021247a4
_ZN12ActorUnkBDGA19func_ov045_021247a8Ev kind:function(arm,size=0x28c) addr:0x021247a8
_ZN12ActorUnkBDGA19func_ov045_02124a34Ev kind:function(arm,size=0x460) addr:0x02124a34
_ZN12ActorUnkBDGA19func_ov045_02124e94Ev kind:function(arm,size=0x12c) addr:0x02124e94
_ZN12ActorUnkBDGA19func_ov045_02124fc0Ev kind:function(arm,size=0x6a0) addr:0x02124fc0
_ZN12ActorUnkBDGA19func_ov045_02125660Ev kind:function(arm,size=0x14) addr:0x02125660
_ZN12ActorUnkBDGA19func_ov045_02125674Ev kind:function(arm,size=0x7c) addr:0x02125674
_ZN12ActorUnkBDGA19func_ov045_021256f0Ev kind:function(arm,size=0x1ec) addr:0x021256f0
_ZN12ActorUnkBDGA19func_ov045_021258dcEv kind:function(arm,size=0x194) addr:0x021258dc
_ZN12ActorUnkBDGA19func_ov045_02125a70Ev kind:function(arm,size=0x420) addr:0x02125a70
_ZN12ActorUnkBDGA19func_ov045_02125e90Ev kind:function(arm,size=0x15c) addr:0x02125e90
_ZN12ActorUnkBDGA19func_ov045_02125fecEv kind:function(arm,size=0x88) addr:0x02125fec
_ZN12ActorUnkBDGA19func_ov045_02126074Ev kind:function(arm,size=0x12c) addr:0x02126074
_ZN12ActorUnkBDGA19func_ov045_021261a0Ev kind:function(arm,size=0x204) addr:0x021261a0
_ZN12ActorUnkBDGA19func_ov045_021263a4Ev kind:function(arm,size=0x10c) addr:0x021263a4
_ZN12ActorUnkBDGA19func_ov045_021264b0Ev kind:function(arm,size=0x2f0) addr:0x021264b0
_ZN12ActorUnkBDGA19func_ov045_021267a0Ev kind:function(arm,size=0x194) addr:0x021267a0
_ZN12ActorUnkBDGA19func_ov045_02126934Ev kind:function(arm,size=0x1b8) addr:0x02126934
_ZN12ActorUnkBDGA19func_ov045_02126aecEv kind:function(arm,size=0x20) addr:0x02126aec
_ZN12ActorUnkBDGA19func_ov045_02126b0cEv kind:function(arm,size=0x4) addr:0x02126b0c
_ZN12ActorUnkBDGA19func_ov045_02126b10Ev kind:function(arm,size=0xb8) addr:0x02126b10
_ZN12ActorUnkBDGA19func_ov045_02126bc8Ev kind:function(arm,size=0x6c) addr:0x02126bc8
_ZN12ActorUnkBDGA19func_ov045_02126c34Ev kind:function(arm,size=0x114) addr:0x02126c34
_ZN12ActorUnkBDGA19func_ov045_02126d48Ev kind:function(arm,size=0x88) addr:0x02126d48
_ZN12ActorUnkBDGA19func_ov045_02126dd0Ev kind:function(arm,size=0x38) addr:0x02126dd0
_ZN12ActorUnkBDGA19func_ov045_02126e08Ev kind:function(arm,size=0x30c) addr:0x02126e08
_ZN12ActorUnkBDGA19func_ov045_02127114Ev kind:function(arm,size=0x60) addr:0x02127114
_ZN12ActorUnkBDGA19func_ov045_02127174Ev kind:function(arm,size=0x80) addr:0x02127174
_ZN12ActorUnkBDGA19func_ov045_021271f4Ev kind:function(arm,size=0x24) addr:0x021271f4
_ZN12ActorUnkBDGA19func_ov045_02127218Ev kind:function(arm,size=0xbc) addr:0x02127218
_ZN12ActorUnkBDGA19func_ov045_021272d4Ev kind:function(arm,size=0x68) addr:0x021272d4
_ZN12ActorUnkBDGA19func_ov045_0212733cEv kind:function(arm,size=0x2c) addr:0x0212733c
_ZN12ActorUnkBDGA19func_ov045_02127368Ev kind:function(arm,size=0x54) addr:0x02127368
_ZN12ActorUnkBDGA19func_ov045_021273bcEv kind:function(arm,size=0x60) addr:0x021273bc
_ZN12ActorUnkBDGA19func_ov045_0212741cEv kind:function(arm,size=0x28) addr:0x0212741c
_ZN12ActorUnkBDGA19func_ov045_02127444Ev kind:function(arm,size=0x134) addr:0x02127444
_ZN12ActorUnkBDGA19func_ov045_02127578Ev kind:function(arm,size=0x12c) addr:0x02127578
_ZN12ActorUnkBDGA19func_ov045_021276a4Ev kind:function(arm,size=0x3c) addr:0x021276a4
_ZN12ActorUnkBDGA19func_ov045_021276e0Ev kind:function(arm,size=0x74) addr:0x021276e0
_ZN12ActorUnkBDGA19func_ov045_02127754Ev kind:function(arm,size=0x24) addr:0x02127754
_ZN12ActorUnkBDGA19func_ov045_02127778Ev kind:function(arm,size=0x2c) addr:0x02127778
_ZN12ActorUnkBDGA19func_ov045_021277a4Ev kind:function(arm,size=0xc) addr:0x021277a4
_ZN12ActorUnkBDGAD0Ev kind:function(arm,size=0x1c) addr:0x021277b0
_ZN12ActorUnkBDGA19func_ov045_021277ccEv kind:function(arm,size=0x1c) addr:0x021277cc
_ZN12ActorUnkBDGA19func_ov045_021277e8Ev kind:function(arm,size=0x1c) addr:0x021277e8
_ZN12ActorUnkBDGAD1Ev kind:function(arm,size=0x4c) addr:0x02127804
_ZN12ActorUnkBDGA19func_ov045_02127850Ev kind:function(arm,size=0x54) addr:0x02127850
_ZN19ActorProfileUnkBDGAD1Ev kind:function(arm,size=0x14) addr:0x021278a4
_ZN19ActorProfileUnkBDBA10GetProfileEv kind:function(arm,size=0xc) addr:0x021278b8
_ZN19ActorProfileUnkBDBA6CreateEv kind:function(arm,size=0x24) addr:0x021278c4
_ZN19ActorProfileUnkBDBAC1Ev kind:function(arm,size=0x58) addr:0x021278e8
_ZN12ActorUnkBDBAC1Ev kind:function(arm,size=0x130) addr:0x02127940
_ZN12ActorUnkBDBA19func_ov045_02127a70Ev kind:function(arm,size=0x14) addr:0x02127a70
_ZN12ActorUnkBDBAD1Ev kind:function(arm,size=0x28) addr:0x02127a84
_ZN12ActorUnkBDBAD0Ev kind:function(arm,size=0x30) addr:0x02127aac
_ZN12ActorUnkBDBA19func_ov045_02127adcEv kind:function(arm,size=0x24) addr:0x02127adc
_ZN12ActorUnkBDBA19func_ov045_02127b00Ev kind:function(arm,size=0x3c) addr:0x02127b00
_ZN12ActorUnkBDBA19func_ov045_02127b3cEv kind:function(arm,size=0x80) addr:0x02127b3c
_ZN12ActorUnkBDBA19func_ov045_02127bbcEv kind:function(arm,size=0x348) addr:0x02127bbc
_ZN12ActorUnkBDBA19func_ov045_02127f04Ev kind:function(arm,size=0x174) addr:0x02127f04
_ZN12ActorUnkBDBA19func_ov045_02128078Ev kind:function(arm,size=0xbc) addr:0x02128078
_ZN12ActorUnkBDBA19func_ov045_02128134Ev kind:function(arm,size=0xa4) addr:0x02128134
_ZN12ActorUnkBDBA19func_ov045_021281d8Ev kind:function(arm,size=0x14) addr:0x021281d8
_ZN12ActorUnkBDBA19func_ov045_021281ecEv kind:function(arm,size=0x68) addr:0x021281ec
_ZN12ActorUnkBDBA19func_ov045_02128254Ev kind:function(arm,size=0x10) addr:0x02128254
_ZN12ActorUnkBDBA19func_ov045_02128264Ev kind:function(arm,size=0x6c) addr:0x02128264
_ZN12ActorUnkBDBA19func_ov045_021282d0Ev kind:function(arm,size=0x1c) addr:0x021282d0
_ZN19ActorProfileUnkBDBAD1Ev kind:function(arm,size=0x14) addr:0x021282ec
_ZN19ActorProfileUnkBDLB10GetProfileEv kind:function(arm,size=0xc) addr:0x02128300
_ZN19ActorProfileUnkBDLB6CreateEv kind:function(arm,size=0x24) addr:0x0212830c
_ZN19ActorProfileUnkBDLBC1Ev kind:function(arm,size=0x4c) addr:0x02128330
_ZN12ActorUnkBDLBC1Ev kind:function(arm,size=0x84) addr:0x0212837c
_ZN12ActorUnkBDLBD1Ev kind:function(arm,size=0x30) addr:0x02128400
_ZN12ActorUnkBDLBD0Ev kind:function(arm,size=0x38) addr:0x02128430
_ZN12ActorUnkBDLB19func_ov045_02128468Ev kind:function(arm,size=0x74) addr:0x02128468
_ZN12ActorUnkBDLB19func_ov045_021284dcEv kind:function(arm,size=0x3c) addr:0x021284dc
_ZN12ActorUnkBDLB19func_ov045_02128518Ev kind:function(arm,size=0x80) addr:0x02128518
_ZN12ActorUnkBDLB19func_ov045_02128598Ev kind:function(arm,size=0x320) addr:0x02128598
_ZN12ActorUnkBDLB19func_ov045_021288b8Ev kind:function(arm,size=0xb4) addr:0x021288b8
_ZN12ActorUnkBDLB19func_ov045_0212896cEv kind:function(arm,size=0x14) addr:0x0212896c
_ZN12ActorUnkBDLB19func_ov045_02128980Ev kind:function(arm,size=0x80) addr:0x02128980
_ZN12ActorUnkBDLB19func_ov045_02128a00Ev kind:function(arm,size=0xb4) addr:0x02128a00
_ZN12ActorUnkBDLB19func_ov045_02128ab4Ev kind:function(arm,size=0x190) addr:0x02128ab4
_ZN12ActorUnkBDLB19func_ov045_02128c44Ev kind:function(arm,size=0x104) addr:0x02128c44
_ZN12ActorUnkBDLB19func_ov045_02128d48Ev kind:function(arm,size=0x68) addr:0x02128d48
_ZN12ActorUnkBDLB19func_ov045_02128db0Ev kind:function(arm,size=0x14) addr:0x02128db0
_ZN12ActorUnkBDLB19func_ov045_02128dc4Ev kind:function(arm,size=0x68) addr:0x02128dc4
_ZN12ActorUnkBDLB19func_ov045_02128e2cEv kind:function(arm,size=0x10) addr:0x02128e2c
_ZN12ActorUnkBDLB19func_ov045_02128e3cEv kind:function(arm,size=0x6c) addr:0x02128e3c
_ZN19ActorProfileUnkBDLBD1Ev kind:function(arm,size=0x14) addr:0x02128ea8
_ZN19ActorProfileUnkWPCL10GetProfileEv kind:function(arm,size=0xc) addr:0x02128ebc
_ZN19ActorProfileUnkWPCL6CreateEv kind:function(arm,size=0x24) addr:0x02128ec8
_ZN19ActorProfileUnkWPCLC1Ev kind:function(arm,size=0x28) addr:0x02128eec
_ZN12ActorUnkWPCLC1Ev kind:function(arm,size=0x44) addr:0x02128f14
_ZN12ActorUnkWPCL19func_ov045_02128f58Ev kind:function(arm,size=0x94) addr:0x02128f58
_ZN12ActorUnkWPCLD1Ev kind:function(arm,size=0x20) addr:0x02128fec
_ZN12ActorUnkWPCLD0Ev kind:function(arm,size=0x28) addr:0x0212900c
_ZN19ActorProfileUnkWPCLD1Ev kind:function(arm,size=0x14) addr:0x02129034
_ZN23MapObjectProfileUnkRDSD10GetProfileEv kind:function(arm,size=0xc) addr:0x02129048
_ZN23MapObjectProfileUnkRDSD6CreateEv kind:function(arm,size=0x24) addr:0x02129054
_ZN23MapObjectProfileUnkRDSDC1Ev kind:function(arm,size=0x4c) addr:0x02129078
_ZN16MapObjectUnkRDSDC1Ev kind:function(arm,size=0x60) addr:0x021290c4
_ZN16MapObjectUnkRDSD19func_ov045_02129124Ev kind:function(arm,size=0x68) addr:0x02129124
_ZN16MapObjectUnkRDSD19func_ov045_0212918cEv kind:function(arm,size=0x44) addr:0x0212918c
_ZN16MapObjectUnkRDSD19func_ov045_021291d0Ev kind:function(arm,size=0x14) addr:0x021291d0
_ZN16MapObjectUnkRDSD19func_ov045_021291e4Ev kind:function(arm,size=0x48) addr:0x021291e4
_ZN16MapObjectUnkRDSD19func_ov045_0212922cEv kind:function(arm,size=0x30) addr:0x0212922c
_ZN16MapObjectUnkRDSD19func_ov045_0212925cEv kind:function(arm,size=0x20) addr:0x0212925c
_ZN16MapObjectUnkRDSD19func_ov045_0212927cEv kind:function(arm,size=0x54) addr:0x0212927c
_ZN16MapObjectUnkRDSD19func_ov045_021292d0Ev kind:function(arm,size=0x60) addr:0x021292d0
_ZN16MapObjectUnkRDSDD1Ev kind:function(arm,size=0x28) addr:0x02129330
_ZN16MapObjectUnkRDSDD0Ev kind:function(arm,size=0x30) addr:0x02129358
_ZN23MapObjectProfileUnkRDSDD1Ev kind:function(arm,size=0x14) addr:0x02129388
_ZN19func_ov045_0212939cD0Ev kind:function(arm,size=0x1c) addr:0x0212939c
func_ov045_021293b8 kind:function(arm,size=0x64) addr:0x021293b8
func_ov045_0212941c kind:function(arm,size=0xa4) addr:0x0212941c
data_ov045_021294c0 kind:data(any) addr:0x021294c0
data_ov045_021294d0 kind:data(any) addr:0x021294d0
data_ov045_021294e0 kind:data(any) addr:0x021294e0
data_ov045_021294f0 kind:data(any) addr:0x021294f0
data_ov045_02129500 kind:data(any) addr:0x02129500
data_ov045_02129580 kind:data(any) addr:0x02129580
data_ov045_02129600 kind:data(any) addr:0x02129600
data_ov045_02129610 kind:data(any) addr:0x02129610
__sinit_ActorUnkRMBD.cpp kind:function(arm,size=0x244) addr:0x02129620
__sinit_ActorUnkBDGA.cpp kind:function(arm,size=0x130) addr:0x02129864
__sinit_ActorUnkBDBA.cpp kind:function(arm,size=0x50) addr:0x02129994
__sinit_ActorUnkBDLB.cpp kind:function(arm,size=0x50) addr:0x021299e4
__sinit_ActorUnkWPCL.cpp kind:function(arm,size=0x50) addr:0x02129a34
__sinit_MapObjectUnkRDSD.cpp kind:function(arm,size=0x50) addr:0x02129a84
.p__sinit_ActorUnkRMBD.cpp kind:data(word) addr:0x02129ad4
.p__sinit_ActorUnkBDGA.cpp kind:data(word) addr:0x02129ad8
.p__sinit_ActorUnkBDBA.cpp kind:data(word) addr:0x02129adc
.p__sinit_ActorUnkBDLB.cpp kind:data(word) addr:0x02129ae0
.p__sinit_ActorUnkWPCL.cpp kind:data(word) addr:0x02129ae4
.p__sinit_MapObjectUnkRDSD.cpp kind:data(word) addr:0x02129ae8
data_ov045_02129b00 kind:data(any) addr:0x02129b00
data_ov045_02129b08 kind:data(any) addr:0x02129b08
data_ov045_02129b10 kind:data(any) addr:0x02129b10
data_ov045_02129b24 kind:data(any) addr:0x02129b24
_ZTV19data_ov045_02129b40 kind:data(any) addr:0x02129b40
data_ov045_02129b64 kind:data(any) addr:0x02129b64
data_ov045_02129b6a kind:data(any) addr:0x02129b6a
data_ov045_02129b70 kind:data(any) addr:0x02129b70
data_ov045_02129b76 kind:data(any) addr:0x02129b76
data_ov045_02129b7c kind:data(any) addr:0x02129b7c
data_ov045_02129b82 kind:data(any) addr:0x02129b82
data_ov045_02129b88 kind:data(any) addr:0x02129b88
data_ov045_02129b8e kind:data(any) addr:0x02129b8e
data_ov045_02129b94 kind:data(any) addr:0x02129b94
data_ov045_02129b9a kind:data(any) addr:0x02129b9a
data_ov045_02129ba0 kind:data(any) addr:0x02129ba0
data_ov045_02129ba6 kind:data(any) addr:0x02129ba6
data_ov045_02129bac kind:data(any) addr:0x02129bac
data_ov045_02129bb2 kind:data(any) addr:0x02129bb2
_ZTV19data_ov045_02129bb8 kind:data(any) addr:0x02129bb8
data_ov045_02129c14 kind:data(any) addr:0x02129c14
data_ov045_02129c20 kind:data(any) addr:0x02129c20
data_ov045_02129c2c kind:data(any) addr:0x02129c2c
data_ov045_02129c38 kind:data(any) addr:0x02129c38
data_ov045_02129c44 kind:data(any) addr:0x02129c44
data_ov045_02129c50 kind:data(any) addr:0x02129c50
data_ov045_02129c5c kind:data(any) addr:0x02129c5c
data_ov045_02129c68 kind:data(any) addr:0x02129c68
data_ov045_02129c74 kind:data(any) addr:0x02129c74
data_ov045_02129c8c kind:data(any) addr:0x02129c8c
_ZTV19data_ov045_02129ca0 kind:data(any) addr:0x02129ca0
data_ov045_02129ccc kind:data(any) addr:0x02129ccc
data_ov045_02129cf8 kind:data(any) addr:0x02129cf8
data_ov045_02129d3c kind:data(any) addr:0x02129d3c
data_ov045_02129d9c kind:data(any) addr:0x02129d9c
data_ov045_02129da8 kind:data(any) addr:0x02129da8
data_ov045_02129db4 kind:data(any) addr:0x02129db4
data_ov045_02129dc0 kind:data(any) addr:0x02129dc0
data_ov045_02129dcc kind:data(any) addr:0x02129dcc
data_ov045_02129dd8 kind:data(any) addr:0x02129dd8
data_ov045_02129de4 kind:data(any) addr:0x02129de4
data_ov045_02129df0 kind:data(any) addr:0x02129df0
data_ov045_02129dfc kind:data(any) addr:0x02129dfc
data_ov045_02129e5c kind:data(any) addr:0x02129e5c
data_ov045_02129e74 kind:data(any) addr:0x02129e74
data_ov045_02129e8c kind:data(any) addr:0x02129e8c
data_ov045_02129ea4 kind:data(any) addr:0x02129ea4
_ZTV19data_ov045_02129ebc kind:data(any) addr:0x02129ebc
data_ov045_02129f20 kind:data(any) addr:0x02129f20
data_ov045_02129f30 kind:data(any) addr:0x02129f30
data_ov045_02129f40 kind:data(any) addr:0x02129f40
_ZTV19data_ov045_02129f58 kind:data(any) addr:0x02129f58
data_ov045_02129f84 kind:data(any) addr:0x02129f84
_ZTV19data_ov045_02129fc8 kind:data(any) addr:0x02129fc8
data_ov045_0212a024 kind:data(any) addr:0x0212a024
data_ov045_0212a044 kind:data(any) addr:0x0212a044
_ZTV19data_ov045_0212a064 kind:data(any) addr:0x0212a064
_ZTV19data_ov045_0212a088 kind:data(any) addr:0x0212a088
_ZTV19data_ov045_0212a0e4 kind:data(any) addr:0x0212a0e4
data_ov045_0212a110 kind:data(any) addr:0x0212a110
_ZTV19data_ov045_0212a130 kind:data(any) addr:0x0212a130
data_ov045_0212a194 kind:data(any) addr:0x0212a194
data_ov045_0212a1bc kind:data(any) addr:0x0212a1bc
data_ov045_0212a22c kind:data(any) addr:0x0212a22c
data_ov045_0212a240 kind:bss addr:0x0212a240
data_ov045_0212a244 kind:bss addr:0x0212a244
sActorProfileUnkRMBD kind:bss addr:0x0212a250
data_ov045_0212a328 kind:bss addr:0x0212a328
data_ov045_0212a33c kind:bss addr:0x0212a33c
data_ov045_0212a340 kind:bss addr:0x0212a340
sActorProfileUnkBDGA kind:bss addr:0x0212a34c
data_ov045_0212a424 kind:bss addr:0x0212a424
data_ov045_0212a428 kind:bss addr:0x0212a428
sActorProfileUnkBDBA kind:bss addr:0x0212a434
data_ov045_0212a440 kind:bss addr:0x0212a440 ambiguous
data_ov045_0212a50c kind:bss addr:0x0212a50c
data_ov045_0212a510 kind:bss addr:0x0212a510
sActorProfileUnkBDLB kind:bss addr:0x0212a51c
data_ov045_0212a5f4 kind:bss addr:0x0212a5f4
data_ov045_0212a5f8 kind:bss addr:0x0212a5f8
sActorProfileUnkWPCL kind:bss addr:0x0212a604
data_ov045_0212a640 kind:bss addr:0x0212a640
data_ov045_0212a644 kind:bss addr:0x0212a644
sMapObjectProfileUnkRDSD kind:bss addr:0x0212a650
