_ZN19ActorProfileUnkFRBS10GetProfileEv kind:function(arm,size=0xc) addr:0x02152ea0
_ZN19ActorProfileUnkFRBS6CreateEv kind:function(arm,size=0x28) addr:0x02152eac
_ZN19ActorProfileUnkFRBSC1Ev kind:function(arm,size=0x64) addr:0x02152ed4
_ZN12ActorUnkFRBS19func_ov078_02152f38Ev kind:function(arm,size=0x28) addr:0x02152f38
_ZN12ActorUnkFRBSD1Ev kind:function(arm,size=0x14) addr:0x02152f60
_ZN12ActorUnkFRBSD0Ev kind:function(arm,size=0x1c) addr:0x02152f74
_ZN12ActorUnkFRBS19func_ov078_02152f90Ev kind:function(arm,size=0xc8) addr:0x02152f90
_ZN12ActorUnkFRBSC1Ev kind:function(arm,size=0x394) addr:0x02153058
_ZN12ActorUnkFRBS19func_ov078_021533ecEv kind:function(arm,size=0x14) addr:0x021533ec
_ZN12ActorUnkFRBS19func_ov078_02153400Ev kind:function(arm,size=0xcc) addr:0x02153400
_ZN12ActorUnkFRBS19func_ov078_021534ccEv kind:function(arm,size=0x120) addr:0x021534cc
_ZN12ActorUnkFRBS19func_ov078_021535ecEv kind:function(arm,size=0x5c8) addr:0x021535ec
_ZN12ActorUnkFRBS19func_ov078_02153bb4Ev kind:function(arm,size=0x108) addr:0x02153bb4
_ZN12ActorUnkFRBS19func_ov078_02153cbcEv kind:function(arm,size=0x80) addr:0x02153cbc
_ZN12ActorUnkFRBS19func_ov078_02153d3cEv kind:function(arm,size=0x1bc) addr:0x02153d3c
_ZN12ActorUnkFRBS19func_ov078_02153ef8Ev kind:function(arm,size=0x20c) addr:0x02153ef8
_ZN12ActorUnkFRBS19func_ov078_02154104Ev kind:function(arm,size=0x15c) addr:0x02154104
_ZN12ActorUnkFRBS19func_ov078_02154260Ev kind:function(arm,size=0x29c) addr:0x02154260
_ZN12ActorUnkFRBS19func_ov078_021544fcEv kind:function(arm,size=0x20) addr:0x021544fc
_ZN12ActorUnkFRBS19func_ov078_0215451cEv kind:function(arm,size=0x20) addr:0x0215451c
_ZN12ActorUnkFRBS19func_ov078_0215453cEv kind:function(arm,size=0x25c) addr:0x0215453c
_ZN12ActorUnkFRBS19func_ov078_02154798Ev kind:function(arm,size=0x2c) addr:0x02154798
_ZN12ActorUnkFRBS19func_ov078_021547c4Ev kind:function(arm,size=0x78) addr:0x021547c4
_ZN12ActorUnkFRBS19func_ov078_0215483cEv kind:function(arm,size=0xe94) addr:0x0215483c
_ZN12ActorUnkFRBS19func_ov078_021556d0Ev kind:function(arm,size=0x7c) addr:0x021556d0
_ZN12ActorUnkFRBS19func_ov078_0215574cEv kind:function(arm,size=0x54) addr:0x0215574c
_ZN12ActorUnkFRBS19func_ov078_021557a0Ev kind:function(arm,size=0x1a0) addr:0x021557a0
_ZN12ActorUnkFRBS19func_ov078_02155940Ev kind:function(arm,size=0x3a4) addr:0x02155940
_ZN12ActorUnkFRBS19func_ov078_02155ce4Ev kind:function(arm,size=0xe0) addr:0x02155ce4
_ZN12ActorUnkFRBS19func_ov078_02155dc4Ev kind:function(arm,size=0x68) addr:0x02155dc4
_ZN12ActorUnkFRBS19func_ov078_02155e2cEv kind:function(arm,size=0xec) addr:0x02155e2c
_ZN12ActorUnkFRBS19func_ov078_02155f18Ev kind:function(arm,size=0xe0) addr:0x02155f18
_ZN12ActorUnkFRBS19func_ov078_02155ff8Ev kind:function(arm,size=0x78) addr:0x02155ff8
_ZN12ActorUnkFRBS19func_ov078_02156070Ev kind:function(arm,size=0xa4) addr:0x02156070
_ZN12ActorUnkFRBS19func_ov078_02156114Ev kind:function(arm,size=0xc0) addr:0x02156114
_ZN12ActorUnkFRBS19func_ov078_021561d4Ev kind:function(arm,size=0x24) addr:0x021561d4
_ZN12ActorUnkFRBS19func_ov078_021561f8Ev kind:function(arm,size=0x1c0) addr:0x021561f8
_ZN12ActorUnkFRBS19func_ov078_021563b8Ev kind:function(arm,size=0x11c) addr:0x021563b8
_ZN12ActorUnkFRBS19func_ov078_021564d4Ev kind:function(arm,size=0x178) addr:0x021564d4
_ZN12ActorUnkFRBS19func_ov078_0215664cEv kind:function(arm,size=0x1e0) addr:0x0215664c
_ZN12ActorUnkFRBS19func_ov078_0215682cEv kind:function(arm,size=0x84) addr:0x0215682c
_ZN12ActorUnkFRBS19func_ov078_021568b0Ev kind:function(arm,size=0x3e4) addr:0x021568b0
_ZN12ActorUnkFRBS19func_ov078_02156c94Ev kind:function(arm,size=0xa0) addr:0x02156c94
_ZN12ActorUnkFRBS19func_ov078_02156d34Ev kind:function(arm,size=0x140) addr:0x02156d34
_ZN12ActorUnkFRBS19func_ov078_02156e74Ev kind:function(arm,size=0x230) addr:0x02156e74
_ZN12ActorUnkFRBS19func_ov078_021570a4Ev kind:function(arm,size=0x3d8) addr:0x021570a4
_ZN12ActorUnkFRBS19func_ov078_0215747cEv kind:function(arm,size=0x2c0) addr:0x0215747c
_ZN12ActorUnkFRBS19func_ov078_0215773cEv kind:function(arm,size=0x9d0) addr:0x0215773c
_ZN12ActorUnkFRBS19func_ov078_0215810cEv kind:function(arm,size=0x114) addr:0x0215810c
_ZN12ActorUnkFRBS19func_ov078_02158220Ev kind:function(arm,size=0x18c) addr:0x02158220
_ZN12ActorUnkFRBS19func_ov078_021583acEv kind:function(arm,size=0x50) addr:0x021583ac
_ZN12ActorUnkFRBS19func_ov078_021583fcEv kind:function(arm,size=0x490) addr:0x021583fc
_ZN12ActorUnkFRBS19func_ov078_0215888cEv kind:function(arm,size=0xb4) addr:0x0215888c
_ZN12ActorUnkFRBS19func_ov078_02158940Ev kind:function(arm,size=0x23c) addr:0x02158940
_ZN12ActorUnkFRBS19func_ov078_02158b7cEv kind:function(arm,size=0xa8) addr:0x02158b7c
_ZN12ActorUnkFRBS19func_ov078_02158c24Ev kind:function(arm,size=0x64) addr:0x02158c24
_ZN12ActorUnkFRBS19func_ov078_02158c88Ev kind:function(arm,size=0xcc) addr:0x02158c88
_ZN12ActorUnkFRBS19func_ov078_02158d54Ev kind:function(arm,size=0x414) addr:0x02158d54
_ZN12ActorUnkFRBS19func_ov078_02159168Ev kind:function(arm,size=0xd8) addr:0x02159168
_ZN12ActorUnkFRBS19func_ov078_02159240Ev kind:function(arm,size=0xd8) addr:0x02159240
_ZN12ActorUnkFRBS19func_ov078_02159318Ev kind:function(arm,size=0x290) addr:0x02159318
_ZN12ActorUnkFRBS19func_ov078_021595a8Ev kind:function(arm,size=0x68c) addr:0x021595a8
_ZN12ActorUnkFRBS19func_ov078_02159c34Ev kind:function(arm,size=0x184) addr:0x02159c34
_ZN12ActorUnkFRBS19func_ov078_02159db8Ev kind:function(arm,size=0x45c) addr:0x02159db8
_ZN12ActorUnkFRBS19func_ov078_0215a214Ev kind:function(arm,size=0x108) addr:0x0215a214
_ZN12ActorUnkFRBS19func_ov078_0215a31cEv kind:function(arm,size=0x518) addr:0x0215a31c
_ZN12ActorUnkFRBS19func_ov078_0215a834Ev kind:function(arm,size=0x68) addr:0x0215a834
_ZN12ActorUnkFRBS19func_ov078_0215a89cEv kind:function(arm,size=0x30) addr:0x0215a89c
_ZN12ActorUnkFRBS19func_ov078_0215a8ccEv kind:function(arm,size=0x34) addr:0x0215a8cc
_ZN12ActorUnkFRBS19func_ov078_0215a900Ev kind:function(arm,size=0x6c) addr:0x0215a900
_ZN12ActorUnkFRBS19func_ov078_0215a96cEv kind:function(arm,size=0xb0) addr:0x0215a96c
_ZN12ActorUnkFRBS19func_ov078_0215aa1cEv kind:function(arm,size=0xb8) addr:0x0215aa1c
_ZN12ActorUnkFRBS19func_ov078_0215aad4Ev kind:function(arm,size=0x310) addr:0x0215aad4
_ZN12ActorUnkFRBS19func_ov078_0215ade4Ev kind:function(arm,size=0x48) addr:0x0215ade4
_ZN12ActorUnkFRBS19func_ov078_0215ae2cEv kind:function(arm,size=0x210) addr:0x0215ae2c
_ZN12ActorUnkFRBS19func_ov078_0215b03cEv kind:function(arm,size=0x288) addr:0x0215b03c
_ZN12ActorUnkFRBS19func_ov078_0215b2c4Ev kind:function(arm,size=0x500) addr:0x0215b2c4
_ZN12ActorUnkFRBS19func_ov078_0215b7c4Ev kind:function(arm,size=0x174) addr:0x0215b7c4
_ZN12ActorUnkFRBS19func_ov078_0215b938Ev kind:function(arm,size=0x128) addr:0x0215b938
_ZN12ActorUnkFRBS19func_ov078_0215ba60Ev kind:function(arm,size=0x2b8) addr:0x0215ba60
_ZN12ActorUnkFRBS19func_ov078_0215bd18Ev kind:function(arm,size=0xdc) addr:0x0215bd18
_ZN12ActorUnkFRBS19func_ov078_0215bdf4Ev kind:function(arm,size=0x1f0) addr:0x0215bdf4
_ZN12ActorUnkFRBS19func_ov078_0215bfe4Ev kind:function(arm,size=0xdc) addr:0x0215bfe4
_ZN12ActorUnkFRBS19func_ov078_0215c0c0Ev kind:function(arm,size=0x90) addr:0x0215c0c0
_ZN12ActorUnkFRBS19func_ov078_0215c150Ev kind:function(arm,size=0xc0) addr:0x0215c150
_ZN12ActorUnkFRBS19func_ov078_0215c210Ev kind:function(arm,size=0xa0) addr:0x0215c210
_ZN12ActorUnkFRBS19func_ov078_0215c2b0Ev kind:function(arm,size=0x14) addr:0x0215c2b0
_ZN12ActorUnkFRBS19func_ov078_0215c2c4Ev kind:function(arm,size=0x34) addr:0x0215c2c4
_ZN12ActorUnkFRBS19func_ov078_0215c2f8Ev kind:function(arm,size=0x84) addr:0x0215c2f8
_ZN12ActorUnkFRBS19func_ov078_0215c37cEv kind:function(arm,size=0x28) addr:0x0215c37c
_ZN12ActorUnkFRBS19func_ov078_0215c3a4Ev kind:function(arm,size=0x30) addr:0x0215c3a4
_ZN12ActorUnkFRBS19func_ov078_0215c3d4Ev kind:function(arm,size=0x30) addr:0x0215c3d4
_ZN12ActorUnkFRBS19func_ov078_0215c404Ev kind:function(arm,size=0x58) addr:0x0215c404
_ZN12ActorUnkFRBS19func_ov078_0215c45cEv kind:function(arm,size=0x58) addr:0x0215c45c
_ZN12ActorUnkFRBS19func_ov078_0215c4b4Ev kind:function(arm,size=0x64) addr:0x0215c4b4
_ZN12ActorUnkFRBS19func_ov078_0215c518Ev kind:function(arm,size=0x88) addr:0x0215c518
_ZN12ActorUnkFRBS19func_ov078_0215c5a0Ev kind:function(arm,size=0x80) addr:0x0215c5a0
_ZN12ActorUnkFRBS19func_ov078_0215c620Ev kind:function(arm,size=0x38) addr:0x0215c620
_ZN12ActorUnkFRBS19func_ov078_0215c658Ev kind:function(arm,size=0x48) addr:0x0215c658
_ZN12ActorUnkFRBS19func_ov078_0215c6a0Ev kind:function(arm,size=0x144) addr:0x0215c6a0
_ZN12ActorUnkFRBS19func_ov078_0215c7e4Ev kind:function(arm,size=0x284) addr:0x0215c7e4
_ZN12ActorUnkFRBS19func_ov078_0215ca68Ev kind:function(arm,size=0x54) addr:0x0215ca68
_ZN12ActorUnkFRBS19func_ov078_0215cabcEv kind:function(arm,size=0x24) addr:0x0215cabc
_ZN12ActorUnkFRBS19func_ov078_0215cae0Ev kind:function(arm,size=0x2c) addr:0x0215cae0
_ZN12ActorUnkFRBS19func_ov078_0215cb0cEv kind:function(arm,size=0x1c) addr:0x0215cb0c
_ZN12ActorUnkFRBS19func_ov078_0215cb28Ev kind:function(arm,size=0xb8) addr:0x0215cb28
_ZN12ActorUnkFRBS19func_ov078_0215cbe0Ev kind:function(arm,size=0xc0) addr:0x0215cbe0
_ZN19ActorProfileUnkFRBSD1Ev kind:function(arm,size=0x14) addr:0x0215cca0
_ZN19ActorProfileUnkRBFR10GetProfileEv kind:function(arm,size=0xc) addr:0x0215ccb4
_ZN19ActorProfileUnkRBFR6CreateEv kind:function(arm,size=0x24) addr:0x0215ccc0
_ZN19ActorProfileUnkRBFRC1Ev kind:function(arm,size=0x28) addr:0x0215cce4
_ZN12ActorUnkRBFRC1Ev kind:function(arm,size=0x118) addr:0x0215cd0c
_ZN12ActorUnkRBFR19func_ov078_0215ce24Ev kind:function(arm,size=0x14) addr:0x0215ce24
_ZN12ActorUnkRBFR19func_ov078_0215ce38Ev kind:function(arm,size=0x98) addr:0x0215ce38
_ZN12ActorUnkRBFR19func_ov078_0215ced0Ev kind:function(arm,size=0x18) addr:0x0215ced0
_ZN12ActorUnkRBFR19func_ov078_0215cee8Ev kind:function(arm,size=0x14) addr:0x0215cee8
_ZN12ActorUnkRBFR19func_ov078_0215cefcEv kind:function(arm,size=0x34) addr:0x0215cefc
_ZN12ActorUnkRBFRD0Ev kind:function(arm,size=0x1c) addr:0x0215cf30
_ZN12ActorUnkRBFRD1Ev kind:function(arm,size=0x30) addr:0x0215cf4c
_ZN12ActorUnkRBFR19func_ov078_0215cf7cEv kind:function(arm,size=0x38) addr:0x0215cf7c
_ZN19ActorProfileUnkRBFRD1Ev kind:function(arm,size=0x14) addr:0x0215cfb4
_ZN23MapObjectProfileUnkSTSF10GetProfileEv kind:function(arm,size=0xc) addr:0x0215cfc8
_ZN23MapObjectProfileUnkSTSF6CreateEv kind:function(arm,size=0x24) addr:0x0215cfd4
_ZN23MapObjectProfileUnkSTSFC1Ev kind:function(arm,size=0x4c) addr:0x0215cff8
_ZN16MapObjectUnkSTSFC1Ev kind:function(arm,size=0x5c) addr:0x0215d044
_ZN16MapObjectUnkSTSF19func_ov078_0215d0a0Ev kind:function(arm,size=0x54) addr:0x0215d0a0
_ZN16MapObjectUnkSTSF19func_ov078_0215d0f4Ev kind:function(arm,size=0x60) addr:0x0215d0f4
_ZN16MapObjectUnkSTSFD1Ev kind:function(arm,size=0x28) addr:0x0215d154
_ZN16MapObjectUnkSTSFD0Ev kind:function(arm,size=0x30) addr:0x0215d17c
_ZN23MapObjectProfileUnkSTSFD1Ev kind:function(arm,size=0x14) addr:0x0215d1ac
_ZN19func_ov078_0215d1c0D0Ev kind:function(arm,size=0x1c) addr:0x0215d1c0
func_ov078_0215d1dc kind:function(arm,size=0x10) addr:0x0215d1dc
func_ov078_0215d1ec kind:function(arm,size=0x198) addr:0x0215d1ec
func_ov078_0215d384 kind:function(arm,size=0x24) addr:0x0215d384
data_ov078_0215d3aa kind:data(any) addr:0x0215d3aa
data_ov078_0215d3ac kind:data(any) addr:0x0215d3ac
data_ov078_0215d3b4 kind:data(any) addr:0x0215d3b4
data_ov078_0215d3bc kind:data(any) addr:0x0215d3bc
data_ov078_0215d3c0 kind:data(any) addr:0x0215d3c0
data_ov078_0215d3c4 kind:data(any) addr:0x0215d3c4
data_ov078_0215d3c8 kind:data(any) addr:0x0215d3c8
data_ov078_0215d3cc kind:data(any) addr:0x0215d3cc
data_ov078_0215d3ec kind:data(any) addr:0x0215d3ec
data_ov078_0215d3fc kind:data(any) addr:0x0215d3fc
__sinit_ActorUnkFRBS.cpp kind:function(arm,size=0xa4) addr:0x0215d40c
__sinit_ActorUnkRBFR.cpp kind:function(arm,size=0x50) addr:0x0215d4b0
__sinit_MapObjectUnkSTSF.cpp kind:function(arm,size=0x50) addr:0x0215d500
.p__sinit_ActorUnkFRBS.cpp kind:data(word) addr:0x0215d550
.p__sinit_ActorUnkRBFR.cpp kind:data(word) addr:0x0215d554
.p__sinit_MapObjectUnkSTSF.cpp kind:data(word) addr:0x0215d558
data_ov078_0215d560 kind:data(any) addr:0x0215d560
data_ov078_0215d564 kind:data(any) addr:0x0215d564
data_ov078_0215d568 kind:data(any) addr:0x0215d568
data_ov078_0215d56c kind:data(any) addr:0x0215d56c
data_ov078_0215d570 kind:data(any) addr:0x0215d570
data_ov078_0215d574 kind:data(any) addr:0x0215d574
data_ov078_0215d578 kind:data(any) addr:0x0215d578
data_ov078_0215d57c kind:data(any) addr:0x0215d57c
data_ov078_0215d580 kind:data(any) addr:0x0215d580
data_ov078_0215d584 kind:data(any) addr:0x0215d584
data_ov078_0215d588 kind:data(any) addr:0x0215d588
data_ov078_0215d58c kind:data(any) addr:0x0215d58c
data_ov078_0215d590 kind:data(any) addr:0x0215d590
data_ov078_0215d594 kind:data(any) addr:0x0215d594
data_ov078_0215d598 kind:data(any) addr:0x0215d598
data_ov078_0215d59c kind:data(any) addr:0x0215d59c
data_ov078_0215d5a0 kind:data(any) addr:0x0215d5a0
data_ov078_0215d5a4 kind:data(any) addr:0x0215d5a4
data_ov078_0215d5a8 kind:data(any) addr:0x0215d5a8
data_ov078_0215d5ac kind:data(any) addr:0x0215d5ac
data_ov078_0215d5b0 kind:data(any) addr:0x0215d5b0
data_ov078_0215d5c8 kind:data(any) addr:0x0215d5c8
data_ov078_0215d5e0 kind:data(any) addr:0x0215d5e0
data_ov078_0215d614 kind:data(any) addr:0x0215d614
data_ov078_0215d620 kind:data(any) addr:0x0215d620
_ZTV19data_ov078_0215d630 kind:data(any) addr:0x0215d630
data_ov078_0215d65c kind:data(any) addr:0x0215d65c
_ZTV19data_ov078_0215d6a0 kind:data(any) addr:0x0215d6a0
data_ov078_0215d700 kind:data(any) addr:0x0215d700
data_ov078_0215d750 kind:data(any) addr:0x0215d750 ambiguous
data_ov078_0215d76c kind:data(any) addr:0x0215d76c ambiguous
data_ov078_0215d7b0 kind:data(any) addr:0x0215d7b0
data_ov078_0215d860 kind:data(any) addr:0x0215d860
data_ov078_0215d878 kind:data(any) addr:0x0215d878
data_ov078_0215d888 kind:data(any) addr:0x0215d888 ambiguous
data_ov078_0215d890 kind:data(any) addr:0x0215d890
data_ov078_0215d8a8 kind:data(any) addr:0x0215d8a8
data_ov078_0215d8c0 kind:data(any) addr:0x0215d8c0
data_ov078_0215d8d8 kind:data(any) addr:0x0215d8d8
data_ov078_0215d8f0 kind:data(any) addr:0x0215d8f0
data_ov078_0215d908 kind:data(any) addr:0x0215d908
data_ov078_0215d920 kind:data(any) addr:0x0215d920
data_ov078_0215d938 kind:data(any) addr:0x0215d938
data_ov078_0215d950 kind:data(any) addr:0x0215d950
data_ov078_0215d968 kind:data(any) addr:0x0215d968
data_ov078_0215d980 kind:data(any) addr:0x0215d980
data_ov078_0215d998 kind:data(any) addr:0x0215d998
data_ov078_0215d9b0 kind:data(any) addr:0x0215d9b0
data_ov078_0215d9c8 kind:data(any) addr:0x0215d9c8
data_ov078_0215d9dc kind:data(any) addr:0x0215d9dc ambiguous
data_ov078_0215d9e0 kind:data(any) addr:0x0215d9e0
data_ov078_0215d9f8 kind:data(any) addr:0x0215d9f8
data_ov078_0215da10 kind:data(any) addr:0x0215da10
data_ov078_0215da58 kind:data(any) addr:0x0215da58
data_ov078_0215da70 kind:data(any) addr:0x0215da70
data_ov078_0215da78 kind:data(any) addr:0x0215da78 ambiguous
data_ov078_0215da88 kind:data(any) addr:0x0215da88
data_ov078_0215daa0 kind:data(any) addr:0x0215daa0
data_ov078_0215dab8 kind:data(any) addr:0x0215dab8
data_ov078_0215dad0 kind:data(any) addr:0x0215dad0
data_ov078_0215dae8 kind:data(any) addr:0x0215dae8
_ZTV19data_ov078_0215db00 kind:data(any) addr:0x0215db00
data_ov078_0215db2c kind:data(any) addr:0x0215db2c
_ZTV19data_ov078_0215db70 kind:data(any) addr:0x0215db70
data_ov078_0215dbd4 kind:data(any) addr:0x0215dbd4
data_ov078_0215dbfc kind:data(any) addr:0x0215dbfc
data_ov078_0215dc6c kind:data(any) addr:0x0215dc6c
data_ov078_0215dc80 kind:bss addr:0x0215dc80
data_ov078_0215dc90 kind:bss addr:0x0215dc90
data_ov078_0215dc9c kind:bss addr:0x0215dc9c
data_ov078_0215dca4 kind:bss addr:0x0215dca4 ambiguous
data_ov078_0215dca8 kind:bss addr:0x0215dca8
data_ov078_0215dcb4 kind:bss addr:0x0215dcb4
sActorProfileUnkFRBS kind:bss addr:0x0215dce4
data_ov078_0215ddbc kind:bss addr:0x0215ddbc
data_ov078_0215ddc0 kind:bss addr:0x0215ddc0
sActorProfileUnkRBFR kind:bss addr:0x0215ddcc
data_ov078_0215dea4 kind:bss addr:0x0215dea4
data_ov078_0215dea8 kind:bss addr:0x0215dea8
sMapObjectProfileUnkSTSF kind:bss addr:0x0215deb4
