func_ov098_02182bc0 kind:function(arm,size=0x30) addr:0x02182bc0
func_ov098_02182bf0 kind:function(arm,size=0x68) addr:0x02182bf0
_ZN19ActorProfileUnkEFWV10GetProfileEv kind:function(arm,size=0xc) addr:0x02182c58
_ZN19ActorProfileUnkEFWV6CreateEv kind:function(arm,size=0x24) addr:0x02182c64
_ZN19ActorProfileUnkEFWVC1Ev kind:function(arm,size=0x74) addr:0x02182c88
_ZN12ActorUnkEFWV19func_ov098_0218117cEv kind:function(arm,size=0x9c) addr:0x02182cfc
_ZN12ActorUnkEFWV19func_ov098_02181218Ev kind:function(arm,size=0x14) addr:0x02182d98
_ZN12ActorUnkEFWV19func_ov098_0218122cEv kind:function(arm,size=0x14) addr:0x02182dac
_ZN12ActorUnkEFWVC1Ev kind:function(arm,size=0x9c) addr:0x02182dc0
_ZN12ActorUnkEFWV19func_ov098_021812dcEv kind:function(arm,size=0x9c) addr:0x02182e5c
_ZN12ActorUnkEFWV19func_ov098_02181378Ev kind:function(arm,size=0x50) addr:0x02182ef8
_ZN12ActorUnkEFWV19func_ov098_021813c8Ev kind:function(arm,size=0x14) addr:0x02182f48
_ZN12ActorUnkEFWV19func_ov098_021813dcEv kind:function(arm,size=0x34) addr:0x02182f5c
_ZN12ActorUnkEFWV19func_ov098_02181410Ev kind:function(arm,size=0x1c) addr:0x02182f90
_ZN12ActorUnkEFWV19func_ov098_0218142cEv kind:function(arm,size=0x16c) addr:0x02182fac
_ZN12ActorUnkEFWVD0Ev kind:function(arm,size=0x38) addr:0x02183118
_ZN12ActorUnkEFWVD2Ev kind:function(arm,size=0x30) addr:0x02183150
_ZN12ActorUnkEFWV19func_ov098_02181600Ev kind:function(arm,size=0x24) addr:0x02183180
_ZN12ActorUnkEFWV19func_ov098_02181624Ev kind:function(arm,size=0x10) addr:0x021831a4
_ZN12ActorUnkEFWV19func_ov098_02181634Ev kind:function(arm,size=0x8) addr:0x021831b4
_ZN12ActorUnkEFWV19func_ov098_0218163cEv kind:function(arm,size=0x1c) addr:0x021831bc
_ZN12ActorUnkEFWV19func_ov098_02181658Ev kind:function(arm,size=0x1c) addr:0x021831d8
_ZN19ActorProfileUnkEFWVD1Ev kind:function(arm,size=0x14) addr:0x021831f4
_ZN19ActorProfileUnkEFWI10GetProfileEv kind:function(arm,size=0xc) addr:0x02183208
_ZN19ActorProfileUnkEFWI6CreateEv kind:function(arm,size=0x24) addr:0x02183214
_ZN19ActorProfileUnkEFWIC1Ev kind:function(arm,size=0x60) addr:0x02183238
_ZN12ActorUnkEFWIC1Ev kind:function(arm,size=0x20) addr:0x02183298
_ZN12ActorUnkEFWI19func_ov098_02181738Ev kind:function(arm,size=0x9c) addr:0x021832b8
_ZN12ActorUnkEFWI19func_ov098_021817d4Ev kind:function(arm,size=0x1c) addr:0x02183354
_ZN12ActorUnkEFWID1Ev kind:function(arm,size=0x30) addr:0x02183370
_ZN12ActorUnkEFWID0Ev kind:function(arm,size=0x38) addr:0x021833a0
_ZN19ActorProfileUnkEFWID1Ev kind:function(arm,size=0x14) addr:0x021833d8
_ZN19ActorProfileUnkEFRP10GetProfileEv kind:function(arm,size=0xc) addr:0x021833ec
_ZN19ActorProfileUnkEFRP6CreateEv kind:function(arm,size=0x24) addr:0x021833f8
_ZN19ActorProfileUnkEFRPC1Ev kind:function(arm,size=0x74) addr:0x0218341c
_ZN12ActorUnkEFRP19func_ov098_02181910Ev kind:function(arm,size=0x90) addr:0x02183490
_ZN12ActorUnkEFRPC1Ev kind:function(arm,size=0x90) addr:0x02183520
_ZN12ActorUnkEFRP19func_ov098_02181a30Ev kind:function(arm,size=0x9c) addr:0x021835b0
_ZN12ActorUnkEFRP19func_ov098_02181accEv kind:function(arm,size=0x50) addr:0x0218364c
_ZN12ActorUnkEFRP19func_ov098_02181b1cEv kind:function(arm,size=0x14) addr:0x0218369c
_ZN12ActorUnkEFRP19func_ov098_02181b30Ev kind:function(arm,size=0x58) addr:0x021836b0
_ZN12ActorUnkEFRP19func_ov098_02181b88Ev kind:function(arm,size=0x1c) addr:0x02183708
_ZN12ActorUnkEFRP19func_ov098_02181ba4Ev kind:function(arm,size=0x16c) addr:0x02183724
_ZN12ActorUnkEFRPD0Ev kind:function(arm,size=0x38) addr:0x02183890
_ZN12ActorUnkEFRPD2Ev kind:function(arm,size=0x30) addr:0x021838c8
_ZN19ActorProfileUnkEFRPD1Ev kind:function(arm,size=0x14) addr:0x021838f8
_ZN19ActorProfileUnkEFRI10GetProfileEv kind:function(arm,size=0xc) addr:0x0218390c
_ZN19ActorProfileUnkEFRI6CreateEv kind:function(arm,size=0x24) addr:0x02183918
_ZN19ActorProfileUnkEFRIC1Ev kind:function(arm,size=0x60) addr:0x0218393c
_ZN12ActorUnkEFRIC1Ev kind:function(arm,size=0x20) addr:0x0218399c
_ZN12ActorUnkEFRI19func_ov098_02181e3cEv kind:function(arm,size=0x9c) addr:0x021839bc
_ZN12ActorUnkEFRI19func_ov098_02181ed8Ev kind:function(arm,size=0x1c) addr:0x02183a58
_ZN12ActorUnkEFRID1Ev kind:function(arm,size=0x30) addr:0x02183a74
_ZN12ActorUnkEFRID0Ev kind:function(arm,size=0x38) addr:0x02183aa4
_ZN19ActorProfileUnkEFRID1Ev kind:function(arm,size=0x14) addr:0x02183adc
_ZN19ActorProfileUnkSEAT10GetProfileEv kind:function(arm,size=0xc) addr:0x02183af0
_ZN19ActorProfileUnkSEAT6CreateEv kind:function(arm,size=0x24) addr:0x02183afc
_ZN19ActorProfileUnkSEATC1Ev kind:function(arm,size=0x28) addr:0x02183b20
_ZN12ActorUnkSEATC1Ev kind:function(arm,size=0x128) addr:0x02183b48
_ZN12ActorUnkSEAT19func_ov098_021820f0Ev kind:function(arm,size=0x20) addr:0x02183c70
_ZN12ActorUnkSEAT19func_ov098_02182110Ev kind:function(arm,size=0x1c) addr:0x02183c90
_ZN12ActorUnkSEAT19func_ov098_0218212cEv kind:function(arm,size=0x14) addr:0x02183cac
_ZN12ActorUnkSEAT19func_ov098_02182140Ev kind:function(arm,size=0x20) addr:0x02183cc0
_ZN12ActorUnkSEATD1Ev kind:function(arm,size=0x20) addr:0x02183ce0
_ZN12ActorUnkSEATD0Ev kind:function(arm,size=0x28) addr:0x02183d00
_ZN19ActorProfileUnkSEATD1Ev kind:function(arm,size=0x14) addr:0x02183d28
data_ov098_02183d3c kind:data(any) addr:0x02183d3c
__sinit_ActorUnkEFWV.cpp kind:function(arm,size=0x50) addr:0x02183d50
__sinit_ActorUnkEFWI.cpp kind:function(arm,size=0x50) addr:0x02183da0
__sinit_ActorUnkEFRP.cpp kind:function(arm,size=0x50) addr:0x02183df0
__sinit_ActorUnkEFRI.cpp kind:function(arm,size=0x50) addr:0x02183e40
__sinit_ActorUnkSEAT.cpp kind:function(arm,size=0x50) addr:0x02183e90
.p__sinit_ActorUnkEFWV.cpp kind:data(word) addr:0x02183ee0
.p__sinit_ActorUnkEFWI.cpp kind:data(word) addr:0x02183ee4
.p__sinit_ActorUnkEFRP.cpp kind:data(word) addr:0x02183ee8
.p__sinit_ActorUnkEFRI.cpp kind:data(word) addr:0x02183eec
.p__sinit_ActorUnkSEAT.cpp kind:data(word) addr:0x02183ef0
data_ov098_02183f08 kind:data(any) addr:0x02183f08
_ZTV19data_ov098_02183f0c kind:data(any) addr:0x02183f0c
data_ov098_02183f30 kind:data(any) addr:0x02183f30
data_ov098_02183f48 kind:data(any) addr:0x02183f48
data_ov098_02183f68 kind:data(any) addr:0x02183f68
data_ov098_02183fb0 kind:data(any) addr:0x02183fb0
_ZTV19data_ov098_02183ff0 kind:data(any) addr:0x02183ff0
_ZTV19data_ov098_02184050 kind:data(any) addr:0x02184050
data_ov098_02184074 kind:data(any) addr:0x02184074
data_ov098_0218408c kind:data(any) addr:0x0218408c
_ZTV19data_ov098_021840a4 kind:data(any) addr:0x021840a4
_ZTV19data_ov098_02184104 kind:data(any) addr:0x02184104
data_ov098_02184128 kind:data(any) addr:0x02184128
data_ov098_02184140 kind:data(any) addr:0x02184140
_ZTV19data_ov098_02184158 kind:data(any) addr:0x02184158
_ZTV19data_ov098_021841b8 kind:data(any) addr:0x021841b8
data_ov098_021841dc kind:data(any) addr:0x021841dc
data_ov098_021841f4 kind:data(any) addr:0x021841f4
_ZTV19data_ov098_0218420c kind:data(any) addr:0x0218420c
_ZTV19data_ov098_0218426c kind:data(any) addr:0x0218426c
_ZTV19data_ov098_02184290 kind:data(any) addr:0x02184290
data_ov098_02184300 kind:bss addr:0x02184300
data_ov098_02184304 kind:bss addr:0x02184304
sActorProfileUnkEFWV kind:bss addr:0x02184310
data_ov098_021843e8 kind:bss addr:0x021843e8
data_ov098_021843ec kind:bss addr:0x021843ec
sActorProfileUnkEFWI kind:bss addr:0x021843f8
data_ov098_021844d0 kind:bss addr:0x021844d0
data_ov098_021844d4 kind:bss addr:0x021844d4
sActorProfileUnkEFRP kind:bss addr:0x021844e0
data_ov098_021845b8 kind:bss addr:0x021845b8
data_ov098_021845bc kind:bss addr:0x021845bc
sActorProfileUnkEFRI kind:bss addr:0x021845c8
data_ov098_021846a0 kind:bss addr:0x021846a0
data_ov098_021846a4 kind:bss addr:0x021846a4
sActorProfileUnkSEAT kind:bss addr:0x021846b0
data_ov098_021846ec kind:bss addr:0x021846ec
