_ZN19ActorProfileUnkIWTS10GetProfileEv kind:function(arm,size=0xc) addr:0x02152c20
_ZN19ActorProfileUnkIWTS6CreateEv kind:function(arm,size=0x28) addr:0x02152c2c
_ZN19ActorProfileUnkIWTSC1Ev kind:function(arm,size=0x5c) addr:0x02152c54
_ZN12ActorUnkIWTS19func_ov084_02152cb0Ev kind:function(arm,size=0x6c) addr:0x02152cb0
_ZN12ActorUnkIWTS19func_ov084_02152d1cEv kind:function(arm,size=0x50) addr:0x02152d1c
_ZN12ActorUnkIWTS19func_ov084_02152d6cEv kind:function(arm,size=0xe4) addr:0x02152d6c
_ZN12ActorUnkIWTS19func_ov084_02152e50Ev kind:function(arm,size=0x28) addr:0x02152e50
_ZN12ActorUnkIWTS19func_ov084_02152e78Ev kind:function(arm,size=0x18) addr:0x02152e78
_ZN12ActorUnkIWTS19func_ov084_02152e90Ev kind:function(arm,size=0x308) addr:0x02152e90
_ZN12ActorUnkIWTS19func_ov084_02153198Ev kind:function(arm,size=0x18) addr:0x02153198
_ZN12ActorUnkIWTS19func_ov084_021531b0Ev kind:function(arm,size=0xd0) addr:0x021531b0
_ZN12ActorUnkIWTS19func_ov084_02153280Ev kind:function(arm,size=0xb4) addr:0x02153280
_ZN12ActorUnkIWTS19func_ov084_02153334Ev kind:function(arm,size=0x1c) addr:0x02153334
_ZN12ActorUnkIWTS19func_ov084_02153350Ev kind:function(arm,size=0x34) addr:0x02153350
_ZN12ActorUnkIWTS19func_ov084_02153384Ev kind:function(arm,size=0x15c) addr:0x02153384
_ZN12ActorUnkIWTS19func_ov084_021534e0Ev kind:function(arm,size=0x4c) addr:0x021534e0
_ZN12ActorUnkIWTS19func_ov084_0215352cEv kind:function(arm,size=0x2e4) addr:0x0215352c
_ZN12ActorUnkIWTS19func_ov084_02153810Ev kind:function(arm,size=0x60) addr:0x02153810
_ZN12ActorUnkIWTS19func_ov084_02153870Ev kind:function(arm,size=0x548) addr:0x02153870
_ZN12ActorUnkIWTS19func_ov084_02153db8Ev kind:function(arm,size=0x38) addr:0x02153db8
_ZN12ActorUnkIWTS19func_ov084_02153df0Ev kind:function(arm,size=0x38) addr:0x02153df0
_ZN12ActorUnkIWTS19func_ov084_02153e28Ev kind:function(arm,size=0xc) addr:0x02153e28
_ZN12ActorUnkIWTS19func_ov084_02153e34Ev kind:function(arm,size=0x2c) addr:0x02153e34
_ZN12ActorUnkIWTS19func_ov084_02153e60Ev kind:function(arm,size=0x18) addr:0x02153e60
_ZN12ActorUnkIWTS19func_ov084_02153e78Ev kind:function(arm,size=0x1c) addr:0x02153e78
_ZN12ActorUnkIWTS19func_ov084_02153e94Ev kind:function(arm,size=0x288) addr:0x02153e94
_ZN12ActorUnkIWTS19func_ov084_0215411cEv kind:function(arm,size=0xc8) addr:0x0215411c
_ZN12ActorUnkIWTS19func_ov084_021541e4Ev kind:function(arm,size=0x8c) addr:0x021541e4
_ZN12ActorUnkIWTS19func_ov084_02154270Ev kind:function(arm,size=0x14) addr:0x02154270
_ZN12ActorUnkIWTS19func_ov084_02154284Ev kind:function(arm,size=0xc4) addr:0x02154284
_ZN12ActorUnkIWTS19func_ov084_02154348Ev kind:function(arm,size=0x144) addr:0x02154348
_ZN12ActorUnkIWTS19func_ov084_0215448cEv kind:function(arm,size=0x74) addr:0x0215448c
_ZN12ActorUnkIWTS19func_ov084_02154500Ev kind:function(arm,size=0x10c) addr:0x02154500
_ZN12ActorUnkIWTS19func_ov084_0215460cEv kind:function(arm,size=0x144) addr:0x0215460c
_ZN12ActorUnkIWTSC1Ev kind:function(arm,size=0x68c) addr:0x02154750
_ZN12ActorUnkIWTS19func_ov084_02154ddcEv kind:function(arm,size=0x14) addr:0x02154ddc
_ZN12ActorUnkIWTS19func_ov084_02154df0Ev kind:function(arm,size=0x14) addr:0x02154df0
_ZN12ActorUnkIWTS19func_ov084_02154e04Ev kind:function(arm,size=0x24) addr:0x02154e04
_ZN12ActorUnkIWTS19func_ov084_02154e28Ev kind:function(arm,size=0x188) addr:0x02154e28
_ZN12ActorUnkIWTSD0Ev kind:function(arm,size=0x190) addr:0x02154fb0
_ZN12ActorUnkIWTS19func_ov084_02155140Ev kind:function(arm,size=0x4c) addr:0x02155140
_ZN12ActorUnkIWTS19func_ov084_0215518cEv kind:function(arm,size=0x70) addr:0x0215518c
_ZN12ActorUnkIWTS19func_ov084_021551fcEv kind:function(arm,size=0x88) addr:0x021551fc
_ZN12ActorUnkIWTS19func_ov084_02155284Ev kind:function(arm,size=0x38) addr:0x02155284
_ZN12ActorUnkIWTS19func_ov084_021552bcEv kind:function(arm,size=0x50) addr:0x021552bc
_ZN12ActorUnkIWTS19func_ov084_0215530cEv kind:function(arm,size=0x208) addr:0x0215530c
_ZN12ActorUnkIWTS19func_ov084_02155514Ev kind:function(arm,size=0x5c) addr:0x02155514
_ZN12ActorUnkIWTS19func_ov084_02155570Ev kind:function(arm,size=0x38) addr:0x02155570
_ZN12ActorUnkIWTS19func_ov084_021555a8Ev kind:function(arm,size=0x60) addr:0x021555a8
_ZN12ActorUnkIWTS19func_ov084_02155608Ev kind:function(arm,size=0x11c) addr:0x02155608
_ZN12ActorUnkIWTS19func_ov084_02155724Ev kind:function(arm,size=0x134) addr:0x02155724
_ZN12ActorUnkIWTS19func_ov084_02155858Ev kind:function(arm,size=0x154) addr:0x02155858
_ZN12ActorUnkIWTS19func_ov084_021559acEv kind:function(arm,size=0x1d0) addr:0x021559ac
_ZN12ActorUnkIWTS19func_ov084_02155b7cEv kind:function(arm,size=0x22c) addr:0x02155b7c
_ZN12ActorUnkIWTS19func_ov084_02155da8Ev kind:function(arm,size=0x38) addr:0x02155da8
_ZN12ActorUnkIWTS19func_ov084_02155de0Ev kind:function(arm,size=0x338) addr:0x02155de0
_ZN12ActorUnkIWTS19func_ov084_02156118Ev kind:function(arm,size=0x80) addr:0x02156118
_ZN12ActorUnkIWTS19func_ov084_02156198Ev kind:function(arm,size=0x174) addr:0x02156198
_ZN12ActorUnkIWTS19func_ov084_0215630cEv kind:function(arm,size=0x1f8) addr:0x0215630c
_ZN12ActorUnkIWTS19func_ov084_02156504Ev kind:function(arm,size=0x148) addr:0x02156504
_ZN12ActorUnkIWTS19func_ov084_0215664cEv kind:function(arm,size=0xbc) addr:0x0215664c
_ZN12ActorUnkIWTS19func_ov084_02156708Ev kind:function(arm,size=0x13c) addr:0x02156708
_ZN12ActorUnkIWTS19func_ov084_02156844Ev kind:function(arm,size=0x15c) addr:0x02156844
_ZN12ActorUnkIWTS19func_ov084_021569a0Ev kind:function(arm,size=0x1c8) addr:0x021569a0
_ZN12ActorUnkIWTS19func_ov084_02156b68Ev kind:function(arm,size=0x280) addr:0x02156b68
_ZN12ActorUnkIWTS19func_ov084_02156de8Ev kind:function(arm,size=0x14) addr:0x02156de8
_ZN12ActorUnkIWTS19func_ov084_02156dfcEv kind:function(arm,size=0x11c) addr:0x02156dfc
_ZN12ActorUnkIWTS19func_ov084_02156f18Ev kind:function(arm,size=0x4c) addr:0x02156f18
_ZN12ActorUnkIWTS19func_ov084_02156f64Ev kind:function(arm,size=0x274) addr:0x02156f64
_ZN12ActorUnkIWTS19func_ov084_021571d8Ev kind:function(arm,size=0x88) addr:0x021571d8
_ZN12ActorUnkIWTS19func_ov084_02157260Ev kind:function(arm,size=0x2b0) addr:0x02157260
_ZN12ActorUnkIWTS19func_ov084_02157510Ev kind:function(arm,size=0x98) addr:0x02157510
_ZN12ActorUnkIWTS19func_ov084_021575a8Ev kind:function(arm,size=0x50) addr:0x021575a8
_ZN12ActorUnkIWTS19func_ov084_021575f8Ev kind:function(arm,size=0x150) addr:0x021575f8
_ZN12ActorUnkIWTS19func_ov084_02157748Ev kind:function(arm,size=0x24) addr:0x02157748
_ZN12ActorUnkIWTS19func_ov084_0215776cEv kind:function(arm,size=0x6c) addr:0x0215776c
_ZN12ActorUnkIWTS19func_ov084_021577d8Ev kind:function(arm,size=0xec) addr:0x021577d8
_ZN12ActorUnkIWTS19func_ov084_021578c4Ev kind:function(arm,size=0x160) addr:0x021578c4
_ZN12ActorUnkIWTS19func_ov084_02157a24Ev kind:function(arm,size=0x14) addr:0x02157a24
_ZN12ActorUnkIWTS19func_ov084_02157a38Ev kind:function(arm,size=0xa8) addr:0x02157a38
_ZN12ActorUnkIWTS19func_ov084_02157ae0Ev kind:function(arm,size=0x1a8) addr:0x02157ae0
_ZN12ActorUnkIWTS19func_ov084_02157c88Ev kind:function(arm,size=0x40) addr:0x02157c88
_ZN12ActorUnkIWTS19func_ov084_02157cc8Ev kind:function(arm,size=0x20) addr:0x02157cc8
_ZN12ActorUnkIWTS19func_ov084_02157ce8Ev kind:function(arm,size=0xa8) addr:0x02157ce8
_ZN12ActorUnkIWTS19func_ov084_02157d90Ev kind:function(arm,size=0x9d0) addr:0x02157d90
_ZN12ActorUnkIWTS19func_ov084_02158760Ev kind:function(arm,size=0x30) addr:0x02158760
_ZN12ActorUnkIWTS19func_ov084_02158790Ev kind:function(arm,size=0x11c) addr:0x02158790
_ZN12ActorUnkIWTS19func_ov084_021588acEv kind:function(arm,size=0xc4) addr:0x021588ac
_ZN12ActorUnkIWTS19func_ov084_02158970Ev kind:function(arm,size=0xc4) addr:0x02158970
_ZN12ActorUnkIWTS19func_ov084_02158a34Ev kind:function(arm,size=0x1a0) addr:0x02158a34
_ZN12ActorUnkIWTS19func_ov084_02158bd4Ev kind:function(arm,size=0x1c) addr:0x02158bd4
_ZN12ActorUnkIWTS19func_ov084_02158bf0Ev kind:function(arm,size=0x40) addr:0x02158bf0
_ZN12ActorUnkIWTS19func_ov084_02158c30Ev kind:function(arm,size=0x454) addr:0x02158c30
_ZN12ActorUnkIWTS19func_ov084_02159084Ev kind:function(arm,size=0xe8) addr:0x02159084
_ZN12ActorUnkIWTS19func_ov084_0215916cEv kind:function(arm,size=0xac) addr:0x0215916c
_ZN12ActorUnkIWTS19func_ov084_02159218Ev kind:function(arm,size=0x38) addr:0x02159218
_ZN12ActorUnkIWTS19func_ov084_02159250Ev kind:function(arm,size=0x480) addr:0x02159250
_ZN12ActorUnkIWTS19func_ov084_021596d0Ev kind:function(arm,size=0xe0) addr:0x021596d0
_ZN12ActorUnkIWTS19func_ov084_021597b0Ev kind:function(arm,size=0xe8) addr:0x021597b0
_ZN12ActorUnkIWTS19func_ov084_02159898Ev kind:function(arm,size=0xcc) addr:0x02159898
_ZN12ActorUnkIWTS19func_ov084_02159964Ev kind:function(arm,size=0x1dc) addr:0x02159964
_ZN12ActorUnkIWTS19func_ov084_02159b40Ev kind:function(arm,size=0x68) addr:0x02159b40
_ZN12ActorUnkIWTS19func_ov084_02159ba8Ev kind:function(arm,size=0x22c) addr:0x02159ba8
_ZN12ActorUnkIWTS19func_ov084_02159dd4Ev kind:function(arm,size=0x28) addr:0x02159dd4
_ZN12ActorUnkIWTS19func_ov084_02159dfcEv kind:function(arm,size=0xcc) addr:0x02159dfc
_ZN12ActorUnkIWTS19func_ov084_02159ec8Ev kind:function(arm,size=0x3c) addr:0x02159ec8
_ZN12ActorUnkIWTS19func_ov084_02159f04Ev kind:function(arm,size=0x100) addr:0x02159f04
_ZN12ActorUnkIWTS19func_ov084_0215a004Ev kind:function(arm,size=0x640) addr:0x0215a004
_ZN12ActorUnkIWTS19func_ov084_0215a644Ev kind:function(arm,size=0x10) addr:0x0215a644
_ZN12ActorUnkIWTS19func_ov084_0215a654Ev kind:function(arm,size=0xa4) addr:0x0215a654
_ZN12ActorUnkIWTS19func_ov084_0215a6f8Ev kind:function(arm,size=0x8c8) addr:0x0215a6f8
_ZN12ActorUnkIWTS19func_ov084_0215afc0Ev kind:function(arm,size=0xbc) addr:0x0215afc0
_ZN12ActorUnkIWTS19func_ov084_0215b07cEv kind:function(arm,size=0x6bc) addr:0x0215b07c
_ZN12ActorUnkIWTS19func_ov084_0215b738Ev kind:function(arm,size=0x118) addr:0x0215b738
_ZN12ActorUnkIWTS19func_ov084_0215b850Ev kind:function(arm,size=0x80) addr:0x0215b850
_ZN12ActorUnkIWTS19func_ov084_0215b8d0Ev kind:function(arm,size=0x3c) addr:0x0215b8d0
_ZN12ActorUnkIWTS19func_ov084_0215b90cEv kind:function(arm,size=0x240) addr:0x0215b90c
_ZN12ActorUnkIWTS19func_ov084_0215bb4cEv kind:function(arm,size=0x8c) addr:0x0215bb4c
_ZN12ActorUnkIWTS19func_ov084_0215bbd8Ev kind:function(arm,size=0x140) addr:0x0215bbd8
_ZN12ActorUnkIWTS19func_ov084_0215bd18Ev kind:function(arm,size=0x24) addr:0x0215bd18
_ZN12ActorUnkIWTS19func_ov084_0215bd3cEv kind:function(arm,size=0x2c) addr:0x0215bd3c
_ZN12ActorUnkIWTS19func_ov084_0215bd68Ev kind:function(arm,size=0x10) addr:0x0215bd68
_ZN12ActorUnkIWTS19func_ov084_0215bd78Ev kind:function(arm,size=0x14) addr:0x0215bd78
_ZN12ActorUnkIWTS19func_ov084_0215bd8cEv kind:function(arm,size=0x14) addr:0x0215bd8c
_ZN12ActorUnkIWTS19func_ov084_0215bda0Ev kind:function(arm,size=0x1c) addr:0x0215bda0
_ZN12ActorUnkIWTS19func_ov084_0215bdbcEv kind:function(arm,size=0x1c) addr:0x0215bdbc
_ZN19ActorProfileUnkIWTSD1Ev kind:function(arm,size=0x14) addr:0x0215bdd8
_ZN19ActorProfileUnkITSC10GetProfileEv kind:function(arm,size=0xc) addr:0x0215bdec
_ZN19ActorProfileUnkITSC6CreateEv kind:function(arm,size=0x24) addr:0x0215bdf8
_ZN19ActorProfileUnkITSCC1Ev kind:function(arm,size=0x44) addr:0x0215be1c
_ZN12ActorUnkITSCC1Ev kind:function(arm,size=0x6c) addr:0x0215be60
_ZN12ActorUnkITSC19func_ov084_0215beccEv kind:function(arm,size=0x14) addr:0x0215becc
_ZN12ActorUnkITSCD1Ev kind:function(arm,size=0x28) addr:0x0215bee0
_ZN12ActorUnkITSCD0Ev kind:function(arm,size=0x30) addr:0x0215bf08
_ZN12ActorUnkITSC19func_ov084_0215bf38Ev kind:function(arm,size=0x24) addr:0x0215bf38
_ZN12ActorUnkITSC19func_ov084_0215bf5cEv kind:function(arm,size=0x2e8) addr:0x0215bf5c
_ZN12ActorUnkITSC19func_ov084_0215c244Ev kind:function(arm,size=0x3c) addr:0x0215c244
_ZN12ActorUnkITSC19func_ov084_0215c280Ev kind:function(arm,size=0x168) addr:0x0215c280
_ZN12ActorUnkITSC19func_ov084_0215c3e8Ev kind:function(arm,size=0x118) addr:0x0215c3e8
_ZN12ActorUnkITSC19func_ov084_0215c500Ev kind:function(arm,size=0x2c) addr:0x0215c500
_ZN12ActorUnkITSC19func_ov084_0215c52cEv kind:function(arm,size=0x48) addr:0x0215c52c
_ZN12ActorUnkITSC19func_ov084_0215c574Ev kind:function(arm,size=0x1c) addr:0x0215c574
_ZN19ActorProfileUnkITSCD1Ev kind:function(arm,size=0x14) addr:0x0215c590
_ZN19ActorProfileUnkFIRB10GetProfileEv kind:function(arm,size=0xc) addr:0x0215c5a4
_ZN19ActorProfileUnkFIRB6CreateEv kind:function(arm,size=0x24) addr:0x0215c5b0
_ZN19ActorProfileUnkFIRBC1Ev kind:function(arm,size=0x28) addr:0x0215c5d4
_ZN12ActorUnkFIRBC1Ev kind:function(arm,size=0x164) addr:0x0215c5fc
_ZN12ActorUnkFIRB19func_ov084_0215c760Ev kind:function(arm,size=0x38) addr:0x0215c760
_ZN12ActorUnkFIRB19func_ov084_0215c798Ev kind:function(arm,size=0x24) addr:0x0215c798
_ZN12ActorUnkFIRB19func_ov084_0215c7bcEv kind:function(arm,size=0x1b4) addr:0x0215c7bc
_ZN12ActorUnkFIRB19func_ov084_0215c970Ev kind:function(arm,size=0x34) addr:0x0215c970
_ZN12ActorUnkFIRB19func_ov084_0215c9a4Ev kind:function(arm,size=0xd8) addr:0x0215c9a4
_ZN12ActorUnkFIRB19func_ov084_0215ca7cEv kind:function(arm,size=0x2e8) addr:0x0215ca7c
_ZN12ActorUnkFIRB19func_ov084_0215cd64Ev kind:function(arm,size=0x8) addr:0x0215cd64
_ZN12ActorUnkFIRB19func_ov084_0215cd6cEv kind:function(arm,size=0x30) addr:0x0215cd6c
_ZN12ActorUnkFIRB19func_ov084_0215cd9cEv kind:function(arm,size=0x258) addr:0x0215cd9c
_ZN12ActorUnkFIRBD1Ev kind:function(arm,size=0x68) addr:0x0215cff4
_ZN12ActorUnkFIRBD0Ev kind:function(arm,size=0x70) addr:0x0215d05c
_ZN19ActorProfileUnkFIRBD1Ev kind:function(arm,size=0x14) addr:0x0215d0cc
_ZN19ActorProfileUnkDSVC10GetProfileEv kind:function(arm,size=0xc) addr:0x0215d0e0
_ZN19ActorProfileUnkDSVC6CreateEv kind:function(arm,size=0x24) addr:0x0215d0ec
_ZN19ActorProfileUnkDSVCC1Ev kind:function(arm,size=0x28) addr:0x0215d110
_ZN12ActorUnkDSVCC1Ev kind:function(arm,size=0x20) addr:0x0215d138
_ZN12ActorUnkDSVC19func_ov084_0215d158Ev kind:function(arm,size=0x50) addr:0x0215d158
_ZN12ActorUnkDSVCD1Ev kind:function(arm,size=0x20) addr:0x0215d1a8
_ZN12ActorUnkDSVCD0Ev kind:function(arm,size=0x28) addr:0x0215d1c8
_ZN19ActorProfileUnkDSVCD1Ev kind:function(arm,size=0x14) addr:0x0215d1f0
_ZN19ActorProfileUnkWIDR10GetProfileEv kind:function(arm,size=0xc) addr:0x0215d204
_ZN19ActorProfileUnkWIDR6CreateEv kind:function(arm,size=0x24) addr:0x0215d210
_ZN19ActorProfileUnkWIDRC1Ev kind:function(arm,size=0x6c) addr:0x0215d234
_ZN12ActorUnkWIDR19func_ov084_0215d2a0Ev kind:function(arm,size=0xa8) addr:0x0215d2a0
_ZN12ActorUnkWIDRC1Ev kind:function(arm,size=0x1c8) addr:0x0215d348
_ZN12ActorUnkWIDR19func_ov084_0215d510Ev kind:function(arm,size=0x14) addr:0x0215d510
_ZN12ActorUnkWIDR19func_ov084_0215d524Ev kind:function(arm,size=0x14) addr:0x0215d524
_ZN12ActorUnkWIDR19func_ov084_0215d538Ev kind:function(arm,size=0x14) addr:0x0215d538
_ZN12ActorUnkWIDR19func_ov084_0215d54cEv kind:function(arm,size=0xa4) addr:0x0215d54c
_ZN12ActorUnkWIDR19func_ov084_0215d5f0Ev kind:function(arm,size=0x3c) addr:0x0215d5f0
_ZN12ActorUnkWIDR19func_ov084_0215d62cEv kind:function(arm,size=0x118) addr:0x0215d62c
_ZN12ActorUnkWIDR19func_ov084_0215d744Ev kind:function(arm,size=0x94) addr:0x0215d744
_ZN12ActorUnkWIDR19func_ov084_0215d7d8Ev kind:function(arm,size=0x6c) addr:0x0215d7d8
_ZN12ActorUnkWIDR19func_ov084_0215d844Ev kind:function(arm,size=0x48) addr:0x0215d844
_ZN12ActorUnkWIDR19func_ov084_0215d88cEv kind:function(arm,size=0xb8) addr:0x0215d88c
_ZN12ActorUnkWIDR19func_ov084_0215d944Ev kind:function(arm,size=0x1c) addr:0x0215d944
_ZN12ActorUnkWIDR19func_ov084_0215d960Ev kind:function(arm,size=0x48) addr:0x0215d960
_ZN12ActorUnkWIDR19func_ov084_0215d9a8Ev kind:function(arm,size=0x54) addr:0x0215d9a8
_ZN12ActorUnkWIDR19func_ov084_0215d9fcEv kind:function(arm,size=0x14) addr:0x0215d9fc
_ZN12ActorUnkWIDR19func_ov084_0215da10Ev kind:function(arm,size=0x230) addr:0x0215da10
_ZN12ActorUnkWIDR19func_ov084_0215dc40Ev kind:function(arm,size=0x18) addr:0x0215dc40
_ZN12ActorUnkWIDR19func_ov084_0215dc58Ev kind:function(arm,size=0x60) addr:0x0215dc58
_ZN12ActorUnkWIDR19func_ov084_0215dcb8Ev kind:function(arm,size=0xb0) addr:0x0215dcb8
_ZN12ActorUnkWIDR19func_ov084_0215dd68Ev kind:function(arm,size=0x1c0) addr:0x0215dd68
_ZN12ActorUnkWIDR19func_ov084_0215df28Ev kind:function(arm,size=0xc0) addr:0x0215df28
_ZN12ActorUnkWIDR19func_ov084_0215dfe8Ev kind:function(arm,size=0xe4) addr:0x0215dfe8
_ZN12ActorUnkWIDR19func_ov084_0215e0ccEv kind:function(arm,size=0x18) addr:0x0215e0cc
_ZN12ActorUnkWIDR19func_ov084_0215e0e4Ev kind:function(arm,size=0xb0) addr:0x0215e0e4
_ZN12ActorUnkWIDR19func_ov084_0215e194Ev kind:function(arm,size=0x48) addr:0x0215e194
_ZN12ActorUnkWIDR19func_ov084_0215e1dcEv kind:function(arm,size=0x34) addr:0x0215e1dc
_ZN12ActorUnkWIDR19func_ov084_0215e210Ev kind:function(arm,size=0x48) addr:0x0215e210
_ZN12ActorUnkWIDR19func_ov084_0215e258Ev kind:function(arm,size=0x40) addr:0x0215e258
_ZN12ActorUnkWIDR19func_ov084_0215e298Ev kind:function(arm,size=0x10) addr:0x0215e298
_ZN12ActorUnkWIDR19func_ov084_0215e2a8Ev kind:function(arm,size=0x28) addr:0x0215e2a8
_ZN12ActorUnkWIDR19func_ov084_0215e2d0Ev kind:function(arm,size=0x58) addr:0x0215e2d0
_ZN12ActorUnkWIDR19func_ov084_0215e328Ev kind:function(arm,size=0x34) addr:0x0215e328
_ZN12ActorUnkWIDR19func_ov084_0215e35cEv kind:function(arm,size=0x38) addr:0x0215e35c
_ZN12ActorUnkWIDR19func_ov084_0215e394Ev kind:function(arm,size=0x3c) addr:0x0215e394
_ZN12ActorUnkWIDR19func_ov084_0215e3d0Ev kind:function(arm,size=0x34c) addr:0x0215e3d0
_ZN12ActorUnkWIDR19func_ov084_0215e71cEv kind:function(arm,size=0x24) addr:0x0215e71c
_ZN12ActorUnkWIDR19func_ov084_0215e740Ev kind:function(arm,size=0x10) addr:0x0215e740
_ZN12ActorUnkWIDR19func_ov084_0215e750Ev kind:function(arm,size=0x8) addr:0x0215e750
_ZN12ActorUnkWIDRD0Ev kind:function(arm,size=0x1c) addr:0x0215e758
_ZN12ActorUnkWIDR19func_ov084_0215e774Ev kind:function(arm,size=0x1c) addr:0x0215e774
_ZN12ActorUnkWIDR19func_ov084_0215e790Ev kind:function(arm,size=0x1c) addr:0x0215e790
_ZN12ActorUnkWIDRD1Ev kind:function(arm,size=0x48) addr:0x0215e7ac
_ZN12ActorUnkWIDR19func_ov084_0215e7f4Ev kind:function(arm,size=0x50) addr:0x0215e7f4
_ZN19ActorProfileUnkWIDRD1Ev kind:function(arm,size=0x14) addr:0x0215e844
_ZN19ActorProfileUnkWIDT10GetProfileEv kind:function(arm,size=0xc) addr:0x0215e858
_ZN19ActorProfileUnkWIDT6CreateEv kind:function(arm,size=0x24) addr:0x0215e864
_ZN19ActorProfileUnkWIDTC1Ev kind:function(arm,size=0x48) addr:0x0215e888
_ZN12ActorUnkWIDT19func_ov084_0215e8d0Ev kind:function(arm,size=0xac) addr:0x0215e8d0
_ZN12ActorUnkWIDT19func_ov084_0215e97cEv kind:function(arm,size=0x34) addr:0x0215e97c
_ZN12ActorUnkWIDTC1Ev kind:function(arm,size=0x15c) addr:0x0215e9b0
_ZN12ActorUnkWIDT19func_ov084_0215eb0cEv kind:function(arm,size=0x14) addr:0x0215eb0c
_ZN12ActorUnkWIDT19func_ov084_0215eb20Ev kind:function(arm,size=0x84) addr:0x0215eb20
_ZN12ActorUnkWIDT19func_ov084_0215eba4Ev kind:function(arm,size=0x3c) addr:0x0215eba4
_ZN12ActorUnkWIDT19func_ov084_0215ebe0Ev kind:function(arm,size=0xdc) addr:0x0215ebe0
_ZN12ActorUnkWIDT19func_ov084_0215ecbcEv kind:function(arm,size=0x34) addr:0x0215ecbc
_ZN12ActorUnkWIDT19func_ov084_0215ecf0Ev kind:function(arm,size=0x64) addr:0x0215ecf0
_ZN12ActorUnkWIDT19func_ov084_0215ed54Ev kind:function(arm,size=0x1c) addr:0x0215ed54
_ZN12ActorUnkWIDT19func_ov084_0215ed70Ev kind:function(arm,size=0xc8) addr:0x0215ed70
_ZN12ActorUnkWIDT19func_ov084_0215ee38Ev kind:function(arm,size=0x10) addr:0x0215ee38
_ZN12ActorUnkWIDT19func_ov084_0215ee48Ev kind:function(arm,size=0x70) addr:0x0215ee48
_ZN12ActorUnkWIDT19func_ov084_0215eeb8Ev kind:function(arm,size=0x6c) addr:0x0215eeb8
_ZN12ActorUnkWIDT19func_ov084_0215ef24Ev kind:function(arm,size=0xa8) addr:0x0215ef24
_ZN12ActorUnkWIDT19func_ov084_0215efccEv kind:function(arm,size=0xc0) addr:0x0215efcc
_ZN12ActorUnkWIDT19func_ov084_0215f08cEv kind:function(arm,size=0xe4) addr:0x0215f08c
_ZN12ActorUnkWIDT19func_ov084_0215f170Ev kind:function(arm,size=0x38) addr:0x0215f170
_ZN12ActorUnkWIDT19func_ov084_0215f1a8Ev kind:function(arm,size=0x44) addr:0x0215f1a8
_ZN12ActorUnkWIDTD0Ev kind:function(arm,size=0x1c) addr:0x0215f1ec
_ZN12ActorUnkWIDTD1Ev kind:function(arm,size=0x38) addr:0x0215f208
_ZN12ActorUnkWIDT19func_ov084_0215f240Ev kind:function(arm,size=0x40) addr:0x0215f240
_ZN19ActorProfileUnkWIDTD1Ev kind:function(arm,size=0x14) addr:0x0215f280
_ZN19ActorProfileUnkRBVC10GetProfileEv kind:function(arm,size=0xc) addr:0x0215f294
_ZN19ActorProfileUnkRBVC6CreateEv kind:function(arm,size=0x24) addr:0x0215f2a0
_ZN19ActorProfileUnkRBVCC1Ev kind:function(arm,size=0x28) addr:0x0215f2c4
_ZN12ActorUnkRBVCC1Ev kind:function(arm,size=0x108) addr:0x0215f2ec
_ZN12ActorUnkRBVC19func_ov084_0215f3f4Ev kind:function(arm,size=0x14) addr:0x0215f3f4
_ZN12ActorUnkRBVC19func_ov084_0215f408Ev kind:function(arm,size=0xa8) addr:0x0215f408
_ZN12ActorUnkRBVC19func_ov084_0215f4b0Ev kind:function(arm,size=0x4) addr:0x0215f4b0
_ZN12ActorUnkRBVC19func_ov084_0215f4b4Ev kind:function(arm,size=0x84) addr:0x0215f4b4
_ZN12ActorUnkRBVC19func_ov084_0215f538Ev kind:function(arm,size=0x14) addr:0x0215f538
_ZN12ActorUnkRBVC19func_ov084_0215f54cEv kind:function(arm,size=0x30) addr:0x0215f54c
_ZN12ActorUnkRBVC19func_ov084_0215f57cEv kind:function(arm,size=0x40) addr:0x0215f57c
_ZN12ActorUnkRBVCD0Ev kind:function(arm,size=0x1c) addr:0x0215f5bc
_ZN12ActorUnkRBVCD1Ev kind:function(arm,size=0x38) addr:0x0215f5d8
_ZN12ActorUnkRBVC19func_ov084_0215f610Ev kind:function(arm,size=0x40) addr:0x0215f610
_ZN19ActorProfileUnkRBVCD1Ev kind:function(arm,size=0x14) addr:0x0215f650
_ZN23MapObjectProfileUnkLVCM10GetProfileEv kind:function(arm,size=0xc) addr:0x0215f664
_ZN23MapObjectProfileUnkLVCM6CreateEv kind:function(arm,size=0x24) addr:0x0215f670
_ZN23MapObjectProfileUnkLVCMC1Ev kind:function(arm,size=0xac) addr:0x0215f694
_ZN16MapObjectUnkLVCM19func_ov084_0215f740Ev kind:function(arm,size=0x9c) addr:0x0215f740
_ZN16MapObjectUnkLVCMC1Ev kind:function(arm,size=0x9c) addr:0x0215f7dc
_ZN16MapObjectUnkLVCM19func_ov084_0215f878Ev kind:function(arm,size=0x150) addr:0x0215f878
_ZN16MapObjectUnkLVCM19func_ov084_0215f9c8Ev kind:function(arm,size=0x54) addr:0x0215f9c8
_ZN16MapObjectUnkLVCM19func_ov084_0215fa1cEv kind:function(arm,size=0xa0) addr:0x0215fa1c
_ZN16MapObjectUnkLVCM19func_ov084_0215fabcEv kind:function(arm,size=0xd8) addr:0x0215fabc
_ZN16MapObjectUnkLVCM19func_ov084_0215fb94Ev kind:function(arm,size=0x14) addr:0x0215fb94
_ZN16MapObjectUnkLVCM19func_ov084_0215fba8Ev kind:function(arm,size=0x7c) addr:0x0215fba8
_ZN16MapObjectUnkLVCM19func_ov084_0215fc24Ev kind:function(arm,size=0x20) addr:0x0215fc24
_ZN16MapObjectUnkLVCM19func_ov084_0215fc44Ev kind:function(arm,size=0x50) addr:0x0215fc44
_ZN16MapObjectUnkLVCM19func_ov084_0215fc94Ev kind:function(arm,size=0x24) addr:0x0215fc94
_ZN16MapObjectUnkLVCM19func_ov084_0215fcb8Ev kind:function(arm,size=0x10) addr:0x0215fcb8
_ZN16MapObjectUnkLVCM19func_ov084_0215fcc8Ev kind:function(arm,size=0x50) addr:0x0215fcc8
_ZN16MapObjectUnkLVCMD1Ev kind:function(arm,size=0x20) addr:0x0215fd18
_ZN16MapObjectUnkLVCMD0Ev kind:function(arm,size=0x28) addr:0x0215fd38
_ZN23MapObjectProfileUnkLVCMD1Ev kind:function(arm,size=0x14) addr:0x0215fd60
_ZN23MapObjectProfileUnkMLVC10GetProfileEv kind:function(arm,size=0xc) addr:0x0215fd74
_ZN23MapObjectProfileUnkMLVC6CreateEv kind:function(arm,size=0x24) addr:0x0215fd80
_ZN23MapObjectProfileUnkMLVCC1Ev kind:function(arm,size=0x4c) addr:0x0215fda4
_ZN16MapObjectUnkMLVCC1Ev kind:function(arm,size=0x88) addr:0x0215fdf0
_ZN16MapObjectUnkMLVC19func_ov084_0215fe78Ev kind:function(arm,size=0x1b0) addr:0x0215fe78
_ZN16MapObjectUnkMLVC19func_ov084_02160028Ev kind:function(arm,size=0x54) addr:0x02160028
_ZN16MapObjectUnkMLVC19func_ov084_0216007cEv kind:function(arm,size=0x40) addr:0x0216007c
_ZN16MapObjectUnkMLVC19func_ov084_021600bcEv kind:function(arm,size=0x50) addr:0x021600bc
_ZN16MapObjectUnkMLVCD1Ev kind:function(arm,size=0x20) addr:0x0216010c
_ZN16MapObjectUnkMLVCD0Ev kind:function(arm,size=0x28) addr:0x0216012c
_ZN23MapObjectProfileUnkMLVCD1Ev kind:function(arm,size=0x14) addr:0x02160154
_ZN19ActorProfileUnkLAVA10GetProfileEv kind:function(arm,size=0xc) addr:0x02160168
_ZN19ActorProfileUnkLAVA6CreateEv kind:function(arm,size=0x24) addr:0x02160174
_ZN19ActorProfileUnkLAVAC1Ev kind:function(arm,size=0x30) addr:0x02160198
_ZN12ActorUnkLAVAC1Ev kind:function(arm,size=0x1ac) addr:0x021601c8
_ZN12ActorUnkLAVA19func_ov084_02160374Ev kind:function(arm,size=0x14) addr:0x02160374
_ZN12ActorUnkLAVA19func_ov084_02160388Ev kind:function(arm,size=0x1a8) addr:0x02160388
_ZN12ActorUnkLAVA19func_ov084_02160530Ev kind:function(arm,size=0x164) addr:0x02160530
_ZN12ActorUnkLAVA19func_ov084_02160694Ev kind:function(arm,size=0x14) addr:0x02160694
_ZN12ActorUnkLAVA19func_ov084_021606a8Ev kind:function(arm,size=0xa0) addr:0x021606a8
_ZN12ActorUnkLAVA19func_ov084_02160748Ev kind:function(arm,size=0x84) addr:0x02160748
_ZN12ActorUnkLAVA19func_ov084_021607ccEv kind:function(arm,size=0x7c) addr:0x021607cc
_ZN12ActorUnkLAVA19func_ov084_02160848Ev kind:function(arm,size=0x24) addr:0x02160848
_ZN12ActorUnkLAVA19func_ov084_0216086cEv kind:function(arm,size=0x4) addr:0x0216086c
_ZN12ActorUnkLAVA19func_ov084_02160870Ev kind:function(arm,size=0x188) addr:0x02160870
_ZN12ActorUnkLAVA19func_ov084_021609f8Ev kind:function(arm,size=0x18c) addr:0x021609f8
_ZN12ActorUnkLAVA19func_ov084_02160b84Ev kind:function(arm,size=0x58) addr:0x02160b84
_ZN12ActorUnkLAVA19func_ov084_02160bdcEv kind:function(arm,size=0x1c) addr:0x02160bdc
_ZN12ActorUnkLAVA19func_ov084_02160bf8Ev kind:function(arm,size=0x18) addr:0x02160bf8
_ZN12ActorUnkLAVA19func_ov084_02160c10Ev kind:function(arm,size=0x5c) addr:0x02160c10
_ZN12ActorUnkLAVAD0Ev kind:function(arm,size=0x1c) addr:0x02160c6c
_ZN12ActorUnkLAVAD1Ev kind:function(arm,size=0x58) addr:0x02160c88
_ZN12ActorUnkLAVA19func_ov084_02160ce0Ev kind:function(arm,size=0x60) addr:0x02160ce0
_ZN19ActorProfileUnkLAVAD1Ev kind:function(arm,size=0x14) addr:0x02160d40
_ZN19ActorProfileUnkLVBD10GetProfileEv kind:function(arm,size=0xc) addr:0x02160d54
_ZN19ActorProfileUnkLVBD6CreateEv kind:function(arm,size=0x24) addr:0x02160d60
_ZN19ActorProfileUnkLVBDC1Ev kind:function(arm,size=0xa0) addr:0x02160d84
_ZN12ActorUnkLVBD19func_ov084_02160e24Ev kind:function(arm,size=0x18) addr:0x02160e24
_ZN12ActorUnkLVBDC1Ev kind:function(arm,size=0x180) addr:0x02160e3c
_ZN12ActorUnkLVBD19func_ov084_02160fbcEv kind:function(arm,size=0x14) addr:0x02160fbc
_ZN12ActorUnkLVBD19func_ov084_02160fd0Ev kind:function(arm,size=0x14) addr:0x02160fd0
_ZN12ActorUnkLVBD19func_ov084_02160fe4Ev kind:function(arm,size=0x14) addr:0x02160fe4
_ZN12ActorUnkLVBD19func_ov084_02160ff8Ev kind:function(arm,size=0x120) addr:0x02160ff8
_ZN12ActorUnkLVBD19func_ov084_02161118Ev kind:function(arm,size=0x4) addr:0x02161118
_ZN12ActorUnkLVBD19func_ov084_0216111cEv kind:function(arm,size=0x1a8) addr:0x0216111c
_ZN12ActorUnkLVBD19func_ov084_021612c4Ev kind:function(arm,size=0x40) addr:0x021612c4
_ZN12ActorUnkLVBD19func_ov084_02161304Ev kind:function(arm,size=0x2b4) addr:0x02161304
_ZN12ActorUnkLVBD19func_ov084_021615b8Ev kind:function(arm,size=0x3c) addr:0x021615b8
_ZN12ActorUnkLVBD19func_ov084_021615f4Ev kind:function(arm,size=0x438) addr:0x021615f4
_ZN12ActorUnkLVBD19func_ov084_02161a2cEv kind:function(arm,size=0x124) addr:0x02161a2c
_ZN12ActorUnkLVBD19func_ov084_02161b50Ev kind:function(arm,size=0x58) addr:0x02161b50
_ZN12ActorUnkLVBD19func_ov084_02161ba8Ev kind:function(arm,size=0x124) addr:0x02161ba8
_ZN12ActorUnkLVBD19func_ov084_02161cccEv kind:function(arm,size=0x1d0) addr:0x02161ccc
_ZN12ActorUnkLVBD19func_ov084_02161e9cEv kind:function(arm,size=0x134) addr:0x02161e9c
_ZN12ActorUnkLVBD19func_ov084_02161fd0Ev kind:function(arm,size=0x280) addr:0x02161fd0
_ZN12ActorUnkLVBD19func_ov084_02162250Ev kind:function(arm,size=0x48) addr:0x02162250
_ZN12ActorUnkLVBD19func_ov084_02162298Ev kind:function(arm,size=0x3c) addr:0x02162298
_ZN12ActorUnkLVBD19func_ov084_021622d4Ev kind:function(arm,size=0x70) addr:0x021622d4
_ZN12ActorUnkLVBD19func_ov084_02162344Ev kind:function(arm,size=0x54) addr:0x02162344
_ZN12ActorUnkLVBD19func_ov084_02162398Ev kind:function(arm,size=0x18) addr:0x02162398
_ZN12ActorUnkLVBD19func_ov084_021623b0Ev kind:function(arm,size=0xc) addr:0x021623b0
_ZN12ActorUnkLVBD19func_ov084_021623bcEv kind:function(arm,size=0xc4) addr:0x021623bc
_ZN12ActorUnkLVBD19func_ov084_02162480Ev kind:function(arm,size=0x54) addr:0x02162480
_ZN12ActorUnkLVBD19func_ov084_021624d4Ev kind:function(arm,size=0x3c) addr:0x021624d4
_ZN12ActorUnkLVBD19func_ov084_02162510Ev kind:function(arm,size=0x54) addr:0x02162510
_ZN12ActorUnkLVBDD0Ev kind:function(arm,size=0x1c) addr:0x02162564
_ZN12ActorUnkLVBD19func_ov084_02162580Ev kind:function(arm,size=0x1c) addr:0x02162580
_ZN12ActorUnkLVBD19func_ov084_0216259cEv kind:function(arm,size=0x1c) addr:0x0216259c
_ZN12ActorUnkLVBDD1Ev kind:function(arm,size=0x40) addr:0x021625b8
_ZN12ActorUnkLVBD19func_ov084_021625f8Ev kind:function(arm,size=0x48) addr:0x021625f8
_ZN19ActorProfileUnkLVBDD1Ev kind:function(arm,size=0x14) addr:0x02162640
_ZN23MapObjectProfileUnkTMLV10GetProfileEv kind:function(arm,size=0xc) addr:0x02162654
_ZN23MapObjectProfileUnkTMLV6CreateEv kind:function(arm,size=0x24) addr:0x02162660
_ZN23MapObjectProfileUnkTMLVC1Ev kind:function(arm,size=0x28) addr:0x02162684
_ZN16MapObjectUnkTMLVC1Ev kind:function(arm,size=0x40) addr:0x021626ac
_ZN16MapObjectUnkTMLV19func_ov084_021626ecEv kind:function(arm,size=0x14) addr:0x021626ec
_ZN16MapObjectUnkTMLV19func_ov084_02162700Ev kind:function(arm,size=0x48) addr:0x02162700
_ZN16MapObjectUnkTMLV19func_ov084_02162748Ev kind:function(arm,size=0x14) addr:0x02162748
_ZN16MapObjectUnkTMLV19func_ov084_0216275cEv kind:function(arm,size=0x4c) addr:0x0216275c
_ZN16MapObjectUnkTMLV19func_ov084_021627a8Ev kind:function(arm,size=0x4) addr:0x021627a8
_ZN16MapObjectUnkTMLVD1Ev kind:function(arm,size=0x20) addr:0x021627ac
_ZN16MapObjectUnkTMLVD0Ev kind:function(arm,size=0x28) addr:0x021627cc
_ZN23MapObjectProfileUnkTMLVD1Ev kind:function(arm,size=0x14) addr:0x021627f4
_ZN23MapObjectProfileUnkSTSV10GetProfileEv kind:function(arm,size=0xc) addr:0x02162808
_ZN23MapObjectProfileUnkSTSV6CreateEv kind:function(arm,size=0x24) addr:0x02162814
_ZN23MapObjectProfileUnkSTSVC1Ev kind:function(arm,size=0x4c) addr:0x02162838
_ZN16MapObjectUnkSTSVC1Ev kind:function(arm,size=0x5c) addr:0x02162884
_ZN16MapObjectUnkSTSV19func_ov084_021628e0Ev kind:function(arm,size=0x54) addr:0x021628e0
_ZN16MapObjectUnkSTSV19func_ov084_02162934Ev kind:function(arm,size=0x60) addr:0x02162934
_ZN16MapObjectUnkSTSVD1Ev kind:function(arm,size=0x28) addr:0x02162994
_ZN16MapObjectUnkSTSVD0Ev kind:function(arm,size=0x30) addr:0x021629bc
_ZN23MapObjectProfileUnkSTSVD1Ev kind:function(arm,size=0x14) addr:0x021629ec
_ZN19func_ov084_02162a00D0Ev kind:function(arm,size=0x1c) addr:0x02162a00
func_ov084_02162a1c kind:function(arm,size=0x10) addr:0x02162a1c
_ZN19ActorProfileUnkLBRC10GetProfileEv kind:function(arm,size=0xc) addr:0x02162a2c
_ZN19ActorProfileUnkLBRC6CreateEv kind:function(arm,size=0x24) addr:0x02162a38
_ZN19ActorProfileUnkLBRCC1Ev kind:function(arm,size=0x4c) addr:0x02162a5c
_ZN12ActorUnkLBRCC1Ev kind:function(arm,size=0x21c) addr:0x02162aa8
_ZN12ActorUnkLBRC19func_ov084_02162cc4Ev kind:function(arm,size=0x20c) addr:0x02162cc4
_ZN12ActorUnkLBRC19func_ov084_02162ed0Ev kind:function(arm,size=0x18) addr:0x02162ed0
_ZN12ActorUnkLBRC19func_ov084_02162ee8Ev kind:function(arm,size=0x4) addr:0x02162ee8
_ZN12ActorUnkLBRC19func_ov084_02162eecEv kind:function(arm,size=0x3c) addr:0x02162eec
_ZN12ActorUnkLBRC19func_ov084_02162f28Ev kind:function(arm,size=0xe8) addr:0x02162f28
_ZN12ActorUnkLBRC19func_ov084_02163010Ev kind:function(arm,size=0x170) addr:0x02163010
_ZN12ActorUnkLBRC19func_ov084_02163180Ev kind:function(arm,size=0xac) addr:0x02163180
_ZN12ActorUnkLBRC19func_ov084_0216322cEv kind:function(arm,size=0x40) addr:0x0216322c
_ZN12ActorUnkLBRC19func_ov084_0216326cEv kind:function(arm,size=0x68) addr:0x0216326c
_ZN12ActorUnkLBRC19func_ov084_021632d4Ev kind:function(arm,size=0xc) addr:0x021632d4
_ZN12ActorUnkLBRC19func_ov084_021632e0Ev kind:function(arm,size=0xbc) addr:0x021632e0
_ZN12ActorUnkLBRCD1Ev kind:function(arm,size=0x38) addr:0x0216339c
_ZN12ActorUnkLBRCD0Ev kind:function(arm,size=0x40) addr:0x021633d4
_ZN19ActorProfileUnkLBRCD1Ev kind:function(arm,size=0x14) addr:0x02163414
func_ov084_02163428 kind:function(arm,size=0x80) addr:0x02163428
func_ov084_021634a8 kind:function(arm,size=0x1c) addr:0x021634a8
_ZN23MapObjectProfileUnkPLV210GetProfileEv kind:function(arm,size=0xc) addr:0x021634c4
_ZN23MapObjectProfileUnkPLV26CreateEv kind:function(arm,size=0x24) addr:0x021634d0
_ZN23MapObjectProfileUnkPLV2C1Ev kind:function(arm,size=0xa4) addr:0x021634f4
_ZN16MapObjectUnkPLV2C1Ev kind:function(arm,size=0x80) addr:0x02163598
_ZN16MapObjectUnkPLV219func_ov084_02163618Ev kind:function(arm,size=0x8) addr:0x02163618
_ZN16MapObjectUnkPLV219func_ov084_02163620Ev kind:function(arm,size=0x4) addr:0x02163620
_ZN16MapObjectUnkPLV219func_ov084_02163624Ev kind:function(arm,size=0x20) addr:0x02163624
_ZN16MapObjectUnkPLV2D1Ev kind:function(arm,size=0x20) addr:0x02163644
_ZN16MapObjectUnkPLV2D0Ev kind:function(arm,size=0x28) addr:0x02163664
_ZN23MapObjectProfileUnkPLV2D1Ev kind:function(arm,size=0x14) addr:0x0216368c
func_ov084_021636a0 kind:function(arm,size=0x24) addr:0x021636a0
func_ov084_021636c4 kind:function(arm,size=0x254) addr:0x021636c4
func_ov084_02163918 kind:function(arm,size=0xcc) addr:0x02163918
data_ov084_021639e4 kind:data(any) addr:0x021639e4
data_ov084_021639e8 kind:data(any) addr:0x021639e8
data_ov084_021639ec kind:data(any) addr:0x021639ec
data_ov084_021639f0 kind:data(any) addr:0x021639f0
data_ov084_021639f4 kind:data(any) addr:0x021639f4
data_ov084_02163a00 kind:data(any) addr:0x02163a00
data_ov084_02163a10 kind:data(any) addr:0x02163a10
data_ov084_02163a20 kind:data(any) addr:0x02163a20
data_ov084_02163a30 kind:data(any) addr:0x02163a30
data_ov084_02163a40 kind:data(any) addr:0x02163a40
data_ov084_02163a50 kind:data(any) addr:0x02163a50
data_ov084_02163a60 kind:data(any) addr:0x02163a60
data_ov084_02163a78 kind:data(any) addr:0x02163a78
data_ov084_02163a7a kind:data(any) addr:0x02163a7a
data_ov084_02163a88 kind:data(any) addr:0x02163a88 ambiguous
data_ov084_02163a90 kind:data(any) addr:0x02163a90
data_ov084_02163aa8 kind:data(any) addr:0x02163aa8
data_ov084_02163ac8 kind:data(any) addr:0x02163ac8
data_ov084_02163b68 kind:data(any) addr:0x02163b68
data_ov084_02163b9c kind:data(any) addr:0x02163b9c ambiguous
data_ov084_02163c28 kind:data(any) addr:0x02163c28
data_ov084_02163c40 kind:data(any) addr:0x02163c40
data_ov084_02163c44 kind:data(any) addr:0x02163c44 ambiguous
data_ov084_02163c5c kind:data(any) addr:0x02163c5c ambiguous
data_ov084_02163d2c kind:data(any) addr:0x02163d2c ambiguous
data_ov084_02163d4c kind:data(any) addr:0x02163d4c ambiguous
data_ov084_02163e28 kind:data(any) addr:0x02163e28 ambiguous
data_ov084_02163e98 kind:data(any) addr:0x02163e98 ambiguous
data_ov084_02163f14 kind:data(any) addr:0x02163f14 ambiguous
data_ov084_02164018 kind:data(any) addr:0x02164018
data_ov084_0216401e kind:data(any) addr:0x0216401e
data_ov084_02164050 kind:data(any) addr:0x02164050
data_ov084_02164060 kind:data(any) addr:0x02164060
data_ov084_02164070 kind:data(any) addr:0x02164070
data_ov084_02164074 kind:data(any) addr:0x02164074
data_ov084_02164078 kind:data(any) addr:0x02164078
__sinit_ActorUnkIWTS.cpp kind:function(arm,size=0x6c8) addr:0x0216407c
__sinit_ActorUnkITSC.cpp kind:function(arm,size=0x70) addr:0x02164744
__sinit_ActorUnkFIRB.cpp kind:function(arm,size=0x50) addr:0x021647b4
__sinit_ActorUnkDSVC.cpp kind:function(arm,size=0x50) addr:0x02164804
__sinit_ActorUnkWIDR.cpp kind:function(arm,size=0x50) addr:0x02164854
__sinit_ActorUnkWIDT.cpp kind:function(arm,size=0x50) addr:0x021648a4
__sinit_ActorUnkRBVC.cpp kind:function(arm,size=0x50) addr:0x021648f4
__sinit_MapObjectUnkLVCM.cpp kind:function(arm,size=0x50) addr:0x02164944
__sinit_MapObjectUnkMLVC.cpp kind:function(arm,size=0x50) addr:0x02164994
__sinit_ActorUnkLAVA.cpp kind:function(arm,size=0x60) addr:0x021649e4
__sinit_ActorUnkLVBD.cpp kind:function(arm,size=0x94) addr:0x02164a44
__sinit_MapObjectUnkTMLV.cpp kind:function(arm,size=0x50) addr:0x02164ad8
__sinit_MapObjectUnkSTSV.cpp kind:function(arm,size=0x50) addr:0x02164b28
__sinit_ActorUnkLBRC.cpp kind:function(arm,size=0x88) addr:0x02164b78
__sinit_MapObjectUnkPLV2.cpp kind:function(arm,size=0x50) addr:0x02164c00
.p__sinit_ActorUnkIWTS.cpp kind:data(word) addr:0x02164c50
.p__sinit_ActorUnkITSC.cpp kind:data(word) addr:0x02164c54
.p__sinit_ActorUnkFIRB.cpp kind:data(word) addr:0x02164c58
.p__sinit_ActorUnkDSVC.cpp kind:data(word) addr:0x02164c5c
.p__sinit_ActorUnkWIDR.cpp kind:data(word) addr:0x02164c60
.p__sinit_ActorUnkWIDT.cpp kind:data(word) addr:0x02164c64
.p__sinit_ActorUnkRBVC.cpp kind:data(word) addr:0x02164c68
.p__sinit_MapObjectUnkLVCM.cpp kind:data(word) addr:0x02164c6c
.p__sinit_MapObjectUnkMLVC.cpp kind:data(word) addr:0x02164c70
.p__sinit_ActorUnkLAVA.cpp kind:data(word) addr:0x02164c74
.p__sinit_ActorUnkLVBD.cpp kind:data(word) addr:0x02164c78
.p__sinit_MapObjectUnkTMLV.cpp kind:data(word) addr:0x02164c7c
.p__sinit_MapObjectUnkSTSV.cpp kind:data(word) addr:0x02164c80
.p__sinit_ActorUnkLBRC.cpp kind:data(word) addr:0x02164c84
.p__sinit_MapObjectUnkPLV2.cpp kind:data(word) addr:0x02164c88
data_ov084_02164ca0 kind:data(any) addr:0x02164ca0
data_ov084_02164ca4 kind:data(any) addr:0x02164ca4
data_ov084_02164ca8 kind:data(any) addr:0x02164ca8
data_ov084_02164cac kind:data(any) addr:0x02164cac
data_ov084_02164cb0 kind:data(any) addr:0x02164cb0
data_ov084_02164cb4 kind:data(any) addr:0x02164cb4
data_ov084_02164cb8 kind:data(any) addr:0x02164cb8
data_ov084_02164cbc kind:data(any) addr:0x02164cbc
data_ov084_02164cc0 kind:data(any) addr:0x02164cc0
data_ov084_02164cc4 kind:data(any) addr:0x02164cc4
data_ov084_02164cc8 kind:data(any) addr:0x02164cc8
data_ov084_02164ccc kind:data(any) addr:0x02164ccc
data_ov084_02164cd0 kind:data(any) addr:0x02164cd0
data_ov084_02164cdc kind:data(any) addr:0x02164cdc
data_ov084_02164ce8 kind:data(any) addr:0x02164ce8
data_ov084_02164cf4 kind:data(any) addr:0x02164cf4
data_ov084_02164d00 kind:data(any) addr:0x02164d00
data_ov084_02164d0c kind:data(any) addr:0x02164d0c
data_ov084_02164d18 kind:data(any) addr:0x02164d18
data_ov084_02164d24 kind:data(any) addr:0x02164d24
data_ov084_02164d30 kind:data(any) addr:0x02164d30
data_ov084_02164d3c kind:data(any) addr:0x02164d3c
data_ov084_02164d48 kind:data(any) addr:0x02164d48
data_ov084_02164d54 kind:data(any) addr:0x02164d54
data_ov084_02164d60 kind:data(any) addr:0x02164d60
data_ov084_02164d6c kind:data(any) addr:0x02164d6c
data_ov084_02164d78 kind:data(any) addr:0x02164d78
data_ov084_02164d8c kind:data(any) addr:0x02164d8c
data_ov084_02164d98 kind:data(any) addr:0x02164d98
data_ov084_02164da4 kind:data(any) addr:0x02164da4
data_ov084_02164db4 kind:data(any) addr:0x02164db4
_ZTV19data_ov084_02164dbc kind:data(any) addr:0x02164dbc
data_ov084_02164de8 kind:data(any) addr:0x02164de8
data_ov084_02164e10 kind:data(any) addr:0x02164e10
data_ov084_02164e38 kind:data(any) addr:0x02164e38
data_ov084_02164e5c kind:data(any) addr:0x02164e5c
data_ov084_02164e68 kind:data(any) addr:0x02164e68
data_ov084_02164e74 kind:data(any) addr:0x02164e74
data_ov084_02164e80 kind:data(any) addr:0x02164e80
data_ov084_02164e8c kind:data(any) addr:0x02164e8c
data_ov084_02164e98 kind:data(any) addr:0x02164e98
data_ov084_02164eac kind:data(any) addr:0x02164eac
data_ov084_02164ef0 kind:data(any) addr:0x02164ef0
data_ov084_02164f04 kind:data(any) addr:0x02164f04
data_ov084_02164f18 kind:data(any) addr:0x02164f18
data_ov084_02164f2c kind:data(any) addr:0x02164f2c
data_ov084_02164f40 kind:data(any) addr:0x02164f40
data_ov084_02164f58 kind:data(any) addr:0x02164f58
data_ov084_02164f5c kind:data(any) addr:0x02164f5c
data_ov084_02164f78 kind:data(any) addr:0x02164f78
data_ov084_02164f94 kind:data(any) addr:0x02164f94
data_ov084_02164fac kind:data(any) addr:0x02164fac
data_ov084_02164fb0 kind:data(any) addr:0x02164fb0
data_ov084_02164fcc kind:data(any) addr:0x02164fcc
_ZTV19data_ov084_02164fe8 kind:data(any) addr:0x02164fe8
data_ov084_02165044 kind:data(any) addr:0x02165044
data_ov084_0216505c kind:data(any) addr:0x0216505c
data_ov084_02165060 kind:data(any) addr:0x02165060
data_ov084_0216507c kind:data(any) addr:0x0216507c
data_ov084_02165098 kind:data(any) addr:0x02165098
data_ov084_021650b4 kind:data(any) addr:0x021650b4
data_ov084_021650d0 kind:data(any) addr:0x021650d0
data_ov084_021650d4 kind:data(any) addr:0x021650d4
data_ov084_021650e8 kind:data(any) addr:0x021650e8
data_ov084_021650fc kind:data(any) addr:0x021650fc
data_ov084_0216510c kind:data(any) addr:0x0216510c
data_ov084_02165110 kind:data(any) addr:0x02165110
data_ov084_02165124 kind:data(any) addr:0x02165124
data_ov084_02165134 kind:data(any) addr:0x02165134
data_ov084_02165138 kind:data(any) addr:0x02165138
data_ov084_0216514c kind:data(any) addr:0x0216514c
data_ov084_0216515c kind:data(any) addr:0x0216515c
data_ov084_02165160 kind:data(any) addr:0x02165160
data_ov084_02165170 kind:data(any) addr:0x02165170
data_ov084_02165174 kind:data(any) addr:0x02165174
data_ov084_02165184 kind:data(any) addr:0x02165184
data_ov084_02165188 kind:data(any) addr:0x02165188
data_ov084_02165194 kind:data(any) addr:0x02165194 ambiguous
data_ov084_02165198 kind:data(any) addr:0x02165198
data_ov084_0216519c kind:data(any) addr:0x0216519c
data_ov084_021651ac kind:data(any) addr:0x021651ac
data_ov084_021651bc kind:data(any) addr:0x021651bc
data_ov084_02165248 kind:data(any) addr:0x02165248 ambiguous
data_ov084_021652e4 kind:data(any) addr:0x021652e4
data_ov084_021652f4 kind:data(any) addr:0x021652f4
_ZTV19data_ov084_02165300 kind:data(any) addr:0x02165300
data_ov084_0216532c kind:data(any) addr:0x0216532c
_ZTV19data_ov084_02165350 kind:data(any) addr:0x02165350
_ZTV19data_ov084_021653ac kind:data(any) addr:0x021653ac
_ZTV19data_ov084_021653d0 kind:data(any) addr:0x021653d0
_ZTV19data_ov084_02165430 kind:data(any) addr:0x02165430
_ZTV19data_ov084_02165454 kind:data(any) addr:0x02165454
data_ov084_021654b4 kind:data(any) addr:0x021654b4
data_ov084_021654cc kind:data(any) addr:0x021654cc
data_ov084_021654e4 kind:data(any) addr:0x021654e4
data_ov084_02165504 kind:data(any) addr:0x02165504
data_ov084_02165518 kind:data(any) addr:0x02165518 ambiguous
data_ov084_02165520 kind:data(any) addr:0x02165520
_ZTV19data_ov084_02165534 kind:data(any) addr:0x02165534
data_ov084_02165560 kind:data(any) addr:0x02165560
_ZTV19data_ov084_021655a0 kind:data(any) addr:0x021655a0
data_ov084_02165608 kind:data(any) addr:0x02165608
data_ov084_0216560c kind:data(any) addr:0x0216560c
data_ov084_02165624 kind:data(any) addr:0x02165624
data_ov084_0216563c kind:data(any) addr:0x0216563c
data_ov084_0216565c kind:data(any) addr:0x0216565c
_ZTV19data_ov084_02165670 kind:data(any) addr:0x02165670
_ZTV19data_ov084_02165694 kind:data(any) addr:0x02165694
_ZTV19data_ov084_021656f4 kind:data(any) addr:0x021656f4
data_ov084_02165718 kind:data(any) addr:0x02165718
data_ov084_02165730 kind:data(any) addr:0x02165730
data_ov084_02165750 kind:data(any) addr:0x02165750
_ZTV19data_ov084_02165790 kind:data(any) addr:0x02165790
data_ov084_021657f8 kind:data(any) addr:0x021657f8
data_ov084_02165814 kind:data(any) addr:0x02165814
data_ov084_02165830 kind:data(any) addr:0x02165830
data_ov084_02165858 kind:data(any) addr:0x02165858
data_ov084_021658a4 kind:data(any) addr:0x021658a4
data_ov084_021658c0 kind:data(any) addr:0x021658c0
data_ov084_02165904 kind:data(any) addr:0x02165904
_ZTV19data_ov084_0216591c kind:data(any) addr:0x0216591c
data_ov084_02165948 kind:data(any) addr:0x02165948
data_ov084_02165970 kind:data(any) addr:0x02165970
_ZTV19data_ov084_021659b0 kind:data(any) addr:0x021659b0
data_ov084_02165a18 kind:data(any) addr:0x02165a18
data_ov084_02165a2c kind:data(any) addr:0x02165a2c
data_ov084_02165a48 kind:data(any) addr:0x02165a48
_ZTV19data_ov084_02165a5c kind:data(any) addr:0x02165a5c
_ZTV19data_ov084_02165a80 kind:data(any) addr:0x02165a80
data_ov084_02165b00 kind:data(any) addr:0x02165b00
data_ov084_02165b1c kind:data(any) addr:0x02165b1c
data_ov084_02165b5c kind:data(any) addr:0x02165b5c
data_ov084_02165b84 kind:data(any) addr:0x02165b84
data_ov084_02165bf4 kind:data(any) addr:0x02165bf4
data_ov084_02165c04 kind:data(any) addr:0x02165c04
data_ov084_02165c1c kind:data(any) addr:0x02165c1c
data_ov084_02165c28 kind:data(any) addr:0x02165c28
_ZTV19data_ov084_02165c48 kind:data(any) addr:0x02165c48
_ZTV19data_ov084_02165c6c kind:data(any) addr:0x02165c6c
data_ov084_02165cc8 kind:data(any) addr:0x02165cc8
data_ov084_02165cdc kind:data(any) addr:0x02165cdc
data_ov084_02165cf8 kind:data(any) addr:0x02165cf8
data_ov084_02165d14 kind:data(any) addr:0x02165d14
data_ov084_02165d60 kind:bss addr:0x02165d60
_ZGVN15ProfileInstanceI19ActorProfileUnkIWTSE8sProfileE kind:bss addr:0x02165d64
@33745 kind:bss addr:0x02165d70
_ZN15ProfileInstanceI19ActorProfileUnkIWTSE8sProfileE kind:bss addr:0x02165db0
_ZGVN15ProfileInstanceI19ActorProfileUnkITSCE8sProfileE kind:bss addr:0x02165e88
@33751 kind:bss addr:0x02165e8c
_ZN15ProfileInstanceI19ActorProfileUnkITSCE8sProfileE kind:bss addr:0x02165e98
_ZGVN15ProfileInstanceI19ActorProfileUnkFIRBE8sProfileE kind:bss addr:0x02165f70
@33757 kind:bss addr:0x02165f74
_ZN15ProfileInstanceI19ActorProfileUnkFIRBE8sProfileE kind:bss addr:0x02165f80
data_ov084_02165fe8 kind:bss addr:0x02165fe8 ambiguous
data_ov084_02165ff0 kind:bss addr:0x02165ff0 ambiguous
data_ov084_02166040 kind:bss addr:0x02166040 ambiguous
data_ov084_02166054 kind:bss addr:0x02166054 ambiguous
_ZGVN15ProfileInstanceI19ActorProfileUnkDSVCE8sProfileE kind:bss addr:0x02166058
@33763 kind:bss addr:0x0216605c
_ZN15ProfileInstanceI19ActorProfileUnkDSVCE8sProfileE kind:bss addr:0x02166068
data_ov084_0216611c kind:bss addr:0x0216611c ambiguous
_ZGVN15ProfileInstanceI19ActorProfileUnkWIDRE8sProfileE kind:bss addr:0x02166140
@33769 kind:bss addr:0x02166144
_ZN15ProfileInstanceI19ActorProfileUnkWIDRE8sProfileE kind:bss addr:0x02166150
_ZGVN15ProfileInstanceI19ActorProfileUnkWIDTE8sProfileE kind:bss addr:0x02166228
@33775 kind:bss addr:0x0216622c
_ZN15ProfileInstanceI19ActorProfileUnkWIDTE8sProfileE kind:bss addr:0x02166238
_ZGVN15ProfileInstanceI19ActorProfileUnkRBVCE8sProfileE kind:bss addr:0x0216627c
@33781 kind:bss addr:0x02166280
_ZN15ProfileInstanceI19ActorProfileUnkRBVCE8sProfileE kind:bss addr:0x0216628c
_ZGVN15ProfileInstanceI23MapObjectProfileUnkLVCME8sProfileE kind:bss addr:0x02166364
@33225 kind:bss addr:0x02166368
_ZN15ProfileInstanceI23MapObjectProfileUnkLVCME8sProfileE kind:bss addr:0x02166374
data_ov084_021663a4 kind:bss addr:0x021663a4 ambiguous
data_ov084_02166448 kind:bss addr:0x02166448
_ZGVN15ProfileInstanceI23MapObjectProfileUnkMLVCE8sProfileE kind:bss addr:0x02166468
@33231 kind:bss addr:0x0216646c
_ZN15ProfileInstanceI23MapObjectProfileUnkMLVCE8sProfileE kind:bss addr:0x02166478
data_ov084_0216649c kind:bss addr:0x0216649c
_ZGVN15ProfileInstanceI19ActorProfileUnkLAVAE8sProfileE kind:bss addr:0x021664a0
@33799 kind:bss addr:0x021664ac
_ZN15ProfileInstanceI19ActorProfileUnkLAVAE8sProfileE kind:bss addr:0x021664b8
data_ov084_02166590 kind:bss addr:0x02166590
data_ov084_021665a0 kind:bss addr:0x021665a0
data_ov084_021665ac kind:bss addr:0x021665ac
_ZGVN15ProfileInstanceI19ActorProfileUnkLVBDE8sProfileE kind:bss addr:0x021665b8
@33805 kind:bss addr:0x021665d0
_ZN15ProfileInstanceI19ActorProfileUnkLVBDE8sProfileE kind:bss addr:0x02166688
_ZGVN15ProfileInstanceI23MapObjectProfileUnkTMLVE8sProfileE kind:bss addr:0x02166760
@33249 kind:bss addr:0x02166764
_ZN15ProfileInstanceI23MapObjectProfileUnkTMLVE8sProfileE kind:bss addr:0x02166770
_ZGVN15ProfileInstanceI23MapObjectProfileUnkSTSVE8sProfileE kind:bss addr:0x02166790
@33255 kind:bss addr:0x02166794
_ZN15ProfileInstanceI23MapObjectProfileUnkSTSVE8sProfileE kind:bss addr:0x021667a0
_ZGVN15ProfileInstanceI19ActorProfileUnkLBRCE8sProfileE kind:bss addr:0x02166808
@33823 kind:bss addr:0x0216680c
_ZN15ProfileInstanceI19ActorProfileUnkLBRCE8sProfileE kind:bss addr:0x02166818
data_ov084_021668f0 kind:bss addr:0x021668f0
_ZGVN15ProfileInstanceI23MapObjectProfileUnkPLV2E8sProfileE kind:bss addr:0x021668f4
@33267 kind:bss addr:0x021668f8
_ZN15ProfileInstanceI23MapObjectProfileUnkPLV2E8sProfileE kind:bss addr:0x02166904
data_ov084_021669d8 kind:bss addr:0x021669d8
