_ZN19ActorProfileUnkPSBL10GetProfileEv kind:function(arm,size=0xc) addr:0x02152c20
_ZN19ActorProfileUnkPSBL6CreateEv kind:function(arm,size=0x24) addr:0x02152c2c
_ZN19ActorProfileUnkPSBLC1Ev kind:function(arm,size=0x58) addr:0x02152c50
_ZN12ActorUnkPSBL19func_ov079_02150c88Ev kind:function(arm,size=0xd0) addr:0x02152ca8
_ZN12ActorUnkPSBLC1Ev kind:function(arm,size=0xf4) addr:0x02152d78
_ZN12ActorUnkPSBL19func_ov079_02150e4cEv kind:function(arm,size=0x14) addr:0x02152e6c
_ZN12ActorUnkPSBLD1Ev kind:function(arm,size=0x60) addr:0x02152e80
_ZN12ActorUnkPSBLD0Ev kind:function(arm,size=0x68) addr:0x02152ee0
_ZN12ActorUnkPSBL19func_ov079_02150f28Ev kind:function(arm,size=0x1e4) addr:0x02152f48
_ZN12ActorUnkPSBL19func_ov079_0215110cEv kind:function(arm,size=0x22c) addr:0x0215312c
_ZN12ActorUnkPSBL19func_ov079_02151338Ev kind:function(arm,size=0x20) addr:0x02153358
_ZN12ActorUnkPSBL19func_ov079_02151358Ev kind:function(arm,size=0x44) addr:0x02153378
_ZN12ActorUnkPSBL19func_ov079_0215139cEv kind:function(arm,size=0x38) addr:0x021533bc
_ZN12ActorUnkPSBL19func_ov079_021513d4Ev kind:function(arm,size=0x3c) addr:0x021533f4
_ZN12ActorUnkPSBL19func_ov079_02151410Ev kind:function(arm,size=0x90) addr:0x02153430
_ZN12ActorUnkPSBL19func_ov079_021514a0Ev kind:function(arm,size=0xa0) addr:0x021534c0
_ZN12ActorUnkPSBL19func_ov079_02151540Ev kind:function(arm,size=0xb0) addr:0x02153560
_ZN12ActorUnkPSBL19func_ov079_021515f0Ev kind:function(arm,size=0x2e0) addr:0x02153610
_ZN12ActorUnkPSBL19func_ov079_021518d0Ev kind:function(arm,size=0x9c) addr:0x021538f0
_ZN12ActorUnkPSBL19func_ov079_0215196cEv kind:function(arm,size=0x60) addr:0x0215398c
_ZN12ActorUnkPSBL19func_ov079_021519ccEv kind:function(arm,size=0x200) addr:0x021539ec
_ZN12ActorUnkPSBL19func_ov079_02151bccEv kind:function(arm,size=0x54) addr:0x02153bec
_ZN12ActorUnkPSBL19func_ov079_02151c20Ev kind:function(arm,size=0xb0) addr:0x02153c40
_ZN12ActorUnkPSBL19func_ov079_02151cd0Ev kind:function(arm,size=0x60) addr:0x02153cf0
_ZN12ActorUnkPSBL19func_ov079_02151d30Ev kind:function(arm,size=0x64) addr:0x02153d50
_ZN12ActorUnkPSBL19func_ov079_02151d94Ev kind:function(arm,size=0x1e8) addr:0x02153db4
_ZN12ActorUnkPSBL19func_ov079_02151f7cEv kind:function(arm,size=0xec) addr:0x02153f9c
_ZN12ActorUnkPSBL19func_ov079_02152068Ev kind:function(arm,size=0x188) addr:0x02154088
_ZN12ActorUnkPSBL19func_ov079_021521f0Ev kind:function(arm,size=0x94) addr:0x02154210
_ZN12ActorUnkPSBL19func_ov079_02152284Ev kind:function(arm,size=0x84) addr:0x021542a4
_ZN12ActorUnkPSBL19func_ov079_02152308Ev kind:function(arm,size=0x70) addr:0x02154328
_ZN12ActorUnkPSBL19func_ov079_02152378Ev kind:function(arm,size=0x68) addr:0x02154398
_ZN12ActorUnkPSBL19func_ov079_021523e0Ev kind:function(arm,size=0x4) addr:0x02154400
_ZN12ActorUnkPSBL19func_ov079_021523e4Ev kind:function(arm,size=0xf8) addr:0x02154404
_ZN12ActorUnkPSBL19func_ov079_021524dcEv kind:function(arm,size=0xc) addr:0x021544fc
_ZN12ActorUnkPSBL19func_ov079_021524e8Ev kind:function(arm,size=0x6c) addr:0x02154508
_ZN12ActorUnkPSBL19func_ov079_02152554Ev kind:function(arm,size=0x40) addr:0x02154574
_ZN12ActorUnkPSBL19func_ov079_02152594Ev kind:function(arm,size=0xc4) addr:0x021545b4
_ZN12ActorUnkPSBL19func_ov079_02152658Ev kind:function(arm,size=0x2c) addr:0x02154678
_ZN12ActorUnkPSBL19func_ov079_02152684Ev kind:function(arm,size=0x90) addr:0x021546a4
_ZN12ActorUnkPSBL19func_ov079_02152714Ev kind:function(arm,size=0x94) addr:0x02154734
_ZN12ActorUnkPSBL19func_ov079_021527a8Ev kind:function(arm,size=0x194) addr:0x021547c8
_ZN12ActorUnkPSBL19func_ov079_0215293cEv kind:function(arm,size=0xd0) addr:0x0215495c
_ZN12ActorUnkPSBL19func_ov079_02152a0cEv kind:function(arm,size=0x14) addr:0x02154a2c
_ZN12ActorUnkPSBL19func_ov079_02152a20Ev kind:function(arm,size=0xf0) addr:0x02154a40
_ZN12ActorUnkPSBL19func_ov079_02152b10Ev kind:function(arm,size=0x14) addr:0x02154b30
_ZN12ActorUnkPSBL19func_ov079_02152b24Ev kind:function(arm,size=0x1c) addr:0x02154b44
_ZN19ActorProfileUnkPSBLD1Ev kind:function(arm,size=0x14) addr:0x02154b60
_ZN19ActorProfileUnkSSFC10GetProfileEv kind:function(arm,size=0xc) addr:0x02154b74
_ZN19ActorProfileUnkSSFC6CreateEv kind:function(arm,size=0x24) addr:0x02154b80
_ZN19ActorProfileUnkSSFCC1Ev kind:function(arm,size=0x28) addr:0x02154ba4
_ZN12ActorUnkSSFCC1Ev kind:function(arm,size=0x3c) addr:0x02154bcc
_ZN12ActorUnkSSFC19func_ov079_02152be8Ev kind:function(arm,size=0xe4) addr:0x02154c08
_ZN12ActorUnkSSFC19func_ov079_02152cccEv kind:function(arm,size=0x134) addr:0x02154cec
_ZN12ActorUnkSSFC19func_ov079_02152e00Ev kind:function(arm,size=0x4c) addr:0x02154e20
_ZN12ActorUnkSSFC19func_ov079_02152e4cEv kind:function(arm,size=0x88) addr:0x02154e6c
_ZN12ActorUnkSSFC19func_ov079_02152ed4Ev kind:function(arm,size=0x50) addr:0x02154ef4
_ZN12ActorUnkSSFCD1Ev kind:function(arm,size=0x14) addr:0x02154f44
_ZN12ActorUnkSSFCD0Ev kind:function(arm,size=0x1c) addr:0x02154f58
_ZN19ActorProfileUnkSSFCD1Ev kind:function(arm,size=0x14) addr:0x02154f74
_ZN19ActorProfileUnkOCTW10GetProfileEv kind:function(arm,size=0xc) addr:0x02154f88
_ZN19ActorProfileUnkOCTW6CreateEv kind:function(arm,size=0x24) addr:0x02154f94
_ZN19ActorProfileUnkOCTWC1Ev kind:function(arm,size=0x54) addr:0x02154fb8
_ZN12ActorUnkOCTWC1Ev kind:function(arm,size=0x244) addr:0x0215500c
_ZN12ActorUnkOCTW19func_ov079_02153230Ev kind:function(arm,size=0x14) addr:0x02155250
_ZN12ActorUnkOCTW19func_ov079_02153244Ev kind:function(arm,size=0x98) addr:0x02155264
_ZN12ActorUnkOCTWD0Ev kind:function(arm,size=0xa0) addr:0x021552fc
_ZN12ActorUnkOCTW19func_ov079_0215337cEv kind:function(arm,size=0xdc) addr:0x0215539c
_ZN12ActorUnkOCTW19func_ov079_02153458Ev kind:function(arm,size=0x20) addr:0x02155478
_ZN12ActorUnkOCTW19func_ov079_02153478Ev kind:function(arm,size=0x54) addr:0x02155498
_ZN12ActorUnkOCTW19func_ov079_021534ccEv kind:function(arm,size=0x288) addr:0x021554ec
_ZN12ActorUnkOCTW19func_ov079_02153754Ev kind:function(arm,size=0xd4) addr:0x02155774
_ZN12ActorUnkOCTW19func_ov079_02153828Ev kind:function(arm,size=0xe8) addr:0x02155848
_ZN12ActorUnkOCTW19func_ov079_02153910Ev kind:function(arm,size=0xb0) addr:0x02155930
_ZN12ActorUnkOCTW19func_ov079_021539c0Ev kind:function(arm,size=0xbc) addr:0x021559e0
_ZN12ActorUnkOCTW19func_ov079_02153a7cEv kind:function(arm,size=0xb0) addr:0x02155a9c
_ZN12ActorUnkOCTW19func_ov079_02153b2cEv kind:function(arm,size=0xf4) addr:0x02155b4c
_ZN12ActorUnkOCTW19func_ov079_02153c20Ev kind:function(arm,size=0x80) addr:0x02155c40
_ZN12ActorUnkOCTW19func_ov079_02153ca0Ev kind:function(arm,size=0xf0) addr:0x02155cc0
_ZN12ActorUnkOCTW19func_ov079_02153d90Ev kind:function(arm,size=0xd0) addr:0x02155db0
_ZN12ActorUnkOCTW19func_ov079_02153e60Ev kind:function(arm,size=0x124) addr:0x02155e80
_ZN12ActorUnkOCTW19func_ov079_02153f84Ev kind:function(arm,size=0x10c) addr:0x02155fa4
_ZN12ActorUnkOCTW19func_ov079_02154090Ev kind:function(arm,size=0x30) addr:0x021560b0
_ZN12ActorUnkOCTW19func_ov079_021540c0Ev kind:function(arm,size=0x6c) addr:0x021560e0
_ZN12ActorUnkOCTW19func_ov079_0215412cEv kind:function(arm,size=0x58) addr:0x0215614c
_ZN12ActorUnkOCTW19func_ov079_02154184Ev kind:function(arm,size=0x84) addr:0x021561a4
_ZN12ActorUnkOCTW19func_ov079_02154208Ev kind:function(arm,size=0x210) addr:0x02156228
_ZN12ActorUnkOCTW19func_ov079_02154418Ev kind:function(arm,size=0x70) addr:0x02156438
_ZN12ActorUnkOCTW19func_ov079_02154488Ev kind:function(arm,size=0x378) addr:0x021564a8
_ZN12ActorUnkOCTW19func_ov079_02154800Ev kind:function(arm,size=0xa8) addr:0x02156820
_ZN12ActorUnkOCTW19func_ov079_021548a8Ev kind:function(arm,size=0x8c) addr:0x021568c8
_ZN12ActorUnkOCTW19func_ov079_02154934Ev kind:function(arm,size=0x128) addr:0x02156954
_ZN12ActorUnkOCTW19func_ov079_02154a5cEv kind:function(arm,size=0x64) addr:0x02156a7c
_ZN12ActorUnkOCTW19func_ov079_02154ac0Ev kind:function(arm,size=0x78) addr:0x02156ae0
_ZN12ActorUnkOCTW19func_ov079_02154b38Ev kind:function(arm,size=0xd4) addr:0x02156b58
_ZN12ActorUnkOCTW19func_ov079_02154c0cEv kind:function(arm,size=0x90) addr:0x02156c2c
_ZN12ActorUnkOCTW19func_ov079_02154c9cEv kind:function(arm,size=0x44) addr:0x02156cbc
_ZN12ActorUnkOCTW19func_ov079_02154ce0Ev kind:function(arm,size=0x1b8) addr:0x02156d00
_ZN12ActorUnkOCTW19func_ov079_02154e98Ev kind:function(arm,size=0x94) addr:0x02156eb8
_ZN12ActorUnkOCTW19func_ov079_02154f2cEv kind:function(arm,size=0x28) addr:0x02156f4c
_ZN12ActorUnkOCTW19func_ov079_02154f54Ev kind:function(arm,size=0x64) addr:0x02156f74
_ZN12ActorUnkOCTW19func_ov079_02154fb8Ev kind:function(arm,size=0x48) addr:0x02156fd8
_ZN12ActorUnkOCTW19func_ov079_02155000Ev kind:function(arm,size=0x58) addr:0x02157020
_ZN12ActorUnkOCTW19func_ov079_02155058Ev kind:function(arm,size=0x24) addr:0x02157078
_ZN12ActorUnkOCTW19func_ov079_0215507cEv kind:function(arm,size=0x2c) addr:0x0215709c
_ZN12ActorUnkOCTW19func_ov079_021550a8Ev kind:function(arm,size=0x1c) addr:0x021570c8
_ZN19ActorProfileUnkOCTWD1Ev kind:function(arm,size=0x14) addr:0x021570e4
_ZN19ActorProfileUnkOCWS10GetProfileEv kind:function(arm,size=0xc) addr:0x021570f8
_ZN19ActorProfileUnkOCWS6CreateEv kind:function(arm,size=0x24) addr:0x02157104
_ZN19ActorProfileUnkOCWSC1Ev kind:function(arm,size=0x48) addr:0x02157128
_ZN12ActorUnkOCWSC1Ev kind:function(arm,size=0xd8) addr:0x02157170
_ZN12ActorUnkOCWS19func_ov079_02155228Ev kind:function(arm,size=0x14) addr:0x02157248
_ZN12ActorUnkOCWS19func_ov079_0215523cEv kind:function(arm,size=0xac) addr:0x0215725c
_ZN12ActorUnkOCWS19func_ov079_021552e8Ev kind:function(arm,size=0x248) addr:0x02157308
_ZN12ActorUnkOCWS19func_ov079_02155530Ev kind:function(arm,size=0x11c) addr:0x02157550
_ZN12ActorUnkOCWS19func_ov079_0215564cEv kind:function(arm,size=0x20) addr:0x0215766c
_ZN12ActorUnkOCWS19func_ov079_0215566cEv kind:function(arm,size=0xa4) addr:0x0215768c
_ZN12ActorUnkOCWS19func_ov079_02155710Ev kind:function(arm,size=0x48) addr:0x02157730
_ZN12ActorUnkOCWS19func_ov079_02155758Ev kind:function(arm,size=0x38) addr:0x02157778
_ZN12ActorUnkOCWS19func_ov079_02155790Ev kind:function(arm,size=0xcc) addr:0x021577b0
_ZN12ActorUnkOCWS19func_ov079_0215585cEv kind:function(arm,size=0x3c) addr:0x0215787c
_ZN12ActorUnkOCWS19func_ov079_02155898Ev kind:function(arm,size=0x4c) addr:0x021578b8
_ZN12ActorUnkOCWSD0Ev kind:function(arm,size=0x1c) addr:0x02157904
_ZN12ActorUnkOCWSD1Ev kind:function(arm,size=0x28) addr:0x02157920
_ZN12ActorUnkOCWS19func_ov079_02155928Ev kind:function(arm,size=0x30) addr:0x02157948
_ZN19ActorProfileUnkOCWSD1Ev kind:function(arm,size=0x14) addr:0x02157978
_ZN19ActorProfileUnkDSSN10GetProfileEv kind:function(arm,size=0xc) addr:0x0215798c
_ZN19ActorProfileUnkDSSN6CreateEv kind:function(arm,size=0x24) addr:0x02157998
_ZN19ActorProfileUnkDSSNC1Ev kind:function(arm,size=0x28) addr:0x021579bc
_ZN12ActorUnkDSSNC1Ev kind:function(arm,size=0x20) addr:0x021579e4
_ZN12ActorUnkDSSN19func_ov079_021559e4Ev kind:function(arm,size=0x50) addr:0x02157a04
_ZN12ActorUnkDSSND1Ev kind:function(arm,size=0x20) addr:0x02157a54
_ZN12ActorUnkDSSND0Ev kind:function(arm,size=0x28) addr:0x02157a74
_ZN19ActorProfileUnkDSSND1Ev kind:function(arm,size=0x14) addr:0x02157a9c
_ZN23MapObjectProfileUnkICGR10GetProfileEv kind:function(arm,size=0xc) addr:0x02157ab0
_ZN23MapObjectProfileUnkICGR6CreateEv kind:function(arm,size=0x24) addr:0x02157abc
_ZN23MapObjectProfileUnkICGRC1Ev kind:function(arm,size=0xb4) addr:0x02157ae0
_ZN16MapObjectUnkICGRC1Ev kind:function(arm,size=0x68) addr:0x02157b94
_ZN16MapObjectUnkICGR19func_ov079_02155bdcEv kind:function(arm,size=0x14) addr:0x02157bfc
_ZN16MapObjectUnkICGR19func_ov079_02155bf0Ev kind:function(arm,size=0x14) addr:0x02157c10
_ZN16MapObjectUnkICGRD1Ev kind:function(arm,size=0x174) addr:0x02157c24
_ZN16MapObjectUnkICGRD0Ev kind:function(arm,size=0x17c) addr:0x02157d98
_ZN16MapObjectUnkICGR19func_ov079_02155ef4Ev kind:function(arm,size=0x2a4) addr:0x02157f14
_ZN16MapObjectUnkICGR19func_ov079_02156198Ev kind:function(arm,size=0x1c) addr:0x021581b8
_ZN16MapObjectUnkICGR19func_ov079_021561b4Ev kind:function(arm,size=0xd8) addr:0x021581d4
_ZN16MapObjectUnkICGR19func_ov079_0215628cEv kind:function(arm,size=0x78) addr:0x021582ac
_ZN16MapObjectUnkICGR19func_ov079_02156304Ev kind:function(arm,size=0x10) addr:0x02158324
_ZN16MapObjectUnkICGR19func_ov079_02156314Ev kind:function(arm,size=0x2b0) addr:0x02158334
_ZN23MapObjectProfileUnkICGRD1Ev kind:function(arm,size=0x14) addr:0x021585e4
_ZN23MapObjectProfileUnkBLHL10GetProfileEv kind:function(arm,size=0xc) addr:0x021585f8
_ZN23MapObjectProfileUnkBLHL6CreateEv kind:function(arm,size=0x24) addr:0x02158604
_ZN23MapObjectProfileUnkBLHLC1Ev kind:function(arm,size=0xa4) addr:0x02158628
_ZN16MapObjectUnkBLHLC1Ev kind:function(arm,size=0x90) addr:0x021586cc
_ZN16MapObjectUnkBLHL19func_ov079_0215673cEv kind:function(arm,size=0x44) addr:0x0215875c
_ZN16MapObjectUnkBLHL19func_ov079_02156780Ev kind:function(arm,size=0x38) addr:0x021587a0
_ZN16MapObjectUnkBLHL19func_ov079_021567b8Ev kind:function(arm,size=0x88) addr:0x021587d8
_ZN16MapObjectUnkBLHL19func_ov079_02156840Ev kind:function(arm,size=0x3c) addr:0x02158860
_ZN16MapObjectUnkBLHLD1Ev kind:function(arm,size=0x20) addr:0x0215889c
_ZN16MapObjectUnkBLHLD0Ev kind:function(arm,size=0x28) addr:0x021588bc
_ZN23MapObjectProfileUnkBLHLD1Ev kind:function(arm,size=0x14) addr:0x021588e4
_ZN23MapObjectProfileUnkDRSN10GetProfileEv kind:function(arm,size=0xc) addr:0x021588f8
_ZN23MapObjectProfileUnkDRSN6CreateEv kind:function(arm,size=0x24) addr:0x02158904
_ZN23MapObjectProfileUnkDRSNC1Ev kind:function(arm,size=0x48) addr:0x02158928
_ZN16MapObjectUnkDRSNC1Ev kind:function(arm,size=0x64) addr:0x02158970
_ZN16MapObjectUnkDRSN19func_ov079_021569b4Ev kind:function(arm,size=0xdc) addr:0x021589d4
_ZN16MapObjectUnkDRSN19func_ov079_02156a90Ev kind:function(arm,size=0x10c) addr:0x02158ab0
_ZN16MapObjectUnkDRSN19func_ov079_02156b9cEv kind:function(arm,size=0x70) addr:0x02158bbc
_ZN16MapObjectUnkDRSN19func_ov079_02156c0cEv kind:function(arm,size=0x18) addr:0x02158c2c
_ZN16MapObjectUnkDRSN19func_ov079_02156c24Ev kind:function(arm,size=0x50) addr:0x02158c44
_ZN16MapObjectUnkDRSND1Ev kind:function(arm,size=0x28) addr:0x02158c94
_ZN16MapObjectUnkDRSND0Ev kind:function(arm,size=0x30) addr:0x02158cbc
_ZN23MapObjectProfileUnkDRSND1Ev kind:function(arm,size=0x14) addr:0x02158cec
func_ov079_02158d00 kind:function(arm,size=0x10) addr:0x02158d00
func_ov079_02158d10 kind:function(arm,size=0x10) addr:0x02158d10
_ZN23MapObjectProfileUnkGTSN10GetProfileEv kind:function(arm,size=0xc) addr:0x02158d20
_ZN23MapObjectProfileUnkGTSN6CreateEv kind:function(arm,size=0x24) addr:0x02158d2c
_ZN23MapObjectProfileUnkGTSNC1Ev kind:function(arm,size=0x48) addr:0x02158d50
_ZN16MapObjectUnkGTSNC1Ev kind:function(arm,size=0x9c) addr:0x02158d98
_ZN16MapObjectUnkGTSN19func_ov079_02156e14Ev kind:function(arm,size=0x110) addr:0x02158e34
_ZN16MapObjectUnkGTSN19func_ov079_02156f24Ev kind:function(arm,size=0x4) addr:0x02158f44
_ZN16MapObjectUnkGTSN19func_ov079_02156f28Ev kind:function(arm,size=0x38) addr:0x02158f48
_ZN16MapObjectUnkGTSND1Ev kind:function(arm,size=0x20) addr:0x02158f80
_ZN16MapObjectUnkGTSND0Ev kind:function(arm,size=0x28) addr:0x02158fa0
_ZN23MapObjectProfileUnkGTSND1Ev kind:function(arm,size=0x14) addr:0x02158fc8
_ZN23MapObjectProfileUnkFSSV10GetProfileEv kind:function(arm,size=0xc) addr:0x02158fdc
_ZN23MapObjectProfileUnkFSSV6CreateEv kind:function(arm,size=0x24) addr:0x02158fe8
_ZN23MapObjectProfileUnkFSSVC1Ev kind:function(arm,size=0x34) addr:0x0215900c
_ZN16MapObjectUnkFSSVC1Ev kind:function(arm,size=0x2c) addr:0x02159040
_ZN16MapObjectUnkFSSV19func_ov079_0215704cEv kind:function(arm,size=0x80) addr:0x0215906c
_ZN16MapObjectUnkFSSV19func_ov079_021570ccEv kind:function(arm,size=0x64) addr:0x021590ec
_ZN16MapObjectUnkFSSV19func_ov079_02157130Ev kind:function(arm,size=0x50) addr:0x02159150
_ZN16MapObjectUnkFSSV19func_ov079_02157180Ev kind:function(arm,size=0x8) addr:0x021591a0
_ZN16MapObjectUnkFSSVD1Ev kind:function(arm,size=0x20) addr:0x021591a8
_ZN16MapObjectUnkFSSVD0Ev kind:function(arm,size=0x28) addr:0x021591c8
_ZN23MapObjectProfileUnkFSSVD1Ev kind:function(arm,size=0x14) addr:0x021591f0
data_ov079_02159204 kind:data(any) addr:0x02159204
data_ov079_02159228 kind:data(any) addr:0x02159228 ambiguous
data_ov079_02159234 kind:data(any) addr:0x02159234
data_ov079_02159274 kind:data(any) addr:0x02159274
data_ov079_02159284 kind:data(any) addr:0x02159284
data_ov079_02159294 kind:data(any) addr:0x02159294
__sinit_ActorUnkPSBL.cpp kind:function(arm,size=0x5c) addr:0x021592a4
__sinit_ActorUnkSSFC.cpp kind:function(arm,size=0x50) addr:0x02159300
__sinit_ActorUnkOCTW.cpp kind:function(arm,size=0x8c) addr:0x02159350
__sinit_ActorUnkOCWS.cpp kind:function(arm,size=0x74) addr:0x021593dc
__sinit_ActorUnkDSSN.cpp kind:function(arm,size=0x50) addr:0x02159450
__sinit_MapObjectUnkICGR.cpp kind:function(arm,size=0x50) addr:0x021594a0
__sinit_MapObjectUnkBLHL.cpp kind:function(arm,size=0x50) addr:0x021594f0
__sinit_MapObjectUnkDRSN.cpp kind:function(arm,size=0x50) addr:0x02159540
__sinit_MapObjectUnkGTSN.cpp kind:function(arm,size=0x50) addr:0x02159590
__sinit_MapObjectUnkFSSV.cpp kind:function(arm,size=0x50) addr:0x021595e0
.p__sinit_ActorUnkPSBL.cpp kind:data(word) addr:0x02159630
.p__sinit_ActorUnkSSFC.cpp kind:data(word) addr:0x02159634
.p__sinit_ActorUnkOCTW.cpp kind:data(word) addr:0x02159638
.p__sinit_ActorUnkOCWS.cpp kind:data(word) addr:0x0215963c
.p__sinit_ActorUnkDSSN.cpp kind:data(word) addr:0x02159640
.p__sinit_MapObjectUnkICGR.cpp kind:data(word) addr:0x02159644
.p__sinit_MapObjectUnkBLHL.cpp kind:data(word) addr:0x02159648
.p__sinit_MapObjectUnkDRSN.cpp kind:data(word) addr:0x0215964c
.p__sinit_MapObjectUnkGTSN.cpp kind:data(word) addr:0x02159650
.p__sinit_MapObjectUnkFSSV.cpp kind:data(word) addr:0x02159654
data_ov079_02159660 kind:data(any) addr:0x02159660
data_ov079_02159664 kind:data(any) addr:0x02159664
data_ov079_02159668 kind:data(any) addr:0x02159668
data_ov079_0215966c kind:data(any) addr:0x0215966c
data_ov079_02159680 kind:data(any) addr:0x02159680
data_ov079_02159698 kind:data(any) addr:0x02159698
data_ov079_021596ac kind:data(any) addr:0x021596ac ambiguous
data_ov079_021596b8 kind:data(any) addr:0x021596b8
_ZTV19data_ov079_021596cc kind:data(any) addr:0x021596cc
data_ov079_021596f8 kind:data(any) addr:0x021596f8
_ZTV19data_ov079_02159718 kind:data(any) addr:0x02159718
_ZTV19data_ov079_02159798 kind:data(any) addr:0x02159798
_ZTV19data_ov079_021597bc kind:data(any) addr:0x021597bc
data_ov079_02159818 kind:data(any) addr:0x02159818
data_ov079_0215981c kind:data(any) addr:0x0215981c
_ZTV19data_ov079_02159828 kind:data(any) addr:0x02159828
data_ov079_02159854 kind:data(any) addr:0x02159854
data_ov079_02159868 kind:data(any) addr:0x02159868 ambiguous
data_ov079_02159898 kind:data(any) addr:0x02159898
data_ov079_021598d4 kind:data(any) addr:0x021598d4 ambiguous
data_ov079_021598f0 kind:data(any) addr:0x021598f0
_ZTV19data_ov079_02159948 kind:data(any) addr:0x02159948
data_ov079_021599a8 kind:data(any) addr:0x021599a8
data_ov079_021599b0 kind:data(any) addr:0x021599b0 ambiguous
data_ov079_021599c0 kind:data(any) addr:0x021599c0
data_ov079_021599d8 kind:data(any) addr:0x021599d8
data_ov079_021599f0 kind:data(any) addr:0x021599f0
data_ov079_02159a08 kind:data(any) addr:0x02159a08
data_ov079_02159a20 kind:data(any) addr:0x02159a20
data_ov079_02159a24 kind:data(any) addr:0x02159a24 ambiguous
_ZTV19data_ov079_02159a34 kind:data(any) addr:0x02159a34
_ZTV19data_ov079_02159a58 kind:data(any) addr:0x02159a58
data_ov079_02159ab4 kind:data(any) addr:0x02159ab4 ambiguous
_ZTV19data_ov079_02159ab4 kind:data(any) addr:0x02159ab4
_ZTV19data_ov079_02159ad8 kind:data(any) addr:0x02159ad8
_ZTV19data_ov079_02159aec kind:data(any) addr:0x02159aec ambiguous
data_ov079_02159b38 kind:data(any) addr:0x02159b38
data_ov079_02159b44 kind:data(any) addr:0x02159b44
data_ov079_02159b60 kind:data(any) addr:0x02159b60
data_ov079_02159b7c kind:data(any) addr:0x02159b7c
data_ov079_02159bbc kind:data(any) addr:0x02159bbc
data_ov079_02159bd8 kind:data(any) addr:0x02159bd8
data_ov079_02159be0 kind:data(any) addr:0x02159be0 ambiguous
data_ov079_02159c18 kind:data(any) addr:0x02159c18
data_ov079_02159c34 kind:data(any) addr:0x02159c34
data_ov079_02159c68 kind:data(any) addr:0x02159c68 ambiguous
data_ov079_02159c94 kind:data(any) addr:0x02159c94 ambiguous
data_ov079_02159ccc kind:data(any) addr:0x02159ccc
data_ov079_02159ce0 kind:data(any) addr:0x02159ce0 ambiguous
data_ov079_02159ce8 kind:data(any) addr:0x02159ce8
data_ov079_02159cf4 kind:data(any) addr:0x02159cf4 ambiguous
data_ov079_02159d04 kind:data(any) addr:0x02159d04
data_ov079_02159d34 kind:data(any) addr:0x02159d34 ambiguous
data_ov079_02159d44 kind:data(any) addr:0x02159d44
data_ov079_02159d58 kind:data(any) addr:0x02159d58 ambiguous
data_ov079_02159d60 kind:data(any) addr:0x02159d60
data_ov079_02159da0 kind:bss addr:0x02159da0
data_ov079_02159dac kind:bss addr:0x02159dac
sActorProfileUnkPSBL kind:bss addr:0x02159db8
data_ov079_02159de4 kind:bss addr:0x02159de4 ambiguous
data_ov079_02159e50 kind:bss addr:0x02159e50 ambiguous
data_ov079_02159e58 kind:bss addr:0x02159e58 ambiguous
data_ov079_02159e90 kind:bss addr:0x02159e90
data_ov079_02159e94 kind:bss addr:0x02159e94
sActorProfileUnkSSFC kind:bss addr:0x02159ea0
data_ov079_02159edc kind:bss addr:0x02159edc
data_ov079_02159ee0 kind:bss addr:0x02159ee0
sActorProfileUnkOCTW kind:bss addr:0x02159eec
data_ov079_02159f74 kind:bss addr:0x02159f74 ambiguous
data_ov079_02159f7c kind:bss addr:0x02159f7c ambiguous
data_ov079_02159fc4 kind:bss addr:0x02159fc4
data_ov079_02159fc8 kind:bss addr:0x02159fc8
sActorProfileUnkOCWS kind:bss addr:0x02159fd4
data_ov079_0215a098 kind:bss addr:0x0215a098 ambiguous
data_ov079_0215a0a0 kind:bss addr:0x0215a0a0 ambiguous
data_ov079_0215a0ac kind:bss addr:0x0215a0ac
data_ov079_0215a0b0 kind:bss addr:0x0215a0b0
sActorProfileUnkDSSN kind:bss addr:0x0215a0bc
data_ov079_0215a0d0 kind:bss addr:0x0215a0d0 ambiguous
data_ov079_0215a194 kind:bss addr:0x0215a194
data_ov079_0215a198 kind:bss addr:0x0215a198
sMapObjectProfileUnkICGR kind:bss addr:0x0215a1a4
data_ov079_0215a1bc kind:bss addr:0x0215a1bc ambiguous
data_ov079_0215a1fc kind:bss addr:0x0215a1fc ambiguous
data_ov079_0215a278 kind:bss addr:0x0215a278
data_ov079_0215a29c kind:bss addr:0x0215a29c
data_ov079_0215a2a0 kind:bss addr:0x0215a2a0
sMapObjectProfileUnkBLHL kind:bss addr:0x0215a2ac
data_ov079_0215a2e0 kind:bss addr:0x0215a2e0 ambiguous
data_ov079_0215a320 kind:bss addr:0x0215a320 ambiguous
data_ov079_0215a380 kind:bss addr:0x0215a380
data_ov079_0215a3a4 kind:bss addr:0x0215a3a4
data_ov079_0215a3a8 kind:bss addr:0x0215a3a8
sMapObjectProfileUnkDRSN kind:bss addr:0x0215a3b4
data_ov079_0215a3b8 kind:bss addr:0x0215a3b8 ambiguous
data_ov079_0215a3d4 kind:bss addr:0x0215a3d4
data_ov079_0215a474 kind:bss addr:0x0215a474 ambiguous
data_ov079_0215a488 kind:bss addr:0x0215a488
data_ov079_0215a48c kind:bss addr:0x0215a48c
sMapObjectProfileUnkGTSN kind:bss addr:0x0215a498
data_ov079_0215a56c kind:bss addr:0x0215a56c
data_ov079_0215a570 kind:bss addr:0x0215a570
sMapObjectProfileUnkFSSV kind:bss addr:0x0215a57c
