func_ov037_0211ad60 kind:function(arm,size=0x148) addr:0x0211ad60
_ZN19func_ov037_0211aea8D1Ev kind:function(arm,size=0x38) addr:0x0211aea8
_ZN19func_ov037_0211aee0D0Ev kind:function(arm,size=0x40) addr:0x0211aee0
func_ov037_0211af20 kind:function(arm,size=0x1b0) addr:0x0211af20
func_ov037_0211b0d0 kind:function(arm,size=0xc8) addr:0x0211b0d0
func_ov037_0211b198 kind:function(arm,size=0x74) addr:0x0211b198
func_ov037_0211b20c kind:function(arm,size=0xcc) addr:0x0211b20c
func_ov037_0211b2d8 kind:function(arm,size=0x18) addr:0x0211b2d8
func_ov037_0211b2f0 kind:function(arm,size=0x398) addr:0x0211b2f0
func_ov037_0211b688 kind:function(arm,size=0xe4) addr:0x0211b688
func_ov037_0211b76c kind:function(arm,size=0x8c) addr:0x0211b76c
func_ov037_0211b7f8 kind:function(arm,size=0x5c) addr:0x0211b7f8
func_ov037_0211b854 kind:function(arm,size=0x31c) addr:0x0211b854
func_ov037_0211bb70 kind:function(arm,size=0x2c) addr:0x0211bb70
func_ov037_0211bb9c kind:function(arm,size=0x254) addr:0x0211bb9c
func_ov037_0211bdf0 kind:function(arm,size=0xec) addr:0x0211bdf0
func_ov037_0211bedc kind:function(arm,size=0x170) addr:0x0211bedc
func_ov037_0211c04c kind:function(arm,size=0x1c) addr:0x0211c04c
func_ov037_0211c068 kind:function(arm,size=0x3c) addr:0x0211c068
func_ov037_0211c0a4 kind:function(arm,size=0x4) addr:0x0211c0a4
func_ov037_0211c0a8 kind:function(arm,size=0x4) addr:0x0211c0a8
func_ov037_0211c0ac kind:function(arm,size=0x20) addr:0x0211c0ac
func_ov037_0211c0cc kind:function(arm,size=0x8) addr:0x0211c0cc
func_ov037_0211c0d4 kind:function(arm,size=0x2c) addr:0x0211c0d4
func_ov037_0211c100 kind:function(arm,size=0x118) addr:0x0211c100
func_ov037_0211c218 kind:function(arm,size=0x90) addr:0x0211c218
func_ov037_0211c2a8 kind:function(arm,size=0xb0) addr:0x0211c2a8
func_ov037_0211c358 kind:function(arm,size=0x1c4) addr:0x0211c358
func_ov037_0211c51c kind:function(arm,size=0x410) addr:0x0211c51c
func_ov037_0211c92c kind:function(arm,size=0x3c) addr:0x0211c92c
func_ov037_0211c968 kind:function(arm,size=0x8) addr:0x0211c968
func_ov037_0211c970 kind:function(arm,size=0x48) addr:0x0211c970
func_ov037_0211c9b8 kind:function(arm,size=0x8) addr:0x0211c9b8
func_ov037_0211c9c0 kind:function(arm,size=0x244) addr:0x0211c9c0
func_ov037_0211cc04 kind:function(arm,size=0xdc) addr:0x0211cc04
_ZN19func_ov037_0211cce0D1Ev kind:function(arm,size=0x20) addr:0x0211cce0
_ZN19func_ov037_0211cd00D0Ev kind:function(arm,size=0x28) addr:0x0211cd00
func_ov037_0211cd28 kind:function(arm,size=0x184) addr:0x0211cd28
func_ov037_0211ceac kind:function(arm,size=0x8c) addr:0x0211ceac
func_ov037_0211cf38 kind:function(arm,size=0x4) addr:0x0211cf38
func_ov037_0211cf3c kind:function(arm,size=0x124) addr:0x0211cf3c
func_ov037_0211d060 kind:function(arm,size=0x3c) addr:0x0211d060
func_ov037_0211d09c kind:function(arm,size=0x3c) addr:0x0211d09c
func_ov037_0211d0d8 kind:function(arm,size=0x98) addr:0x0211d0d8
func_ov037_0211d170 kind:function(arm,size=0x24) addr:0x0211d170
func_ov037_0211d194 kind:function(arm,size=0x4) addr:0x0211d194
func_ov037_0211d198 kind:function(arm,size=0x4) addr:0x0211d198
func_ov037_0211d19c kind:function(arm,size=0x8) addr:0x0211d19c
_ZN19ActorProfileUnkSOLF10GetProfileEv kind:function(arm,size=0xc) addr:0x0211d1a4
_ZN19ActorProfileUnkSOLF6CreateEv kind:function(arm,size=0x24) addr:0x0211d1b0
_ZN19ActorProfileUnkSOLFC1Ev kind:function(arm,size=0x5c) addr:0x0211d1d4
_ZN12ActorUnkSOLF19func_ov037_0211b484Ev kind:function(arm,size=0x3c) addr:0x0211d230
_ZN12ActorUnkSOLF19func_ov037_0211b4c0Ev kind:function(arm,size=0x68) addr:0x0211d26c
_ZN12ActorUnkSOLF19func_ov037_0211b528Ev kind:function(arm,size=0x58) addr:0x0211d2d4
_ZN12ActorUnkSOLF19func_ov037_0211b580Ev kind:function(arm,size=0x68) addr:0x0211d32c
_ZN12ActorUnkSOLF19func_ov037_0211b5e8Ev kind:function(arm,size=0x28) addr:0x0211d394
_ZN12ActorUnkSOLF19func_ov037_0211b610Ev kind:function(arm,size=0x18) addr:0x0211d3bc
_ZN12ActorUnkSOLFC1Ev kind:function(arm,size=0x24c) addr:0x0211d3d4
_ZN12ActorUnkSOLF19func_ov037_0211b874Ev kind:function(arm,size=0x14) addr:0x0211d620
_ZN12ActorUnkSOLF19func_ov037_0211b888Ev kind:function(arm,size=0x14) addr:0x0211d634
_ZN12ActorUnkSOLF19func_ov037_0211b89cEv kind:function(arm,size=0x14) addr:0x0211d648
_ZN12ActorUnkSOLF19func_ov037_0211b8b0Ev kind:function(arm,size=0x1c) addr:0x0211d65c
_ZN12ActorUnkSOLF19func_ov037_0211b8ccEv kind:function(arm,size=0xb4) addr:0x0211d678
_ZN12ActorUnkSOLF19func_ov037_0211b980Ev kind:function(arm,size=0xe4) addr:0x0211d72c
_ZN12ActorUnkSOLF19func_ov037_0211ba64Ev kind:function(arm,size=0x32c) addr:0x0211d810
_ZN12ActorUnkSOLF19func_ov037_0211bd90Ev kind:function(arm,size=0x24) addr:0x0211db3c
_ZN12ActorUnkSOLF19func_ov037_0211bdb4Ev kind:function(arm,size=0x100) addr:0x0211db60
_ZN12ActorUnkSOLF19func_ov037_0211beb4Ev kind:function(arm,size=0x78) addr:0x0211dc60
_ZN12ActorUnkSOLF19func_ov037_0211bf2cEv kind:function(arm,size=0xd4) addr:0x0211dcd8
_ZN12ActorUnkSOLF19func_ov037_0211c000Ev kind:function(arm,size=0x5c) addr:0x0211ddac
_ZN12ActorUnkSOLF19func_ov037_0211c05cEv kind:function(arm,size=0xc4) addr:0x0211de08
_ZN12ActorUnkSOLF19func_ov037_0211c120Ev kind:function(arm,size=0x64) addr:0x0211decc
_ZN12ActorUnkSOLF19func_ov037_0211c184Ev kind:function(arm,size=0x3c) addr:0x0211df30
_ZN12ActorUnkSOLF19func_ov037_0211c1c0Ev kind:function(arm,size=0x84) addr:0x0211df6c
_ZN12ActorUnkSOLF19func_ov037_0211c244Ev kind:function(arm,size=0x178) addr:0x0211dff0
_ZN12ActorUnkSOLF19func_ov037_0211c3bcEv kind:function(arm,size=0x38c) addr:0x0211e168
_ZN12ActorUnkSOLF19func_ov037_0211c748Ev kind:function(arm,size=0x150) addr:0x0211e4f4
_ZN12ActorUnkSOLF19func_ov037_0211c898Ev kind:function(arm,size=0x84) addr:0x0211e644
_ZN12ActorUnkSOLF19func_ov037_0211c91cEv kind:function(arm,size=0x2c) addr:0x0211e6c8
_ZN12ActorUnkSOLF19func_ov037_0211c948Ev kind:function(arm,size=0xc8) addr:0x0211e6f4
_ZN12ActorUnkSOLF19func_ov037_0211ca10Ev kind:function(arm,size=0xe4) addr:0x0211e7bc
_ZN12ActorUnkSOLF19func_ov037_0211caf4Ev kind:function(arm,size=0x7c) addr:0x0211e8a0
_ZN12ActorUnkSOLF19func_ov037_0211cb70Ev kind:function(arm,size=0x104) addr:0x0211e91c
_ZN12ActorUnkSOLF19func_ov037_0211cc74Ev kind:function(arm,size=0x84) addr:0x0211ea20
_ZN12ActorUnkSOLF19func_ov037_0211ccf8Ev kind:function(arm,size=0x274) addr:0x0211eaa4
_ZN12ActorUnkSOLF19func_ov037_0211cf6cEv kind:function(arm,size=0x80) addr:0x0211ed18
_ZN12ActorUnkSOLF19func_ov037_0211cfecEv kind:function(arm,size=0xc0) addr:0x0211ed98
_ZN12ActorUnkSOLF19func_ov037_0211d0acEv kind:function(arm,size=0xec) addr:0x0211ee58
_ZN12ActorUnkSOLF19func_ov037_0211d198Ev kind:function(arm,size=0x7f8) addr:0x0211ef44
_ZN12ActorUnkSOLF19func_ov037_0211d990Ev kind:function(arm,size=0x17c) addr:0x0211f73c
_ZN12ActorUnkSOLF19func_ov037_0211db0cEv kind:function(arm,size=0x1b8) addr:0x0211f8b8
_ZN12ActorUnkSOLF19func_ov037_0211dcc4Ev kind:function(arm,size=0x54) addr:0x0211fa70
_ZN12ActorUnkSOLF19func_ov037_0211dd18Ev kind:function(arm,size=0x70) addr:0x0211fac4
_ZN12ActorUnkSOLF19func_ov037_0211dd88Ev kind:function(arm,size=0x138) addr:0x0211fb34
_ZN12ActorUnkSOLF19func_ov037_0211dec0Ev kind:function(arm,size=0x70) addr:0x0211fc6c
_ZN12ActorUnkSOLF19func_ov037_0211df30Ev kind:function(arm,size=0x4) addr:0x0211fcdc
_ZN12ActorUnkSOLF19func_ov037_0211df34Ev kind:function(arm,size=0xc) addr:0x0211fce0
_ZN12ActorUnkSOLF19func_ov037_0211df40Ev kind:function(arm,size=0x78) addr:0x0211fcec
_ZN12ActorUnkSOLF19func_ov037_0211dfb8Ev kind:function(arm,size=0x38) addr:0x0211fd64
_ZN12ActorUnkSOLF19func_ov037_0211dff0Ev kind:function(arm,size=0x50) addr:0x0211fd9c
_ZN12ActorUnkSOLF19func_ov037_0211e040Ev kind:function(arm,size=0x29c) addr:0x0211fdec
_ZN12ActorUnkSOLF19func_ov037_0211e2dcEv kind:function(arm,size=0x34) addr:0x02120088
_ZN12ActorUnkSOLF19func_ov037_0211e310Ev kind:function(arm,size=0x24) addr:0x021200bc
_ZN12ActorUnkSOLF19func_ov037_0211e334Ev kind:function(arm,size=0x14) addr:0x021200e0
_ZN12ActorUnkSOLF19func_ov037_0211e348Ev kind:function(arm,size=0x8) addr:0x021200f4
_ZN12ActorUnkSOLF19func_ov037_0211e350Ev kind:function(arm,size=0x14) addr:0x021200fc
_ZN12ActorUnkSOLF19func_ov037_0211e364Ev kind:function(arm,size=0x100) addr:0x02120110
_ZN12ActorUnkSOLF19func_ov037_0211e464Ev kind:function(arm,size=0x18) addr:0x02120210
_ZN12ActorUnkSOLF19func_ov037_0211e47cEv kind:function(arm,size=0x8) addr:0x02120228
_ZN12ActorUnkSOLF19func_ov037_0211e484Ev kind:function(arm,size=0x3c) addr:0x02120230
_ZN12ActorUnkSOLF19func_ov037_0211e4c0Ev kind:function(arm,size=0x3c) addr:0x0212026c
_ZN12ActorUnkSOLF19func_ov037_0211e4fcEv kind:function(arm,size=0x10c) addr:0x021202a8
_ZN12ActorUnkSOLF19func_ov037_0211e608Ev kind:function(arm,size=0x88) addr:0x021203b4
_ZN12ActorUnkSOLF19func_ov037_0211e690Ev kind:function(arm,size=0x48) addr:0x0212043c
_ZN12ActorUnkSOLF19func_ov037_0211e6d8Ev kind:function(arm,size=0x20) addr:0x02120484
_ZN12ActorUnkSOLF19func_ov037_0211e6f8Ev kind:function(arm,size=0xd0) addr:0x021204a4
_ZN12ActorUnkSOLFD0Ev kind:function(arm,size=0x1c) addr:0x02120574
_ZN12ActorUnkSOLF19func_ov037_0211e7e4Ev kind:function(arm,size=0x1c) addr:0x02120590
_ZN12ActorUnkSOLFD1Ev kind:function(arm,size=0x38) addr:0x021205ac
_ZN12ActorUnkSOLF19func_ov037_0211e838Ev kind:function(arm,size=0x40) addr:0x021205e4
_ZN12ActorUnkSOLF19func_ov037_0211e878Ev kind:function(arm,size=0x24) addr:0x02120624
_ZN12ActorUnkSOLF19func_ov037_0211e89cEv kind:function(arm,size=0x2c) addr:0x02120648
_ZN12ActorUnkSOLF19func_ov037_0211e8c8Ev kind:function(arm,size=0x1c) addr:0x02120674
_ZN12ActorUnkSOLF19func_ov037_0211e8e4Ev kind:function(arm,size=0x28) addr:0x02120690
_ZN12ActorUnkSOLFD2Ev kind:function(arm,size=0x20) addr:0x021206b8
_ZN19ActorProfileUnkSOLFD1Ev kind:function(arm,size=0x14) addr:0x021206d8
_ZN19ActorProfileUnkSOLT10GetProfileEv kind:function(arm,size=0xc) addr:0x021206ec
_ZN19ActorProfileUnkSOLT6CreateEv kind:function(arm,size=0x24) addr:0x021206f8
_ZN19ActorProfileUnkSOLTC1Ev kind:function(arm,size=0x58) addr:0x0212071c
_ZN12ActorUnkSOLTC1Ev kind:function(arm,size=0x1a4) addr:0x02120774
_ZN12ActorUnkSOLT19func_ov037_0211eb6cEv kind:function(arm,size=0x1c) addr:0x02120918
_ZN12ActorUnkSOLT19func_ov037_0211eb88Ev kind:function(arm,size=0x6c) addr:0x02120934
_ZN12ActorUnkSOLT19func_ov037_0211ebf4Ev kind:function(arm,size=0x64) addr:0x021209a0
_ZN12ActorUnkSOLT19func_ov037_0211ec58Ev kind:function(arm,size=0x23c) addr:0x02120a04
_ZN12ActorUnkSOLT19func_ov037_0211ee94Ev kind:function(arm,size=0x20) addr:0x02120c40
_ZN12ActorUnkSOLT19func_ov037_0211eeb4Ev kind:function(arm,size=0xf4) addr:0x02120c60
_ZN12ActorUnkSOLT19func_ov037_0211efa8Ev kind:function(arm,size=0x78) addr:0x02120d54
_ZN12ActorUnkSOLT19func_ov037_0211f020Ev kind:function(arm,size=0xd4) addr:0x02120dcc
_ZN12ActorUnkSOLT19func_ov037_0211f0f4Ev kind:function(arm,size=0x5c) addr:0x02120ea0
_ZN12ActorUnkSOLT19func_ov037_0211f150Ev kind:function(arm,size=0xc4) addr:0x02120efc
_ZN12ActorUnkSOLT19func_ov037_0211f214Ev kind:function(arm,size=0x64) addr:0x02120fc0
_ZN12ActorUnkSOLT19func_ov037_0211f278Ev kind:function(arm,size=0x3c) addr:0x02121024
_ZN12ActorUnkSOLT19func_ov037_0211f2b4Ev kind:function(arm,size=0x84) addr:0x02121060
_ZN12ActorUnkSOLT19func_ov037_0211f338Ev kind:function(arm,size=0x178) addr:0x021210e4
_ZN12ActorUnkSOLT19func_ov037_0211f4b0Ev kind:function(arm,size=0xc4) addr:0x0212125c
_ZN12ActorUnkSOLT19func_ov037_0211f574Ev kind:function(arm,size=0xa8) addr:0x02121320
_ZN12ActorUnkSOLT19func_ov037_0211f61cEv kind:function(arm,size=0xa8) addr:0x021213c8
_ZN12ActorUnkSOLT19func_ov037_0211f6c4Ev kind:function(arm,size=0xa8) addr:0x02121470
_ZN12ActorUnkSOLT19func_ov037_0211f76cEv kind:function(arm,size=0x7c) addr:0x02121518
_ZN12ActorUnkSOLT19func_ov037_0211f7e8Ev kind:function(arm,size=0x3c) addr:0x02121594
_ZN12ActorUnkSOLT19func_ov037_0211f824Ev kind:function(arm,size=0x64) addr:0x021215d0
_ZN12ActorUnkSOLT19func_ov037_0211f888Ev kind:function(arm,size=0x1a8) addr:0x02121634
_ZN12ActorUnkSOLT19func_ov037_0211fa30Ev kind:function(arm,size=0xa0) addr:0x021217dc
_ZN12ActorUnkSOLT19func_ov037_0211fad0Ev kind:function(arm,size=0x11c) addr:0x0212187c
_ZN12ActorUnkSOLT19func_ov037_0211fbecEv kind:function(arm,size=0x78) addr:0x02121998
_ZN12ActorUnkSOLT19func_ov037_0211fc64Ev kind:function(arm,size=0xac) addr:0x02121a10
_ZN12ActorUnkSOLT19func_ov037_0211fd10Ev kind:function(arm,size=0x50) addr:0x02121abc
_ZN12ActorUnkSOLT19func_ov037_0211fd60Ev kind:function(arm,size=0x38) addr:0x02121b0c
_ZN12ActorUnkSOLT19func_ov037_0211fd98Ev kind:function(arm,size=0x1c) addr:0x02121b44
_ZN12ActorUnkSOLT19func_ov037_0211fdb4Ev kind:function(arm,size=0x78) addr:0x02121b60
_ZN12ActorUnkSOLT19func_ov037_0211fe2cEv kind:function(arm,size=0x38) addr:0x02121bd8
_ZN12ActorUnkSOLT19func_ov037_0211fe64Ev kind:function(arm,size=0x50) addr:0x02121c10
_ZN12ActorUnkSOLT19func_ov037_0211feb4Ev kind:function(arm,size=0x16c) addr:0x02121c60
_ZN12ActorUnkSOLT19func_ov037_02120020Ev kind:function(arm,size=0x3c) addr:0x02121dcc
_ZN12ActorUnkSOLT19func_ov037_0212005cEv kind:function(arm,size=0x18) addr:0x02121e08
_ZN12ActorUnkSOLT19func_ov037_02120074Ev kind:function(arm,size=0x2c) addr:0x02121e20
_ZN12ActorUnkSOLT19func_ov037_021200a0Ev kind:function(arm,size=0x18) addr:0x02121e4c
_ZN12ActorUnkSOLT19func_ov037_021200b8Ev kind:function(arm,size=0x30) addr:0x02121e64
_ZN12ActorUnkSOLT19func_ov037_021200e8Ev kind:function(arm,size=0x4c) addr:0x02121e94
_ZN12ActorUnkSOLT19func_ov037_02120134Ev kind:function(arm,size=0x2c) addr:0x02121ee0
_ZN12ActorUnkSOLT19func_ov037_02120160Ev kind:function(arm,size=0x44) addr:0x02121f0c
_ZN12ActorUnkSOLT19func_ov037_021201a4Ev kind:function(arm,size=0x30) addr:0x02121f50
_ZN12ActorUnkSOLT19func_ov037_021201d4Ev kind:function(arm,size=0x54) addr:0x02121f80
_ZN12ActorUnkSOLT19func_ov037_02120228Ev kind:function(arm,size=0x58) addr:0x02121fd4
_ZN12ActorUnkSOLT19func_ov037_02120280Ev kind:function(arm,size=0x54) addr:0x0212202c
_ZN12ActorUnkSOLT19func_ov037_021202d4Ev kind:function(arm,size=0x110) addr:0x02122080
_ZN12ActorUnkSOLT19func_ov037_021203e4Ev kind:function(arm,size=0x24) addr:0x02122190
_ZN12ActorUnkSOLT19func_ov037_02120408Ev kind:function(arm,size=0x64) addr:0x021221b4
_ZN12ActorUnkSOLT19func_ov037_0212046cEv kind:function(arm,size=0xc) addr:0x02122218
_ZN12ActorUnkSOLT19func_ov037_02120478Ev kind:function(arm,size=0x14) addr:0x02122224
_ZN12ActorUnkSOLT19func_ov037_0212048cEv kind:function(arm,size=0x8) addr:0x02122238
_ZN12ActorUnkSOLT19func_ov037_02120494Ev kind:function(arm,size=0x14) addr:0x02122240
_ZN12ActorUnkSOLT19func_ov037_021204a8Ev kind:function(arm,size=0x100) addr:0x02122254
_ZN12ActorUnkSOLT19func_ov037_021205a8Ev kind:function(arm,size=0x18) addr:0x02122354
_ZN12ActorUnkSOLT19func_ov037_021205c0Ev kind:function(arm,size=0x8) addr:0x0212236c
_ZN12ActorUnkSOLT19func_ov037_021205c8Ev kind:function(arm,size=0x10c) addr:0x02122374
_ZN12ActorUnkSOLT19func_ov037_021206d4Ev kind:function(arm,size=0x160) addr:0x02122480
_ZN12ActorUnkSOLT19func_ov037_02120834Ev kind:function(arm,size=0x48) addr:0x021225e0
_ZN12ActorUnkSOLT19func_ov037_0212087cEv kind:function(arm,size=0xd0) addr:0x02122628
_ZN12ActorUnkSOLTD1Ev kind:function(arm,size=0x28) addr:0x021226f8
_ZN12ActorUnkSOLTD0Ev kind:function(arm,size=0x30) addr:0x02122720
_ZN19ActorProfileUnkSOLTD1Ev kind:function(arm,size=0x14) addr:0x02122750
_ZN19ActorProfileUnkTUTO10GetProfileEv kind:function(arm,size=0xc) addr:0x02122764
_ZN19ActorProfileUnkTUTO6CreateEv kind:function(arm,size=0x24) addr:0x02122770
_ZN19ActorProfileUnkTUTOC1Ev kind:function(arm,size=0x28) addr:0x02122794
_ZN12ActorUnkTUTO19func_ov037_02120a10Ev kind:function(arm,size=0x54) addr:0x021227bc
_ZN12ActorUnkTUTO19func_ov037_02120a64Ev kind:function(arm,size=0x2c) addr:0x02122810
_ZN12ActorUnkTUTOC1Ev kind:function(arm,size=0x6c) addr:0x0212283c
_ZN12ActorUnkTUTO19func_ov037_02120afcEv kind:function(arm,size=0x14) addr:0x021228a8
_ZN12ActorUnkTUTO19func_ov037_02120b10Ev kind:function(arm,size=0x98) addr:0x021228bc
_ZN12ActorUnkTUTO19func_ov037_02120ba8Ev kind:function(arm,size=0x24) addr:0x02122954
_ZN12ActorUnkTUTO19func_ov037_02120bccEv kind:function(arm,size=0x7c) addr:0x02122978
_ZN12ActorUnkTUTO19func_ov037_02120c48Ev kind:function(arm,size=0xc) addr:0x021229f4
_ZN12ActorUnkTUTO19func_ov037_02120c54Ev kind:function(arm,size=0x100) addr:0x02122a00
_ZN12ActorUnkTUTO19func_ov037_02120d54Ev kind:function(arm,size=0x50) addr:0x02122b00
_ZN12ActorUnkTUTO19func_ov037_02120da4Ev kind:function(arm,size=0x38) addr:0x02122b50
_ZN12ActorUnkTUTO19func_ov037_02120ddcEv kind:function(arm,size=0x1e0) addr:0x02122b88
_ZN12ActorUnkTUTO19func_ov037_02120fbcEv kind:function(arm,size=0x2c) addr:0x02122d68
_ZN12ActorUnkTUTO19func_ov037_02120fe8Ev kind:function(arm,size=0x28) addr:0x02122d94
_ZN12ActorUnkTUTO19func_ov037_02121010Ev kind:function(arm,size=0xc) addr:0x02122dbc
_ZN12ActorUnkTUTO19func_ov037_0212101cEv kind:function(arm,size=0x28) addr:0x02122dc8
_ZN12ActorUnkTUTO19func_ov037_02121044Ev kind:function(arm,size=0x40) addr:0x02122df0
_ZN12ActorUnkTUTO19func_ov037_02121084Ev kind:function(arm,size=0x12c) addr:0x02122e30
_ZN12ActorUnkTUTO19func_ov037_021211b0Ev kind:function(arm,size=0x7c) addr:0x02122f5c
_ZN12ActorUnkTUTO19func_ov037_0212122cEv kind:function(arm,size=0x13c) addr:0x02122fd8
_ZN12ActorUnkTUTO19func_ov037_02121368Ev kind:function(arm,size=0x38) addr:0x02123114
_ZN12ActorUnkTUTO19func_ov037_021213a0Ev kind:function(arm,size=0x7c) addr:0x0212314c
_ZN12ActorUnkTUTO19func_ov037_0212141cEv kind:function(arm,size=0x48) addr:0x021231c8
_ZN12ActorUnkTUTO19func_ov037_02121464Ev kind:function(arm,size=0x7c) addr:0x02123210
_ZN12ActorUnkTUTO19func_ov037_021214e0Ev kind:function(arm,size=0x4c) addr:0x0212328c
_ZN12ActorUnkTUTO19func_ov037_0212152cEv kind:function(arm,size=0x154) addr:0x021232d8
_ZN12ActorUnkTUTO19func_ov037_02121680Ev kind:function(arm,size=0x1c) addr:0x0212342c
_ZN12ActorUnkTUTO19func_ov037_0212169cEv kind:function(arm,size=0x14c) addr:0x02123448
_ZN12ActorUnkTUTO19func_ov037_021217e8Ev kind:function(arm,size=0x23c) addr:0x02123594
_ZN12ActorUnkTUTO19func_ov037_02121a24Ev kind:function(arm,size=0x8c) addr:0x021237d0
_ZN12ActorUnkTUTO19func_ov037_02121ab0Ev kind:function(arm,size=0x40) addr:0x0212385c
_ZN12ActorUnkTUTO19func_ov037_02121af0Ev kind:function(arm,size=0x3c) addr:0x0212389c
_ZN12ActorUnkTUTO19func_ov037_02121b2cEv kind:function(arm,size=0x20) addr:0x021238d8
_ZN12ActorUnkTUTOD1Ev kind:function(arm,size=0x28) addr:0x021238f8
_ZN12ActorUnkTUTOD0Ev kind:function(arm,size=0x30) addr:0x02123920
_ZN19ActorProfileUnkTUTOD1Ev kind:function(arm,size=0x14) addr:0x02123950
data_ov037_02123970 kind:data(any) addr:0x02123970
data_ov037_02123980 kind:data(any) addr:0x02123980
data_ov037_02123986 kind:data(any) addr:0x02123986
data_ov037_0212398c kind:data(any) addr:0x0212398c
data_ov037_02123992 kind:data(any) addr:0x02123992
data_ov037_021239a6 kind:data(any) addr:0x021239a6
data_ov037_021239c4 kind:data(any) addr:0x021239c4
data_ov037_021239e0 kind:data(any) addr:0x021239e0
__sinit_ov037_021239f4 kind:function(arm,size=0x64) addr:0x021239f4
__sinit_ActorUnkSOLF.cpp kind:function(arm,size=0x50) addr:0x02123a58
__sinit_ActorUnkSOLT.cpp kind:function(arm,size=0x50) addr:0x02123aa8
__sinit_ActorUnkTUTO.cpp kind:function(arm,size=0x9c) addr:0x02123af8
.p__sinit_ov037_021239f4 kind:data(word) addr:0x02123b94
.p__sinit_ActorUnkSOLF.cpp kind:data(word) addr:0x02123b98
.p__sinit_ActorUnkSOLT.cpp kind:data(word) addr:0x02123b9c
.p__sinit_ActorUnkTUTO.cpp kind:data(word) addr:0x02123ba0
data_ov037_02123bc0 kind:data(any) addr:0x02123bc0
data_ov037_02123bcc kind:data(any) addr:0x02123bcc
data_ov037_02123c04 kind:data(any) addr:0x02123c04
data_ov037_02123c28 kind:data(any) addr:0x02123c28
data_ov037_02123c44 kind:data(any) addr:0x02123c44
_ZTV19data_ov037_02123c58 kind:data(any) addr:0x02123c58
data_ov037_02123c84 kind:data(any) addr:0x02123c84
data_ov037_02123c90 kind:data(any) addr:0x02123c90 ambiguous
data_ov037_02123cc8 kind:data(any) addr:0x02123cc8
data_ov037_02123d78 kind:data(any) addr:0x02123d78
data_ov037_02123e28 kind:data(any) addr:0x02123e28
data_ov037_02123e40 kind:data(any) addr:0x02123e40
data_ov037_02123e70 kind:data(any) addr:0x02123e70
data_ov037_02123e88 kind:data(any) addr:0x02123e88
data_ov037_02123ea0 kind:data(any) addr:0x02123ea0
data_ov037_02123eb8 kind:data(any) addr:0x02123eb8
data_ov037_02123f00 kind:data(any) addr:0x02123f00
data_ov037_02123f18 kind:data(any) addr:0x02123f18
_ZTV19data_ov037_02123f30 kind:data(any) addr:0x02123f30
_ZTV19data_ov037_0212404c kind:data(any) addr:0x0212404c
_ZTV19data_ov037_02124168 kind:data(any) addr:0x02124168
data_ov037_0212418c kind:data(any) addr:0x0212418c
data_ov037_021241ad kind:data(any) addr:0x021241ad ambiguous
data_ov037_02124224 kind:data(any) addr:0x02124224
data_ov037_021242bc kind:data(any) addr:0x021242bc
data_ov037_021242d4 kind:data(any) addr:0x021242d4
data_ov037_02124304 kind:data(any) addr:0x02124304
data_ov037_0212431c kind:data(any) addr:0x0212431c
data_ov037_02124334 kind:data(any) addr:0x02124334
data_ov037_02124348 kind:data(any) addr:0x02124348 ambiguous
data_ov037_0212434c kind:data(any) addr:0x0212434c
data_ov037_02124360 kind:data(any) addr:0x02124360 ambiguous
data_ov037_02124364 kind:data(any) addr:0x02124364
_ZTV19data_ov037_0212437c kind:data(any) addr:0x0212437c
data_ov037_02124498 kind:data(any) addr:0x02124498
data_ov037_021244b8 kind:data(any) addr:0x021244b8
data_ov037_021244f0 kind:data(any) addr:0x021244f0
_ZTV19data_ov037_02124528 kind:data(any) addr:0x02124528
_ZTV19data_ov037_0212454c kind:data(any) addr:0x0212454c
data_ov037_021245c0 kind:bss addr:0x021245c0
data_ov037_021245c4 kind:bss addr:0x021245c4
data_ov037_021245d0 kind:bss addr:0x021245d0
_ZGVN15ProfileInstanceI19ActorProfileUnkSOLFE8sProfileE kind:bss addr:0x02124728
@31339 kind:bss addr:0x0212472c
_ZN15ProfileInstanceI19ActorProfileUnkSOLFE8sProfileE kind:bss addr:0x02124738
_ZGVN15ProfileInstanceI19ActorProfileUnkSOLTE8sProfileE kind:bss addr:0x0212477c
@31345 kind:bss addr:0x02124780
_ZN15ProfileInstanceI19ActorProfileUnkSOLTE8sProfileE kind:bss addr:0x0212478c
data_ov037_02124864 kind:bss addr:0x02124864
data_ov037_02124868 kind:bss addr:0x02124868
_ZN15ProfileInstanceI19ActorProfileUnkTUTOE8sProfileE kind:bss addr:0x02124874
