_ZN19ActorProfileUnkFRBS10GetProfileEv kind:function(arm,size=0xc) addr:0x02154ec0
_ZN19ActorProfileUnkFRBS6CreateEv kind:function(arm,size=0x28) addr:0x02154ecc
_ZN19ActorProfileUnkFRBSC1Ev kind:function(arm,size=0x64) addr:0x02154ef4
_ZN12ActorUnkFRBS19func_ov078_02152f38Ev kind:function(arm,size=0x28) addr:0x02154f58
_ZN12ActorUnkFRBSD1Ev kind:function(arm,size=0x14) addr:0x02154f80
_ZN12ActorUnkFRBSD0Ev kind:function(arm,size=0x1c) addr:0x02154f94
_ZN12ActorUnkFRBS19func_ov078_02152f90Ev kind:function(arm,size=0xc8) addr:0x02154fb0
_ZN12ActorUnkFRBSC1Ev kind:function(arm,size=0x394) addr:0x02155078
_ZN12ActorUnkFRBS19func_ov078_021533ecEv kind:function(arm,size=0x14) addr:0x0215540c
_ZN12ActorUnkFRBS19func_ov078_02153400Ev kind:function(arm,size=0xcc) addr:0x02155420
_ZN12ActorUnkFRBS19func_ov078_021534ccEv kind:function(arm,size=0x120) addr:0x021554ec
_ZN12ActorUnkFRBS19func_ov078_021535ecEv kind:function(arm,size=0x5c8) addr:0x0215560c
_ZN12ActorUnkFRBS19func_ov078_02153bb4Ev kind:function(arm,size=0x108) addr:0x02155bd4
_ZN12ActorUnkFRBS19func_ov078_02153cbcEv kind:function(arm,size=0x80) addr:0x02155cdc
_ZN12ActorUnkFRBS19func_ov078_02153d3cEv kind:function(arm,size=0x1bc) addr:0x02155d5c
_ZN12ActorUnkFRBS19func_ov078_02153ef8Ev kind:function(arm,size=0x20c) addr:0x02155f18
_ZN12ActorUnkFRBS19func_ov078_02154104Ev kind:function(arm,size=0x15c) addr:0x02156124
_ZN12ActorUnkFRBS19func_ov078_02154260Ev kind:function(arm,size=0x29c) addr:0x02156280
_ZN12ActorUnkFRBS19func_ov078_021544fcEv kind:function(arm,size=0x20) addr:0x0215651c
_ZN12ActorUnkFRBS19func_ov078_0215451cEv kind:function(arm,size=0x20) addr:0x0215653c
_ZN12ActorUnkFRBS19func_ov078_0215453cEv kind:function(arm,size=0x25c) addr:0x0215655c
_ZN12ActorUnkFRBS19func_ov078_02154798Ev kind:function(arm,size=0x2c) addr:0x021567b8
_ZN12ActorUnkFRBS19func_ov078_021547c4Ev kind:function(arm,size=0x78) addr:0x021567e4
_ZN12ActorUnkFRBS19func_ov078_0215483cEv kind:function(arm,size=0xe94) addr:0x0215685c
_ZN12ActorUnkFRBS19func_ov078_021556d0Ev kind:function(arm,size=0x7c) addr:0x021576f0
_ZN12ActorUnkFRBS19func_ov078_0215574cEv kind:function(arm,size=0x54) addr:0x0215776c
_ZN12ActorUnkFRBS19func_ov078_021557a0Ev kind:function(arm,size=0x1a0) addr:0x021577c0
_ZN12ActorUnkFRBS19func_ov078_02155940Ev kind:function(arm,size=0x3a4) addr:0x02157960
_ZN12ActorUnkFRBS19func_ov078_02155ce4Ev kind:function(arm,size=0xe0) addr:0x02157d04
_ZN12ActorUnkFRBS19func_ov078_02155dc4Ev kind:function(arm,size=0x68) addr:0x02157de4
_ZN12ActorUnkFRBS19func_ov078_02155e2cEv kind:function(arm,size=0xec) addr:0x02157e4c
_ZN12ActorUnkFRBS19func_ov078_02155f18Ev kind:function(arm,size=0xe0) addr:0x02157f38
_ZN12ActorUnkFRBS19func_ov078_02155ff8Ev kind:function(arm,size=0x78) addr:0x02158018
_ZN12ActorUnkFRBS19func_ov078_02156070Ev kind:function(arm,size=0xa4) addr:0x02158090
_ZN12ActorUnkFRBS19func_ov078_02156114Ev kind:function(arm,size=0xc0) addr:0x02158134
_ZN12ActorUnkFRBS19func_ov078_021561d4Ev kind:function(arm,size=0x24) addr:0x021581f4
_ZN12ActorUnkFRBS19func_ov078_021561f8Ev kind:function(arm,size=0x1c0) addr:0x02158218
_ZN12ActorUnkFRBS19func_ov078_021563b8Ev kind:function(arm,size=0x11c) addr:0x021583d8
_ZN12ActorUnkFRBS19func_ov078_021564d4Ev kind:function(arm,size=0x178) addr:0x021584f4
_ZN12ActorUnkFRBS19func_ov078_0215664cEv kind:function(arm,size=0x1e0) addr:0x0215866c
_ZN12ActorUnkFRBS19func_ov078_0215682cEv kind:function(arm,size=0x84) addr:0x0215884c
_ZN12ActorUnkFRBS19func_ov078_021568b0Ev kind:function(arm,size=0x3e4) addr:0x021588d0
_ZN12ActorUnkFRBS19func_ov078_02156c94Ev kind:function(arm,size=0xa0) addr:0x02158cb4
_ZN12ActorUnkFRBS19func_ov078_02156d34Ev kind:function(arm,size=0x140) addr:0x02158d54
_ZN12ActorUnkFRBS19func_ov078_02156e74Ev kind:function(arm,size=0x230) addr:0x02158e94
_ZN12ActorUnkFRBS19func_ov078_021570a4Ev kind:function(arm,size=0x3d8) addr:0x021590c4
_ZN12ActorUnkFRBS19func_ov078_0215747cEv kind:function(arm,size=0x2c0) addr:0x0215949c
_ZN12ActorUnkFRBS19func_ov078_0215773cEv kind:function(arm,size=0x9d0) addr:0x0215975c
_ZN12ActorUnkFRBS19func_ov078_0215810cEv kind:function(arm,size=0x114) addr:0x0215a12c
_ZN12ActorUnkFRBS19func_ov078_02158220Ev kind:function(arm,size=0x18c) addr:0x0215a240
_ZN12ActorUnkFRBS19func_ov078_021583acEv kind:function(arm,size=0x50) addr:0x0215a3cc
_ZN12ActorUnkFRBS19func_ov078_021583fcEv kind:function(arm,size=0x490) addr:0x0215a41c
_ZN12ActorUnkFRBS19func_ov078_0215888cEv kind:function(arm,size=0xb4) addr:0x0215a8ac
_ZN12ActorUnkFRBS19func_ov078_02158940Ev kind:function(arm,size=0x23c) addr:0x0215a960
_ZN12ActorUnkFRBS19func_ov078_02158b7cEv kind:function(arm,size=0xa8) addr:0x0215ab9c
_ZN12ActorUnkFRBS19func_ov078_02158c24Ev kind:function(arm,size=0x64) addr:0x0215ac44
_ZN12ActorUnkFRBS19func_ov078_02158c88Ev kind:function(arm,size=0xcc) addr:0x0215aca8
_ZN12ActorUnkFRBS19func_ov078_02158d54Ev kind:function(arm,size=0x414) addr:0x0215ad74
_ZN12ActorUnkFRBS19func_ov078_02159168Ev kind:function(arm,size=0xd8) addr:0x0215b188
_ZN12ActorUnkFRBS19func_ov078_02159240Ev kind:function(arm,size=0xd8) addr:0x0215b260
_ZN12ActorUnkFRBS19func_ov078_02159318Ev kind:function(arm,size=0x290) addr:0x0215b338
_ZN12ActorUnkFRBS19func_ov078_021595a8Ev kind:function(arm,size=0x68c) addr:0x0215b5c8
_ZN12ActorUnkFRBS19func_ov078_02159c34Ev kind:function(arm,size=0x184) addr:0x0215bc54
_ZN12ActorUnkFRBS19func_ov078_02159db8Ev kind:function(arm,size=0x45c) addr:0x0215bdd8
_ZN12ActorUnkFRBS19func_ov078_0215a214Ev kind:function(arm,size=0x108) addr:0x0215c234
_ZN12ActorUnkFRBS19func_ov078_0215a31cEv kind:function(arm,size=0x518) addr:0x0215c33c
_ZN12ActorUnkFRBS19func_ov078_0215a834Ev kind:function(arm,size=0x68) addr:0x0215c854
_ZN12ActorUnkFRBS19func_ov078_0215a89cEv kind:function(arm,size=0x30) addr:0x0215c8bc
_ZN12ActorUnkFRBS19func_ov078_0215a8ccEv kind:function(arm,size=0x34) addr:0x0215c8ec
_ZN12ActorUnkFRBS19func_ov078_0215a900Ev kind:function(arm,size=0x6c) addr:0x0215c920
_ZN12ActorUnkFRBS19func_ov078_0215a96cEv kind:function(arm,size=0xb0) addr:0x0215c98c
_ZN12ActorUnkFRBS19func_ov078_0215aa1cEv kind:function(arm,size=0xb8) addr:0x0215ca3c
_ZN12ActorUnkFRBS19func_ov078_0215aad4Ev kind:function(arm,size=0x310) addr:0x0215caf4
_ZN12ActorUnkFRBS19func_ov078_0215ade4Ev kind:function(arm,size=0x48) addr:0x0215ce04
_ZN12ActorUnkFRBS19func_ov078_0215ae2cEv kind:function(arm,size=0x210) addr:0x0215ce4c
_ZN12ActorUnkFRBS19func_ov078_0215b03cEv kind:function(arm,size=0x288) addr:0x0215d05c
_ZN12ActorUnkFRBS19func_ov078_0215b2c4Ev kind:function(arm,size=0x500) addr:0x0215d2e4
_ZN12ActorUnkFRBS19func_ov078_0215b7c4Ev kind:function(arm,size=0x174) addr:0x0215d7e4
_ZN12ActorUnkFRBS19func_ov078_0215b938Ev kind:function(arm,size=0x128) addr:0x0215d958
_ZN12ActorUnkFRBS19func_ov078_0215ba60Ev kind:function(arm,size=0x2b8) addr:0x0215da80
_ZN12ActorUnkFRBS19func_ov078_0215bd18Ev kind:function(arm,size=0xdc) addr:0x0215dd38
_ZN12ActorUnkFRBS19func_ov078_0215bdf4Ev kind:function(arm,size=0x1f0) addr:0x0215de14
_ZN12ActorUnkFRBS19func_ov078_0215bfe4Ev kind:function(arm,size=0xdc) addr:0x0215e004
_ZN12ActorUnkFRBS19func_ov078_0215c0c0Ev kind:function(arm,size=0x90) addr:0x0215e0e0
_ZN12ActorUnkFRBS19func_ov078_0215c150Ev kind:function(arm,size=0xc0) addr:0x0215e170
_ZN12ActorUnkFRBS19func_ov078_0215c210Ev kind:function(arm,size=0xa0) addr:0x0215e230
_ZN12ActorUnkFRBS19func_ov078_0215c2b0Ev kind:function(arm,size=0x14) addr:0x0215e2d0
_ZN12ActorUnkFRBS19func_ov078_0215c2c4Ev kind:function(arm,size=0x34) addr:0x0215e2e4
_ZN12ActorUnkFRBS19func_ov078_0215c2f8Ev kind:function(arm,size=0x84) addr:0x0215e318
_ZN12ActorUnkFRBS19func_ov078_0215c37cEv kind:function(arm,size=0x28) addr:0x0215e39c
_ZN12ActorUnkFRBS19func_ov078_0215c3a4Ev kind:function(arm,size=0x30) addr:0x0215e3c4
_ZN12ActorUnkFRBS19func_ov078_0215c3d4Ev kind:function(arm,size=0x30) addr:0x0215e3f4
_ZN12ActorUnkFRBS19func_ov078_0215c404Ev kind:function(arm,size=0x58) addr:0x0215e424
_ZN12ActorUnkFRBS19func_ov078_0215c45cEv kind:function(arm,size=0x58) addr:0x0215e47c
_ZN12ActorUnkFRBS19func_ov078_0215c4b4Ev kind:function(arm,size=0x64) addr:0x0215e4d4
_ZN12ActorUnkFRBS19func_ov078_0215c518Ev kind:function(arm,size=0x88) addr:0x0215e538
_ZN12ActorUnkFRBS19func_ov078_0215c5a0Ev kind:function(arm,size=0x80) addr:0x0215e5c0
_ZN12ActorUnkFRBS19func_ov078_0215c620Ev kind:function(arm,size=0x38) addr:0x0215e640
_ZN12ActorUnkFRBS19func_ov078_0215c658Ev kind:function(arm,size=0x48) addr:0x0215e678
_ZN12ActorUnkFRBS19func_ov078_0215c6a0Ev kind:function(arm,size=0x144) addr:0x0215e6c0
_ZN12ActorUnkFRBS19func_ov078_0215c7e4Ev kind:function(arm,size=0x284) addr:0x0215e804
_ZN12ActorUnkFRBS19func_ov078_0215ca68Ev kind:function(arm,size=0x54) addr:0x0215ea88
_ZN12ActorUnkFRBS19func_ov078_0215cabcEv kind:function(arm,size=0x24) addr:0x0215eadc
_ZN12ActorUnkFRBS19func_ov078_0215cae0Ev kind:function(arm,size=0x2c) addr:0x0215eb00
_ZN12ActorUnkFRBS19func_ov078_0215cb0cEv kind:function(arm,size=0x1c) addr:0x0215eb2c
_ZN12ActorUnkFRBS19func_ov078_0215cb28Ev kind:function(arm,size=0xb8) addr:0x0215eb48
_ZN12ActorUnkFRBS19func_ov078_0215cbe0Ev kind:function(arm,size=0xc0) addr:0x0215ec00
_ZN19ActorProfileUnkFRBSD1Ev kind:function(arm,size=0x14) addr:0x0215ecc0
_ZN19ActorProfileUnkRBFR10GetProfileEv kind:function(arm,size=0xc) addr:0x0215ecd4
_ZN19ActorProfileUnkRBFR6CreateEv kind:function(arm,size=0x24) addr:0x0215ece0
_ZN19ActorProfileUnkRBFRC1Ev kind:function(arm,size=0x28) addr:0x0215ed04
_ZN12ActorUnkRBFRC1Ev kind:function(arm,size=0x118) addr:0x0215ed2c
_ZN12ActorUnkRBFR19func_ov078_0215ce24Ev kind:function(arm,size=0x14) addr:0x0215ee44
_ZN12ActorUnkRBFR19func_ov078_0215ce38Ev kind:function(arm,size=0x98) addr:0x0215ee58
_ZN12ActorUnkRBFR19func_ov078_0215ced0Ev kind:function(arm,size=0x18) addr:0x0215eef0
_ZN12ActorUnkRBFR19func_ov078_0215cee8Ev kind:function(arm,size=0x14) addr:0x0215ef08
_ZN12ActorUnkRBFR19func_ov078_0215cefcEv kind:function(arm,size=0x34) addr:0x0215ef1c
_ZN12ActorUnkRBFRD0Ev kind:function(arm,size=0x1c) addr:0x0215ef50
_ZN12ActorUnkRBFRD1Ev kind:function(arm,size=0x30) addr:0x0215ef6c
_ZN12ActorUnkRBFR19func_ov078_0215cf7cEv kind:function(arm,size=0x38) addr:0x0215ef9c
_ZN19ActorProfileUnkRBFRD1Ev kind:function(arm,size=0x14) addr:0x0215efd4
_ZN23MapObjectProfileUnkSTSF10GetProfileEv kind:function(arm,size=0xc) addr:0x0215efe8
_ZN23MapObjectProfileUnkSTSF6CreateEv kind:function(arm,size=0x24) addr:0x0215eff4
_ZN23MapObjectProfileUnkSTSFC1Ev kind:function(arm,size=0x4c) addr:0x0215f018
_ZN16MapObjectUnkSTSFC1Ev kind:function(arm,size=0x5c) addr:0x0215f064
_ZN16MapObjectUnkSTSF19func_ov078_0215d0a0Ev kind:function(arm,size=0x54) addr:0x0215f0c0
_ZN16MapObjectUnkSTSF19func_ov078_0215d0f4Ev kind:function(arm,size=0x60) addr:0x0215f114
_ZN16MapObjectUnkSTSFD1Ev kind:function(arm,size=0x28) addr:0x0215f174
_ZN16MapObjectUnkSTSFD0Ev kind:function(arm,size=0x30) addr:0x0215f19c
_ZN23MapObjectProfileUnkSTSFD1Ev kind:function(arm,size=0x14) addr:0x0215f1cc
_ZN19func_ov078_0215f1e0D0Ev kind:function(arm,size=0x1c) addr:0x0215f1e0
func_ov078_0215f1fc kind:function(arm,size=0x10) addr:0x0215f1fc
func_ov078_0215f20c kind:function(arm,size=0x198) addr:0x0215f20c
func_ov078_0215f3a4 kind:function(arm,size=0x24) addr:0x0215f3a4
data_ov078_0215f3ca kind:data(any) addr:0x0215f3ca
data_ov078_0215f3cc kind:data(any) addr:0x0215f3cc
data_ov078_0215f3d4 kind:data(any) addr:0x0215f3d4
data_ov078_0215f3dc kind:data(any) addr:0x0215f3dc
data_ov078_0215f3e0 kind:data(any) addr:0x0215f3e0
data_ov078_0215f3e4 kind:data(any) addr:0x0215f3e4
data_ov078_0215f3e8 kind:data(any) addr:0x0215f3e8
data_ov078_0215f3ec kind:data(any) addr:0x0215f3ec
data_ov078_0215f40c kind:data(any) addr:0x0215f40c
data_ov078_0215f41c kind:data(any) addr:0x0215f41c
__sinit_ActorUnkFRBS.cpp kind:function(arm,size=0xa4) addr:0x0215f42c
__sinit_ActorUnkRBFR.cpp kind:function(arm,size=0x50) addr:0x0215f4d0
__sinit_MapObjectUnkSTSF.cpp kind:function(arm,size=0x50) addr:0x0215f520
.p__sinit_ActorUnkFRBS.cpp kind:data(word) addr:0x0215f570
.p__sinit_ActorUnkRBFR.cpp kind:data(word) addr:0x0215f574
.p__sinit_MapObjectUnkSTSF.cpp kind:data(word) addr:0x0215f578
data_ov078_0215f580 kind:data(any) addr:0x0215f580
data_ov078_0215f584 kind:data(any) addr:0x0215f584
data_ov078_0215f588 kind:data(any) addr:0x0215f588
data_ov078_0215f58c kind:data(any) addr:0x0215f58c
data_ov078_0215f590 kind:data(any) addr:0x0215f590
data_ov078_0215f594 kind:data(any) addr:0x0215f594
data_ov078_0215f598 kind:data(any) addr:0x0215f598
data_ov078_0215f59c kind:data(any) addr:0x0215f59c
data_ov078_0215f5a0 kind:data(any) addr:0x0215f5a0
data_ov078_0215f5a4 kind:data(any) addr:0x0215f5a4
data_ov078_0215f5a8 kind:data(any) addr:0x0215f5a8
data_ov078_0215f5ac kind:data(any) addr:0x0215f5ac
data_ov078_0215f5b0 kind:data(any) addr:0x0215f5b0
data_ov078_0215f5b4 kind:data(any) addr:0x0215f5b4
data_ov078_0215f5b8 kind:data(any) addr:0x0215f5b8
data_ov078_0215f5bc kind:data(any) addr:0x0215f5bc
data_ov078_0215f5c0 kind:data(any) addr:0x0215f5c0
data_ov078_0215f5c4 kind:data(any) addr:0x0215f5c4
data_ov078_0215f5c8 kind:data(any) addr:0x0215f5c8
data_ov078_0215f5cc kind:data(any) addr:0x0215f5cc
data_ov078_0215f5d0 kind:data(any) addr:0x0215f5d0
data_ov078_0215f5e8 kind:data(any) addr:0x0215f5e8
data_ov078_0215f600 kind:data(any) addr:0x0215f600
data_ov078_0215f634 kind:data(any) addr:0x0215f634
data_ov078_0215f640 kind:data(any) addr:0x0215f640
data_ov078_0215f658 kind:data(any) addr:0x0215f658
_ZTV19data_ov078_0215f65c kind:data(any) addr:0x0215f65c ambiguous
data_ov078_0215f67c kind:data(any) addr:0x0215f67c
_ZTV19data_ov078_0215f6c0 kind:data(any) addr:0x0215f6c0
data_ov078_0215f71c kind:data(any) addr:0x0215f71c ambiguous
data_ov078_0215f720 kind:data(any) addr:0x0215f720
data_ov078_0215f768 kind:data(any) addr:0x0215f768 ambiguous
data_ov078_0215f7d0 kind:data(any) addr:0x0215f7d0
data_ov078_0215f880 kind:data(any) addr:0x0215f880
data_ov078_0215f898 kind:data(any) addr:0x0215f898
data_ov078_0215f8b0 kind:data(any) addr:0x0215f8b0
data_ov078_0215f8c8 kind:data(any) addr:0x0215f8c8
data_ov078_0215f8e0 kind:data(any) addr:0x0215f8e0
data_ov078_0215f8f8 kind:data(any) addr:0x0215f8f8
data_ov078_0215f910 kind:data(any) addr:0x0215f910
data_ov078_0215f928 kind:data(any) addr:0x0215f928
data_ov078_0215f940 kind:data(any) addr:0x0215f940
data_ov078_0215f958 kind:data(any) addr:0x0215f958
data_ov078_0215f970 kind:data(any) addr:0x0215f970
data_ov078_0215f988 kind:data(any) addr:0x0215f988
data_ov078_0215f9a0 kind:data(any) addr:0x0215f9a0
data_ov078_0215f9b8 kind:data(any) addr:0x0215f9b8
data_ov078_0215f9bc kind:data(any) addr:0x0215f9bc ambiguous
data_ov078_0215f9d0 kind:data(any) addr:0x0215f9d0
data_ov078_0215f9e8 kind:data(any) addr:0x0215f9e8
data_ov078_0215fa00 kind:data(any) addr:0x0215fa00
data_ov078_0215fa18 kind:data(any) addr:0x0215fa18
data_ov078_0215fa30 kind:data(any) addr:0x0215fa30
data_ov078_0215fa78 kind:data(any) addr:0x0215fa78
data_ov078_0215fa90 kind:data(any) addr:0x0215fa90
data_ov078_0215faa8 kind:data(any) addr:0x0215faa8
data_ov078_0215fac0 kind:data(any) addr:0x0215fac0
data_ov078_0215fad8 kind:data(any) addr:0x0215fad8
data_ov078_0215faf0 kind:data(any) addr:0x0215faf0
data_ov078_0215fb08 kind:data(any) addr:0x0215fb08
_ZTV19data_ov078_0215fb20 kind:data(any) addr:0x0215fb20
data_ov078_0215fb4c kind:data(any) addr:0x0215fb4c
_ZTV19data_ov078_0215fb90 kind:data(any) addr:0x0215fb90
data_ov078_0215fbf4 kind:data(any) addr:0x0215fbf4
data_ov078_0215fc1c kind:data(any) addr:0x0215fc1c
data_ov078_0215fc8c kind:data(any) addr:0x0215fc8c
data_ov078_0215fca0 kind:bss addr:0x0215fca0
data_ov078_0215fcb0 kind:bss addr:0x0215fcb0
data_ov078_0215fcbc kind:bss addr:0x0215fcbc
_ZGVN15ProfileInstanceI19ActorProfileUnkFRBSE8sProfileE kind:bss addr:0x0215fcc8
@33518 kind:bss addr:0x0215fcd4
_ZN15ProfileInstanceI19ActorProfileUnkFRBSE8sProfileE kind:bss addr:0x0215fd04
data_ov078_0215fd74 kind:bss addr:0x0215fd74 ambiguous
data_ov078_0215fdcc kind:bss addr:0x0215fdcc ambiguous
_ZGVN15ProfileInstanceI19ActorProfileUnkRBFRE8sProfileE kind:bss addr:0x0215fddc
@33524 kind:bss addr:0x0215fde0
_ZN15ProfileInstanceI19ActorProfileUnkRBFRE8sProfileE kind:bss addr:0x0215fdec
_ZGVN15ProfileInstanceI23MapObjectProfileUnkSTSFE8sProfileE kind:bss addr:0x0215fec4
@32992 kind:bss addr:0x0215fec8
_ZN15ProfileInstanceI23MapObjectProfileUnkSTSFE8sProfileE kind:bss addr:0x0215fed4
