_ZN23MapObjectProfileUnkTMFR10GetProfileEv kind:function(arm,size=0xc) addr:0x02143d60
_ZN23MapObjectProfileUnkTMFR6CreateEv kind:function(arm,size=0x24) addr:0x02143d6c
_ZN23MapObjectProfileUnkTMFRC1Ev kind:function(arm,size=0x40) addr:0x02143d90
_ZN16MapObjectUnkTMFRC1Ev kind:function(arm,size=0x60) addr:0x02143dd0
_ZN16MapObjectUnkTMFR19func_ov027_02141ab0Ev kind:function(arm,size=0x14) addr:0x02143e30
_ZN16MapObjectUnkTMFR19func_ov027_02141ac4Ev kind:function(arm,size=0x10c) addr:0x02143e44
_ZN16MapObjectUnkTMFR19func_ov027_02141bd0Ev kind:function(arm,size=0xe8) addr:0x02143f50
_ZN16MapObjectUnkTMFR19func_ov027_02141cb8Ev kind:function(arm,size=0x8) addr:0x02144038
_ZN16MapObjectUnkTMFR19func_ov027_02141cc0Ev kind:function(arm,size=0x8) addr:0x02144040
_ZN16MapObjectUnkTMFR19func_ov027_02141cc8Ev kind:function(arm,size=0x4) addr:0x02144048
_ZN16MapObjectUnkTMFR19func_ov027_02141cccEv kind:function(arm,size=0x160) addr:0x0214404c
_ZN16MapObjectUnkTMFR19func_ov027_02141e2cEv kind:function(arm,size=0xc) addr:0x021441ac
_ZN16MapObjectUnkTMFR19func_ov027_02141e38Ev kind:function(arm,size=0xc) addr:0x021441b8
_ZN16MapObjectUnkTMFR19func_ov027_02141e44Ev kind:function(arm,size=0x8c) addr:0x021441c4
_ZN16MapObjectUnkTMFR19func_ov027_02141ed0Ev kind:function(arm,size=0x40) addr:0x02144250
_ZN16MapObjectUnkTMFR19func_ov027_02141f10Ev kind:function(arm,size=0x20) addr:0x02144290
_ZN16MapObjectUnkTMFR19func_ov027_02141f30Ev kind:function(arm,size=0x20) addr:0x021442b0
_ZN16MapObjectUnkTMFRD0Ev kind:function(arm,size=0x1c) addr:0x021442d0
_ZN16MapObjectUnkTMFRD1Ev kind:function(arm,size=0x28) addr:0x021442ec
_ZN16MapObjectUnkTMFR19func_ov027_02141f94Ev kind:function(arm,size=0x30) addr:0x02144314
_ZN16MapObjectUnkTMFR19func_ov027_02141fc4Ev kind:function(arm,size=0x28) addr:0x02144344
_ZN16MapObjectUnkTMFRD2Ev kind:function(arm,size=0x20) addr:0x0214436c
_ZN23MapObjectProfileUnkTMFRD1Ev kind:function(arm,size=0x14) addr:0x0214438c
_ZN23MapObjectProfileUnkTRFV10GetProfileEv kind:function(arm,size=0xc) addr:0x021443a0
_ZN23MapObjectProfileUnkTRFV6CreateEv kind:function(arm,size=0x24) addr:0x021443ac
_ZN23MapObjectProfileUnkTRFVC1Ev kind:function(arm,size=0x40) addr:0x021443d0
_ZN16MapObjectUnkTRFVC1Ev kind:function(arm,size=0x44) addr:0x02144410
_ZN16MapObjectUnkTRFV19func_ov027_021420d4Ev kind:function(arm,size=0xec) addr:0x02144454
_ZN16MapObjectUnkTRFV19func_ov027_021421c0Ev kind:function(arm,size=0x110) addr:0x02144540
_ZN16MapObjectUnkTRFV19func_ov027_021422d0Ev kind:function(arm,size=0x38) addr:0x02144650
_ZN16MapObjectUnkTRFV19func_ov027_02142308Ev kind:function(arm,size=0x18) addr:0x02144688
_ZN16MapObjectUnkTRFV19func_ov027_02142320Ev kind:function(arm,size=0x40) addr:0x021446a0
_ZN16MapObjectUnkTRFV19func_ov027_02142360Ev kind:function(arm,size=0x20) addr:0x021446e0
_ZN16MapObjectUnkTRFV19func_ov027_02142380Ev kind:function(arm,size=0x20) addr:0x02144700
_ZN16MapObjectUnkTRFV19func_ov027_021423a0Ev kind:function(arm,size=0xc) addr:0x02144720
_ZN16MapObjectUnkTRFVD1Ev kind:function(arm,size=0x28) addr:0x0214472c
_ZN16MapObjectUnkTRFVD0Ev kind:function(arm,size=0x30) addr:0x02144754
_ZN23MapObjectProfileUnkTRFVD1Ev kind:function(arm,size=0x14) addr:0x02144784
_ZN23MapObjectProfileUnkTRFO10GetProfileEv kind:function(arm,size=0xc) addr:0x02144798
_ZN23MapObjectProfileUnkTRFO6CreateEv kind:function(arm,size=0x24) addr:0x021447a4
_ZN23MapObjectProfileUnkTRFOC1Ev kind:function(arm,size=0x38) addr:0x021447c8
_ZN16MapObjectUnkTRFOC1Ev kind:function(arm,size=0x44) addr:0x02144800
_ZN16MapObjectUnkTRFO19func_ov027_021424c4Ev kind:function(arm,size=0xec) addr:0x02144844
_ZN16MapObjectUnkTRFO19func_ov027_021425b0Ev kind:function(arm,size=0x6c) addr:0x02144930
_ZN16MapObjectUnkTRFO19func_ov027_0214261cEv kind:function(arm,size=0x18) addr:0x0214499c
_ZN16MapObjectUnkTRFO19func_ov027_02142634Ev kind:function(arm,size=0x40) addr:0x021449b4
_ZN16MapObjectUnkTRFO19func_ov027_02142674Ev kind:function(arm,size=0x20) addr:0x021449f4
_ZN16MapObjectUnkTRFO19func_ov027_02142694Ev kind:function(arm,size=0x20) addr:0x02144a14
_ZN16MapObjectUnkTRFO19func_ov027_021426b4Ev kind:function(arm,size=0x8) addr:0x02144a34
_ZN16MapObjectUnkTRFOD1Ev kind:function(arm,size=0x20) addr:0x02144a3c
_ZN16MapObjectUnkTRFOD0Ev kind:function(arm,size=0x28) addr:0x02144a5c
_ZN23MapObjectProfileUnkTRFOD1Ev kind:function(arm,size=0x14) addr:0x02144a84
_ZN23MapObjectProfileUnkTRSH10GetProfileEv kind:function(arm,size=0xc) addr:0x02144a98
_ZN23MapObjectProfileUnkTRSH6CreateEv kind:function(arm,size=0x24) addr:0x02144aa4
_ZN23MapObjectProfileUnkTRSHC1Ev kind:function(arm,size=0x54) addr:0x02144ac8
_ZN16MapObjectUnkTRSHC1Ev kind:function(arm,size=0x44) addr:0x02144b1c
_ZN16MapObjectUnkTRSH19func_ov027_021427e0Ev kind:function(arm,size=0xec) addr:0x02144b60
_ZN16MapObjectUnkTRSH19func_ov027_021428ccEv kind:function(arm,size=0x6c) addr:0x02144c4c
_ZN16MapObjectUnkTRSH19func_ov027_02142938Ev kind:function(arm,size=0x18) addr:0x02144cb8
_ZN16MapObjectUnkTRSH19func_ov027_02142950Ev kind:function(arm,size=0x40) addr:0x02144cd0
_ZN16MapObjectUnkTRSH19func_ov027_02142990Ev kind:function(arm,size=0x20) addr:0x02144d10
_ZN16MapObjectUnkTRSH19func_ov027_021429b0Ev kind:function(arm,size=0x20) addr:0x02144d30
_ZN16MapObjectUnkTRSH19func_ov027_021429d0Ev kind:function(arm,size=0x8) addr:0x02144d50
_ZN16MapObjectUnkTRSHD1Ev kind:function(arm,size=0x20) addr:0x02144d58
_ZN16MapObjectUnkTRSHD0Ev kind:function(arm,size=0x28) addr:0x02144d78
_ZN23MapObjectProfileUnkTRSHD1Ev kind:function(arm,size=0x14) addr:0x02144da0
_ZN23MapObjectProfileUnkTRBR10GetProfileEv kind:function(arm,size=0xc) addr:0x02144db4
_ZN23MapObjectProfileUnkTRBR6CreateEv kind:function(arm,size=0x24) addr:0x02144dc0
_ZN23MapObjectProfileUnkTRBRC1Ev kind:function(arm,size=0x38) addr:0x02144de4
_ZN16MapObjectUnkTRBRC1Ev kind:function(arm,size=0x3c) addr:0x02144e1c
_ZN16MapObjectUnkTRBR19func_ov027_02142ad8Ev kind:function(arm,size=0xec) addr:0x02144e58
_ZN16MapObjectUnkTRBR19func_ov027_02142bc4Ev kind:function(arm,size=0x74) addr:0x02144f44
_ZN16MapObjectUnkTRBR19func_ov027_02142c38Ev kind:function(arm,size=0x18) addr:0x02144fb8
_ZN16MapObjectUnkTRBR19func_ov027_02142c50Ev kind:function(arm,size=0x40) addr:0x02144fd0
_ZN16MapObjectUnkTRBR19func_ov027_02142c90Ev kind:function(arm,size=0x20) addr:0x02145010
_ZN16MapObjectUnkTRBR19func_ov027_02142cb0Ev kind:function(arm,size=0x20) addr:0x02145030
_ZN16MapObjectUnkTRBR19func_ov027_02142cd0Ev kind:function(arm,size=0x8) addr:0x02145050
_ZN16MapObjectUnkTRBRD1Ev kind:function(arm,size=0x20) addr:0x02145058
_ZN16MapObjectUnkTRBRD0Ev kind:function(arm,size=0x28) addr:0x02145078
_ZN23MapObjectProfileUnkTRBRD1Ev kind:function(arm,size=0x14) addr:0x021450a0
_ZN23MapObjectProfileUnkTRDA10GetProfileEv kind:function(arm,size=0xc) addr:0x021450b4
_ZN23MapObjectProfileUnkTRDA6CreateEv kind:function(arm,size=0x24) addr:0x021450c0
_ZN23MapObjectProfileUnkTRDAC1Ev kind:function(arm,size=0x38) addr:0x021450e4
_ZN16MapObjectUnkTRDAC1Ev kind:function(arm,size=0xa0) addr:0x0214511c
_ZN16MapObjectUnkTRDA19func_ov027_02142e3cEv kind:function(arm,size=0xec) addr:0x021451bc
_ZN16MapObjectUnkTRDA19func_ov027_02142f28Ev kind:function(arm,size=0x20) addr:0x021452a8
_ZN16MapObjectUnkTRDA19func_ov027_02142f48Ev kind:function(arm,size=0x20) addr:0x021452c8
_ZN16MapObjectUnkTRDA19func_ov027_02142f68Ev kind:function(arm,size=0x20) addr:0x021452e8
_ZN16MapObjectUnkTRDA19func_ov027_02142f88Ev kind:function(arm,size=0x8) addr:0x02145308
_ZN16MapObjectUnkTRDAD1Ev kind:function(arm,size=0x20) addr:0x02145310
_ZN16MapObjectUnkTRDAD0Ev kind:function(arm,size=0x28) addr:0x02145330
_ZN23MapObjectProfileUnkTRDAD1Ev kind:function(arm,size=0x14) addr:0x02145358
_ZN23MapObjectProfileUnkETDK10GetProfileEv kind:function(arm,size=0xc) addr:0x0214536c
_ZN23MapObjectProfileUnkETDK6CreateEv kind:function(arm,size=0x24) addr:0x02145378
_ZN23MapObjectProfileUnkETDKC1Ev kind:function(arm,size=0x50) addr:0x0214539c
_ZN16MapObjectUnkETDKC1Ev kind:function(arm,size=0x70) addr:0x021453ec
_ZN16MapObjectUnkETDK19func_ov027_021430dcEv kind:function(arm,size=0x1f0) addr:0x0214545c
_ZN16MapObjectUnkETDK19func_ov027_021432ccEv kind:function(arm,size=0xe8) addr:0x0214564c
_ZN16MapObjectUnkETDK19func_ov027_021433b4Ev kind:function(arm,size=0x8) addr:0x02145734
_ZN16MapObjectUnkETDK19func_ov027_021433bcEv kind:function(arm,size=0x8) addr:0x0214573c
_ZN16MapObjectUnkETDK19func_ov027_021433c4Ev kind:function(arm,size=0x4) addr:0x02145744
_ZN16MapObjectUnkETDK19func_ov027_021433c8Ev kind:function(arm,size=0x114) addr:0x02145748
_ZN16MapObjectUnkETDK19func_ov027_021434dcEv kind:function(arm,size=0x12c) addr:0x0214585c
_ZN16MapObjectUnkETDK19func_ov027_021435f0Ev kind:function(arm,size=0x14) addr:0x02145988
_ZN16MapObjectUnkETDK19func_ov027_02143604Ev kind:function(arm,size=0x64) addr:0x0214599c
_ZN16MapObjectUnkETDK19func_ov027_02143668Ev kind:function(arm,size=0x8) addr:0x02145a00
_ZN16MapObjectUnkETDK19func_ov027_02143670Ev kind:function(arm,size=0x8) addr:0x02145a08
_ZN16MapObjectUnkETDK19func_ov027_02143678Ev kind:function(arm,size=0x8) addr:0x02145a10
_ZN16MapObjectUnkETDK19func_ov027_02143680Ev kind:function(arm,size=0x38) addr:0x02145a18
_ZN16MapObjectUnkETDK19func_ov027_021436b8Ev kind:function(arm,size=0x2c) addr:0x02145a50
_ZN16MapObjectUnkETDK19func_ov027_021436e4Ev kind:function(arm,size=0x40) addr:0x02145a7c
_ZN16MapObjectUnkETDK19func_ov027_02143724Ev kind:function(arm,size=0x20) addr:0x02145abc
_ZN16MapObjectUnkETDK19func_ov027_02143744Ev kind:function(arm,size=0x20) addr:0x02145adc
_ZN16MapObjectUnkETDKD1Ev kind:function(arm,size=0x40) addr:0x02145afc
_ZN16MapObjectUnkETDKD0Ev kind:function(arm,size=0x48) addr:0x02145b3c
_ZN16MapObjectUnkETDK19func_ov027_021437ecEv kind:function(arm,size=0x40) addr:0x02145b84
_ZN16MapObjectUnkETDKD2Ev kind:function(arm,size=0x38) addr:0x02145bc4
_ZN23MapObjectProfileUnkETDKD1Ev kind:function(arm,size=0x14) addr:0x02145bfc
_ZN23MapObjectProfileUnkTRRA10GetProfileEv kind:function(arm,size=0xc) addr:0x02145c10
_ZN23MapObjectProfileUnkTRRA6CreateEv kind:function(arm,size=0x24) addr:0x02145c1c
_ZN23MapObjectProfileUnkTRRAC1Ev kind:function(arm,size=0x5c) addr:0x02145c40
_ZN16MapObjectUnkTRRAC1Ev kind:function(arm,size=0x3c) addr:0x02145c9c
_ZN16MapObjectUnkTRRA19func_ov027_02143940Ev kind:function(arm,size=0xec) addr:0x02145cd8
_ZN16MapObjectUnkTRRA19func_ov027_02143a2cEv kind:function(arm,size=0x74) addr:0x02145dc4
_ZN16MapObjectUnkTRRA19func_ov027_02143aa0Ev kind:function(arm,size=0x18) addr:0x02145e38
_ZN16MapObjectUnkTRRA19func_ov027_02143ab8Ev kind:function(arm,size=0x40) addr:0x02145e50
_ZN16MapObjectUnkTRRA19func_ov027_02143af8Ev kind:function(arm,size=0x20) addr:0x02145e90
_ZN16MapObjectUnkTRRA19func_ov027_02143b18Ev kind:function(arm,size=0x20) addr:0x02145eb0
_ZN16MapObjectUnkTRRA19func_ov027_02143b38Ev kind:function(arm,size=0xc) addr:0x02145ed0
_ZN16MapObjectUnkTRRAD1Ev kind:function(arm,size=0x20) addr:0x02145edc
_ZN16MapObjectUnkTRRAD0Ev kind:function(arm,size=0x28) addr:0x02145efc
_ZN23MapObjectProfileUnkTRRAD1Ev kind:function(arm,size=0x14) addr:0x02145f24
_ZN23MapObjectProfileUnkCSTL10GetProfileEv kind:function(arm,size=0xc) addr:0x02145f38
_ZN23MapObjectProfileUnkCSTL6CreateEv kind:function(arm,size=0x24) addr:0x02145f44
_ZN23MapObjectProfileUnkCSTLC1Ev kind:function(arm,size=0x5c) addr:0x02145f68
_ZN16MapObjectUnkCSTLC1Ev kind:function(arm,size=0x44) addr:0x02145fc4
_ZN16MapObjectUnkCSTL19func_ov027_02143c70Ev kind:function(arm,size=0xec) addr:0x02146008
_ZN16MapObjectUnkCSTL19func_ov027_02143d5cEv kind:function(arm,size=0x6c) addr:0x021460f4
_ZN16MapObjectUnkCSTL19func_ov027_02143dc8Ev kind:function(arm,size=0x18) addr:0x02146160
_ZN16MapObjectUnkCSTL19func_ov027_02143de0Ev kind:function(arm,size=0x8) addr:0x02146178
_ZN16MapObjectUnkCSTL19func_ov027_02143de8Ev kind:function(arm,size=0x40) addr:0x02146180
_ZN16MapObjectUnkCSTL19func_ov027_02143e28Ev kind:function(arm,size=0x20) addr:0x021461c0
_ZN16MapObjectUnkCSTL19func_ov027_02143e48Ev kind:function(arm,size=0x20) addr:0x021461e0
_ZN16MapObjectUnkCSTLD1Ev kind:function(arm,size=0x20) addr:0x02146200
_ZN16MapObjectUnkCSTLD0Ev kind:function(arm,size=0x28) addr:0x02146220
_ZN23MapObjectProfileUnkCSTLD1Ev kind:function(arm,size=0x14) addr:0x02146248
_ZN23MapObjectProfileUnkMBRG10GetProfileEv kind:function(arm,size=0xc) addr:0x0214625c
_ZN23MapObjectProfileUnkMBRG6CreateEv kind:function(arm,size=0x24) addr:0x02146268
_ZN23MapObjectProfileUnkMBRGC1Ev kind:function(arm,size=0x54) addr:0x0214628c
_ZN16MapObjectUnkMBRGC1Ev kind:function(arm,size=0x34) addr:0x021462e0
_ZN16MapObjectUnkMBRG19func_ov027_02143f7cEv kind:function(arm,size=0x98) addr:0x02146314
_ZN16MapObjectUnkMBRG19func_ov027_02144014Ev kind:function(arm,size=0x88) addr:0x021463ac
_ZN16MapObjectUnkMBRG19func_ov027_0214409cEv kind:function(arm,size=0x10c) addr:0x02146434
_ZN16MapObjectUnkMBRG19func_ov027_021441a8Ev kind:function(arm,size=0x60) addr:0x02146540
_ZN16MapObjectUnkMBRGD1Ev kind:function(arm,size=0x20) addr:0x021465a0
_ZN16MapObjectUnkMBRGD0Ev kind:function(arm,size=0x28) addr:0x021465c0
_ZN23MapObjectProfileUnkMBRGD1Ev kind:function(arm,size=0x14) addr:0x021465e8
_ZN19func_ov027_021465fcD0Ev kind:function(arm,size=0x1c) addr:0x021465fc
_ZN23MapObjectProfileUnkMZFE10GetProfileEv kind:function(arm,size=0xc) addr:0x02146618
_ZN23MapObjectProfileUnkMZFE6CreateEv kind:function(arm,size=0x24) addr:0x02146624
_ZN23MapObjectProfileUnkMZFEC1Ev kind:function(arm,size=0x2c) addr:0x02146648
_ZN16MapObjectUnkMZFEC1Ev kind:function(arm,size=0x9c) addr:0x02146674
_ZN16MapObjectUnkMZFE19func_ov027_02144378Ev kind:function(arm,size=0x1d4) addr:0x02146710
_ZN16MapObjectUnkMZFE19func_ov027_0214454cEv kind:function(arm,size=0xcc) addr:0x021468e4
_ZN16MapObjectUnkMZFE19func_ov027_02144618Ev kind:function(arm,size=0x4c) addr:0x021469b0
_ZN16MapObjectUnkMZFE19func_ov027_02144664Ev kind:function(arm,size=0x50) addr:0x021469fc
_ZN16MapObjectUnkMZFE19func_ov027_021446b4Ev kind:function(arm,size=0x84) addr:0x02146a4c
_ZN16MapObjectUnkMZFE19func_ov027_02144738Ev kind:function(arm,size=0x3c) addr:0x02146ad0
_ZN16MapObjectUnkMZFE19func_ov027_02144774Ev kind:function(arm,size=0x8) addr:0x02146b0c
_ZN16MapObjectUnkMZFED1Ev kind:function(arm,size=0x40) addr:0x02146b14
_ZN16MapObjectUnkMZFED0Ev kind:function(arm,size=0x48) addr:0x02146b54
_ZN23MapObjectProfileUnkMZFED1Ev kind:function(arm,size=0x14) addr:0x02146b9c
_ZN19ActorProfileUnkTRER10GetProfileEv kind:function(arm,size=0xc) addr:0x02146bb0
_ZN19ActorProfileUnkTRER6CreateEv kind:function(arm,size=0x24) addr:0x02146bbc
_ZN19ActorProfileUnkTRERC1Ev kind:function(arm,size=0x4c) addr:0x02146be0
_ZN12ActorUnkTRERC1Ev kind:function(arm,size=0xb0) addr:0x02146c2c
_ZN12ActorUnkTRER19func_ov027_02144944Ev kind:function(arm,size=0x98) addr:0x02146cdc
_ZN12ActorUnkTRER19func_ov027_021449dcEv kind:function(arm,size=0x3c) addr:0x02146d74
_ZN12ActorUnkTRER19func_ov027_02144a18Ev kind:function(arm,size=0x2d8) addr:0x02146db0
_ZN12ActorUnkTRER19func_ov027_02144cf0Ev kind:function(arm,size=0x58) addr:0x02147088
_ZN12ActorUnkTRER19func_ov027_02144d48Ev kind:function(arm,size=0x70) addr:0x021470e0
_ZN12ActorUnkTRER19func_ov027_02144db8Ev kind:function(arm,size=0x114) addr:0x02147150
_ZN12ActorUnkTRER19func_ov027_02144eccEv kind:function(arm,size=0x4) addr:0x02147264
_ZN12ActorUnkTRER19func_ov027_02144ed0Ev kind:function(arm,size=0x78) addr:0x02147268
_ZN12ActorUnkTRER19func_ov027_02144f48Ev kind:function(arm,size=0x4) addr:0x021472e0
_ZN12ActorUnkTRER19func_ov027_02144f4cEv kind:function(arm,size=0xc) addr:0x021472e4
_ZN12ActorUnkTRER19func_ov027_02144f58Ev kind:function(arm,size=0x4) addr:0x021472f0
_ZN12ActorUnkTRER19func_ov027_02144f5cEv kind:function(arm,size=0x40) addr:0x021472f4
_ZN12ActorUnkTRER19func_ov027_02144f9cEv kind:function(arm,size=0xb0) addr:0x02147334
_ZN12ActorUnkTRERD1Ev kind:function(arm,size=0x20) addr:0x021473e4
_ZN12ActorUnkTRERD0Ev kind:function(arm,size=0x28) addr:0x02147404
_ZN19ActorProfileUnkTRERD1Ev kind:function(arm,size=0x14) addr:0x0214742c
_ZN19ActorProfileUnkFKTR10GetProfileEv kind:function(arm,size=0xc) addr:0x02147440
_ZN19ActorProfileUnkFKTR6CreateEv kind:function(arm,size=0x24) addr:0x0214744c
_ZN19ActorProfileUnkFKTRC1Ev kind:function(arm,size=0x6c) addr:0x02147470
_ZN12ActorUnkFKTR19func_ov027_02145144Ev kind:function(arm,size=0x10) addr:0x021474dc
_ZN12ActorUnkFKTRC1Ev kind:function(arm,size=0x204) addr:0x021474ec
_ZN12ActorUnkFKTR19func_ov027_02145358Ev kind:function(arm,size=0x40) addr:0x021476f0
_ZN12ActorUnkFKTR19func_ov027_02145398Ev kind:function(arm,size=0x14) addr:0x02147730
_ZN12ActorUnkFKTR19func_ov027_021453acEv kind:function(arm,size=0x54) addr:0x02147744
_ZN12ActorUnkFKTR19func_ov027_02145400Ev kind:function(arm,size=0x14) addr:0x02147798
_ZN12ActorUnkFKTRD1Ev kind:function(arm,size=0xec) addr:0x021477ac
_ZN12ActorUnkFKTRD0Ev kind:function(arm,size=0xf4) addr:0x02147898
_ZN12ActorUnkFKTR19func_ov027_021455f4Ev kind:function(arm,size=0x50) addr:0x0214798c
_ZN12ActorUnkFKTR19func_ov027_02145644Ev kind:function(arm,size=0x124) addr:0x021479dc
_ZN12ActorUnkFKTR19func_ov027_02145768Ev kind:function(arm,size=0x20) addr:0x02147b00
_ZN12ActorUnkFKTR19func_ov027_02145788Ev kind:function(arm,size=0x20) addr:0x02147b20
_ZN12ActorUnkFKTR19func_ov027_021457a8Ev kind:function(arm,size=0x144) addr:0x02147b40
_ZN12ActorUnkFKTR19func_ov027_021458ecEv kind:function(arm,size=0x148) addr:0x02147c84
_ZN12ActorUnkFKTR19func_ov027_02145a34Ev kind:function(arm,size=0x4) addr:0x02147dcc
_ZN12ActorUnkFKTR19func_ov027_02145a38Ev kind:function(arm,size=0x314) addr:0x02147dd0
_ZN12ActorUnkFKTR19func_ov027_02145d4cEv kind:function(arm,size=0x1e0) addr:0x021480e4
_ZN12ActorUnkFKTR19func_ov027_02145f2cEv kind:function(arm,size=0x48) addr:0x021482c4
_ZN12ActorUnkFKTR19func_ov027_02145f74Ev kind:function(arm,size=0x44) addr:0x0214830c
_ZN12ActorUnkFKTR19func_ov027_02145fb8Ev kind:function(arm,size=0x84) addr:0x02148350
_ZN12ActorUnkFKTR19func_ov027_0214603cEv kind:function(arm,size=0x21c) addr:0x021483d4
_ZN12ActorUnkFKTR19func_ov027_02146258Ev kind:function(arm,size=0xf4) addr:0x021485f0
_ZN12ActorUnkFKTR19func_ov027_0214634cEv kind:function(arm,size=0x290) addr:0x021486e4
_ZN12ActorUnkFKTR19func_ov027_021465dcEv kind:function(arm,size=0x4c0) addr:0x02148974
_ZN12ActorUnkFKTR19func_ov027_02146a9cEv kind:function(arm,size=0x2c) addr:0x02148e34
_ZN12ActorUnkFKTR19func_ov027_02146ac8Ev kind:function(arm,size=0x68) addr:0x02148e60
_ZN12ActorUnkFKTR19func_ov027_02146b30Ev kind:function(arm,size=0xd4) addr:0x02148ec8
_ZN12ActorUnkFKTR19func_ov027_02146c04Ev kind:function(arm,size=0x14) addr:0x02148f9c
_ZN12ActorUnkFKTR19func_ov027_02146c18Ev kind:function(arm,size=0x4) addr:0x02148fb0
_ZN12ActorUnkFKTR19func_ov027_02146c1cEv kind:function(arm,size=0x168) addr:0x02148fb4
_ZN12ActorUnkFKTR19func_ov027_02146d84Ev kind:function(arm,size=0xa4) addr:0x0214911c
_ZN12ActorUnkFKTR19func_ov027_02146e28Ev kind:function(arm,size=0x3c) addr:0x021491c0
_ZN12ActorUnkFKTR19func_ov027_02146e64Ev kind:function(arm,size=0xa8) addr:0x021491fc
_ZN12ActorUnkFKTR19func_ov027_02146f0cEv kind:function(arm,size=0x128) addr:0x021492a4
_ZN12ActorUnkFKTR19func_ov027_02147034Ev kind:function(arm,size=0x13c) addr:0x021493cc
_ZN12ActorUnkFKTR19func_ov027_02147170Ev kind:function(arm,size=0x1c) addr:0x02149508
_ZN12ActorUnkFKTR19func_ov027_0214718cEv kind:function(arm,size=0x114) addr:0x02149524
_ZN12ActorUnkFKTR19func_ov027_021472a0Ev kind:function(arm,size=0x1c) addr:0x02149638
_ZN12ActorUnkFKTR19func_ov027_021472bcEv kind:function(arm,size=0x1ac) addr:0x02149654
_ZN12ActorUnkFKTR19func_ov027_02147468Ev kind:function(arm,size=0x3c) addr:0x02149800
_ZN12ActorUnkFKTR19func_ov027_021474a4Ev kind:function(arm,size=0x90) addr:0x0214983c
_ZN12ActorUnkFKTR19func_ov027_02147534Ev kind:function(arm,size=0x48) addr:0x021498cc
_ZN12ActorUnkFKTR19func_ov027_0214757cEv kind:function(arm,size=0xd8) addr:0x02149914
_ZN12ActorUnkFKTR19func_ov027_02147654Ev kind:function(arm,size=0xec) addr:0x021499ec
_ZN12ActorUnkFKTR19func_ov027_02147740Ev kind:function(arm,size=0xbc) addr:0x02149ad8
_ZN12ActorUnkFKTR19func_ov027_021477fcEv kind:function(arm,size=0x44) addr:0x02149b94
_ZN12ActorUnkFKTR19func_ov027_02147840Ev kind:function(arm,size=0xac) addr:0x02149bd8
_ZN12ActorUnkFKTR19func_ov027_021478ecEv kind:function(arm,size=0x5c) addr:0x02149c84
_ZN12ActorUnkFKTR19func_ov027_02147948Ev kind:function(arm,size=0xbc) addr:0x02149ce0
_ZN12ActorUnkFKTR19func_ov027_02147a04Ev kind:function(arm,size=0x44) addr:0x02149d9c
_ZN12ActorUnkFKTR19func_ov027_02147a48Ev kind:function(arm,size=0xac) addr:0x02149de0
_ZN12ActorUnkFKTR19func_ov027_02147af4Ev kind:function(arm,size=0x2c) addr:0x02149e8c
_ZN12ActorUnkFKTR19func_ov027_02147b20Ev kind:function(arm,size=0x120) addr:0x02149eb8
_ZN12ActorUnkFKTR19func_ov027_02147c40Ev kind:function(arm,size=0x15c) addr:0x02149fd8
_ZN12ActorUnkFKTR19func_ov027_02147d9cEv kind:function(arm,size=0x88) addr:0x0214a134
_ZN12ActorUnkFKTR19func_ov027_02147e24Ev kind:function(arm,size=0x24) addr:0x0214a1bc
_ZN12ActorUnkFKTR19func_ov027_02147e48Ev kind:function(arm,size=0x2c) addr:0x0214a1e0
_ZN12ActorUnkFKTR19func_ov027_02147e74Ev kind:function(arm,size=0x24) addr:0x0214a20c
_ZN12ActorUnkFKTR19func_ov027_02147e98Ev kind:function(arm,size=0x10) addr:0x0214a230
_ZN12ActorUnkFKTR19func_ov027_02147ea8Ev kind:function(arm,size=0x8) addr:0x0214a240
_ZN12ActorUnkFKTR19func_ov027_02147eb0Ev kind:function(arm,size=0x1c) addr:0x0214a248
_ZN12ActorUnkFKTR19func_ov027_02147eccEv kind:function(arm,size=0x1c) addr:0x0214a264
_ZN19ActorProfileUnkFKTRD1Ev kind:function(arm,size=0x14) addr:0x0214a280
data_ov027_0214a294 kind:data(any) addr:0x0214a294
data_ov027_0214a2a4 kind:data(any) addr:0x0214a2a4
data_ov027_0214a2b4 kind:data(any) addr:0x0214a2b4
data_ov027_0214a2c4 kind:data(any) addr:0x0214a2c4
__sinit_MapObjectUnkTMFR.cpp kind:function(arm,size=0x70) addr:0x0214a2d0
__sinit_MapObjectUnkTRFV.cpp kind:function(arm,size=0x50) addr:0x0214a340
__sinit_MapObjectUnkTRFO.cpp kind:function(arm,size=0x50) addr:0x0214a390
__sinit_MapObjectUnkTRSH.cpp kind:function(arm,size=0x50) addr:0x0214a3e0
__sinit_MapObjectUnkTRBR.cpp kind:function(arm,size=0x50) addr:0x0214a430
__sinit_MapObjectUnkTRDA.cpp kind:function(arm,size=0x50) addr:0x0214a480
__sinit_MapObjectUnkETDK.cpp kind:function(arm,size=0x50) addr:0x0214a4d0
__sinit_MapObjectUnkTRRA.cpp kind:function(arm,size=0x50) addr:0x0214a520
__sinit_MapObjectUnkCSTL.cpp kind:function(arm,size=0x50) addr:0x0214a570
__sinit_MapObjectUnkMBRG.cpp kind:function(arm,size=0x50) addr:0x0214a5c0
__sinit_MapObjectUnkMZFE.cpp kind:function(arm,size=0x6c) addr:0x0214a610
__sinit_ActorUnkTRER.cpp kind:function(arm,size=0x50) addr:0x0214a67c
__sinit_ActorUnkFKTR.cpp kind:function(arm,size=0x50) addr:0x0214a6cc
.p__sinit_MapObjectUnkTMFR.cpp kind:data(word) addr:0x0214a71c
.p__sinit_MapObjectUnkTRFV.cpp kind:data(word) addr:0x0214a720
.p__sinit_MapObjectUnkTRFO.cpp kind:data(word) addr:0x0214a724
.p__sinit_MapObjectUnkTRSH.cpp kind:data(word) addr:0x0214a728
.p__sinit_MapObjectUnkTRBR.cpp kind:data(word) addr:0x0214a72c
.p__sinit_MapObjectUnkTRDA.cpp kind:data(word) addr:0x0214a730
.p__sinit_MapObjectUnkETDK.cpp kind:data(word) addr:0x0214a734
.p__sinit_MapObjectUnkTRRA.cpp kind:data(word) addr:0x0214a738
.p__sinit_MapObjectUnkCSTL.cpp kind:data(word) addr:0x0214a73c
.p__sinit_MapObjectUnkMBRG.cpp kind:data(word) addr:0x0214a740
.p__sinit_MapObjectUnkMZFE.cpp kind:data(word) addr:0x0214a744
.p__sinit_ActorUnkTRER.cpp kind:data(word) addr:0x0214a748
.p__sinit_ActorUnkFKTR.cpp kind:data(word) addr:0x0214a74c
data_ov027_0214a760 kind:data(any) addr:0x0214a760
data_ov027_0214a770 kind:data(any) addr:0x0214a770
data_ov027_0214a784 kind:data(any) addr:0x0214a784
data_ov027_0214a7a0 kind:data(any) addr:0x0214a7a0
data_ov027_0214a7cc kind:data(any) addr:0x0214a7cc
data_ov027_0214a830 kind:data(any) addr:0x0214a830 ambiguous
data_ov027_0214a838 kind:data(any) addr:0x0214a838
data_ov027_0214a8a4 kind:data(any) addr:0x0214a8a4
data_ov027_0214a8c0 kind:data(any) addr:0x0214a8c0
data_ov027_0214a924 kind:data(any) addr:0x0214a924
data_ov027_0214a938 kind:data(any) addr:0x0214a938
data_ov027_0214a954 kind:data(any) addr:0x0214a954
data_ov027_0214a95c kind:data(any) addr:0x0214a95c ambiguous
data_ov027_0214a9c0 kind:data(any) addr:0x0214a9c0
data_ov027_0214a9dc kind:data(any) addr:0x0214a9dc
data_ov027_0214aa48 kind:data(any) addr:0x0214aa48
data_ov027_0214aa64 kind:data(any) addr:0x0214aa64
data_ov027_0214aad0 kind:data(any) addr:0x0214aad0
data_ov027_0214aaec kind:data(any) addr:0x0214aaec
data_ov027_0214ab50 kind:data(any) addr:0x0214ab50
data_ov027_0214ab54 kind:data(any) addr:0x0214ab54
data_ov027_0214ab68 kind:data(any) addr:0x0214ab68
data_ov027_0214ab84 kind:data(any) addr:0x0214ab84
data_ov027_0214ac08 kind:data(any) addr:0x0214ac08
data_ov027_0214ac8c kind:data(any) addr:0x0214ac8c
data_ov027_0214aca8 kind:data(any) addr:0x0214aca8
data_ov027_0214ad14 kind:data(any) addr:0x0214ad14
data_ov027_0214ad30 kind:data(any) addr:0x0214ad30
data_ov027_0214ad9c kind:data(any) addr:0x0214ad9c
data_ov027_0214adc4 kind:data(any) addr:0x0214adc4
data_ov027_0214ade0 kind:data(any) addr:0x0214ade0 ambiguous
data_ov027_0214ae0c kind:data(any) addr:0x0214ae0c
data_ov027_0214ae20 kind:data(any) addr:0x0214ae20
data_ov027_0214ae3c kind:data(any) addr:0x0214ae3c
data_ov027_0214ae64 kind:data(any) addr:0x0214ae64
data_ov027_0214aed0 kind:data(any) addr:0x0214aed0
data_ov027_0214aee8 kind:data(any) addr:0x0214aee8
_ZTV19data_ov027_0214af00 kind:data(any) addr:0x0214af00
_ZTV19data_ov027_0214af24 kind:data(any) addr:0x0214af24
data_ov027_0214af88 kind:data(any) addr:0x0214af88
_ZTV19data_ov027_0214b068 kind:data(any) addr:0x0214b068
data_ov027_0214b094 kind:data(any) addr:0x0214b094
data_ov027_0214b0dc kind:data(any) addr:0x0214b0dc
_ZTV19data_ov027_0214b120 kind:data(any) addr:0x0214b120
data_ov027_0214b1a0 kind:bss addr:0x0214b1a0
_ZGVN15ProfileInstanceI23MapObjectProfileUnkTMFRE8sProfileE kind:bss addr:0x0214b1a8
@30374 kind:bss addr:0x0214b1b4
_ZN15ProfileInstanceI23MapObjectProfileUnkTMFRE8sProfileE kind:bss addr:0x0214b1c0
_ZGVN15ProfileInstanceI23MapObjectProfileUnkTRFVE8sProfileE kind:bss addr:0x0214b294
@30380 kind:bss addr:0x0214b298
_ZN15ProfileInstanceI23MapObjectProfileUnkTRFVE8sProfileE kind:bss addr:0x0214b2a4
_ZGVN15ProfileInstanceI23MapObjectProfileUnkTRFOE8sProfileE kind:bss addr:0x0214b378
@30386 kind:bss addr:0x0214b37c
_ZN15ProfileInstanceI23MapObjectProfileUnkTRFOE8sProfileE kind:bss addr:0x0214b388
_ZGVN15ProfileInstanceI23MapObjectProfileUnkTRSHE8sProfileE kind:bss addr:0x0214b45c
@30392 kind:bss addr:0x0214b460
_ZN15ProfileInstanceI23MapObjectProfileUnkTRSHE8sProfileE kind:bss addr:0x0214b46c
_ZGVN15ProfileInstanceI23MapObjectProfileUnkTRBRE8sProfileE kind:bss addr:0x0214b540
@30398 kind:bss addr:0x0214b544
_ZN15ProfileInstanceI23MapObjectProfileUnkTRBRE8sProfileE kind:bss addr:0x0214b550
_ZGVN15ProfileInstanceI23MapObjectProfileUnkTRDAE8sProfileE kind:bss addr:0x0214b624
@30404 kind:bss addr:0x0214b628
_ZN15ProfileInstanceI23MapObjectProfileUnkTRDAE8sProfileE kind:bss addr:0x0214b634
_ZGVN15ProfileInstanceI23MapObjectProfileUnkETDKE8sProfileE kind:bss addr:0x0214b708
@30410 kind:bss addr:0x0214b70c
_ZN15ProfileInstanceI23MapObjectProfileUnkETDKE8sProfileE kind:bss addr:0x0214b718
data_ov027_0214b738 kind:bss addr:0x0214b738
_ZGVN15ProfileInstanceI23MapObjectProfileUnkTRRAE8sProfileE kind:bss addr:0x0214b7ec
@30416 kind:bss addr:0x0214b7f0
_ZN15ProfileInstanceI23MapObjectProfileUnkTRRAE8sProfileE kind:bss addr:0x0214b7fc
_ZGVN15ProfileInstanceI23MapObjectProfileUnkCSTLE8sProfileE kind:bss addr:0x0214b8d0
@30422 kind:bss addr:0x0214b8d4
_ZN15ProfileInstanceI23MapObjectProfileUnkCSTLE8sProfileE kind:bss addr:0x0214b8e0
_ZGVN15ProfileInstanceI23MapObjectProfileUnkMBRGE8sProfileE kind:bss addr:0x0214b9b4
@30428 kind:bss addr:0x0214b9b8
_ZN15ProfileInstanceI23MapObjectProfileUnkMBRGE8sProfileE kind:bss addr:0x0214b9c4
_ZGVN15ProfileInstanceI23MapObjectProfileUnkMZFEE8sProfileE kind:bss addr:0x0214ba2c
@30434 kind:bss addr:0x0214ba30
_ZN15ProfileInstanceI23MapObjectProfileUnkMZFEE8sProfileE kind:bss addr:0x0214ba3c
_ZGVN15ProfileInstanceI19ActorProfileUnkTRERE8sProfileE kind:bss addr:0x0214bb10
@30451 kind:bss addr:0x0214bb18
_ZN15ProfileInstanceI19ActorProfileUnkTRERE8sProfileE kind:bss addr:0x0214bb24
data_ov027_0214bbfc kind:bss addr:0x0214bbfc
data_ov027_0214bc00 kind:bss addr:0x0214bc00
data_ov027_0214bc04 kind:bss addr:0x0214bc04
data_ov027_0214bc08 kind:bss addr:0x0214bc08
data_ov027_0214bc0c kind:bss addr:0x0214bc0c
data_ov027_0214bc10 kind:bss addr:0x0214bc10
data_ov027_0214bc14 kind:bss addr:0x0214bc14
data_ov027_0214bc18 kind:bss addr:0x0214bc18
data_ov027_0214bc1c kind:bss addr:0x0214bc1c
data_ov027_0214bc20 kind:bss addr:0x0214bc20
data_ov027_0214bc24 kind:bss addr:0x0214bc24
data_ov027_0214bc28 kind:bss addr:0x0214bc28
data_ov027_0214bc2c kind:bss addr:0x0214bc2c
data_ov027_0214bc30 kind:bss addr:0x0214bc30
data_ov027_0214bc34 kind:bss addr:0x0214bc34
data_ov027_0214bc40 kind:bss addr:0x0214bc40
data_ov027_0214bc44 kind:bss addr:0x0214bc44
data_ov027_0214bc54 kind:bss addr:0x0214bc54
data_ov027_0214bc64 kind:bss addr:0x0214bc64
data_ov027_0214bc74 kind:bss addr:0x0214bc74
data_ov027_0214bc84 kind:bss addr:0x0214bc84
data_ov027_0214bc94 kind:bss addr:0x0214bc94
data_ov027_0214bca4 kind:bss addr:0x0214bca4
data_ov027_0214bcb4 kind:bss addr:0x0214bcb4
data_ov027_0214bcc4 kind:bss addr:0x0214bcc4
data_ov027_0214bcd4 kind:bss addr:0x0214bcd4
data_ov027_0214bce4 kind:bss addr:0x0214bce4
data_ov027_0214bcf4 kind:bss addr:0x0214bcf4
_ZGVN15ProfileInstanceI19ActorProfileUnkFKTRE8sProfileE kind:bss addr:0x0214bd04
@30457 kind:bss addr:0x0214bd14
_ZN15ProfileInstanceI19ActorProfileUnkFKTRE8sProfileE kind:bss addr:0x0214bd24
