_ZN19ActorProfileUnkRMBD10GetProfileEv kind:function(arm,size=0xc) addr:0x02125280
_ZN19ActorProfileUnkRMBD6CreateEv kind:function(arm,size=0x24) addr:0x0212528c
_ZN19ActorProfileUnkRMBDC1Ev kind:function(arm,size=0x3c) addr:0x021252b0
_ZN12ActorUnkRMBD19func_ov045_0212352cEv kind:function(arm,size=0x14) addr:0x021252ec
_ZN12ActorUnkRMBD19func_ov045_02123540Ev kind:function(arm,size=0xcc) addr:0x02125300
_ZN12ActorUnkRMBD19func_ov045_0212360cEv kind:function(arm,size=0xc8) addr:0x021253cc
_ZN12ActorUnkRMBDC1Ev kind:function(arm,size=0x1b4) addr:0x02125494
_ZN12ActorUnkRMBDD1Ev kind:function(arm,size=0x68) addr:0x02125648
_ZN12ActorUnkRMBDD0Ev kind:function(arm,size=0x70) addr:0x021256b0
_ZN12ActorUnkRMBD19func_ov045_02123960Ev kind:function(arm,size=0x2ac) addr:0x02125720
_ZN12ActorUnkRMBD19func_ov045_02123c0cEv kind:function(arm,size=0x38) addr:0x021259cc
_ZN12ActorUnkRMBD19func_ov045_02123c44Ev kind:function(arm,size=0x68) addr:0x02125a04
_ZN12ActorUnkRMBD19func_ov045_02123cacEv kind:function(arm,size=0x4) addr:0x02125a6c
_ZN12ActorUnkRMBD19func_ov045_02123cb0Ev kind:function(arm,size=0x94) addr:0x02125a70
_ZN12ActorUnkRMBD19func_ov045_02123d44Ev kind:function(arm,size=0x108) addr:0x02125b04
_ZN12ActorUnkRMBD19func_ov045_02123e4cEv kind:function(arm,size=0x10) addr:0x02125c0c
_ZN12ActorUnkRMBD19func_ov045_02123e5cEv kind:function(arm,size=0x38) addr:0x02125c1c
_ZN12ActorUnkRMBD19func_ov045_02123e94Ev kind:function(arm,size=0x2c) addr:0x02125c54
_ZN12ActorUnkRMBD19func_ov045_02123ec0Ev kind:function(arm,size=0x1c) addr:0x02125c80
_ZN12ActorUnkRMBD19func_ov045_02123edcEv kind:function(arm,size=0x2c) addr:0x02125c9c
_ZN12ActorUnkRMBD19func_ov045_02123f08Ev kind:function(arm,size=0xe8) addr:0x02125cc8
_ZN12ActorUnkRMBD19func_ov045_02123ff0Ev kind:function(arm,size=0x14c) addr:0x02125db0
_ZN12ActorUnkRMBD19func_ov045_0212413cEv kind:function(arm,size=0x20) addr:0x02125efc
_ZN12ActorUnkRMBD19func_ov045_0212415cEv kind:function(arm,size=0xc) addr:0x02125f1c
_ZN19ActorProfileUnkRMBDD1Ev kind:function(arm,size=0x20) addr:0x02125f28
_ZN19ActorProfileUnkBDGA10GetProfileEv kind:function(arm,size=0xc) addr:0x02125f48
_ZN19ActorProfileUnkBDGA6CreateEv kind:function(arm,size=0x24) addr:0x02125f54
_ZN19ActorProfileUnkBDGAC1Ev kind:function(arm,size=0x5c) addr:0x02125f78
_ZN12ActorUnkBDGA19func_ov045_02124214Ev kind:function(arm,size=0x48) addr:0x02125fd4
_ZN12ActorUnkBDGAC1Ev kind:function(arm,size=0x1dc) addr:0x0212601c
_ZN12ActorUnkBDGA19func_ov045_02124438Ev kind:function(arm,size=0x14) addr:0x021261f8
_ZN12ActorUnkBDGA19func_ov045_0212444cEv kind:function(arm,size=0x14) addr:0x0212620c
_ZN12ActorUnkBDGA19func_ov045_02124460Ev kind:function(arm,size=0x8c) addr:0x02126220
_ZN12ActorUnkBDGA19func_ov045_021244ecEv kind:function(arm,size=0x60) addr:0x021262ac
_ZN12ActorUnkBDGA19func_ov045_0212454cEv kind:function(arm,size=0x178) addr:0x0212630c
_ZN12ActorUnkBDGA19func_ov045_021246c4Ev kind:function(arm,size=0xc0) addr:0x02126484
_ZN12ActorUnkBDGA19func_ov045_02124784Ev kind:function(arm,size=0x20) addr:0x02126544
_ZN12ActorUnkBDGA19func_ov045_021247a4Ev kind:function(arm,size=0x4) addr:0x02126564
_ZN12ActorUnkBDGA19func_ov045_021247a8Ev kind:function(arm,size=0x28c) addr:0x02126568
_ZN12ActorUnkBDGA19func_ov045_02124a34Ev kind:function(arm,size=0x460) addr:0x021267f4
_ZN12ActorUnkBDGA19func_ov045_02124e94Ev kind:function(arm,size=0x12c) addr:0x02126c54
_ZN12ActorUnkBDGA19func_ov045_02124fc0Ev kind:function(arm,size=0x6a0) addr:0x02126d80
_ZN12ActorUnkBDGA19func_ov045_02125660Ev kind:function(arm,size=0x14) addr:0x02127420
_ZN12ActorUnkBDGA19func_ov045_02125674Ev kind:function(arm,size=0x7c) addr:0x02127434
_ZN12ActorUnkBDGA19func_ov045_021256f0Ev kind:function(arm,size=0x1ec) addr:0x021274b0
_ZN12ActorUnkBDGA19func_ov045_021258dcEv kind:function(arm,size=0x194) addr:0x0212769c
_ZN12ActorUnkBDGA19func_ov045_02125a70Ev kind:function(arm,size=0x420) addr:0x02127830
_ZN12ActorUnkBDGA19func_ov045_02125e90Ev kind:function(arm,size=0x15c) addr:0x02127c50
_ZN12ActorUnkBDGA19func_ov045_02125fecEv kind:function(arm,size=0x88) addr:0x02127dac
_ZN12ActorUnkBDGA19func_ov045_02126074Ev kind:function(arm,size=0x12c) addr:0x02127e34
_ZN12ActorUnkBDGA19func_ov045_021261a0Ev kind:function(arm,size=0x204) addr:0x02127f60
_ZN12ActorUnkBDGA19func_ov045_021263a4Ev kind:function(arm,size=0x10c) addr:0x02128164
_ZN12ActorUnkBDGA19func_ov045_021264b0Ev kind:function(arm,size=0x2f0) addr:0x02128270
_ZN12ActorUnkBDGA19func_ov045_021267a0Ev kind:function(arm,size=0x194) addr:0x02128560
_ZN12ActorUnkBDGA19func_ov045_02126934Ev kind:function(arm,size=0x1b8) addr:0x021286f4
_ZN12ActorUnkBDGA19func_ov045_02126aecEv kind:function(arm,size=0x20) addr:0x021288ac
_ZN12ActorUnkBDGA19func_ov045_02126b0cEv kind:function(arm,size=0x4) addr:0x021288cc
_ZN12ActorUnkBDGA19func_ov045_02126b10Ev kind:function(arm,size=0xb8) addr:0x021288d0
_ZN12ActorUnkBDGA19func_ov045_02126bc8Ev kind:function(arm,size=0x6c) addr:0x02128988
_ZN12ActorUnkBDGA19func_ov045_02126c34Ev kind:function(arm,size=0x114) addr:0x021289f4
_ZN12ActorUnkBDGA19func_ov045_02126d48Ev kind:function(arm,size=0x88) addr:0x02128b08
_ZN12ActorUnkBDGA19func_ov045_02126dd0Ev kind:function(arm,size=0x38) addr:0x02128b90
_ZN12ActorUnkBDGA19func_ov045_02126e08Ev kind:function(arm,size=0x30c) addr:0x02128bc8
_ZN12ActorUnkBDGA19func_ov045_02127114Ev kind:function(arm,size=0x60) addr:0x02128ed4
_ZN12ActorUnkBDGA19func_ov045_02127174Ev kind:function(arm,size=0x80) addr:0x02128f34
_ZN12ActorUnkBDGA19func_ov045_021271f4Ev kind:function(arm,size=0x24) addr:0x02128fb4
_ZN12ActorUnkBDGA19func_ov045_02127218Ev kind:function(arm,size=0xbc) addr:0x02128fd8
_ZN12ActorUnkBDGA19func_ov045_021272d4Ev kind:function(arm,size=0x68) addr:0x02129094
_ZN12ActorUnkBDGA19func_ov045_0212733cEv kind:function(arm,size=0x2c) addr:0x021290fc
_ZN12ActorUnkBDGA19func_ov045_02127368Ev kind:function(arm,size=0x54) addr:0x02129128
_ZN12ActorUnkBDGA19func_ov045_021273bcEv kind:function(arm,size=0x60) addr:0x0212917c
_ZN12ActorUnkBDGA19func_ov045_0212741cEv kind:function(arm,size=0x28) addr:0x021291dc
_ZN12ActorUnkBDGA19func_ov045_02127444Ev kind:function(arm,size=0x134) addr:0x02129204
_ZN12ActorUnkBDGA19func_ov045_02127578Ev kind:function(arm,size=0x12c) addr:0x02129338
_ZN12ActorUnkBDGA19func_ov045_021276a4Ev kind:function(arm,size=0x3c) addr:0x02129464
_ZN12ActorUnkBDGA19func_ov045_021276e0Ev kind:function(arm,size=0x74) addr:0x021294a0
_ZN12ActorUnkBDGA19func_ov045_02127754Ev kind:function(arm,size=0x24) addr:0x02129514
_ZN12ActorUnkBDGA19func_ov045_02127778Ev kind:function(arm,size=0x2c) addr:0x02129538
_ZN12ActorUnkBDGA19func_ov045_021277a4Ev kind:function(arm,size=0xc) addr:0x02129564
_ZN12ActorUnkBDGAD0Ev kind:function(arm,size=0x1c) addr:0x02129570
_ZN12ActorUnkBDGA19func_ov045_021277ccEv kind:function(arm,size=0x1c) addr:0x0212958c
_ZN12ActorUnkBDGA19func_ov045_021277e8Ev kind:function(arm,size=0x1c) addr:0x021295a8
_ZN12ActorUnkBDGAD1Ev kind:function(arm,size=0x4c) addr:0x021295c4
_ZN12ActorUnkBDGA19func_ov045_02127850Ev kind:function(arm,size=0x54) addr:0x02129610
_ZN19ActorProfileUnkBDGAD1Ev kind:function(arm,size=0x14) addr:0x02129664
_ZN19ActorProfileUnkBDBA10GetProfileEv kind:function(arm,size=0xc) addr:0x02129678
_ZN19ActorProfileUnkBDBA6CreateEv kind:function(arm,size=0x24) addr:0x02129684
_ZN19ActorProfileUnkBDBAC1Ev kind:function(arm,size=0x58) addr:0x021296a8
_ZN12ActorUnkBDBAC1Ev kind:function(arm,size=0x130) addr:0x02129700
_ZN12ActorUnkBDBA19func_ov045_02127a70Ev kind:function(arm,size=0x14) addr:0x02129830
_ZN12ActorUnkBDBAD1Ev kind:function(arm,size=0x28) addr:0x02129844
_ZN12ActorUnkBDBAD0Ev kind:function(arm,size=0x30) addr:0x0212986c
_ZN12ActorUnkBDBA19func_ov045_02127adcEv kind:function(arm,size=0x24) addr:0x0212989c
_ZN12ActorUnkBDBA19func_ov045_02127b00Ev kind:function(arm,size=0x3c) addr:0x021298c0
_ZN12ActorUnkBDBA19func_ov045_02127b3cEv kind:function(arm,size=0x80) addr:0x021298fc
_ZN12ActorUnkBDBA19func_ov045_02127bbcEv kind:function(arm,size=0x348) addr:0x0212997c
_ZN12ActorUnkBDBA19func_ov045_02127f04Ev kind:function(arm,size=0x174) addr:0x02129cc4
_ZN12ActorUnkBDBA19func_ov045_02128078Ev kind:function(arm,size=0xbc) addr:0x02129e38
_ZN12ActorUnkBDBA19func_ov045_02128134Ev kind:function(arm,size=0xa4) addr:0x02129ef4
_ZN12ActorUnkBDBA19func_ov045_021281d8Ev kind:function(arm,size=0x14) addr:0x02129f98
_ZN12ActorUnkBDBA19func_ov045_021281ecEv kind:function(arm,size=0x68) addr:0x02129fac
_ZN12ActorUnkBDBA19func_ov045_02128254Ev kind:function(arm,size=0x10) addr:0x0212a014
_ZN12ActorUnkBDBA19func_ov045_02128264Ev kind:function(arm,size=0x6c) addr:0x0212a024
_ZN12ActorUnkBDBA19func_ov045_021282d0Ev kind:function(arm,size=0x1c) addr:0x0212a090
_ZN19ActorProfileUnkBDBAD1Ev kind:function(arm,size=0x14) addr:0x0212a0ac
_ZN19ActorProfileUnkBDLB10GetProfileEv kind:function(arm,size=0xc) addr:0x0212a0c0
_ZN19ActorProfileUnkBDLB6CreateEv kind:function(arm,size=0x24) addr:0x0212a0cc
_ZN19ActorProfileUnkBDLBC1Ev kind:function(arm,size=0x4c) addr:0x0212a0f0
_ZN12ActorUnkBDLBC1Ev kind:function(arm,size=0x84) addr:0x0212a13c
_ZN12ActorUnkBDLBD1Ev kind:function(arm,size=0x30) addr:0x0212a1c0
_ZN12ActorUnkBDLBD0Ev kind:function(arm,size=0x38) addr:0x0212a1f0
_ZN12ActorUnkBDLB19func_ov045_02128468Ev kind:function(arm,size=0x74) addr:0x0212a228
_ZN12ActorUnkBDLB19func_ov045_021284dcEv kind:function(arm,size=0x3c) addr:0x0212a29c
_ZN12ActorUnkBDLB19func_ov045_02128518Ev kind:function(arm,size=0x80) addr:0x0212a2d8
_ZN12ActorUnkBDLB19func_ov045_02128598Ev kind:function(arm,size=0x320) addr:0x0212a358
_ZN12ActorUnkBDLB19func_ov045_021288b8Ev kind:function(arm,size=0xb4) addr:0x0212a678
_ZN12ActorUnkBDLB19func_ov045_0212896cEv kind:function(arm,size=0x14) addr:0x0212a72c
_ZN12ActorUnkBDLB19func_ov045_02128980Ev kind:function(arm,size=0x80) addr:0x0212a740
_ZN12ActorUnkBDLB19func_ov045_02128a00Ev kind:function(arm,size=0xb4) addr:0x0212a7c0
_ZN12ActorUnkBDLB19func_ov045_02128ab4Ev kind:function(arm,size=0x190) addr:0x0212a874
_ZN12ActorUnkBDLB19func_ov045_02128c44Ev kind:function(arm,size=0x104) addr:0x0212aa04
_ZN12ActorUnkBDLB19func_ov045_02128d48Ev kind:function(arm,size=0x68) addr:0x0212ab08
_ZN12ActorUnkBDLB19func_ov045_02128db0Ev kind:function(arm,size=0x14) addr:0x0212ab70
_ZN12ActorUnkBDLB19func_ov045_02128dc4Ev kind:function(arm,size=0x68) addr:0x0212ab84
_ZN12ActorUnkBDLB19func_ov045_02128e2cEv kind:function(arm,size=0x10) addr:0x0212abec
_ZN12ActorUnkBDLB19func_ov045_02128e3cEv kind:function(arm,size=0x6c) addr:0x0212abfc
_ZN19ActorProfileUnkBDLBD1Ev kind:function(arm,size=0x14) addr:0x0212ac68
_ZN19ActorProfileUnkWPCL10GetProfileEv kind:function(arm,size=0xc) addr:0x0212ac7c
_ZN19ActorProfileUnkWPCL6CreateEv kind:function(arm,size=0x24) addr:0x0212ac88
_ZN19ActorProfileUnkWPCLC1Ev kind:function(arm,size=0x28) addr:0x0212acac
_ZN12ActorUnkWPCLC1Ev kind:function(arm,size=0x44) addr:0x0212acd4
_ZN12ActorUnkWPCL19func_ov045_02128f58Ev kind:function(arm,size=0x94) addr:0x0212ad18
_ZN12ActorUnkWPCLD1Ev kind:function(arm,size=0x20) addr:0x0212adac
_ZN12ActorUnkWPCLD0Ev kind:function(arm,size=0x28) addr:0x0212adcc
_ZN19ActorProfileUnkWPCLD1Ev kind:function(arm,size=0x14) addr:0x0212adf4
_ZN23MapObjectProfileUnkRDSD10GetProfileEv kind:function(arm,size=0xc) addr:0x0212ae08
_ZN23MapObjectProfileUnkRDSD6CreateEv kind:function(arm,size=0x24) addr:0x0212ae14
_ZN23MapObjectProfileUnkRDSDC1Ev kind:function(arm,size=0x4c) addr:0x0212ae38
_ZN16MapObjectUnkRDSDC1Ev kind:function(arm,size=0x60) addr:0x0212ae84
_ZN16MapObjectUnkRDSD19func_ov045_02129124Ev kind:function(arm,size=0x68) addr:0x0212aee4
_ZN16MapObjectUnkRDSD19func_ov045_0212918cEv kind:function(arm,size=0x44) addr:0x0212af4c
_ZN16MapObjectUnkRDSD19func_ov045_021291d0Ev kind:function(arm,size=0x14) addr:0x0212af90
_ZN16MapObjectUnkRDSD19func_ov045_021291e4Ev kind:function(arm,size=0x48) addr:0x0212afa4
_ZN16MapObjectUnkRDSD19func_ov045_0212922cEv kind:function(arm,size=0x30) addr:0x0212afec
_ZN16MapObjectUnkRDSD19func_ov045_0212925cEv kind:function(arm,size=0x20) addr:0x0212b01c
_ZN16MapObjectUnkRDSD19func_ov045_0212927cEv kind:function(arm,size=0x54) addr:0x0212b03c
_ZN16MapObjectUnkRDSD19func_ov045_021292d0Ev kind:function(arm,size=0x60) addr:0x0212b090
_ZN16MapObjectUnkRDSDD1Ev kind:function(arm,size=0x28) addr:0x0212b0f0
_ZN16MapObjectUnkRDSDD0Ev kind:function(arm,size=0x30) addr:0x0212b118
_ZN23MapObjectProfileUnkRDSDD1Ev kind:function(arm,size=0x14) addr:0x0212b148
_ZN19func_ov045_0212b15cD0Ev kind:function(arm,size=0x1c) addr:0x0212b15c
func_ov045_0212b178 kind:function(arm,size=0x64) addr:0x0212b178
func_ov045_0212b1dc kind:function(arm,size=0xa4) addr:0x0212b1dc
data_ov045_0212b280 kind:data(any) addr:0x0212b280
data_ov045_0212b290 kind:data(any) addr:0x0212b290
data_ov045_0212b2a0 kind:data(any) addr:0x0212b2a0
data_ov045_0212b2b0 kind:data(any) addr:0x0212b2b0
data_ov045_0212b2c0 kind:data(any) addr:0x0212b2c0
data_ov045_0212b340 kind:data(any) addr:0x0212b340
data_ov045_0212b3c0 kind:data(any) addr:0x0212b3c0
data_ov045_0212b3d0 kind:data(any) addr:0x0212b3d0
__sinit_ActorUnkRMBD.cpp kind:function(arm,size=0x244) addr:0x0212b3e0
__sinit_ActorUnkBDGA.cpp kind:function(arm,size=0x130) addr:0x0212b624
__sinit_ActorUnkBDBA.cpp kind:function(arm,size=0x50) addr:0x0212b754
__sinit_ActorUnkBDLB.cpp kind:function(arm,size=0x50) addr:0x0212b7a4
__sinit_ActorUnkWPCL.cpp kind:function(arm,size=0x50) addr:0x0212b7f4
__sinit_MapObjectUnkRDSD.cpp kind:function(arm,size=0x50) addr:0x0212b844
.p__sinit_ActorUnkRMBD.cpp kind:data(word) addr:0x0212b894
.p__sinit_ActorUnkBDGA.cpp kind:data(word) addr:0x0212b898
.p__sinit_ActorUnkBDBA.cpp kind:data(word) addr:0x0212b89c
.p__sinit_ActorUnkBDLB.cpp kind:data(word) addr:0x0212b8a0
.p__sinit_ActorUnkWPCL.cpp kind:data(word) addr:0x0212b8a4
.p__sinit_MapObjectUnkRDSD.cpp kind:data(word) addr:0x0212b8a8
data_ov045_0212b8c0 kind:data(any) addr:0x0212b8c0
data_ov045_0212b8c8 kind:data(any) addr:0x0212b8c8
data_ov045_0212b8d0 kind:data(any) addr:0x0212b8d0
data_ov045_0212b8e4 kind:data(any) addr:0x0212b8e4
_ZTV19data_ov045_0212b900 kind:data(any) addr:0x0212b900
data_ov045_0212b924 kind:data(any) addr:0x0212b924
data_ov045_0212b92a kind:data(any) addr:0x0212b92a
data_ov045_0212b930 kind:data(any) addr:0x0212b930
data_ov045_0212b936 kind:data(any) addr:0x0212b936
data_ov045_0212b93c kind:data(any) addr:0x0212b93c
data_ov045_0212b942 kind:data(any) addr:0x0212b942
data_ov045_0212b948 kind:data(any) addr:0x0212b948
data_ov045_0212b94e kind:data(any) addr:0x0212b94e
data_ov045_0212b954 kind:data(any) addr:0x0212b954
data_ov045_0212b95a kind:data(any) addr:0x0212b95a
data_ov045_0212b960 kind:data(any) addr:0x0212b960
data_ov045_0212b966 kind:data(any) addr:0x0212b966
data_ov045_0212b96c kind:data(any) addr:0x0212b96c
data_ov045_0212b972 kind:data(any) addr:0x0212b972
_ZTV19data_ov045_0212b978 kind:data(any) addr:0x0212b978
data_ov045_0212b9d4 kind:data(any) addr:0x0212b9d4
data_ov045_0212b9e0 kind:data(any) addr:0x0212b9e0
data_ov045_0212b9ec kind:data(any) addr:0x0212b9ec
data_ov045_0212b9f8 kind:data(any) addr:0x0212b9f8
data_ov045_0212ba04 kind:data(any) addr:0x0212ba04
data_ov045_0212ba10 kind:data(any) addr:0x0212ba10
data_ov045_0212ba1c kind:data(any) addr:0x0212ba1c
data_ov045_0212ba28 kind:data(any) addr:0x0212ba28
data_ov045_0212ba34 kind:data(any) addr:0x0212ba34
data_ov045_0212ba4c kind:data(any) addr:0x0212ba4c
_ZTV19data_ov045_0212ba60 kind:data(any) addr:0x0212ba60
data_ov045_0212ba8c kind:data(any) addr:0x0212ba8c
data_ov045_0212bab8 kind:data(any) addr:0x0212bab8
data_ov045_0212bafc kind:data(any) addr:0x0212bafc
data_ov045_0212bb5c kind:data(any) addr:0x0212bb5c
data_ov045_0212bb68 kind:data(any) addr:0x0212bb68
data_ov045_0212bb74 kind:data(any) addr:0x0212bb74
data_ov045_0212bb80 kind:data(any) addr:0x0212bb80
data_ov045_0212bb8c kind:data(any) addr:0x0212bb8c
data_ov045_0212bb98 kind:data(any) addr:0x0212bb98
data_ov045_0212bba4 kind:data(any) addr:0x0212bba4
data_ov045_0212bbb0 kind:data(any) addr:0x0212bbb0
data_ov045_0212bbbc kind:data(any) addr:0x0212bbbc
data_ov045_0212bc1c kind:data(any) addr:0x0212bc1c
data_ov045_0212bc34 kind:data(any) addr:0x0212bc34
data_ov045_0212bc4c kind:data(any) addr:0x0212bc4c
data_ov045_0212bc64 kind:data(any) addr:0x0212bc64
_ZTV19data_ov045_0212bc7c kind:data(any) addr:0x0212bc7c
data_ov045_0212bce0 kind:data(any) addr:0x0212bce0
data_ov045_0212bcf0 kind:data(any) addr:0x0212bcf0
data_ov045_0212bd00 kind:data(any) addr:0x0212bd00
_ZTV19data_ov045_0212bd18 kind:data(any) addr:0x0212bd18
data_ov045_0212bd44 kind:data(any) addr:0x0212bd44
_ZTV19data_ov045_0212bd88 kind:data(any) addr:0x0212bd88
data_ov045_0212bde4 kind:data(any) addr:0x0212bde4
data_ov045_0212be04 kind:data(any) addr:0x0212be04
_ZTV19data_ov045_0212be24 kind:data(any) addr:0x0212be24
_ZTV19data_ov045_0212be48 kind:data(any) addr:0x0212be48
_ZTV19data_ov045_0212bea4 kind:data(any) addr:0x0212bea4
data_ov045_0212bed0 kind:data(any) addr:0x0212bed0
_ZTV19data_ov045_0212bef0 kind:data(any) addr:0x0212bef0
data_ov045_0212bf54 kind:data(any) addr:0x0212bf54
data_ov045_0212bf7c kind:data(any) addr:0x0212bf7c
data_ov045_0212bfec kind:data(any) addr:0x0212bfec
_ZGVN15ProfileInstanceI19ActorProfileUnkRMBDE8sProfileE kind:bss addr:0x0212c000
@31676 kind:bss addr:0x0212c004
_ZN15ProfileInstanceI19ActorProfileUnkRMBDE8sProfileE kind:bss addr:0x0212c010
data_ov045_0212c0e8 kind:bss addr:0x0212c0e8
_ZGVN15ProfileInstanceI19ActorProfileUnkBDGAE8sProfileE kind:bss addr:0x0212c0fc
@31682 kind:bss addr:0x0212c100
_ZN15ProfileInstanceI19ActorProfileUnkBDGAE8sProfileE kind:bss addr:0x0212c10c
_ZGVN15ProfileInstanceI19ActorProfileUnkBDBAE8sProfileE kind:bss addr:0x0212c1e4
@31688 kind:bss addr:0x0212c1e8
_ZN15ProfileInstanceI19ActorProfileUnkBDBAE8sProfileE kind:bss addr:0x0212c1f4
data_ov045_0212c24c kind:bss addr:0x0212c24c ambiguous
_ZGVN15ProfileInstanceI19ActorProfileUnkBDLBE8sProfileE kind:bss addr:0x0212c2cc
@31694 kind:bss addr:0x0212c2d0
_ZN15ProfileInstanceI19ActorProfileUnkBDLBE8sProfileE kind:bss addr:0x0212c2dc
_ZGVN15ProfileInstanceI19ActorProfileUnkWPCLE8sProfileE kind:bss addr:0x0212c3b4
@31700 kind:bss addr:0x0212c3b8
_ZN15ProfileInstanceI19ActorProfileUnkWPCLE8sProfileE kind:bss addr:0x0212c3c4
data_ov045_0212c400 kind:bss addr:0x0212c400
data_ov045_0212c404 kind:bss addr:0x0212c404
_ZN15ProfileInstanceI23MapObjectProfileUnkRDSDE8sProfileE kind:bss addr:0x0212c410
