_ZN19ActorProfileUnkBEEE10GetProfileEv kind:function(arm,size=0xc) addr:0x021304a0
_ZN19ActorProfileUnkBEEE6CreateEv kind:function(arm,size=0x24) addr:0x021304ac
_ZN19ActorProfileUnkBEEEC1Ev kind:function(arm,size=0x44) addr:0x021304d0
_ZN12ActorUnkBEEE19func_ov049_02130514Ev kind:function(arm,size=0x50) addr:0x02130514
_ZN12ActorUnkBEEEC1Ev kind:function(arm,size=0xd4) addr:0x02130564
_ZN12ActorUnkBEEE19func_ov049_02130638Ev kind:function(arm,size=0x104) addr:0x02130638
_ZN12ActorUnkBEEE19func_ov049_0213073cEv kind:function(arm,size=0x44) addr:0x0213073c
_ZN12ActorUnkBEEE19func_ov049_02130780Ev kind:function(arm,size=0x88) addr:0x02130780
_ZN12ActorUnkBEEE19func_ov049_02130808Ev kind:function(arm,size=0x50) addr:0x02130808
_ZN12ActorUnkBEEE19func_ov049_02130858Ev kind:function(arm,size=0x94) addr:0x02130858
_ZN12ActorUnkBEEE19func_ov049_021308ecEv kind:function(arm,size=0x84) addr:0x021308ec
_ZN12ActorUnkBEEE19func_ov049_02130970Ev kind:function(arm,size=0xe4) addr:0x02130970
_ZN12ActorUnkBEEE19func_ov049_02130a54Ev kind:function(arm,size=0x120) addr:0x02130a54
_ZN12ActorUnkBEEE19func_ov049_02130b74Ev kind:function(arm,size=0x12c) addr:0x02130b74
_ZN12ActorUnkBEEE19func_ov049_02130ca0Ev kind:function(arm,size=0x5c) addr:0x02130ca0
_ZN12ActorUnkBEEE19func_ov049_02130cfcEv kind:function(arm,size=0x1ac) addr:0x02130cfc
_ZN12ActorUnkBEEE19func_ov049_02130ea8Ev kind:function(arm,size=0x44) addr:0x02130ea8
_ZN12ActorUnkBEEE19func_ov049_02130eecEv kind:function(arm,size=0x14) addr:0x02130eec
_ZN12ActorUnkBEEE19func_ov049_02130f00Ev kind:function(arm,size=0x308) addr:0x02130f00
_ZN12ActorUnkBEEE19func_ov049_02131208Ev kind:function(arm,size=0x34) addr:0x02131208
_ZN12ActorUnkBEEE19func_ov049_0213123cEv kind:function(arm,size=0x84) addr:0x0213123c
_ZN12ActorUnkBEEE19func_ov049_021312c0Ev kind:function(arm,size=0x44) addr:0x021312c0
_ZN12ActorUnkBEEE19func_ov049_02131304Ev kind:function(arm,size=0x68) addr:0x02131304
_ZN12ActorUnkBEEE19func_ov049_0213136cEv kind:function(arm,size=0x44) addr:0x0213136c
_ZN12ActorUnkBEEE19func_ov049_021313b0Ev kind:function(arm,size=0x6c) addr:0x021313b0
_ZN12ActorUnkBEEED1Ev kind:function(arm,size=0x20) addr:0x0213141c
_ZN12ActorUnkBEEED0Ev kind:function(arm,size=0x28) addr:0x0213143c
_ZN19ActorProfileUnkBEEED1Ev kind:function(arm,size=0x14) addr:0x02131464
_ZN19ActorProfileUnkBEEH10GetProfileEv kind:function(arm,size=0xc) addr:0x02131478
_ZN19ActorProfileUnkBEEH6CreateEv kind:function(arm,size=0x24) addr:0x02131484
_ZN19ActorProfileUnkBEEHC1Ev kind:function(arm,size=0x6c) addr:0x021314a8
_ZN12ActorUnkBEEHC1Ev kind:function(arm,size=0xd4) addr:0x02131514
_ZN12ActorUnkBEEH19func_ov049_021315e8Ev kind:function(arm,size=0xd4) addr:0x021315e8
_ZN12ActorUnkBEEH19func_ov049_021316bcEv kind:function(arm,size=0x128) addr:0x021316bc
_ZN12ActorUnkBEEH19func_ov049_021317e4Ev kind:function(arm,size=0x44) addr:0x021317e4
_ZN12ActorUnkBEEH19func_ov049_02131828Ev kind:function(arm,size=0x90) addr:0x02131828
_ZN12ActorUnkBEEH19func_ov049_021318b8Ev kind:function(arm,size=0x50) addr:0x021318b8
_ZN12ActorUnkBEEH19func_ov049_02131908Ev kind:function(arm,size=0x38) addr:0x02131908
_ZN12ActorUnkBEEH19func_ov049_02131940Ev kind:function(arm,size=0x7c) addr:0x02131940
_ZN12ActorUnkBEEH19func_ov049_021319bcEv kind:function(arm,size=0x148) addr:0x021319bc
_ZN12ActorUnkBEEH19func_ov049_02131b04Ev kind:function(arm,size=0x4) addr:0x02131b04
_ZN12ActorUnkBEEH19func_ov049_02131b08Ev kind:function(arm,size=0x28) addr:0x02131b08
_ZN12ActorUnkBEEH19func_ov049_02131b30Ev kind:function(arm,size=0xb4) addr:0x02131b30
_ZN12ActorUnkBEEH19func_ov049_02131be4Ev kind:function(arm,size=0xbc) addr:0x02131be4
_ZN12ActorUnkBEEH19func_ov049_02131ca0Ev kind:function(arm,size=0xc) addr:0x02131ca0
_ZN12ActorUnkBEEH19func_ov049_02131cacEv kind:function(arm,size=0xe8) addr:0x02131cac
_ZN12ActorUnkBEEH19func_ov049_02131d94Ev kind:function(arm,size=0x68) addr:0x02131d94
_ZN12ActorUnkBEEH19func_ov049_02131dfcEv kind:function(arm,size=0x30) addr:0x02131dfc
_ZN12ActorUnkBEEH19func_ov049_02131e2cEv kind:function(arm,size=0x2c) addr:0x02131e2c
_ZN12ActorUnkBEEH19func_ov049_02131e58Ev kind:function(arm,size=0x108) addr:0x02131e58
_ZN12ActorUnkBEEH19func_ov049_02131f60Ev kind:function(arm,size=0x64) addr:0x02131f60
_ZN12ActorUnkBEEH19func_ov049_02131fc4Ev kind:function(arm,size=0xcc) addr:0x02131fc4
_ZN12ActorUnkBEEHD1Ev kind:function(arm,size=0x20) addr:0x02132090
_ZN12ActorUnkBEEHD0Ev kind:function(arm,size=0x28) addr:0x021320b0
_ZN19ActorProfileUnkBEEHD1Ev kind:function(arm,size=0x14) addr:0x021320d8
_ZN19ActorProfileUnkCROW10GetProfileEv kind:function(arm,size=0xc) addr:0x021320ec
_ZN19ActorProfileUnkCROW6CreateEv kind:function(arm,size=0x24) addr:0x021320f8
_ZN19ActorProfileUnkCROWC1Ev kind:function(arm,size=0x4c) addr:0x0213211c
_ZN12ActorUnkCROWC1Ev kind:function(arm,size=0x1c8) addr:0x02132168
_ZN12ActorUnkCROW19func_ov049_02132330Ev kind:function(arm,size=0x14) addr:0x02132330
_ZN12ActorUnkCROW19func_ov049_02132344Ev kind:function(arm,size=0xc8) addr:0x02132344
_ZN12ActorUnkCROWD0Ev kind:function(arm,size=0xd0) addr:0x0213240c
_ZN12ActorUnkCROW19func_ov049_021324dcEv kind:function(arm,size=0xc0) addr:0x021324dc
_ZN12ActorUnkCROW19func_ov049_0213259cEv kind:function(arm,size=0x64) addr:0x0213259c
_ZN12ActorUnkCROW19func_ov049_02132600Ev kind:function(arm,size=0x4) addr:0x02132600
_ZN12ActorUnkCROW19func_ov049_02132604Ev kind:function(arm,size=0xd4) addr:0x02132604
_ZN12ActorUnkCROW19func_ov049_021326d8Ev kind:function(arm,size=0x3c) addr:0x021326d8
_ZN12ActorUnkCROW19func_ov049_02132714Ev kind:function(arm,size=0x48) addr:0x02132714
_ZN12ActorUnkCROW19func_ov049_0213275cEv kind:function(arm,size=0x2e4) addr:0x0213275c
_ZN12ActorUnkCROW19func_ov049_02132a40Ev kind:function(arm,size=0x2b0) addr:0x02132a40
_ZN12ActorUnkCROW19func_ov049_02132cf0Ev kind:function(arm,size=0x2c) addr:0x02132cf0
_ZN12ActorUnkCROW19func_ov049_02132d1cEv kind:function(arm,size=0xe4) addr:0x02132d1c
_ZN12ActorUnkCROW19func_ov049_02132e00Ev kind:function(arm,size=0xa8) addr:0x02132e00
_ZN12ActorUnkCROW19func_ov049_02132ea8Ev kind:function(arm,size=0x80) addr:0x02132ea8
_ZN12ActorUnkCROW19func_ov049_02132f28Ev kind:function(arm,size=0xc4) addr:0x02132f28
_ZN12ActorUnkCROW19func_ov049_02132fecEv kind:function(arm,size=0x7c) addr:0x02132fec
_ZN12ActorUnkCROW19func_ov049_02133068Ev kind:function(arm,size=0xc0) addr:0x02133068
_ZN12ActorUnkCROW19func_ov049_02133128Ev kind:function(arm,size=0x360) addr:0x02133128
_ZN12ActorUnkCROW19func_ov049_02133488Ev kind:function(arm,size=0x98) addr:0x02133488
_ZN12ActorUnkCROW19func_ov049_02133520Ev kind:function(arm,size=0x74) addr:0x02133520
_ZN12ActorUnkCROW19func_ov049_02133594Ev kind:function(arm,size=0x204) addr:0x02133594
_ZN12ActorUnkCROW19func_ov049_02133798Ev kind:function(arm,size=0x114) addr:0x02133798
_ZN12ActorUnkCROW19func_ov049_021338acEv kind:function(arm,size=0x1bc) addr:0x021338ac
_ZN12ActorUnkCROW19func_ov049_02133a68Ev kind:function(arm,size=0x64) addr:0x02133a68
_ZN12ActorUnkCROW19func_ov049_02133accEv kind:function(arm,size=0x28) addr:0x02133acc
_ZN12ActorUnkCROW19func_ov049_02133af4Ev kind:function(arm,size=0x40) addr:0x02133af4
_ZN12ActorUnkCROW19func_ov049_02133b34Ev kind:function(arm,size=0xc0) addr:0x02133b34
_ZN12ActorUnkCROW19func_ov049_02133bf4Ev kind:function(arm,size=0x7c) addr:0x02133bf4
_ZN12ActorUnkCROW19func_ov049_02133c70Ev kind:function(arm,size=0x70) addr:0x02133c70
_ZN12ActorUnkCROW19func_ov049_02133ce0Ev kind:function(arm,size=0x6c) addr:0x02133ce0
_ZN12ActorUnkCROW19func_ov049_02133d4cEv kind:function(arm,size=0x58) addr:0x02133d4c
_ZN12ActorUnkCROW19func_ov049_02133da4Ev kind:function(arm,size=0x48) addr:0x02133da4
_ZN12ActorUnkCROW19func_ov049_02133decEv kind:function(arm,size=0x84) addr:0x02133dec
_ZN12ActorUnkCROW19func_ov049_02133e70Ev kind:function(arm,size=0x28) addr:0x02133e70
_ZN12ActorUnkCROWD1Ev kind:function(arm,size=0x1c) addr:0x02133e98
_ZN12ActorUnkCROW19func_ov049_02133eb4Ev kind:function(arm,size=0x24) addr:0x02133eb4
_ZN12ActorUnkCROW19func_ov049_02133ed8Ev kind:function(arm,size=0x2c) addr:0x02133ed8
_ZN12ActorUnkCROW19func_ov049_02133f04Ev kind:function(arm,size=0xb8) addr:0x02133f04
_ZN12ActorUnkCROW19func_ov049_02133fbcEv kind:function(arm,size=0xec) addr:0x02133fbc
_ZN12ActorUnkCROW19func_ov049_021340a8Ev kind:function(arm,size=0x24) addr:0x021340a8
_ZN12ActorUnkCROW19func_ov049_021340ccEv kind:function(arm,size=0x2c) addr:0x021340cc
_ZN12ActorUnkCROW19func_ov049_021340f8Ev kind:function(arm,size=0xc) addr:0x021340f8
_ZN12ActorUnkCROW19func_ov049_02134104Ev kind:function(arm,size=0x1c) addr:0x02134104
_ZN19ActorProfileUnkCROWD1Ev kind:function(arm,size=0x14) addr:0x02134120
_ZN19ActorProfileUnkCRCH10GetProfileEv kind:function(arm,size=0xc) addr:0x02134134
_ZN19ActorProfileUnkCRCH6CreateEv kind:function(arm,size=0x24) addr:0x02134140
_ZN19ActorProfileUnkCRCHC1Ev kind:function(arm,size=0x28) addr:0x02134164
_ZN12ActorUnkCRCHC1Ev kind:function(arm,size=0x40) addr:0x0213418c
_ZN12ActorUnkCRCH19func_ov049_021341ccEv kind:function(arm,size=0x8) addr:0x021341cc
_ZN12ActorUnkCRCH19func_ov049_021341d4Ev kind:function(arm,size=0x38) addr:0x021341d4
_ZN12ActorUnkCRCH19func_ov049_0213420cEv kind:function(arm,size=0xe4) addr:0x0213420c
_ZN12ActorUnkCRCH19func_ov049_021342f0Ev kind:function(arm,size=0xd8) addr:0x021342f0
_ZN12ActorUnkCRCH19func_ov049_021343c8Ev kind:function(arm,size=0x4) addr:0x021343c8
_ZN12ActorUnkCRCH19func_ov049_021343ccEv kind:function(arm,size=0x8) addr:0x021343cc
_ZN12ActorUnkCRCH19func_ov049_021343d4Ev kind:function(arm,size=0x10) addr:0x021343d4
_ZN12ActorUnkCRCH19func_ov049_021343e4Ev kind:function(arm,size=0x14) addr:0x021343e4
_ZN12ActorUnkCRCHD1Ev kind:function(arm,size=0x1c) addr:0x021343f8
_ZN12ActorUnkCRCHD0Ev kind:function(arm,size=0x24) addr:0x02134414
_ZN19ActorProfileUnkCRCHD1Ev kind:function(arm,size=0x14) addr:0x02134438
func_ov049_0213444c kind:function(arm,size=0x10) addr:0x0213444c
func_ov049_0213445c kind:function(arm,size=0x10) addr:0x0213445c
func_ov049_0213446c kind:function(arm,size=0x20) addr:0x0213446c
func_ov049_0213448c kind:function(arm,size=0x20) addr:0x0213448c
func_ov049_021344ac kind:function(arm,size=0x20) addr:0x021344ac
func_ov049_021344cc kind:function(arm,size=0x20) addr:0x021344cc
func_ov049_021344ec kind:function(arm,size=0x20) addr:0x021344ec
func_ov049_0213450c kind:function(arm,size=0x20) addr:0x0213450c
func_ov049_0213452c kind:function(arm,size=0x20) addr:0x0213452c
func_ov049_0213454c kind:function(arm,size=0x20) addr:0x0213454c
func_ov049_0213456c kind:function(arm,size=0x20) addr:0x0213456c
func_ov049_0213458c kind:function(arm,size=0x3c) addr:0x0213458c
func_ov049_021345c8 kind:function(arm,size=0x3c) addr:0x021345c8
func_ov049_02134604 kind:function(arm,size=0x3c) addr:0x02134604
func_ov049_02134640 kind:function(arm,size=0x20) addr:0x02134640
func_ov049_02134660 kind:function(arm,size=0x20) addr:0x02134660
func_ov049_02134680 kind:function(arm,size=0x20) addr:0x02134680
func_ov049_021346a0 kind:function(arm,size=0x20) addr:0x021346a0
func_ov049_021346c0 kind:function(arm,size=0x20) addr:0x021346c0
func_ov049_021346e0 kind:function(arm,size=0x80) addr:0x021346e0
func_ov049_02134760 kind:function(arm,size=0x5c) addr:0x02134760
_ZN19ActorProfileUnkPOST10GetProfileEv kind:function(arm,size=0xc) addr:0x021347bc
_ZN19ActorProfileUnkPOST6CreateEv kind:function(arm,size=0x24) addr:0x021347c8
_ZN19ActorProfileUnkPOSTC1Ev kind:function(arm,size=0x68) addr:0x021347ec
_ZN12ActorUnkPOST19func_ov049_02134854Ev kind:function(arm,size=0x1cc) addr:0x02134854
_ZN12ActorUnkPOSTC1Ev kind:function(arm,size=0x16c) addr:0x02134a20
_ZN12ActorUnkPOSTD1Ev kind:function(arm,size=0x50) addr:0x02134b8c
_ZN12ActorUnkPOSTD0Ev kind:function(arm,size=0x58) addr:0x02134bdc
_ZN12ActorUnkPOST19func_ov049_02134c34Ev kind:function(arm,size=0xb4) addr:0x02134c34
_ZN12ActorUnkPOST19func_ov049_02134ce8Ev kind:function(arm,size=0x64) addr:0x02134ce8
_ZN12ActorUnkPOST19func_ov049_02134d4cEv kind:function(arm,size=0x4c) addr:0x02134d4c
_ZN12ActorUnkPOST19func_ov049_02134d98Ev kind:function(arm,size=0x34) addr:0x02134d98
_ZN12ActorUnkPOST19func_ov049_02134dccEv kind:function(arm,size=0x14) addr:0x02134dcc
_ZN12ActorUnkPOST19func_ov049_02134de0Ev kind:function(arm,size=0x40) addr:0x02134de0
_ZN12ActorUnkPOST19func_ov049_02134e20Ev kind:function(arm,size=0x4) addr:0x02134e20
_ZN12ActorUnkPOST19func_ov049_02134e24Ev kind:function(arm,size=0x24) addr:0x02134e24
_ZN12ActorUnkPOST19func_ov049_02134e48Ev kind:function(arm,size=0xc) addr:0x02134e48
_ZN12ActorUnkPOST19func_ov049_02134e54Ev kind:function(arm,size=0x84) addr:0x02134e54
_ZN12ActorUnkPOST19func_ov049_02134ed8Ev kind:function(arm,size=0x94) addr:0x02134ed8
_ZN12ActorUnkPOST19func_ov049_02134f6cEv kind:function(arm,size=0x108) addr:0x02134f6c
_ZN12ActorUnkPOST19func_ov049_02135074Ev kind:function(arm,size=0x8c) addr:0x02135074
_ZN12ActorUnkPOST19func_ov049_02135100Ev kind:function(arm,size=0xcc) addr:0x02135100
_ZN12ActorUnkPOST19func_ov049_021351ccEv kind:function(arm,size=0x28) addr:0x021351cc
_ZN12ActorUnkPOSTD2Ev kind:function(arm,size=0x20) addr:0x021351f4
_ZN19ActorProfileUnkPOSTD1Ev kind:function(arm,size=0x14) addr:0x02135214
func_ov049_02135228 kind:function(arm,size=0x20) addr:0x02135228
func_ov049_02135248 kind:function(arm,size=0x20) addr:0x02135248
func_ov049_02135268 kind:function(arm,size=0x20) addr:0x02135268
func_ov049_02135288 kind:function(arm,size=0x20) addr:0x02135288
func_ov049_021352a8 kind:function(arm,size=0x20) addr:0x021352a8
func_ov049_021352c8 kind:function(arm,size=0x20) addr:0x021352c8
func_ov049_021352e8 kind:function(arm,size=0x20) addr:0x021352e8
func_ov049_02135308 kind:function(arm,size=0x20) addr:0x02135308
func_ov049_02135328 kind:function(arm,size=0x20) addr:0x02135328
func_ov049_02135348 kind:function(arm,size=0x3c) addr:0x02135348
func_ov049_02135384 kind:function(arm,size=0x3c) addr:0x02135384
func_ov049_021353c0 kind:function(arm,size=0x3c) addr:0x021353c0
func_ov049_021353fc kind:function(arm,size=0x20) addr:0x021353fc
func_ov049_0213541c kind:function(arm,size=0x20) addr:0x0213541c
func_ov049_0213543c kind:function(arm,size=0x20) addr:0x0213543c
func_ov049_0213545c kind:function(arm,size=0x20) addr:0x0213545c
func_ov049_0213547c kind:function(arm,size=0x20) addr:0x0213547c
func_ov049_0213549c kind:function(arm,size=0x80) addr:0x0213549c
func_ov049_0213551c kind:function(arm,size=0x2c) addr:0x0213551c
_ZN19ActorProfileUnkPTMN10GetProfileEv kind:function(arm,size=0xc) addr:0x02135548
_ZN19ActorProfileUnkPTMN6CreateEv kind:function(arm,size=0x24) addr:0x02135554
_ZN19ActorProfileUnkPTMNC1Ev kind:function(arm,size=0x54) addr:0x02135578
_ZN12ActorUnkPTMNC1Ev kind:function(thumb,size=0x160) addr:0x021355cc
_ZN12ActorUnkPTMN19func_ov049_0213572cEv kind:function(thumb,size=0xc) addr:0x0213572c
_ZN12ActorUnkPTMN19func_ov049_02135738Ev kind:function(thumb,size=0xc) addr:0x02135738
_ZN12ActorUnkPTMN19func_ov049_02135744Ev kind:function(thumb,size=0xc) addr:0x02135744
_ZN12ActorUnkPTMN19func_ov049_02135750Ev kind:function(thumb,size=0x44) addr:0x02135750
_ZN12ActorUnkPTMND0Ev kind:function(thumb,size=0x48) addr:0x02135794
_ZN12ActorUnkPTMN19func_ov049_021357dcEv kind:function(arm,size=0x80) addr:0x021357dc
_ZN12ActorUnkPTMN19func_ov049_0213585cEv kind:function(arm,size=0x68) addr:0x0213585c
_ZN12ActorUnkPTMN19func_ov049_021358c4Ev kind:function(arm,size=0x254) addr:0x021358c4
_ZN12ActorUnkPTMN19func_ov049_02135b18Ev kind:function(arm,size=0x14) addr:0x02135b18
_ZN12ActorUnkPTMN19func_ov049_02135b2cEv kind:function(arm,size=0x2c) addr:0x02135b2c
_ZN12ActorUnkPTMN19func_ov049_02135b58Ev kind:function(arm,size=0xc) addr:0x02135b58
_ZN12ActorUnkPTMN19func_ov049_02135b64Ev kind:function(arm,size=0x10c) addr:0x02135b64
_ZN12ActorUnkPTMN19func_ov049_02135c70Ev kind:function(arm,size=0x3d0) addr:0x02135c70
_ZN12ActorUnkPTMN19func_ov049_02136040Ev kind:function(arm,size=0x14) addr:0x02136040
_ZN12ActorUnkPTMN19func_ov049_02136054Ev kind:function(arm,size=0x4) addr:0x02136054
_ZN12ActorUnkPTMN19func_ov049_02136058Ev kind:function(arm,size=0x68) addr:0x02136058
_ZN12ActorUnkPTMN19func_ov049_021360c0Ev kind:function(arm,size=0x1c0) addr:0x021360c0
_ZN12ActorUnkPTMN19func_ov049_02136280Ev kind:function(arm,size=0x14) addr:0x02136280
_ZN12ActorUnkPTMN19func_ov049_02136294Ev kind:function(arm,size=0x58) addr:0x02136294
_ZN12ActorUnkPTMN19func_ov049_021362ecEv kind:function(arm,size=0xcc) addr:0x021362ec
_ZN12ActorUnkPTMN19func_ov049_021363b8Ev kind:function(arm,size=0xd0) addr:0x021363b8
_ZN12ActorUnkPTMN19func_ov049_02136488Ev kind:function(arm,size=0x170) addr:0x02136488
_ZN12ActorUnkPTMN19func_ov049_021365f8Ev kind:function(arm,size=0xd0) addr:0x021365f8
_ZN12ActorUnkPTMN19func_ov049_021366c8Ev kind:function(arm,size=0x2c) addr:0x021366c8
_ZN12ActorUnkPTMN19func_ov049_021366f4Ev kind:function(arm,size=0x14) addr:0x021366f4
_ZN12ActorUnkPTMN19func_ov049_02136708Ev kind:function(arm,size=0x14) addr:0x02136708
_ZN12ActorUnkPTMN19func_ov049_0213671cEv kind:function(arm,size=0x6c) addr:0x0213671c
_ZN12ActorUnkPTMN19func_ov049_02136788Ev kind:function(arm,size=0x18) addr:0x02136788
_ZN12ActorUnkPTMN19func_ov049_021367a0Ev kind:function(arm,size=0xa4) addr:0x021367a0
_ZN12ActorUnkPTMN19func_ov049_02136844Ev kind:function(arm,size=0x2c) addr:0x02136844
_ZN12ActorUnkPTMN19func_ov049_02136870Ev kind:function(arm,size=0x104) addr:0x02136870
_ZN12ActorUnkPTMN19func_ov049_02136974Ev kind:function(arm,size=0x54) addr:0x02136974
_ZN12ActorUnkPTMN19func_ov049_021369c8Ev kind:function(arm,size=0xb8) addr:0x021369c8
_ZN12ActorUnkPTMN19func_ov049_02136a80Ev kind:function(arm,size=0x10) addr:0x02136a80
_ZN12ActorUnkPTMN19func_ov049_02136a90Ev kind:function(arm,size=0x1c) addr:0x02136a90
_ZN12ActorUnkPTMN19func_ov049_02136aacEv kind:function(arm,size=0x1c) addr:0x02136aac
_ZN12ActorUnkPTMN19func_ov049_02136ac8Ev kind:function(arm,size=0x1c) addr:0x02136ac8
_ZN12ActorUnkPTMN19func_ov049_02136ae4Ev kind:function(arm,size=0x28) addr:0x02136ae4
_ZN12ActorUnkPTMND2Ev kind:function(arm,size=0x20) addr:0x02136b0c
_ZN19ActorProfileUnkPTMND1Ev kind:function(arm,size=0x14) addr:0x02136b2c
data_ov049_02136b40 kind:data(any) addr:0x02136b40
data_ov049_02136b44 kind:data(any) addr:0x02136b44
data_ov049_02136b48 kind:data(any) addr:0x02136b48
data_ov049_02136b4c kind:data(any) addr:0x02136b4c
data_ov049_02136b50 kind:data(any) addr:0x02136b50
data_ov049_02136b58 kind:data(any) addr:0x02136b58
data_ov049_02136b5c kind:data(any) addr:0x02136b5c
data_ov049_02136b60 kind:data(any) addr:0x02136b60
data_ov049_02136b64 kind:data(any) addr:0x02136b64
__sinit_ActorUnkBEEE.cpp kind:function(arm,size=0x50) addr:0x02136b70
__sinit_ActorUnkBEEH.cpp kind:function(arm,size=0x50) addr:0x02136bc0
__sinit_ActorUnkCROW.cpp kind:function(arm,size=0x50) addr:0x02136c10
__sinit_ActorUnkCRCH.cpp kind:function(arm,size=0x50) addr:0x02136c60
__sinit_ActorUnkPOST.cpp kind:function(arm,size=0x30c) addr:0x02136cb0
__sinit_ActorUnkPTMN.cpp kind:function(arm,size=0x30c) addr:0x02136fbc
.p__sinit_ActorUnkBEEE.cpp kind:data(word) addr:0x021372c8
.p__sinit_ActorUnkBEEH.cpp kind:data(word) addr:0x021372cc
.p__sinit_ActorUnkCROW.cpp kind:data(word) addr:0x021372d0
.p__sinit_ActorUnkCRCH.cpp kind:data(word) addr:0x021372d4
.p__sinit_ActorUnkPOST.cpp kind:data(word) addr:0x021372d8
.p__sinit_ActorUnkPTMN.cpp kind:data(word) addr:0x021372dc
_ZTV19data_ov049_02137300 kind:data(any) addr:0x02137300
data_ov049_02137324 kind:data(any) addr:0x02137324
data_ov049_02137354 kind:data(any) addr:0x02137354
_ZTV19data_ov049_02137384 kind:data(any) addr:0x02137384
data_ov049_021373e4 kind:data(any) addr:0x021373e4
data_ov049_021373e8 kind:data(any) addr:0x021373e8
data_ov049_02137418 kind:data(any) addr:0x02137418
_ZTV19data_ov049_02137448 kind:data(any) addr:0x02137448
_ZTV19data_ov049_0213746c kind:data(any) addr:0x0213746c
data_ov049_021374cc kind:data(any) addr:0x021374cc
data_ov049_021374d0 kind:data(any) addr:0x021374d0
data_ov049_021374e8 kind:data(any) addr:0x021374e8
data_ov049_02137508 kind:data(any) addr:0x02137508
_ZTV19data_ov049_0213751c kind:data(any) addr:0x0213751c
data_ov049_02137540 kind:data(any) addr:0x02137540
data_ov049_02137588 kind:data(any) addr:0x02137588
data_ov049_021375d8 kind:data(any) addr:0x021375d8
data_ov049_021375e4 kind:data(any) addr:0x021375e4 ambiguous
_ZTV19data_ov049_0213761c kind:data(any) addr:0x0213761c
data_ov049_02137684 kind:data(any) addr:0x02137684
_ZTV19data_ov049_02137690 kind:data(any) addr:0x02137690
_ZTV19data_ov049_021376b4 kind:data(any) addr:0x021376b4
data_ov049_02137720 kind:data(any) addr:0x02137720
_ZTV19data_ov049_0213772c kind:data(any) addr:0x0213772c
data_ov049_02137758 kind:data(any) addr:0x02137758
data_ov049_02137778 kind:data(any) addr:0x02137778
data_ov049_021377d0 kind:data(any) addr:0x021377d0
data_ov049_02137828 kind:data(any) addr:0x02137828
_ZTV19data_ov049_02137888 kind:data(any) addr:0x02137888
_ZTV19data_ov049_0213794c kind:data(any) addr:0x0213794c
data_ov049_02137a10 kind:data(any) addr:0x02137a10
data_ov049_02137a20 kind:data(any) addr:0x02137a20
data_ov049_02137a30 kind:data(any) addr:0x02137a30
data_ov049_02137a40 kind:data(any) addr:0x02137a40
data_ov049_02137a50 kind:data(any) addr:0x02137a50
data_ov049_02137a60 kind:data(any) addr:0x02137a60
data_ov049_02137a70 kind:data(any) addr:0x02137a70
data_ov049_02137a80 kind:data(any) addr:0x02137a80
data_ov049_02137a90 kind:data(any) addr:0x02137a90
data_ov049_02137aa0 kind:data(any) addr:0x02137aa0
data_ov049_02137ab0 kind:data(any) addr:0x02137ab0
data_ov049_02137ac0 kind:data(any) addr:0x02137ac0
data_ov049_02137ad0 kind:data(any) addr:0x02137ad0
data_ov049_02137ae0 kind:data(any) addr:0x02137ae0
data_ov049_02137af0 kind:data(any) addr:0x02137af0
data_ov049_02137b00 kind:data(any) addr:0x02137b00
data_ov049_02137b10 kind:data(any) addr:0x02137b10
data_ov049_02137b20 kind:data(any) addr:0x02137b20
data_ov049_02137b22 kind:data(any) addr:0x02137b22
data_ov049_02137b24 kind:data(any) addr:0x02137b24
_ZTV19data_ov049_02137b28 kind:data(any) addr:0x02137b28
_ZTV19data_ov049_02137b44 kind:data(any) addr:0x02137b44
data_ov049_02137b70 kind:data(any) addr:0x02137b70
data_ov049_02137b9c kind:data(any) addr:0x02137b9c
data_ov049_02137be0 kind:data(any) addr:0x02137be0
data_ov049_02137c50 kind:data(any) addr:0x02137c50
data_ov049_02137cc0 kind:data(any) addr:0x02137cc0
data_ov049_02137cd8 kind:data(any) addr:0x02137cd8
data_ov049_02137d20 kind:data(any) addr:0x02137d20
data_ov049_02137d38 kind:data(any) addr:0x02137d38
data_ov049_02137d50 kind:data(any) addr:0x02137d50
_ZTV19data_ov049_02137d68 kind:data(any) addr:0x02137d68
_ZTV19data_ov049_02137e2c kind:data(any) addr:0x02137e2c
data_ov049_02137ef0 kind:data(any) addr:0x02137ef0
data_ov049_02137ef4 kind:data(any) addr:0x02137ef4
data_ov049_02137f00 kind:data(any) addr:0x02137f00
data_ov049_02137f10 kind:data(any) addr:0x02137f10
data_ov049_02137f20 kind:data(any) addr:0x02137f20
data_ov049_02137f30 kind:data(any) addr:0x02137f30
data_ov049_02137f40 kind:data(any) addr:0x02137f40
data_ov049_02137f50 kind:data(any) addr:0x02137f50
data_ov049_02137f60 kind:data(any) addr:0x02137f60
data_ov049_02137f70 kind:data(any) addr:0x02137f70
data_ov049_02137f80 kind:data(any) addr:0x02137f80
data_ov049_02137f90 kind:data(any) addr:0x02137f90
data_ov049_02137fa0 kind:data(any) addr:0x02137fa0
data_ov049_02137fb0 kind:data(any) addr:0x02137fb0
data_ov049_02137fc0 kind:data(any) addr:0x02137fc0
data_ov049_02137fd0 kind:data(any) addr:0x02137fd0
data_ov049_02137fe0 kind:data(any) addr:0x02137fe0
data_ov049_02137ff0 kind:data(any) addr:0x02137ff0
_ZGVN15ProfileInstanceI19ActorProfileUnkBEEEE8sProfileE kind:bss addr:0x02138000
@11801 kind:bss addr:0x02138004
_ZN15ProfileInstanceI19ActorProfileUnkBEEEE8sProfileE kind:bss addr:0x02138010
_ZGVN15ProfileInstanceI19ActorProfileUnkBEEHE8sProfileE kind:bss addr:0x021380e8
@11807 kind:bss addr:0x021380ec
_ZN15ProfileInstanceI19ActorProfileUnkBEEHE8sProfileE kind:bss addr:0x021380f8
_ZGVN15ProfileInstanceI19ActorProfileUnkCROWE8sProfileE kind:bss addr:0x021381d0
@11813 kind:bss addr:0x021381d4
_ZN15ProfileInstanceI19ActorProfileUnkCROWE8sProfileE kind:bss addr:0x021381e0
_ZGVN15ProfileInstanceI19ActorProfileUnkCRCHE8sProfileE kind:bss addr:0x021382b8
@11819 kind:bss addr:0x021382bc
_ZN15ProfileInstanceI19ActorProfileUnkCRCHE8sProfileE kind:bss addr:0x021382c8
_ZGVN15ProfileInstanceI19ActorProfileUnkPOSTE8sProfileE kind:bss addr:0x02138304
@11825 kind:bss addr:0x02138308
_ZN15ProfileInstanceI19ActorProfileUnkPOSTE8sProfileE kind:bss addr:0x02138314
data_ov049_021383ec kind:bss addr:0x021383ec
data_ov049_021383f0 kind:bss addr:0x021383f0
_ZN15ProfileInstanceI19ActorProfileUnkPTMNE8sProfileE kind:bss addr:0x021383fc
