_ZN19ActorProfileUnkDSDS10GetProfileEv kind:function(arm,size=0xc) addr:0x02154440
_ZN19ActorProfileUnkDSDS6CreateEv kind:function(arm,size=0x24) addr:0x0215444c
_ZN19ActorProfileUnkDSDSC1Ev kind:function(arm,size=0x28) addr:0x02154470
_ZN12ActorUnkDSDSC1Ev kind:function(arm,size=0x20) addr:0x02154498
_ZN12ActorUnkDSDS19func_ov086_021544b8Ev kind:function(arm,size=0x50) addr:0x021544b8
_ZN12ActorUnkDSDSD1Ev kind:function(arm,size=0x20) addr:0x02154508
_ZN12ActorUnkDSDSD0Ev kind:function(arm,size=0x28) addr:0x02154528
_ZN19ActorProfileUnkDSDSD1Ev kind:function(arm,size=0x14) addr:0x02154550
_ZN19ActorProfileUnkHAMN10GetProfileEv kind:function(arm,size=0xc) addr:0x02154564
_ZN19ActorProfileUnkHAMN6CreateEv kind:function(arm,size=0x24) addr:0x02154570
_ZN19ActorProfileUnkHAMNC1Ev kind:function(arm,size=0x5c) addr:0x02154594
_ZN12ActorUnkHAMN19func_ov086_021545f0Ev kind:function(arm,size=0x50) addr:0x021545f0
_ZN12ActorUnkHAMN19func_ov086_02154640Ev kind:function(arm,size=0x78) addr:0x02154640
_ZN12ActorUnkHAMN19func_ov086_021546b8Ev kind:function(arm,size=0x3c) addr:0x021546b8
_ZN12ActorUnkHAMN19func_ov086_021546f4Ev kind:function(arm,size=0x20) addr:0x021546f4
_ZN12ActorUnkHAMN19func_ov086_02154714Ev kind:function(arm,size=0x30) addr:0x02154714
_ZN12ActorUnkHAMN19func_ov086_02154744Ev kind:function(arm,size=0x104) addr:0x02154744
_ZN12ActorUnkHAMNC1Ev kind:function(arm,size=0x248) addr:0x02154848
_ZN12ActorUnkHAMN19func_ov086_02154a90Ev kind:function(arm,size=0x14) addr:0x02154a90
_ZN12ActorUnkHAMN19func_ov086_02154aa4Ev kind:function(arm,size=0x14) addr:0x02154aa4
_ZN12ActorUnkHAMN19func_ov086_02154ab8Ev kind:function(arm,size=0x14) addr:0x02154ab8
_ZN12ActorUnkHAMN19func_ov086_02154accEv kind:function(arm,size=0x14) addr:0x02154acc
_ZN12ActorUnkHAMN19func_ov086_02154ae0Ev kind:function(arm,size=0x14) addr:0x02154ae0
_ZN12ActorUnkHAMND1Ev kind:function(arm,size=0x50) addr:0x02154af4
_ZN12ActorUnkHAMND0Ev kind:function(arm,size=0x58) addr:0x02154b44
_ZN12ActorUnkHAMN19func_ov086_02154b9cEv kind:function(arm,size=0xfc) addr:0x02154b9c
_ZN12ActorUnkHAMN19func_ov086_02154c98Ev kind:function(arm,size=0x38) addr:0x02154c98
_ZN12ActorUnkHAMN19func_ov086_02154cd0Ev kind:function(arm,size=0x58) addr:0x02154cd0
_ZN12ActorUnkHAMN19func_ov086_02154d28Ev kind:function(arm,size=0x330) addr:0x02154d28
_ZN12ActorUnkHAMN19func_ov086_02155058Ev kind:function(arm,size=0x80) addr:0x02155058
_ZN12ActorUnkHAMN19func_ov086_021550d8Ev kind:function(arm,size=0x4c) addr:0x021550d8
_ZN12ActorUnkHAMN19func_ov086_02155124Ev kind:function(arm,size=0x114) addr:0x02155124
_ZN12ActorUnkHAMN19func_ov086_02155238Ev kind:function(arm,size=0xb0) addr:0x02155238
_ZN12ActorUnkHAMN19func_ov086_021552e8Ev kind:function(arm,size=0x64) addr:0x021552e8
_ZN12ActorUnkHAMN19func_ov086_0215534cEv kind:function(arm,size=0xc8) addr:0x0215534c
_ZN12ActorUnkHAMN19func_ov086_02155414Ev kind:function(arm,size=0x7c) addr:0x02155414
_ZN12ActorUnkHAMN19func_ov086_02155490Ev kind:function(arm,size=0x48) addr:0x02155490
_ZN12ActorUnkHAMN19func_ov086_021554d8Ev kind:function(arm,size=0x94) addr:0x021554d8
_ZN12ActorUnkHAMN19func_ov086_0215556cEv kind:function(arm,size=0x90) addr:0x0215556c
_ZN12ActorUnkHAMN19func_ov086_021555fcEv kind:function(arm,size=0x34) addr:0x021555fc
_ZN12ActorUnkHAMN19func_ov086_02155630Ev kind:function(arm,size=0xc8) addr:0x02155630
_ZN12ActorUnkHAMN19func_ov086_021556f8Ev kind:function(arm,size=0x104) addr:0x021556f8
_ZN12ActorUnkHAMN19func_ov086_021557fcEv kind:function(arm,size=0x88) addr:0x021557fc
_ZN12ActorUnkHAMN19func_ov086_02155884Ev kind:function(arm,size=0x4c) addr:0x02155884
_ZN12ActorUnkHAMN19func_ov086_021558d0Ev kind:function(arm,size=0x6c) addr:0x021558d0
_ZN12ActorUnkHAMN19func_ov086_0215593cEv kind:function(arm,size=0x1f0) addr:0x0215593c
_ZN12ActorUnkHAMN19func_ov086_02155b2cEv kind:function(arm,size=0xa0) addr:0x02155b2c
_ZN12ActorUnkHAMN19func_ov086_02155bccEv kind:function(arm,size=0x74) addr:0x02155bcc
_ZN12ActorUnkHAMN19func_ov086_02155c40Ev kind:function(arm,size=0x74) addr:0x02155c40
_ZN12ActorUnkHAMN19func_ov086_02155cb4Ev kind:function(arm,size=0x34) addr:0x02155cb4
_ZN12ActorUnkHAMN19func_ov086_02155ce8Ev kind:function(arm,size=0x74) addr:0x02155ce8
_ZN12ActorUnkHAMN19func_ov086_02155d5cEv kind:function(arm,size=0x34) addr:0x02155d5c
_ZN12ActorUnkHAMN19func_ov086_02155d90Ev kind:function(arm,size=0x15c) addr:0x02155d90
_ZN12ActorUnkHAMN19func_ov086_02155eecEv kind:function(arm,size=0x128) addr:0x02155eec
_ZN12ActorUnkHAMN19func_ov086_02156014Ev kind:function(arm,size=0x9c) addr:0x02156014
_ZN12ActorUnkHAMN19func_ov086_021560b0Ev kind:function(arm,size=0x34) addr:0x021560b0
_ZN12ActorUnkHAMN19func_ov086_021560e4Ev kind:function(arm,size=0x104) addr:0x021560e4
_ZN12ActorUnkHAMN19func_ov086_021561e8Ev kind:function(arm,size=0xe4) addr:0x021561e8
_ZN12ActorUnkHAMN19func_ov086_021562ccEv kind:function(arm,size=0x9c) addr:0x021562cc
_ZN12ActorUnkHAMN19func_ov086_02156368Ev kind:function(arm,size=0x2c) addr:0x02156368
_ZN12ActorUnkHAMN19func_ov086_02156394Ev kind:function(arm,size=0x58) addr:0x02156394
_ZN12ActorUnkHAMN19func_ov086_021563ecEv kind:function(arm,size=0x88) addr:0x021563ec
_ZN12ActorUnkHAMN19func_ov086_02156474Ev kind:function(arm,size=0x24) addr:0x02156474
_ZN12ActorUnkHAMN19func_ov086_02156498Ev kind:function(arm,size=0x154) addr:0x02156498
_ZN12ActorUnkHAMN19func_ov086_021565ecEv kind:function(arm,size=0x178) addr:0x021565ec
_ZN12ActorUnkHAMN19func_ov086_02156764Ev kind:function(arm,size=0x198) addr:0x02156764
_ZN12ActorUnkHAMN19func_ov086_021568fcEv kind:function(arm,size=0x13c) addr:0x021568fc
_ZN12ActorUnkHAMN19func_ov086_02156a38Ev kind:function(arm,size=0x48) addr:0x02156a38
_ZN12ActorUnkHAMN19func_ov086_02156a80Ev kind:function(arm,size=0x8c) addr:0x02156a80
_ZN12ActorUnkHAMN19func_ov086_02156b0cEv kind:function(arm,size=0x94) addr:0x02156b0c
_ZN12ActorUnkHAMN19func_ov086_02156ba0Ev kind:function(arm,size=0xa0) addr:0x02156ba0
_ZN12ActorUnkHAMN19func_ov086_02156c40Ev kind:function(arm,size=0x48) addr:0x02156c40
_ZN12ActorUnkHAMN19func_ov086_02156c88Ev kind:function(arm,size=0x6c) addr:0x02156c88
_ZN12ActorUnkHAMN19func_ov086_02156cf4Ev kind:function(arm,size=0x110) addr:0x02156cf4
_ZN12ActorUnkHAMN19func_ov086_02156e04Ev kind:function(arm,size=0x14) addr:0x02156e04
_ZN12ActorUnkHAMN19func_ov086_02156e18Ev kind:function(arm,size=0xec) addr:0x02156e18
_ZN12ActorUnkHAMN19func_ov086_02156f04Ev kind:function(arm,size=0x914) addr:0x02156f04
_ZN12ActorUnkHAMN19func_ov086_02157818Ev kind:function(arm,size=0xcc) addr:0x02157818
_ZN12ActorUnkHAMN19func_ov086_021578e4Ev kind:function(arm,size=0x2c) addr:0x021578e4
_ZN12ActorUnkHAMN19func_ov086_02157910Ev kind:function(arm,size=0x68) addr:0x02157910
_ZN12ActorUnkHAMN19func_ov086_02157978Ev kind:function(arm,size=0x30) addr:0x02157978
_ZN12ActorUnkHAMN19func_ov086_021579a8Ev kind:function(arm,size=0x40) addr:0x021579a8
_ZN12ActorUnkHAMN19func_ov086_021579e8Ev kind:function(arm,size=0x4c) addr:0x021579e8
_ZN12ActorUnkHAMN19func_ov086_02157a34Ev kind:function(arm,size=0x80) addr:0x02157a34
_ZN12ActorUnkHAMN19func_ov086_02157ab4Ev kind:function(arm,size=0x80) addr:0x02157ab4
_ZN12ActorUnkHAMN19func_ov086_02157b34Ev kind:function(arm,size=0x60) addr:0x02157b34
_ZN12ActorUnkHAMN19func_ov086_02157b94Ev kind:function(arm,size=0x20) addr:0x02157b94
_ZN12ActorUnkHAMN19func_ov086_02157bb4Ev kind:function(arm,size=0x18) addr:0x02157bb4
_ZN12ActorUnkHAMN19func_ov086_02157bccEv kind:function(arm,size=0xc) addr:0x02157bcc
_ZN12ActorUnkHAMN19func_ov086_02157bd8Ev kind:function(arm,size=0x44) addr:0x02157bd8
_ZN12ActorUnkHAMN19func_ov086_02157c1cEv kind:function(arm,size=0x114) addr:0x02157c1c
_ZN12ActorUnkHAMN19func_ov086_02157d30Ev kind:function(arm,size=0xb8) addr:0x02157d30
_ZN12ActorUnkHAMN19func_ov086_02157de8Ev kind:function(arm,size=0xa8) addr:0x02157de8
_ZN12ActorUnkHAMN19func_ov086_02157e90Ev kind:function(arm,size=0xb4) addr:0x02157e90
_ZN12ActorUnkHAMN19func_ov086_02157f44Ev kind:function(arm,size=0x24) addr:0x02157f44
_ZN12ActorUnkHAMN19func_ov086_02157f68Ev kind:function(arm,size=0x10) addr:0x02157f68
_ZN12ActorUnkHAMN19func_ov086_02157f78Ev kind:function(arm,size=0x8) addr:0x02157f78
_ZN12ActorUnkHAMN19func_ov086_02157f80Ev kind:function(arm,size=0x24) addr:0x02157f80
_ZN12ActorUnkHAMN19func_ov086_02157fa4Ev kind:function(arm,size=0x2c) addr:0x02157fa4
_ZN12ActorUnkHAMN19func_ov086_02157fd0Ev kind:function(arm,size=0x1c) addr:0x02157fd0
_ZN12ActorUnkHAMN19func_ov086_02157fecEv kind:function(arm,size=0x1c) addr:0x02157fec
_ZN12ActorUnkHAMN19func_ov086_02158008Ev kind:function(arm,size=0x1c) addr:0x02158008
_ZN12ActorUnkHAMN19func_ov086_02158024Ev kind:function(arm,size=0x1c) addr:0x02158024
_ZN12ActorUnkHAMN19func_ov086_02158040Ev kind:function(arm,size=0x1c) addr:0x02158040
_ZN19ActorProfileUnkHAMND1Ev kind:function(arm,size=0x14) addr:0x0215805c
_ZN19ActorProfileUnkOCTG10GetProfileEv kind:function(arm,size=0xc) addr:0x02158070
_ZN19ActorProfileUnkOCTG6CreateEv kind:function(arm,size=0x24) addr:0x0215807c
_ZN19ActorProfileUnkOCTGC1Ev kind:function(arm,size=0x50) addr:0x021580a0
_ZN12ActorUnkOCTG19func_ov086_021580f0Ev kind:function(arm,size=0x30) addr:0x021580f0
_ZN12ActorUnkOCTG19func_ov086_02158120Ev kind:function(arm,size=0x24) addr:0x02158120
_ZN12ActorUnkOCTG19func_ov086_02158144Ev kind:function(arm,size=0xd0) addr:0x02158144
_ZN12ActorUnkOCTG19func_ov086_02158214Ev kind:function(arm,size=0x4c) addr:0x02158214
_ZN12ActorUnkOCTG19func_ov086_02158260Ev kind:function(arm,size=0x38) addr:0x02158260
_ZN12ActorUnkOCTG19func_ov086_02158298Ev kind:function(arm,size=0x28) addr:0x02158298
_ZN12ActorUnkOCTGC1Ev kind:function(arm,size=0x1f8) addr:0x021582c0
_ZN12ActorUnkOCTG19func_ov086_021584b8Ev kind:function(arm,size=0x14) addr:0x021584b8
_ZN12ActorUnkOCTG19func_ov086_021584ccEv kind:function(arm,size=0xa0) addr:0x021584cc
_ZN12ActorUnkOCTGD0Ev kind:function(arm,size=0xa8) addr:0x0215856c
_ZN12ActorUnkOCTG19func_ov086_02158614Ev kind:function(arm,size=0x70) addr:0x02158614
_ZN12ActorUnkOCTG19func_ov086_02158684Ev kind:function(arm,size=0x30) addr:0x02158684
_ZN12ActorUnkOCTG19func_ov086_021586b4Ev kind:function(arm,size=0x48) addr:0x021586b4
_ZN12ActorUnkOCTG19func_ov086_021586fcEv kind:function(arm,size=0x9ac) addr:0x021586fc
_ZN12ActorUnkOCTG19func_ov086_021590a8Ev kind:function(arm,size=0x5c) addr:0x021590a8
_ZN12ActorUnkOCTG19func_ov086_02159104Ev kind:function(arm,size=0xe8) addr:0x02159104
_ZN12ActorUnkOCTG19func_ov086_021591ecEv kind:function(arm,size=0x6c) addr:0x021591ec
_ZN12ActorUnkOCTG19func_ov086_02159258Ev kind:function(arm,size=0x88) addr:0x02159258
_ZN12ActorUnkOCTG19func_ov086_021592e0Ev kind:function(arm,size=0x74) addr:0x021592e0
_ZN12ActorUnkOCTG19func_ov086_02159354Ev kind:function(arm,size=0x110) addr:0x02159354
_ZN12ActorUnkOCTG19func_ov086_02159464Ev kind:function(arm,size=0x118) addr:0x02159464
_ZN12ActorUnkOCTG19func_ov086_0215957cEv kind:function(arm,size=0x110) addr:0x0215957c
_ZN12ActorUnkOCTG19func_ov086_0215968cEv kind:function(arm,size=0x150) addr:0x0215968c
_ZN12ActorUnkOCTG19func_ov086_021597dcEv kind:function(arm,size=0x4a8) addr:0x021597dc
_ZN12ActorUnkOCTG19func_ov086_02159c84Ev kind:function(arm,size=0xa0) addr:0x02159c84
_ZN12ActorUnkOCTG19func_ov086_02159d24Ev kind:function(arm,size=0xd0) addr:0x02159d24
_ZN12ActorUnkOCTG19func_ov086_02159df4Ev kind:function(arm,size=0xac) addr:0x02159df4
_ZN12ActorUnkOCTG19func_ov086_02159ea0Ev kind:function(arm,size=0xd0) addr:0x02159ea0
_ZN12ActorUnkOCTG19func_ov086_02159f70Ev kind:function(arm,size=0x4) addr:0x02159f70
_ZN12ActorUnkOCTG19func_ov086_02159f74Ev kind:function(arm,size=0xbc) addr:0x02159f74
_ZN12ActorUnkOCTG19func_ov086_0215a030Ev kind:function(arm,size=0x94) addr:0x0215a030
_ZN12ActorUnkOCTG19func_ov086_0215a0c4Ev kind:function(arm,size=0x3ac) addr:0x0215a0c4
_ZN12ActorUnkOCTG19func_ov086_0215a470Ev kind:function(arm,size=0xb0) addr:0x0215a470
_ZN12ActorUnkOCTG19func_ov086_0215a520Ev kind:function(arm,size=0x1b4) addr:0x0215a520
_ZN12ActorUnkOCTG19func_ov086_0215a6d4Ev kind:function(arm,size=0x104) addr:0x0215a6d4
_ZN12ActorUnkOCTG19func_ov086_0215a7d8Ev kind:function(arm,size=0xbc) addr:0x0215a7d8
_ZN12ActorUnkOCTG19func_ov086_0215a894Ev kind:function(arm,size=0x78) addr:0x0215a894
_ZN12ActorUnkOCTG19func_ov086_0215a90cEv kind:function(arm,size=0x84) addr:0x0215a90c
_ZN12ActorUnkOCTG19func_ov086_0215a990Ev kind:function(arm,size=0xa0) addr:0x0215a990
_ZN12ActorUnkOCTG19func_ov086_0215aa30Ev kind:function(arm,size=0x11c) addr:0x0215aa30
_ZN12ActorUnkOCTG19func_ov086_0215ab4cEv kind:function(arm,size=0x8c) addr:0x0215ab4c
_ZN12ActorUnkOCTG19func_ov086_0215abd8Ev kind:function(arm,size=0xac) addr:0x0215abd8
_ZN12ActorUnkOCTG19func_ov086_0215ac84Ev kind:function(arm,size=0x90) addr:0x0215ac84
_ZN12ActorUnkOCTG19func_ov086_0215ad14Ev kind:function(arm,size=0x2c) addr:0x0215ad14
_ZN12ActorUnkOCTG19func_ov086_0215ad40Ev kind:function(arm,size=0x94) addr:0x0215ad40
_ZN12ActorUnkOCTG19func_ov086_0215add4Ev kind:function(arm,size=0x10) addr:0x0215add4
_ZN12ActorUnkOCTG19func_ov086_0215ade4Ev kind:function(arm,size=0x30) addr:0x0215ade4
_ZN12ActorUnkOCTG19func_ov086_0215ae14Ev kind:function(arm,size=0x84) addr:0x0215ae14
_ZN12ActorUnkOCTG19func_ov086_0215ae98Ev kind:function(arm,size=0x90) addr:0x0215ae98
_ZN12ActorUnkOCTG19func_ov086_0215af28Ev kind:function(arm,size=0x4c) addr:0x0215af28
_ZN12ActorUnkOCTG19func_ov086_0215af74Ev kind:function(arm,size=0x1c) addr:0x0215af74
_ZN19ActorProfileUnkOCTGD1Ev kind:function(arm,size=0x14) addr:0x0215af90
_ZN19ActorProfileUnkOCGS10GetProfileEv kind:function(arm,size=0xc) addr:0x0215afa4
_ZN19ActorProfileUnkOCGS6CreateEv kind:function(arm,size=0x24) addr:0x0215afb0
_ZN19ActorProfileUnkOCGSC1Ev kind:function(arm,size=0x54) addr:0x0215afd4
_ZN12ActorUnkOCGSC1Ev kind:function(arm,size=0xd4) addr:0x0215b028
_ZN12ActorUnkOCGS19func_ov086_0215b0fcEv kind:function(arm,size=0x14) addr:0x0215b0fc
_ZN12ActorUnkOCGS19func_ov086_0215b110Ev kind:function(arm,size=0x84) addr:0x0215b110
_ZN12ActorUnkOCGS19func_ov086_0215b194Ev kind:function(arm,size=0x254) addr:0x0215b194
_ZN12ActorUnkOCGS19func_ov086_0215b3e8Ev kind:function(arm,size=0x11c) addr:0x0215b3e8
_ZN12ActorUnkOCGS19func_ov086_0215b504Ev kind:function(arm,size=0xa4) addr:0x0215b504
_ZN12ActorUnkOCGS19func_ov086_0215b5a8Ev kind:function(arm,size=0x48) addr:0x0215b5a8
_ZN12ActorUnkOCGS19func_ov086_0215b5f0Ev kind:function(arm,size=0x38) addr:0x0215b5f0
_ZN12ActorUnkOCGS19func_ov086_0215b628Ev kind:function(arm,size=0xcc) addr:0x0215b628
_ZN12ActorUnkOCGS19func_ov086_0215b6f4Ev kind:function(arm,size=0x3c) addr:0x0215b6f4
_ZN12ActorUnkOCGS19func_ov086_0215b730Ev kind:function(arm,size=0x4c) addr:0x0215b730
_ZN12ActorUnkOCGSD0Ev kind:function(arm,size=0x1c) addr:0x0215b77c
_ZN12ActorUnkOCGSD1Ev kind:function(arm,size=0x28) addr:0x0215b798
_ZN12ActorUnkOCGS19func_ov086_0215b7c0Ev kind:function(arm,size=0x30) addr:0x0215b7c0
_ZN19ActorProfileUnkOCGSD1Ev kind:function(arm,size=0x14) addr:0x0215b7f0
_ZN19ActorProfileUnkEFSC10GetProfileEv kind:function(arm,size=0xc) addr:0x0215b804
_ZN19ActorProfileUnkEFSC6CreateEv kind:function(arm,size=0x24) addr:0x0215b810
_ZN19ActorProfileUnkEFSCC1Ev kind:function(arm,size=0x28) addr:0x0215b834
_ZN12ActorUnkEFSC19func_ov086_0215b85cEv kind:function(arm,size=0x14) addr:0x0215b85c
_ZN12ActorUnkEFSCC1Ev kind:function(arm,size=0xfc) addr:0x0215b870
_ZN12ActorUnkEFSC19func_ov086_0215b96cEv kind:function(arm,size=0x68) addr:0x0215b96c
_ZN12ActorUnkEFSC19func_ov086_0215b9d4Ev kind:function(arm,size=0x6c) addr:0x0215b9d4
_ZN12ActorUnkEFSC19func_ov086_0215ba40Ev kind:function(arm,size=0x14) addr:0x0215ba40
_ZN12ActorUnkEFSC19func_ov086_0215ba54Ev kind:function(arm,size=0x58) addr:0x0215ba54
_ZN12ActorUnkEFSCD0Ev kind:function(arm,size=0x30) addr:0x0215baac
_ZN12ActorUnkEFSCD2Ev kind:function(arm,size=0x28) addr:0x0215badc
_ZN12ActorUnkEFSC19func_ov086_0215bb04Ev kind:function(arm,size=0x1c) addr:0x0215bb04
_ZN19ActorProfileUnkEFSCD1Ev kind:function(arm,size=0x14) addr:0x0215bb20
_ZN19ActorProfileUnkQKSD10GetProfileEv kind:function(arm,size=0xc) addr:0x0215bb34
_ZN19ActorProfileUnkQKSD6CreateEv kind:function(arm,size=0x24) addr:0x0215bb40
_ZN19ActorProfileUnkQKSDC1Ev kind:function(arm,size=0x28) addr:0x0215bb64
_ZN12ActorUnkQKSDC1Ev kind:function(arm,size=0xc4) addr:0x0215bb8c
_ZN12ActorUnkQKSD19func_ov086_0215bc50Ev kind:function(arm,size=0x14) addr:0x0215bc50
_ZN12ActorUnkQKSD19func_ov086_0215bc64Ev kind:function(arm,size=0x64) addr:0x0215bc64
_ZN12ActorUnkQKSD19func_ov086_0215bcc8Ev kind:function(arm,size=0x14) addr:0x0215bcc8
_ZN12ActorUnkQKSD19func_ov086_0215bcdcEv kind:function(arm,size=0x14) addr:0x0215bcdc
_ZN12ActorUnkQKSD19func_ov086_0215bcf0Ev kind:function(arm,size=0x20) addr:0x0215bcf0
_ZN12ActorUnkQKSDD0Ev kind:function(arm,size=0x1c) addr:0x0215bd10
_ZN12ActorUnkQKSDD1Ev kind:function(arm,size=0x28) addr:0x0215bd2c
_ZN12ActorUnkQKSD19func_ov086_0215bd54Ev kind:function(arm,size=0x30) addr:0x0215bd54
_ZN19ActorProfileUnkQKSDD1Ev kind:function(arm,size=0x14) addr:0x0215bd84
_ZN19ActorProfileUnkRNTN10GetProfileEv kind:function(arm,size=0xc) addr:0x0215bd98
_ZN19ActorProfileUnkRNTN6CreateEv kind:function(arm,size=0x24) addr:0x0215bda4
_ZN19ActorProfileUnkRNTNC1Ev kind:function(arm,size=0x28) addr:0x0215bdc8
_ZN12ActorUnkRNTNC1Ev kind:function(arm,size=0x1c4) addr:0x0215bdf0
_ZN12ActorUnkRNTN19func_ov086_0215bfb4Ev kind:function(arm,size=0x418) addr:0x0215bfb4
_ZN12ActorUnkRNTN19func_ov086_0215c3ccEv kind:function(arm,size=0x46c) addr:0x0215c3cc
_ZN12ActorUnkRNTN19func_ov086_0215c838Ev kind:function(arm,size=0xc4) addr:0x0215c838
_ZN12ActorUnkRNTN19func_ov086_0215c8fcEv kind:function(arm,size=0x3fc) addr:0x0215c8fc
_ZN12ActorUnkRNTN19func_ov086_0215ccf8Ev kind:function(arm,size=0xe0) addr:0x0215ccf8
_ZN12ActorUnkRNTN19func_ov086_0215cdd8Ev kind:function(arm,size=0x1bc) addr:0x0215cdd8
_ZN12ActorUnkRNTN19func_ov086_0215cf94Ev kind:function(arm,size=0x1c0) addr:0x0215cf94
_ZN12ActorUnkRNTN19func_ov086_0215d154Ev kind:function(arm,size=0x240) addr:0x0215d154
_ZN12ActorUnkRNTN19func_ov086_0215d394Ev kind:function(arm,size=0x27c) addr:0x0215d394
_ZN12ActorUnkRNTN19func_ov086_0215d610Ev kind:function(arm,size=0x280) addr:0x0215d610
_ZN12ActorUnkRNTN19func_ov086_0215d890Ev kind:function(arm,size=0x13c) addr:0x0215d890
_ZN12ActorUnkRNTND1Ev kind:function(arm,size=0x48) addr:0x0215d9cc
_ZN12ActorUnkRNTND0Ev kind:function(arm,size=0x50) addr:0x0215da14
_ZN19ActorProfileUnkRNTND1Ev kind:function(arm,size=0x14) addr:0x0215da64
_ZN19ActorProfileUnkRMDS10GetProfileEv kind:function(arm,size=0xc) addr:0x0215da78
_ZN19ActorProfileUnkRMDS6CreateEv kind:function(arm,size=0x24) addr:0x0215da84
_ZN19ActorProfileUnkRMDSC1Ev kind:function(arm,size=0x28) addr:0x0215daa8
_ZN12ActorUnkRMDSC1Ev kind:function(arm,size=0x74) addr:0x0215dad0
_ZN12ActorUnkRMDS19func_ov086_0215db44Ev kind:function(arm,size=0x6c) addr:0x0215db44
_ZN12ActorUnkRMDS19func_ov086_0215dbb0Ev kind:function(arm,size=0x4) addr:0x0215dbb0
_ZN12ActorUnkRMDS19func_ov086_0215dbb4Ev kind:function(arm,size=0x14) addr:0x0215dbb4
_ZN12ActorUnkRMDS19func_ov086_0215dbc8Ev kind:function(arm,size=0x14) addr:0x0215dbc8
_ZN12ActorUnkRMDS19func_ov086_0215dbdcEv kind:function(arm,size=0xc) addr:0x0215dbdc
_ZN12ActorUnkRMDS19func_ov086_0215dbe8Ev kind:function(arm,size=0x50) addr:0x0215dbe8
_ZN12ActorUnkRMDSD1Ev kind:function(arm,size=0x28) addr:0x0215dc38
_ZN12ActorUnkRMDSD0Ev kind:function(arm,size=0x30) addr:0x0215dc60
_ZN19ActorProfileUnkRMDSD1Ev kind:function(arm,size=0x14) addr:0x0215dc90
_ZN19ActorProfileUnkQKTG10GetProfileEv kind:function(arm,size=0xc) addr:0x0215dca4
_ZN19ActorProfileUnkQKTG6CreateEv kind:function(arm,size=0x24) addr:0x0215dcb0
_ZN19ActorProfileUnkQKTGC1Ev kind:function(arm,size=0x28) addr:0x0215dcd4
_ZN12ActorUnkQKTGC1Ev kind:function(arm,size=0x2c) addr:0x0215dcfc
_ZN12ActorUnkQKTG19func_ov086_0215dd28Ev kind:function(arm,size=0x40) addr:0x0215dd28
_ZN12ActorUnkQKTG19func_ov086_0215dd68Ev kind:function(arm,size=0xa0) addr:0x0215dd68
_ZN12ActorUnkQKTG19func_ov086_0215de08Ev kind:function(arm,size=0x14) addr:0x0215de08
_ZN12ActorUnkQKTG19func_ov086_0215de1cEv kind:function(arm,size=0xd8) addr:0x0215de1c
_ZN12ActorUnkQKTGD1Ev kind:function(arm,size=0x14) addr:0x0215def4
_ZN12ActorUnkQKTGD0Ev kind:function(arm,size=0x1c) addr:0x0215df08
_ZN19ActorProfileUnkQKTGD1Ev kind:function(arm,size=0x14) addr:0x0215df24
_ZN23MapObjectProfileUnkSTDS10GetProfileEv kind:function(arm,size=0xc) addr:0x0215df38
_ZN23MapObjectProfileUnkSTDS6CreateEv kind:function(arm,size=0x24) addr:0x0215df44
_ZN23MapObjectProfileUnkSTDSC1Ev kind:function(arm,size=0x48) addr:0x0215df68
_ZN16MapObjectUnkSTDSC1Ev kind:function(arm,size=0x2c) addr:0x0215dfb0
_ZN16MapObjectUnkSTDS19func_ov086_0215dfdcEv kind:function(arm,size=0xb8) addr:0x0215dfdc
_ZN16MapObjectUnkSTDS19func_ov086_0215e094Ev kind:function(arm,size=0x20) addr:0x0215e094
_ZN16MapObjectUnkSTDSD1Ev kind:function(arm,size=0x20) addr:0x0215e0b4
_ZN16MapObjectUnkSTDSD0Ev kind:function(arm,size=0x28) addr:0x0215e0d4
_ZN23MapObjectProfileUnkSTDSD1Ev kind:function(arm,size=0x14) addr:0x0215e0fc
_ZN23MapObjectProfileUnkDRBR10GetProfileEv kind:function(arm,size=0xc) addr:0x0215e110
_ZN23MapObjectProfileUnkDRBR6CreateEv kind:function(arm,size=0x24) addr:0x0215e11c
_ZN23MapObjectProfileUnkDRBRC1Ev kind:function(arm,size=0x48) addr:0x0215e140
_ZN16MapObjectUnkDRBRC1Ev kind:function(arm,size=0x34) addr:0x0215e188
_ZN16MapObjectUnkDRBR19func_ov086_0215e1bcEv kind:function(arm,size=0x48) addr:0x0215e1bc
_ZN16MapObjectUnkDRBRD1Ev kind:function(arm,size=0x28) addr:0x0215e204
_ZN16MapObjectUnkDRBRD0Ev kind:function(arm,size=0x30) addr:0x0215e22c
_ZN23MapObjectProfileUnkDRBRD1Ev kind:function(arm,size=0x14) addr:0x0215e25c
func_ov086_0215e270 kind:function(arm,size=0x10) addr:0x0215e270
func_ov086_0215e280 kind:function(arm,size=0x10) addr:0x0215e280
_ZN23MapObjectProfileUnkGRSG10GetProfileEv kind:function(arm,size=0xc) addr:0x0215e290
_ZN23MapObjectProfileUnkGRSG6CreateEv kind:function(arm,size=0x24) addr:0x0215e29c
_ZN23MapObjectProfileUnkGRSGC1Ev kind:function(arm,size=0xb8) addr:0x0215e2c0
_ZN16MapObjectUnkGRSGC1Ev kind:function(arm,size=0x20) addr:0x0215e378
_ZN16MapObjectUnkGRSG19func_ov086_0215e398Ev kind:function(arm,size=0x19c) addr:0x0215e398
_ZN16MapObjectUnkGRSG19func_ov086_0215e534Ev kind:function(arm,size=0x50) addr:0x0215e534
_ZN16MapObjectUnkGRSG19func_ov086_0215e584Ev kind:function(arm,size=0x5c) addr:0x0215e584
_ZN16MapObjectUnkGRSG19func_ov086_0215e5e0Ev kind:function(arm,size=0xc) addr:0x0215e5e0
_ZN16MapObjectUnkGRSGD1Ev kind:function(arm,size=0x28) addr:0x0215e5ec
_ZN16MapObjectUnkGRSGD0Ev kind:function(arm,size=0x30) addr:0x0215e614
_ZN23MapObjectProfileUnkGRSGD1Ev kind:function(arm,size=0x14) addr:0x0215e644
_ZN23MapObjectProfileUnkDRRS10GetProfileEv kind:function(arm,size=0xc) addr:0x0215e658
_ZN23MapObjectProfileUnkDRRS6CreateEv kind:function(arm,size=0x24) addr:0x0215e664
_ZN23MapObjectProfileUnkDRRSC1Ev kind:function(arm,size=0x48) addr:0x0215e688
_ZN16MapObjectUnkDRRSC1Ev kind:function(arm,size=0xa8) addr:0x0215e6d0
_ZN16MapObjectUnkDRRS19func_ov086_0215e778Ev kind:function(arm,size=0x14) addr:0x0215e778
_ZN16MapObjectUnkDRRS19func_ov086_0215e78cEv kind:function(arm,size=0x12c) addr:0x0215e78c
_ZN16MapObjectUnkDRRS19func_ov086_0215e8b8Ev kind:function(arm,size=0x44) addr:0x0215e8b8
_ZN16MapObjectUnkDRRS19func_ov086_0215e8fcEv kind:function(arm,size=0x1c) addr:0x0215e8fc
_ZN16MapObjectUnkDRRS19func_ov086_0215e918Ev kind:function(arm,size=0x28) addr:0x0215e918
_ZN16MapObjectUnkDRRS19func_ov086_0215e940Ev kind:function(arm,size=0x58) addr:0x0215e940
_ZN16MapObjectUnkDRRS19func_ov086_0215e998Ev kind:function(arm,size=0x28) addr:0x0215e998
_ZN16MapObjectUnkDRRS19func_ov086_0215e9c0Ev kind:function(arm,size=0xc) addr:0x0215e9c0
_ZN16MapObjectUnkDRRS19func_ov086_0215e9ccEv kind:function(arm,size=0x70) addr:0x0215e9cc
_ZN16MapObjectUnkDRRS19func_ov086_0215ea3cEv kind:function(arm,size=0x120) addr:0x0215ea3c
_ZN16MapObjectUnkDRRSD0Ev kind:function(arm,size=0x1c) addr:0x0215eb5c
_ZN16MapObjectUnkDRRSD1Ev kind:function(arm,size=0x28) addr:0x0215eb78
_ZN16MapObjectUnkDRRS19func_ov086_0215eba0Ev kind:function(arm,size=0x30) addr:0x0215eba0
_ZN23MapObjectProfileUnkDRRSD1Ev kind:function(arm,size=0x14) addr:0x0215ebd0
func_ov086_0215ebe4 kind:function(arm,size=0x1b0) addr:0x0215ebe4
func_ov086_0215ed94 kind:function(arm,size=0x58) addr:0x0215ed94
func_ov086_0215edec kind:function(arm,size=0xac) addr:0x0215edec
func_ov086_0215ee98 kind:function(arm,size=0x268) addr:0x0215ee98
data_ov086_0215f100 kind:data(any) addr:0x0215f100
data_ov086_0215f110 kind:data(any) addr:0x0215f110
data_ov086_0215f128 kind:data(any) addr:0x0215f128
data_ov086_0215f138 kind:data(any) addr:0x0215f138
data_ov086_0215f148 kind:data(any) addr:0x0215f148
data_ov086_0215f168 kind:data(any) addr:0x0215f168
__sinit_ActorUnkDSDS.cpp kind:function(arm,size=0x50) addr:0x0215f188
__sinit_ActorUnkHAMN.cpp kind:function(arm,size=0x50) addr:0x0215f1d8
__sinit_ActorUnkOCTG.cpp kind:function(arm,size=0x8c) addr:0x0215f228
__sinit_ActorUnkOCGS.cpp kind:function(arm,size=0x50) addr:0x0215f2b4
__sinit_ActorUnkEFSC.cpp kind:function(arm,size=0x50) addr:0x0215f304
__sinit_ActorUnkQKSD.cpp kind:function(arm,size=0x50) addr:0x0215f354
__sinit_ActorUnkRNTN.cpp kind:function(arm,size=0x50) addr:0x0215f3a4
__sinit_ActorUnkRMDS.cpp kind:function(arm,size=0x50) addr:0x0215f3f4
__sinit_ActorUnkQKTG.cpp kind:function(arm,size=0x50) addr:0x0215f444
__sinit_MapObjectUnkSTDS.cpp kind:function(arm,size=0x50) addr:0x0215f494
__sinit_MapObjectUnkDRBR.cpp kind:function(arm,size=0x50) addr:0x0215f4e4
__sinit_MapObjectUnkGRSG.cpp kind:function(arm,size=0x50) addr:0x0215f534
__sinit_MapObjectUnkDRRS.cpp kind:function(arm,size=0x50) addr:0x0215f584
.p__sinit_ActorUnkDSDS.cpp kind:data(word) addr:0x0215f5d4
.p__sinit_ActorUnkHAMN.cpp kind:data(word) addr:0x0215f5d8
.p__sinit_ActorUnkOCTG.cpp kind:data(word) addr:0x0215f5dc
.p__sinit_ActorUnkOCGS.cpp kind:data(word) addr:0x0215f5e0
.p__sinit_ActorUnkEFSC.cpp kind:data(word) addr:0x0215f5e4
.p__sinit_ActorUnkQKSD.cpp kind:data(word) addr:0x0215f5e8
.p__sinit_ActorUnkRNTN.cpp kind:data(word) addr:0x0215f5ec
.p__sinit_ActorUnkRMDS.cpp kind:data(word) addr:0x0215f5f0
.p__sinit_ActorUnkQKTG.cpp kind:data(word) addr:0x0215f5f4
.p__sinit_MapObjectUnkSTDS.cpp kind:data(word) addr:0x0215f5f8
.p__sinit_MapObjectUnkDRBR.cpp kind:data(word) addr:0x0215f5fc
.p__sinit_MapObjectUnkGRSG.cpp kind:data(word) addr:0x0215f600
.p__sinit_MapObjectUnkDRRS.cpp kind:data(word) addr:0x0215f604
_ZTV19data_ov086_0215f620 kind:data(any) addr:0x0215f620
_ZTV19data_ov086_0215f644 kind:data(any) addr:0x0215f644
data_ov086_0215f6a4 kind:data(any) addr:0x0215f6a4
data_ov086_0215f6bc kind:data(any) addr:0x0215f6bc
data_ov086_0215f6dc kind:data(any) addr:0x0215f6dc
data_ov086_0215f6f8 kind:data(any) addr:0x0215f6f8
_ZTV19data_ov086_0215f70c kind:data(any) addr:0x0215f70c
data_ov086_0215f738 kind:data(any) addr:0x0215f738
data_ov086_0215f764 kind:data(any) addr:0x0215f764
data_ov086_0215f7ac kind:data(any) addr:0x0215f7ac
_ZTV19data_ov086_0215f7f0 kind:data(any) addr:0x0215f7f0
data_ov086_0215f854 kind:data(any) addr:0x0215f854
data_ov086_0215f8fc kind:data(any) addr:0x0215f8fc
data_ov086_0215f9bc kind:data(any) addr:0x0215f9bc
data_ov086_0215f9d4 kind:data(any) addr:0x0215f9d4
data_ov086_0215f9ec kind:data(any) addr:0x0215f9ec
data_ov086_0215fa04 kind:data(any) addr:0x0215fa04
data_ov086_0215fa1c kind:data(any) addr:0x0215fa1c
data_ov086_0215fa34 kind:data(any) addr:0x0215fa34
data_ov086_0215fa4c kind:data(any) addr:0x0215fa4c
data_ov086_0215fa64 kind:data(any) addr:0x0215fa64
data_ov086_0215fa7c kind:data(any) addr:0x0215fa7c
data_ov086_0215fa94 kind:data(any) addr:0x0215fa94
data_ov086_0215faac kind:data(any) addr:0x0215faac
data_ov086_0215fab8 kind:data(any) addr:0x0215fab8
data_ov086_0215fad0 kind:data(any) addr:0x0215fad0
data_ov086_0215fae0 kind:data(any) addr:0x0215fae0
_ZTV19data_ov086_0215faf4 kind:data(any) addr:0x0215faf4
_ZTV19data_ov086_0215fb18 kind:data(any) addr:0x0215fb18
data_ov086_0215fb78 kind:data(any) addr:0x0215fb78
data_ov086_0215fbe0 kind:data(any) addr:0x0215fbe0
data_ov086_0215fc48 kind:data(any) addr:0x0215fc48
data_ov086_0215fc60 kind:data(any) addr:0x0215fc60
data_ov086_0215fc78 kind:data(any) addr:0x0215fc78
data_ov086_0215fc90 kind:data(any) addr:0x0215fc90
data_ov086_0215fca8 kind:data(any) addr:0x0215fca8
data_ov086_0215fcc0 kind:data(any) addr:0x0215fcc0
data_ov086_0215fce0 kind:data(any) addr:0x0215fce0
_ZTV19data_ov086_0215fcf4 kind:data(any) addr:0x0215fcf4
_ZTV19data_ov086_0215fd18 kind:data(any) addr:0x0215fd18
data_ov086_0215fd74 kind:data(any) addr:0x0215fd74
_ZTV19data_ov086_0215fd8c kind:data(any) addr:0x0215fd8c
data_ov086_0215fdb8 kind:data(any) addr:0x0215fdb8
_ZTV19data_ov086_0215fdfc kind:data(any) addr:0x0215fdfc
_ZTV19data_ov086_0215fe58 kind:data(any) addr:0x0215fe58
data_ov086_0215fe7c kind:data(any) addr:0x0215fe7c
data_ov086_0215feb4 kind:data(any) addr:0x0215feb4
_ZTV19data_ov086_0215fef4 kind:data(any) addr:0x0215fef4
_ZTV19data_ov086_0215ff50 kind:data(any) addr:0x0215ff50
data_ov086_0215ff7c kind:data(any) addr:0x0215ff7c
_ZTV19data_ov086_0215ff9c kind:data(any) addr:0x0215ff9c
data_ov086_0215fffc kind:data(any) addr:0x0215fffc
_ZTV19data_ov086_02160014 kind:data(any) addr:0x02160014
_ZTV19data_ov086_02160038 kind:data(any) addr:0x02160038
_ZTV19data_ov086_02160098 kind:data(any) addr:0x02160098
_ZTV19data_ov086_021600bc kind:data(any) addr:0x021600bc
data_ov086_02160118 kind:data(any) addr:0x02160118 ambiguous
data_ov086_02160124 kind:data(any) addr:0x02160124
data_ov086_02160134 kind:data(any) addr:0x02160134 ambiguous
data_ov086_02160140 kind:data(any) addr:0x02160140
data_ov086_02160180 kind:data(any) addr:0x02160180
data_ov086_0216019c kind:data(any) addr:0x0216019c
data_ov086_02160234 kind:data(any) addr:0x02160234
data_ov086_02160250 kind:data(any) addr:0x02160250
data_ov086_0216026c kind:data(any) addr:0x0216026c
data_ov086_02160288 kind:data(any) addr:0x02160288
data_ov086_021602d8 kind:data(any) addr:0x021602d8
data_ov086_021602ec kind:data(any) addr:0x021602ec
data_ov086_02160308 kind:data(any) addr:0x02160308
_ZGVN15ProfileInstanceI19ActorProfileUnkDSDSE8sProfileE kind:bss addr:0x02160340
@13852 kind:bss addr:0x02160344
_ZN15ProfileInstanceI19ActorProfileUnkDSDSE8sProfileE kind:bss addr:0x02160350
data_ov086_02160364 kind:bss addr:0x02160364 ambiguous
data_ov086_021603d8 kind:bss addr:0x021603d8 ambiguous
_ZGVN15ProfileInstanceI19ActorProfileUnkHAMNE8sProfileE kind:bss addr:0x02160428
@13858 kind:bss addr:0x0216042c
_ZN15ProfileInstanceI19ActorProfileUnkHAMNE8sProfileE kind:bss addr:0x02160438
data_ov086_02160458 kind:bss addr:0x02160458 ambiguous
data_ov086_0216045d kind:bss addr:0x0216045d ambiguous
_ZGVN15ProfileInstanceI19ActorProfileUnkOCTGE8sProfileE kind:bss addr:0x02160510
@13864 kind:bss addr:0x02160514
_ZN15ProfileInstanceI19ActorProfileUnkOCTGE8sProfileE kind:bss addr:0x02160520
data_ov086_02160528 kind:bss addr:0x02160528 ambiguous
data_ov086_02160534 kind:bss addr:0x02160534 ambiguous
_ZGVN15ProfileInstanceI19ActorProfileUnkOCGSE8sProfileE kind:bss addr:0x021605f8
@13870 kind:bss addr:0x021605fc
_ZN15ProfileInstanceI19ActorProfileUnkOCGSE8sProfileE kind:bss addr:0x02160608
data_ov086_0216060c kind:bss addr:0x0216060c ambiguous
data_ov086_02160678 kind:bss addr:0x02160678 ambiguous
_ZGVN15ProfileInstanceI19ActorProfileUnkEFSCE8sProfileE kind:bss addr:0x021606e0
@13876 kind:bss addr:0x021606e4
_ZN15ProfileInstanceI19ActorProfileUnkEFSCE8sProfileE kind:bss addr:0x021606f0
_ZGVN15ProfileInstanceI19ActorProfileUnkQKSDE8sProfileE kind:bss addr:0x021607c8
@13882 kind:bss addr:0x021607cc
_ZN15ProfileInstanceI19ActorProfileUnkQKSDE8sProfileE kind:bss addr:0x021607d8
data_ov086_02160830 kind:bss addr:0x02160830 ambiguous
_ZGVN15ProfileInstanceI19ActorProfileUnkRNTNE8sProfileE kind:bss addr:0x021608b0
@13888 kind:bss addr:0x021608b4
_ZN15ProfileInstanceI19ActorProfileUnkRNTNE8sProfileE kind:bss addr:0x021608c0
data_ov086_02160918 kind:bss addr:0x02160918 ambiguous
data_ov086_0216097c kind:bss addr:0x0216097c ambiguous
_ZGVN15ProfileInstanceI19ActorProfileUnkRMDSE8sProfileE kind:bss addr:0x02160998
@13894 kind:bss addr:0x0216099c
_ZN15ProfileInstanceI19ActorProfileUnkRMDSE8sProfileE kind:bss addr:0x021609a8
data_ov086_021609dc kind:bss addr:0x021609dc ambiguous
_ZGVN15ProfileInstanceI19ActorProfileUnkQKTGE8sProfileE kind:bss addr:0x02160a80
@13900 kind:bss addr:0x02160a84
_ZN15ProfileInstanceI19ActorProfileUnkQKTGE8sProfileE kind:bss addr:0x02160a90
_ZGVN15ProfileInstanceI23MapObjectProfileUnkSTDSE8sProfileE kind:bss addr:0x02160acc
@13349 kind:bss addr:0x02160ad0
_ZN15ProfileInstanceI23MapObjectProfileUnkSTDSE8sProfileE kind:bss addr:0x02160adc
data_ov086_02160b70 kind:bss addr:0x02160b70 ambiguous
data_ov086_02160bb0 kind:bss addr:0x02160bb0
_ZGVN15ProfileInstanceI23MapObjectProfileUnkDRBRE8sProfileE kind:bss addr:0x02160bb4
@13355 kind:bss addr:0x02160bb8 ambiguous
_ZN15ProfileInstanceI23MapObjectProfileUnkDRBRE8sProfileE kind:bss addr:0x02160bc0
_ZGVN15ProfileInstanceI23MapObjectProfileUnkGRSGE8sProfileE kind:bss addr:0x02160c94
@13361 kind:bss addr:0x02160c98
_ZN15ProfileInstanceI23MapObjectProfileUnkGRSGE8sProfileE kind:bss addr:0x02160ca4
data_ov086_02160d78 kind:bss addr:0x02160d78
_ZGVN15ProfileInstanceI23MapObjectProfileUnkDRRSE8sProfileE kind:bss addr:0x02160d9c
@13367 kind:bss addr:0x02160da0
_ZN15ProfileInstanceI23MapObjectProfileUnkDRRSE8sProfileE kind:bss addr:0x02160dac
