func_ov037_02118fc0 kind:function(arm,size=0x148) addr:0x02118fc0
_ZN19func_ov037_02119108D1Ev kind:function(arm,size=0x38) addr:0x02119108
_ZN19func_ov037_02119140D0Ev kind:function(arm,size=0x40) addr:0x02119140
func_ov037_02119180 kind:function(arm,size=0x1b0) addr:0x02119180
func_ov037_02119330 kind:function(arm,size=0xc8) addr:0x02119330
func_ov037_021193f8 kind:function(arm,size=0x74) addr:0x021193f8
func_ov037_0211946c kind:function(arm,size=0xcc) addr:0x0211946c
func_ov037_02119538 kind:function(arm,size=0x18) addr:0x02119538
func_ov037_02119550 kind:function(arm,size=0x398) addr:0x02119550
func_ov037_021198e8 kind:function(arm,size=0xe4) addr:0x021198e8
func_ov037_021199cc kind:function(arm,size=0x84) addr:0x021199cc
func_ov037_02119a50 kind:function(arm,size=0x5c) addr:0x02119a50
func_ov037_02119aac kind:function(arm,size=0x31c) addr:0x02119aac
func_ov037_02119dc8 kind:function(arm,size=0x2c) addr:0x02119dc8
func_ov037_02119df4 kind:function(arm,size=0x254) addr:0x02119df4
func_ov037_0211a048 kind:function(arm,size=0xec) addr:0x0211a048
func_ov037_0211a134 kind:function(arm,size=0x170) addr:0x0211a134
func_ov037_0211a2a4 kind:function(arm,size=0x1c) addr:0x0211a2a4
func_ov037_0211a2c0 kind:function(arm,size=0x3c) addr:0x0211a2c0
func_ov037_0211a2fc kind:function(arm,size=0x4) addr:0x0211a2fc
func_ov037_0211a300 kind:function(arm,size=0x4) addr:0x0211a300
func_ov037_0211a304 kind:function(arm,size=0x20) addr:0x0211a304
func_ov037_0211a324 kind:function(arm,size=0x8) addr:0x0211a324
func_ov037_0211a32c kind:function(arm,size=0x2c) addr:0x0211a32c
func_ov037_0211a358 kind:function(arm,size=0x118) addr:0x0211a358
func_ov037_0211a470 kind:function(arm,size=0x90) addr:0x0211a470
func_ov037_0211a500 kind:function(arm,size=0xb0) addr:0x0211a500
func_ov037_0211a5b0 kind:function(arm,size=0x1c4) addr:0x0211a5b0
func_ov037_0211a774 kind:function(arm,size=0x410) addr:0x0211a774
func_ov037_0211ab84 kind:function(arm,size=0x3c) addr:0x0211ab84
func_ov037_0211abc0 kind:function(arm,size=0x8) addr:0x0211abc0
func_ov037_0211abc8 kind:function(arm,size=0x48) addr:0x0211abc8
func_ov037_0211ac10 kind:function(arm,size=0x8) addr:0x0211ac10
func_ov037_0211ac18 kind:function(arm,size=0x244) addr:0x0211ac18
func_ov037_0211ae5c kind:function(arm,size=0xdc) addr:0x0211ae5c
_ZN19func_ov037_0211af38D1Ev kind:function(arm,size=0x20) addr:0x0211af38
_ZN19func_ov037_0211af58D0Ev kind:function(arm,size=0x28) addr:0x0211af58
func_ov037_0211af80 kind:function(arm,size=0x184) addr:0x0211af80
func_ov037_0211b104 kind:function(arm,size=0x8c) addr:0x0211b104
func_ov037_0211b190 kind:function(arm,size=0x4) addr:0x0211b190
func_ov037_0211b194 kind:function(arm,size=0x124) addr:0x0211b194
func_ov037_0211b2b8 kind:function(arm,size=0x3c) addr:0x0211b2b8
func_ov037_0211b2f4 kind:function(arm,size=0x3c) addr:0x0211b2f4
func_ov037_0211b330 kind:function(arm,size=0x98) addr:0x0211b330
func_ov037_0211b3c8 kind:function(arm,size=0x20) addr:0x0211b3c8
func_ov037_0211b3e8 kind:function(arm,size=0x4) addr:0x0211b3e8
func_ov037_0211b3ec kind:function(arm,size=0x4) addr:0x0211b3ec
func_ov037_0211b3f0 kind:function(arm,size=0x8) addr:0x0211b3f0
_ZN19ActorProfileUnkSOLF10GetProfileEv kind:function(arm,size=0xc) addr:0x0211b3f8
_ZN19ActorProfileUnkSOLF6CreateEv kind:function(arm,size=0x24) addr:0x0211b404
_ZN19ActorProfileUnkSOLFC1Ev kind:function(arm,size=0x5c) addr:0x0211b428
_ZN12ActorUnkSOLF19func_ov037_0211b484Ev kind:function(arm,size=0x3c) addr:0x0211b484
_ZN12ActorUnkSOLF19func_ov037_0211b4c0Ev kind:function(arm,size=0x68) addr:0x0211b4c0
_ZN12ActorUnkSOLF19func_ov037_0211b528Ev kind:function(arm,size=0x58) addr:0x0211b528
_ZN12ActorUnkSOLF19func_ov037_0211b580Ev kind:function(arm,size=0x68) addr:0x0211b580
_ZN12ActorUnkSOLF19func_ov037_0211b5e8Ev kind:function(arm,size=0x28) addr:0x0211b5e8
_ZN12ActorUnkSOLF19func_ov037_0211b610Ev kind:function(arm,size=0x18) addr:0x0211b610
_ZN12ActorUnkSOLFC1Ev kind:function(arm,size=0x24c) addr:0x0211b628
_ZN12ActorUnkSOLF19func_ov037_0211b874Ev kind:function(arm,size=0x14) addr:0x0211b874
_ZN12ActorUnkSOLF19func_ov037_0211b888Ev kind:function(arm,size=0x14) addr:0x0211b888
_ZN12ActorUnkSOLF19func_ov037_0211b89cEv kind:function(arm,size=0x14) addr:0x0211b89c
_ZN12ActorUnkSOLF19func_ov037_0211b8b0Ev kind:function(arm,size=0x1c) addr:0x0211b8b0
_ZN12ActorUnkSOLF19func_ov037_0211b8ccEv kind:function(arm,size=0xb4) addr:0x0211b8cc
_ZN12ActorUnkSOLF19func_ov037_0211b980Ev kind:function(arm,size=0xe4) addr:0x0211b980
_ZN12ActorUnkSOLF19func_ov037_0211ba64Ev kind:function(arm,size=0x32c) addr:0x0211ba64
_ZN12ActorUnkSOLF19func_ov037_0211bd90Ev kind:function(arm,size=0x24) addr:0x0211bd90
_ZN12ActorUnkSOLF19func_ov037_0211bdb4Ev kind:function(arm,size=0x100) addr:0x0211bdb4
_ZN12ActorUnkSOLF19func_ov037_0211beb4Ev kind:function(arm,size=0x78) addr:0x0211beb4
_ZN12ActorUnkSOLF19func_ov037_0211bf2cEv kind:function(arm,size=0xd4) addr:0x0211bf2c
_ZN12ActorUnkSOLF19func_ov037_0211c000Ev kind:function(arm,size=0x5c) addr:0x0211c000
_ZN12ActorUnkSOLF19func_ov037_0211c05cEv kind:function(arm,size=0xc4) addr:0x0211c05c
_ZN12ActorUnkSOLF19func_ov037_0211c120Ev kind:function(arm,size=0x64) addr:0x0211c120
_ZN12ActorUnkSOLF19func_ov037_0211c184Ev kind:function(arm,size=0x3c) addr:0x0211c184
_ZN12ActorUnkSOLF19func_ov037_0211c1c0Ev kind:function(arm,size=0x84) addr:0x0211c1c0
_ZN12ActorUnkSOLF19func_ov037_0211c244Ev kind:function(arm,size=0x178) addr:0x0211c244
_ZN12ActorUnkSOLF19func_ov037_0211c3bcEv kind:function(arm,size=0x38c) addr:0x0211c3bc
_ZN12ActorUnkSOLF19func_ov037_0211c748Ev kind:function(arm,size=0x150) addr:0x0211c748
_ZN12ActorUnkSOLF19func_ov037_0211c898Ev kind:function(arm,size=0x84) addr:0x0211c898
_ZN12ActorUnkSOLF19func_ov037_0211c91cEv kind:function(arm,size=0x2c) addr:0x0211c91c
_ZN12ActorUnkSOLF19func_ov037_0211c948Ev kind:function(arm,size=0xc8) addr:0x0211c948
_ZN12ActorUnkSOLF19func_ov037_0211ca10Ev kind:function(arm,size=0xe4) addr:0x0211ca10
_ZN12ActorUnkSOLF19func_ov037_0211caf4Ev kind:function(arm,size=0x7c) addr:0x0211caf4
_ZN12ActorUnkSOLF19func_ov037_0211cb70Ev kind:function(arm,size=0x104) addr:0x0211cb70
_ZN12ActorUnkSOLF19func_ov037_0211cc74Ev kind:function(arm,size=0x84) addr:0x0211cc74
_ZN12ActorUnkSOLF19func_ov037_0211ccf8Ev kind:function(arm,size=0x274) addr:0x0211ccf8
_ZN12ActorUnkSOLF19func_ov037_0211cf6cEv kind:function(arm,size=0x80) addr:0x0211cf6c
_ZN12ActorUnkSOLF19func_ov037_0211cfecEv kind:function(arm,size=0xc0) addr:0x0211cfec
_ZN12ActorUnkSOLF19func_ov037_0211d0acEv kind:function(arm,size=0xec) addr:0x0211d0ac
_ZN12ActorUnkSOLF19func_ov037_0211d198Ev kind:function(arm,size=0x7f8) addr:0x0211d198
_ZN12ActorUnkSOLF19func_ov037_0211d990Ev kind:function(arm,size=0x17c) addr:0x0211d990
_ZN12ActorUnkSOLF19func_ov037_0211db0cEv kind:function(arm,size=0x1b8) addr:0x0211db0c
_ZN12ActorUnkSOLF19func_ov037_0211dcc4Ev kind:function(arm,size=0x54) addr:0x0211dcc4
_ZN12ActorUnkSOLF19func_ov037_0211dd18Ev kind:function(arm,size=0x70) addr:0x0211dd18
_ZN12ActorUnkSOLF19func_ov037_0211dd88Ev kind:function(arm,size=0x138) addr:0x0211dd88
_ZN12ActorUnkSOLF19func_ov037_0211dec0Ev kind:function(arm,size=0x70) addr:0x0211dec0
_ZN12ActorUnkSOLF19func_ov037_0211df30Ev kind:function(arm,size=0x4) addr:0x0211df30
_ZN12ActorUnkSOLF19func_ov037_0211df34Ev kind:function(arm,size=0xc) addr:0x0211df34
_ZN12ActorUnkSOLF19func_ov037_0211df40Ev kind:function(arm,size=0x78) addr:0x0211df40
_ZN12ActorUnkSOLF19func_ov037_0211dfb8Ev kind:function(arm,size=0x38) addr:0x0211dfb8
_ZN12ActorUnkSOLF19func_ov037_0211dff0Ev kind:function(arm,size=0x50) addr:0x0211dff0
_ZN12ActorUnkSOLF19func_ov037_0211e040Ev kind:function(arm,size=0x29c) addr:0x0211e040
_ZN12ActorUnkSOLF19func_ov037_0211e2dcEv kind:function(arm,size=0x34) addr:0x0211e2dc
_ZN12ActorUnkSOLF19func_ov037_0211e310Ev kind:function(arm,size=0x24) addr:0x0211e310
_ZN12ActorUnkSOLF19func_ov037_0211e334Ev kind:function(arm,size=0x14) addr:0x0211e334
_ZN12ActorUnkSOLF19func_ov037_0211e348Ev kind:function(arm,size=0x8) addr:0x0211e348
_ZN12ActorUnkSOLF19func_ov037_0211e350Ev kind:function(arm,size=0x14) addr:0x0211e350
_ZN12ActorUnkSOLF19func_ov037_0211e364Ev kind:function(arm,size=0x100) addr:0x0211e364
_ZN12ActorUnkSOLF19func_ov037_0211e464Ev kind:function(arm,size=0x18) addr:0x0211e464
_ZN12ActorUnkSOLF19func_ov037_0211e47cEv kind:function(arm,size=0x8) addr:0x0211e47c
_ZN12ActorUnkSOLF19func_ov037_0211e484Ev kind:function(arm,size=0x3c) addr:0x0211e484
_ZN12ActorUnkSOLF19func_ov037_0211e4c0Ev kind:function(arm,size=0x3c) addr:0x0211e4c0
_ZN12ActorUnkSOLF19func_ov037_0211e4fcEv kind:function(arm,size=0x10c) addr:0x0211e4fc
_ZN12ActorUnkSOLF19func_ov037_0211e608Ev kind:function(arm,size=0x88) addr:0x0211e608
_ZN12ActorUnkSOLF19func_ov037_0211e690Ev kind:function(arm,size=0x48) addr:0x0211e690
_ZN12ActorUnkSOLF19func_ov037_0211e6d8Ev kind:function(arm,size=0x20) addr:0x0211e6d8
_ZN12ActorUnkSOLF19func_ov037_0211e6f8Ev kind:function(arm,size=0xd0) addr:0x0211e6f8
_ZN12ActorUnkSOLFD0Ev kind:function(arm,size=0x1c) addr:0x0211e7c8
_ZN12ActorUnkSOLF19func_ov037_0211e7e4Ev kind:function(arm,size=0x1c) addr:0x0211e7e4
_ZN12ActorUnkSOLFD1Ev kind:function(arm,size=0x38) addr:0x0211e800
_ZN12ActorUnkSOLF19func_ov037_0211e838Ev kind:function(arm,size=0x40) addr:0x0211e838
_ZN12ActorUnkSOLF19func_ov037_0211e878Ev kind:function(arm,size=0x24) addr:0x0211e878
_ZN12ActorUnkSOLF19func_ov037_0211e89cEv kind:function(arm,size=0x2c) addr:0x0211e89c
_ZN12ActorUnkSOLF19func_ov037_0211e8c8Ev kind:function(arm,size=0x1c) addr:0x0211e8c8
_ZN12ActorUnkSOLF19func_ov037_0211e8e4Ev kind:function(arm,size=0x28) addr:0x0211e8e4
_ZN12ActorUnkSOLFD2Ev kind:function(arm,size=0x20) addr:0x0211e90c
_ZN19ActorProfileUnkSOLFD1Ev kind:function(arm,size=0x14) addr:0x0211e92c
_ZN19ActorProfileUnkSOLT10GetProfileEv kind:function(arm,size=0xc) addr:0x0211e940
_ZN19ActorProfileUnkSOLT6CreateEv kind:function(arm,size=0x24) addr:0x0211e94c
_ZN19ActorProfileUnkSOLTC1Ev kind:function(arm,size=0x58) addr:0x0211e970
_ZN12ActorUnkSOLTC1Ev kind:function(arm,size=0x1a4) addr:0x0211e9c8
_ZN12ActorUnkSOLT19func_ov037_0211eb6cEv kind:function(arm,size=0x1c) addr:0x0211eb6c
_ZN12ActorUnkSOLT19func_ov037_0211eb88Ev kind:function(arm,size=0x6c) addr:0x0211eb88
_ZN12ActorUnkSOLT19func_ov037_0211ebf4Ev kind:function(arm,size=0x64) addr:0x0211ebf4
_ZN12ActorUnkSOLT19func_ov037_0211ec58Ev kind:function(arm,size=0x23c) addr:0x0211ec58
_ZN12ActorUnkSOLT19func_ov037_0211ee94Ev kind:function(arm,size=0x20) addr:0x0211ee94
_ZN12ActorUnkSOLT19func_ov037_0211eeb4Ev kind:function(arm,size=0xf4) addr:0x0211eeb4
_ZN12ActorUnkSOLT19func_ov037_0211efa8Ev kind:function(arm,size=0x78) addr:0x0211efa8
_ZN12ActorUnkSOLT19func_ov037_0211f020Ev kind:function(arm,size=0xd4) addr:0x0211f020
_ZN12ActorUnkSOLT19func_ov037_0211f0f4Ev kind:function(arm,size=0x5c) addr:0x0211f0f4
_ZN12ActorUnkSOLT19func_ov037_0211f150Ev kind:function(arm,size=0xc4) addr:0x0211f150
_ZN12ActorUnkSOLT19func_ov037_0211f214Ev kind:function(arm,size=0x64) addr:0x0211f214
_ZN12ActorUnkSOLT19func_ov037_0211f278Ev kind:function(arm,size=0x3c) addr:0x0211f278
_ZN12ActorUnkSOLT19func_ov037_0211f2b4Ev kind:function(arm,size=0x84) addr:0x0211f2b4
_ZN12ActorUnkSOLT19func_ov037_0211f338Ev kind:function(arm,size=0x178) addr:0x0211f338
_ZN12ActorUnkSOLT19func_ov037_0211f4b0Ev kind:function(arm,size=0xc4) addr:0x0211f4b0
_ZN12ActorUnkSOLT19func_ov037_0211f574Ev kind:function(arm,size=0xa8) addr:0x0211f574
_ZN12ActorUnkSOLT19func_ov037_0211f61cEv kind:function(arm,size=0xa8) addr:0x0211f61c
_ZN12ActorUnkSOLT19func_ov037_0211f6c4Ev kind:function(arm,size=0xa8) addr:0x0211f6c4
_ZN12ActorUnkSOLT19func_ov037_0211f76cEv kind:function(arm,size=0x7c) addr:0x0211f76c
_ZN12ActorUnkSOLT19func_ov037_0211f7e8Ev kind:function(arm,size=0x3c) addr:0x0211f7e8
_ZN12ActorUnkSOLT19func_ov037_0211f824Ev kind:function(arm,size=0x64) addr:0x0211f824
_ZN12ActorUnkSOLT19func_ov037_0211f888Ev kind:function(arm,size=0x1a8) addr:0x0211f888
_ZN12ActorUnkSOLT19func_ov037_0211fa30Ev kind:function(arm,size=0xa0) addr:0x0211fa30
_ZN12ActorUnkSOLT19func_ov037_0211fad0Ev kind:function(arm,size=0x11c) addr:0x0211fad0
_ZN12ActorUnkSOLT19func_ov037_0211fbecEv kind:function(arm,size=0x78) addr:0x0211fbec
_ZN12ActorUnkSOLT19func_ov037_0211fc64Ev kind:function(arm,size=0xac) addr:0x0211fc64
_ZN12ActorUnkSOLT19func_ov037_0211fd10Ev kind:function(arm,size=0x50) addr:0x0211fd10
_ZN12ActorUnkSOLT19func_ov037_0211fd60Ev kind:function(arm,size=0x38) addr:0x0211fd60
_ZN12ActorUnkSOLT19func_ov037_0211fd98Ev kind:function(arm,size=0x1c) addr:0x0211fd98
_ZN12ActorUnkSOLT19func_ov037_0211fdb4Ev kind:function(arm,size=0x78) addr:0x0211fdb4
_ZN12ActorUnkSOLT19func_ov037_0211fe2cEv kind:function(arm,size=0x38) addr:0x0211fe2c
_ZN12ActorUnkSOLT19func_ov037_0211fe64Ev kind:function(arm,size=0x50) addr:0x0211fe64
_ZN12ActorUnkSOLT19func_ov037_0211feb4Ev kind:function(arm,size=0x16c) addr:0x0211feb4
_ZN12ActorUnkSOLT19func_ov037_02120020Ev kind:function(arm,size=0x3c) addr:0x02120020
_ZN12ActorUnkSOLT19func_ov037_0212005cEv kind:function(arm,size=0x18) addr:0x0212005c
_ZN12ActorUnkSOLT19func_ov037_02120074Ev kind:function(arm,size=0x2c) addr:0x02120074
_ZN12ActorUnkSOLT19func_ov037_021200a0Ev kind:function(arm,size=0x18) addr:0x021200a0
_ZN12ActorUnkSOLT19func_ov037_021200b8Ev kind:function(arm,size=0x30) addr:0x021200b8
_ZN12ActorUnkSOLT19func_ov037_021200e8Ev kind:function(arm,size=0x4c) addr:0x021200e8
_ZN12ActorUnkSOLT19func_ov037_02120134Ev kind:function(arm,size=0x2c) addr:0x02120134
_ZN12ActorUnkSOLT19func_ov037_02120160Ev kind:function(arm,size=0x44) addr:0x02120160
_ZN12ActorUnkSOLT19func_ov037_021201a4Ev kind:function(arm,size=0x30) addr:0x021201a4
_ZN12ActorUnkSOLT19func_ov037_021201d4Ev kind:function(arm,size=0x54) addr:0x021201d4
_ZN12ActorUnkSOLT19func_ov037_02120228Ev kind:function(arm,size=0x58) addr:0x02120228
_ZN12ActorUnkSOLT19func_ov037_02120280Ev kind:function(arm,size=0x54) addr:0x02120280
_ZN12ActorUnkSOLT19func_ov037_021202d4Ev kind:function(arm,size=0x110) addr:0x021202d4
_ZN12ActorUnkSOLT19func_ov037_021203e4Ev kind:function(arm,size=0x24) addr:0x021203e4
_ZN12ActorUnkSOLT19func_ov037_02120408Ev kind:function(arm,size=0x64) addr:0x02120408
_ZN12ActorUnkSOLT19func_ov037_0212046cEv kind:function(arm,size=0xc) addr:0x0212046c
_ZN12ActorUnkSOLT19func_ov037_02120478Ev kind:function(arm,size=0x14) addr:0x02120478
_ZN12ActorUnkSOLT19func_ov037_0212048cEv kind:function(arm,size=0x8) addr:0x0212048c
_ZN12ActorUnkSOLT19func_ov037_02120494Ev kind:function(arm,size=0x14) addr:0x02120494
_ZN12ActorUnkSOLT19func_ov037_021204a8Ev kind:function(arm,size=0x100) addr:0x021204a8
_ZN12ActorUnkSOLT19func_ov037_021205a8Ev kind:function(arm,size=0x18) addr:0x021205a8
_ZN12ActorUnkSOLT19func_ov037_021205c0Ev kind:function(arm,size=0x8) addr:0x021205c0
_ZN12ActorUnkSOLT19func_ov037_021205c8Ev kind:function(arm,size=0x10c) addr:0x021205c8
_ZN12ActorUnkSOLT19func_ov037_021206d4Ev kind:function(arm,size=0x160) addr:0x021206d4
_ZN12ActorUnkSOLT19func_ov037_02120834Ev kind:function(arm,size=0x48) addr:0x02120834
_ZN12ActorUnkSOLT19func_ov037_0212087cEv kind:function(arm,size=0xd0) addr:0x0212087c
_ZN12ActorUnkSOLTD1Ev kind:function(arm,size=0x28) addr:0x0212094c
_ZN12ActorUnkSOLTD0Ev kind:function(arm,size=0x30) addr:0x02120974
_ZN19ActorProfileUnkSOLTD1Ev kind:function(arm,size=0x14) addr:0x021209a4
_ZN19ActorProfileUnkTUTO10GetProfileEv kind:function(arm,size=0xc) addr:0x021209b8
_ZN19ActorProfileUnkTUTO6CreateEv kind:function(arm,size=0x24) addr:0x021209c4
_ZN19ActorProfileUnkTUTOC1Ev kind:function(arm,size=0x28) addr:0x021209e8
_ZN12ActorUnkTUTO19func_ov037_02120a10Ev kind:function(arm,size=0x54) addr:0x02120a10
_ZN12ActorUnkTUTO19func_ov037_02120a64Ev kind:function(arm,size=0x2c) addr:0x02120a64
_ZN12ActorUnkTUTOC1Ev kind:function(arm,size=0x6c) addr:0x02120a90
_ZN12ActorUnkTUTO19func_ov037_02120afcEv kind:function(arm,size=0x14) addr:0x02120afc
_ZN12ActorUnkTUTO19func_ov037_02120b10Ev kind:function(arm,size=0x98) addr:0x02120b10
_ZN12ActorUnkTUTO19func_ov037_02120ba8Ev kind:function(arm,size=0x24) addr:0x02120ba8
_ZN12ActorUnkTUTO19func_ov037_02120bccEv kind:function(arm,size=0x7c) addr:0x02120bcc
_ZN12ActorUnkTUTO19func_ov037_02120c48Ev kind:function(arm,size=0xc) addr:0x02120c48
_ZN12ActorUnkTUTO19func_ov037_02120c54Ev kind:function(arm,size=0x100) addr:0x02120c54
_ZN12ActorUnkTUTO19func_ov037_02120d54Ev kind:function(arm,size=0x50) addr:0x02120d54
_ZN12ActorUnkTUTO19func_ov037_02120da4Ev kind:function(arm,size=0x38) addr:0x02120da4
_ZN12ActorUnkTUTO19func_ov037_02120ddcEv kind:function(arm,size=0x1e0) addr:0x02120ddc
_ZN12ActorUnkTUTO19func_ov037_02120fbcEv kind:function(arm,size=0x2c) addr:0x02120fbc
_ZN12ActorUnkTUTO19func_ov037_02120fe8Ev kind:function(arm,size=0x28) addr:0x02120fe8
_ZN12ActorUnkTUTO19func_ov037_02121010Ev kind:function(arm,size=0xc) addr:0x02121010
_ZN12ActorUnkTUTO19func_ov037_0212101cEv kind:function(arm,size=0x28) addr:0x0212101c
_ZN12ActorUnkTUTO19func_ov037_02121044Ev kind:function(arm,size=0x40) addr:0x02121044
_ZN12ActorUnkTUTO19func_ov037_02121084Ev kind:function(arm,size=0x12c) addr:0x02121084
_ZN12ActorUnkTUTO19func_ov037_021211b0Ev kind:function(arm,size=0x7c) addr:0x021211b0
_ZN12ActorUnkTUTO19func_ov037_0212122cEv kind:function(arm,size=0x13c) addr:0x0212122c
_ZN12ActorUnkTUTO19func_ov037_02121368Ev kind:function(arm,size=0x38) addr:0x02121368
_ZN12ActorUnkTUTO19func_ov037_021213a0Ev kind:function(arm,size=0x7c) addr:0x021213a0
_ZN12ActorUnkTUTO19func_ov037_0212141cEv kind:function(arm,size=0x48) addr:0x0212141c
_ZN12ActorUnkTUTO19func_ov037_02121464Ev kind:function(arm,size=0x7c) addr:0x02121464
_ZN12ActorUnkTUTO19func_ov037_021214e0Ev kind:function(arm,size=0x4c) addr:0x021214e0
_ZN12ActorUnkTUTO19func_ov037_0212152cEv kind:function(arm,size=0x154) addr:0x0212152c
_ZN12ActorUnkTUTO19func_ov037_02121680Ev kind:function(arm,size=0x1c) addr:0x02121680
_ZN12ActorUnkTUTO19func_ov037_0212169cEv kind:function(arm,size=0x14c) addr:0x0212169c
_ZN12ActorUnkTUTO19func_ov037_021217e8Ev kind:function(arm,size=0x23c) addr:0x021217e8
_ZN12ActorUnkTUTO19func_ov037_02121a24Ev kind:function(arm,size=0x8c) addr:0x02121a24
_ZN12ActorUnkTUTO19func_ov037_02121ab0Ev kind:function(arm,size=0x40) addr:0x02121ab0
_ZN12ActorUnkTUTO19func_ov037_02121af0Ev kind:function(arm,size=0x3c) addr:0x02121af0
_ZN12ActorUnkTUTO19func_ov037_02121b2cEv kind:function(arm,size=0x20) addr:0x02121b2c
_ZN12ActorUnkTUTOD1Ev kind:function(arm,size=0x28) addr:0x02121b4c
_ZN12ActorUnkTUTOD0Ev kind:function(arm,size=0x30) addr:0x02121b74
_ZN19ActorProfileUnkTUTOD1Ev kind:function(arm,size=0x14) addr:0x02121ba4
data_ov037_02121bc4 kind:data(any) addr:0x02121bc4
data_ov037_02121bd4 kind:data(any) addr:0x02121bd4
data_ov037_02121bda kind:data(any) addr:0x02121bda
data_ov037_02121be0 kind:data(any) addr:0x02121be0
data_ov037_02121be6 kind:data(any) addr:0x02121be6
data_ov037_02121bfa kind:data(any) addr:0x02121bfa
data_ov037_02121c18 kind:data(any) addr:0x02121c18
data_ov037_02121c34 kind:data(any) addr:0x02121c34
__sinit_ov037_02121c48 kind:function(arm,size=0x64) addr:0x02121c48
__sinit_ActorUnkSOLF.cpp kind:function(arm,size=0x50) addr:0x02121cac
__sinit_ActorUnkSOLT.cpp kind:function(arm,size=0x50) addr:0x02121cfc
__sinit_ActorUnkTUTO.cpp kind:function(arm,size=0x9c) addr:0x02121d4c
.p__sinit_ov037_02121c48 kind:data(word) addr:0x02121de8
.p__sinit_ActorUnkSOLF.cpp kind:data(word) addr:0x02121dec
.p__sinit_ActorUnkSOLT.cpp kind:data(word) addr:0x02121df0
.p__sinit_ActorUnkTUTO.cpp kind:data(word) addr:0x02121df4
data_ov037_02121e00 kind:data(any) addr:0x02121e00
data_ov037_02121e0c kind:data(any) addr:0x02121e0c
data_ov037_02121e44 kind:data(any) addr:0x02121e44
data_ov037_02121e68 kind:data(any) addr:0x02121e68
data_ov037_02121e84 kind:data(any) addr:0x02121e84
_ZTV19data_ov037_02121e98 kind:data(any) addr:0x02121e98
data_ov037_02121ec4 kind:data(any) addr:0x02121ec4
data_ov037_02121ed4 kind:data(any) addr:0x02121ed4 ambiguous
data_ov037_02121f08 kind:data(any) addr:0x02121f08
data_ov037_02121fb8 kind:data(any) addr:0x02121fb8
data_ov037_02122068 kind:data(any) addr:0x02122068
data_ov037_02122080 kind:data(any) addr:0x02122080
data_ov037_021220b0 kind:data(any) addr:0x021220b0
data_ov037_021220c8 kind:data(any) addr:0x021220c8
data_ov037_021220e0 kind:data(any) addr:0x021220e0
data_ov037_021220f8 kind:data(any) addr:0x021220f8
data_ov037_021220fc kind:data(any) addr:0x021220fc ambiguous
data_ov037_02122140 kind:data(any) addr:0x02122140
data_ov037_02122158 kind:data(any) addr:0x02122158
_ZTV19data_ov037_02122170 kind:data(any) addr:0x02122170
_ZTV19data_ov037_0212228c kind:data(any) addr:0x0212228c
_ZTV19data_ov037_021223a8 kind:data(any) addr:0x021223a8
data_ov037_021223cc kind:data(any) addr:0x021223cc
data_ov037_021223f1 kind:data(any) addr:0x021223f1 ambiguous
data_ov037_02122464 kind:data(any) addr:0x02122464
data_ov037_021224fc kind:data(any) addr:0x021224fc
data_ov037_02122514 kind:data(any) addr:0x02122514
data_ov037_02122544 kind:data(any) addr:0x02122544
data_ov037_0212255c kind:data(any) addr:0x0212255c
data_ov037_02122574 kind:data(any) addr:0x02122574
data_ov037_0212258c kind:data(any) addr:0x0212258c
data_ov037_021225a4 kind:data(any) addr:0x021225a4
data_ov037_021225a8 kind:data(any) addr:0x021225a8 ambiguous
_ZTV19data_ov037_021225bc kind:data(any) addr:0x021225bc
data_ov037_021226d8 kind:data(any) addr:0x021226d8
data_ov037_021226f8 kind:data(any) addr:0x021226f8
data_ov037_02122730 kind:data(any) addr:0x02122730
_ZTV19data_ov037_02122768 kind:data(any) addr:0x02122768
_ZTV19data_ov037_0212278c kind:data(any) addr:0x0212278c
data_ov037_02122800 kind:bss addr:0x02122800
data_ov037_02122804 kind:bss addr:0x02122804
data_ov037_02122810 kind:bss addr:0x02122810
_ZGVN15ProfileInstanceI19ActorProfileUnkSOLFE8sProfileE kind:bss addr:0x02122968
@11340 kind:bss addr:0x0212296c
_ZN15ProfileInstanceI19ActorProfileUnkSOLFE8sProfileE kind:bss addr:0x02122978
_ZGVN15ProfileInstanceI19ActorProfileUnkSOLTE8sProfileE kind:bss addr:0x021229bc
@11346 kind:bss addr:0x021229c0
_ZN15ProfileInstanceI19ActorProfileUnkSOLTE8sProfileE kind:bss addr:0x021229cc
data_ov037_02122aa4 kind:bss addr:0x02122aa4
data_ov037_02122aa8 kind:bss addr:0x02122aa8
_ZN15ProfileInstanceI19ActorProfileUnkTUTOE8sProfileE kind:bss addr:0x02122ab4
