_ZN18UnkStruct_027e09a46CreateEi kind:function(thumb,size=0x1a) addr:0x020b7d40
_ZN18UnkStruct_027e09a4C1Ei kind:function(thumb,size=0xee) addr:0x020b7d5c
_ZN18UnkStruct_027e09a419func_ov001_020b662cEv kind:function(thumb,size=0xae) addr:0x020b7e4c
_ZN18UnkStruct_027e09a419func_ov001_020b66dcEv kind:function(thumb,size=0x7c) addr:0x020b7efc
_ZN18UnkStruct_027e09a419func_ov001_020b6758EPK12EntranceInfob kind:function(thumb,size=0x14c) addr:0x020b7f78
_ZN18UnkStruct_027e09a419func_ov001_020b68a4Ebbb kind:function(thumb,size=0x80) addr:0x020b80c4
_ZN18UnkStruct_027e09a419func_ov001_020b6924EPK12EntranceInfob kind:function(thumb,size=0x90) addr:0x020b8144
_ZN18UnkStruct_027e09a419func_ov001_020b69b4EPK12EntranceInfob kind:function(thumb,size=0x194) addr:0x020b81d4
_ZN15TreasureManager7DestroyEv kind:function(thumb,size=0x20) addr:0x020b8368
_ZN14MiscAdvManager7DestroyEv kind:function(thumb,size=0x20) addr:0x020b8388
_ZN18UnkStruct_027e09607DestroyEv kind:function(thumb,size=0x20) addr:0x020b83a8
_ZN18UnkStruct_027e09a07DestroyEv kind:function(thumb,size=0x20) addr:0x020b83c8
_ZN18UnkStruct_027e095c7DestroyEv kind:function(thumb,size=0x20) addr:0x020b83e8
_ZN18UnkStruct_027e09587DestroyEv kind:function(thumb,size=0x20) addr:0x020b8408
_ZN18UnkStruct_027e09547DestroyEv kind:function(thumb,size=0x30) addr:0x020b8428
_ZN18UnkStruct_027e09ac7DestroyEv kind:function(thumb,size=0x20) addr:0x020b8458
_ZN18UnkStruct_027e09b87DestroyEv kind:function(thumb,size=0x20) addr:0x020b8478
_ZN18UnkStruct_027e09bc7DestroyEv kind:function(thumb,size=0x20) addr:0x020b8498
_ZN18UnkStruct_027e0ce07DestroyEv kind:function(thumb,size=0x20) addr:0x020b84b8
_ZN16MapObjectManager7DestroyEv kind:function(thumb,size=0x20) addr:0x020b84d8
_ZN12ActorManager7DestroyEv kind:function(thumb,size=0x20) addr:0x020b84f8
_ZN18UnkStruct_027e0cd87DestroyEv kind:function(thumb,size=0x20) addr:0x020b8518
_ZN8InstanceI18UnkStruct_027e09a4EC2Ev kind:function(thumb,size=0xc) addr:0x020b8538
_ZN21UnkStruct_027e0954_00D1Ev kind:function(thumb,size=0xe) addr:0x020b8544
_ZN8InstanceI18UnkStruct_027e095cED2Ev kind:function(thumb,size=0xc) addr:0x020b8554
_ZN8InstanceI18UnkStruct_027e0958ED2Ev kind:function(thumb,size=0xc) addr:0x020b8560
_ZN8InstanceI18UnkStruct_027e0954ED2Ev kind:function(thumb,size=0xc) addr:0x020b856c
_ZN26UnkStruct_027e09a4_54_BaseC2EPi kind:function(thumb,size=0x2c) addr:0x020b8578
_ZN26UnkStruct_027e09a4_54_BaseD1Ev kind:function(thumb,size=0x90) addr:0x020b85a4
_ZN26UnkStruct_027e09a4_54_BaseD0Ev kind:function(thumb,size=0x98) addr:0x020b8634
_ZN26UnkStruct_027e09a4_54_BaseD2Ev kind:function(thumb,size=0x90) addr:0x020b86cc
_ZN26UnkStruct_027e09a4_54_Base8vfunc_0CEv kind:function(thumb,size=0x64) addr:0x020b875c
_ZN26UnkStruct_027e09a4_54_Base19func_ov001_020b6fa0EP15CourseListEntry kind:function(thumb,size=0xa8) addr:0x020b87c0
_ZN26UnkStruct_027e09a4_54_Base19func_ov001_020b7048Ev kind:function(thumb,size=0x10) addr:0x020b8868
_ZN21UnkStruct_WarpUnk1_24C1Ev kind:function(thumb,size=0x1c) addr:0x020b8878
_ZN18UnkStruct_WarpUnk1C1Ev kind:function(thumb,size=0xd0) addr:0x020b8894
_ZN18UnkStruct_WarpUnk119func_ov001_020b7144Ev kind:function(thumb,size=0x2f4) addr:0x020b8964
_ZN16CourseInitBinaryC1Ev kind:function(thumb,size=0x54) addr:0x020b8c58
_ZN18UnkStruct_027e09a0C1Ev kind:function(thumb,size=0x50) addr:0x020b8cac
_ZN18UnkStruct_027e09a0D1Ev kind:function(thumb,size=0x24) addr:0x020b8cfc
_ZN18UnkStruct_027e09a06CreateEv kind:function(thumb,size=0x16) addr:0x020b8d20
_ZN18UnkStruct_027e09a015InitCourseTableEv kind:function(thumb,size=0x32) addr:0x020b8d38
_ZN8InstanceI18UnkStruct_027e09a0EC2Ev kind:function(thumb,size=0xc) addr:0x020b8d6c
_ZN8InstanceI18UnkStruct_027e09a0ED2Ev kind:function(thumb,size=0xc) addr:0x020b8d78
_ZN18UnkStruct_027e09b86CreateEv kind:function(thumb,size=0x16) addr:0x020b8d84
_ZN18UnkStruct_027e09b8C1Ev kind:function(thumb,size=0xec) addr:0x020b8d9c
_ZN18UnkStruct_027e09b8D1Ev kind:function(thumb,size=0x4c) addr:0x020b8e88
_ZN18UnkStruct_027e09b820ImportAdventureFlagsEPj kind:function(thumb,size=0x14) addr:0x020b8ed4
_ZN18UnkStruct_027e09b819func_ov001_020b76c0Ej kind:function(thumb,size=0x40) addr:0x020b8ee8
_ZN18UnkStruct_027e09b819func_ov001_020b7700Ev kind:function(thumb,size=0x28) addr:0x020b8f28
_ZN18UnkStruct_027e09b819func_ov001_020b7728Ev kind:function(thumb,size=0x2c) addr:0x020b8f50
_ZN8InstanceI18UnkStruct_027e09b8EC2Ev kind:function(thumb,size=0xc) addr:0x020b8f7c
_ZN8InstanceI18UnkStruct_027e09b8ED2Ev kind:function(thumb,size=0xc) addr:0x020b8f88
_ZN18UnkStruct_027e0cd86CreateEv kind:function(thumb,size=0x16) addr:0x020b8f94
_ZN18UnkStruct_027e0cd8C1Ev kind:function(thumb,size=0x68) addr:0x020b8fac
_ZN18UnkStruct_027e0cd8D1Ev kind:function(thumb,size=0x42) addr:0x020b9014
_ZN18UnkStruct_027e0cd819func_ov001_020b7830EPK12EntranceInfo kind:function(thumb,size=0x24c) addr:0x020b9058
_ZN18UnkStruct_027e0cd819func_ov001_020b7a7cEv kind:function(thumb,size=0xbc) addr:0x020b92a4
_ZN18UnkStruct_027e0cd819func_ov001_020b7b38EPK15CourseListEntryPK29UnkStruct_func_ov000_020702a8 kind:function(thumb,size=0xd0) addr:0x020b9360
_ZN18UnkStruct_027e0cd819func_ov001_020b7c08EPK12EntranceInfoPK21UnkStruct_WarpUnk1_A0 kind:function(thumb,size=0x174) addr:0x020b9430
_ZN18UnkStruct_027e0cd819func_ov001_020b7d64EPK12EntranceInfo kind:function(thumb,size=0xec) addr:0x020b95a4
_ZN18UnkStruct_027e0cd819func_ov001_020b7e50Ev kind:function(thumb,size=0x16) addr:0x020b9690
_ZN18UnkStruct_027e0cd819func_ov001_020b7e68EPK12EntranceInfob kind:function(thumb,size=0x1d4) addr:0x020b96a8
_ZN18UnkStruct_027e0cd819func_ov001_020b803cEv kind:function(thumb,size=0xc0) addr:0x020b987c
_ZN18UnkStruct_027e0cd819func_ov001_020b80fcEj kind:function(thumb,size=0x24) addr:0x020b993c
_ZN18UnkStruct_027e0cd819func_ov001_020b8120Ej kind:function(thumb,size=0x6c) addr:0x020b9960
_ZN18UnkStruct_027e0cd819func_ov001_020b818cEv kind:function(thumb,size=0x3c) addr:0x020b99cc
_ZN8InstanceI18UnkStruct_027e0cd8EC2Ev kind:function(thumb,size=0xc) addr:0x020b9a08
_ZN8InstanceI18UnkStruct_027e0cd8ED2Ev kind:function(thumb,size=0xc) addr:0x020b9a14
_ZN26UnkStruct_027e0cd8_0C_BaseC1EP18UnkStruct_027e0cd8 kind:function(thumb,size=0x218) addr:0x020b9a20
_ZN26UnkStruct_027e0cd8_0C_BaseD1Ev kind:function(thumb,size=0x98) addr:0x020b9c38
_ZN26UnkStruct_027e0cd8_0C_BaseD0Ev kind:function(thumb,size=0xa0) addr:0x020b9cd0
_ZN26UnkStruct_027e0cd8_0C_BaseD2Ev kind:function(thumb,size=0x98) addr:0x020b9d70
_ZN26UnkStruct_027e0cd8_0C_Base8vfunc_38Ev kind:function(thumb,size=0x2) addr:0x020b9e08
_ZN26UnkStruct_027e0cd8_0C_Base8vfunc_08Ev kind:function(thumb,size=0x2) addr:0x020b9e0c
_ZN26UnkStruct_027e0cd8_0C_Base19func_ov001_020b85d0EPK12EntranceInfo kind:function(thumb,size=0x2f0) addr:0x020b9e10
_ZN26UnkStruct_027e0cd8_0C_Base19func_ov001_020b88c0Ei kind:function(thumb,size=0x2c) addr:0x020ba100
_ZN26UnkStruct_027e0cd8_0C_Base19func_ov001_020b88ecEv kind:function(thumb,size=0x60) addr:0x020ba12c
_ZN26UnkStruct_027e0cd8_0C_Base14LoadSceneModelEPK12EntranceInfo kind:function(thumb,size=0xe0) addr:0x020ba18c
_ZN26UnkStruct_027e0cd8_0C_Base8vfunc_1CEPK12EntranceInfobb kind:function(thumb,size=0x2c) addr:0x020ba26c
_ZN26UnkStruct_027e0cd8_0C_Base8vfunc_20Ev kind:function(thumb,size=0x2) addr:0x020ba298
_ZN26UnkStruct_027e0cd8_0C_Base19func_ov001_020b8a5cEii kind:function(thumb,size=0x8e) addr:0x020ba29c
_ZN26UnkStruct_027e0cd8_0C_Base19func_ov001_020b8aecEv kind:function(thumb,size=0xa8) addr:0x020ba32c
_ZN26UnkStruct_027e0cd8_0C_Base19func_ov001_020b8b94EP12ZMBEntryARAB kind:function(thumb,size=0x9c) addr:0x020ba3d4
_ZN26UnkStruct_027e0cd8_0C_Base19func_ov001_020b8c30ERK12EntranceInfo kind:function(thumb,size=0x4e) addr:0x020ba470
_ZN26UnkStruct_027e0cd8_0C_Base19func_ov001_020b8c80Ei kind:function(thumb,size=0x10) addr:0x020ba4c0
_ZN26UnkStruct_027e0cd8_0C_Base19func_ov001_020b8c90EP14ZMBSectionCMPT kind:function(thumb,size=0x8) addr:0x020ba4d0
_ZN26UnkStruct_027e0cd8_0C_Base19func_ov001_020b8c98EP14ZMBSectionCAME kind:function(thumb,size=0x8) addr:0x020ba4d8
_ZN26UnkStruct_027e0cd8_0C_Base13ZMB_ParseROMBEP14ZMBSectionROMB kind:function(thumb,size=0x8) addr:0x020ba4e0
_ZN24UnkStruct_ov001_020c40f4D1Ev kind:function(thumb,size=0x2) addr:0x020ba4e8
_ZN26UnkStruct_027e0cd8_0C_Base8vfunc_40Eh kind:function(thumb,size=0xfc) addr:0x020ba4ec
_ZN24UnkStruct_ov001_020c40f4C1Ev kind:function(thumb,size=0xe) addr:0x020ba5e8
_ZN26UnkStruct_027e0cd8_0C_Base19func_ov001_020b8db8Ev kind:function(thumb,size=0x6c) addr:0x020ba5f8
_ZN26UnkStruct_027e0cd8_0C_Base19func_ov001_020b8e24Ev kind:function(thumb,size=0x30) addr:0x020ba664
_ZN26UnkStruct_027e0cd8_0C_Base19func_ov001_020b8e54Ev kind:function(thumb,size=0x20) addr:0x020ba694
_ZNSt13__vec_deleterI12EntranceInfoSaIS0_EE13sub_push_backERKS0_N10Metrowerks8int2typeILi0EEE kind:function(thumb,size=0x18) addr:0x020ba6b4
_ZN12CustomVectorI12EntranceInfoED1Ev kind:function(thumb,size=0x1c) addr:0x020ba6cc
_ZNSt13__vec_deleterIP38UnkStruct_027e0cd8_0C_Base_148_00_BaseSaIS1_EE5eraseEPS1_S4_13UnkMSLStruct1 kind:function(thumb,size=0x3c) addr:0x020ba6e8
_ZNSt13__vec_deleterIP38UnkStruct_027e0cd8_0C_Base_148_00_BaseSaIS1_EE13sub_push_backERKS1_N10Metrowerks8int2typeILi1EEE kind:function(thumb,size=0x18) addr:0x020ba724
_ZN12CustomVectorIP38UnkStruct_027e0cd8_0C_Base_148_00_BaseED1Ev kind:function(thumb,size=0x1c) addr:0x020ba73c
_ZNSt13__vec_deleterI12EntranceInfoSaIS0_EE7grow_byEm kind:function(thumb,size=0x80) addr:0x020ba758
_ZNSt13__vec_deleterI12EntranceInfoSaIS0_EE14append_reallocEmRKS0_ kind:function(thumb,size=0xd4) addr:0x020ba7d8
_ZNSt13__vec_deleterIP38UnkStruct_027e0cd8_0C_Base_148_00_BaseSaIS1_EE7grow_byEm kind:function(thumb,size=0x80) addr:0x020ba8ac
_ZNSt13__vec_deleterIP38UnkStruct_027e0cd8_0C_Base_148_00_BaseSaIS1_EE14append_reallocEmRKS1_ kind:function(thumb,size=0xc6) addr:0x020ba92c
_ZNSt20__vec_deleter_helperI12EntranceInfoSaIS0_EED1Ev kind:function(thumb,size=0x10) addr:0x020ba9f4
_ZNSt20__vec_deleter_helperIP38UnkStruct_027e0cd8_0C_Base_148_00_BaseSaIS1_EED1Ev kind:function(thumb,size=0x10) addr:0x020baa04
_ZNSt13__vec_deleterIP38UnkStruct_027e0cd8_0C_Base_148_00_BaseSaIS1_EE8allocateEmN10Metrowerks8int2typeILi1EEE kind:function(thumb,size=0x24) addr:0x020baa14
_ZNSt13__vec_deleterIP38UnkStruct_027e0cd8_0C_Base_148_00_BaseSaIS1_EED2Ev kind:function(thumb,size=0x1c) addr:0x020baa38
_ZNSt13__vec_deleterI12EntranceInfoSaIS0_EE8allocateEmN10Metrowerks8int2typeILi1EEE kind:function(thumb,size=0x28) addr:0x020baa54
_ZNSt13__vec_deleterI12EntranceInfoSaIS0_EED2Ev kind:function(thumb,size=0x1c) addr:0x020baa7c
__arraydtor$4129 kind:function(thumb,size=0x18) addr:0x020baa98 local
ZAB_ParseFile kind:function(thumb,size=0x70) addr:0x020baab0
ZAB_ParseCAMB kind:function(thumb,size=0x18c) addr:0x020bab20
ZAB_ParseCABI kind:function(thumb,size=0x4) addr:0x020bacac
ZAB_GetRoomEntry kind:function(thumb,size=0x3e) addr:0x020bacb0
ZMB_ParseFile kind:function(thumb,size=0x164) addr:0x020bacf0
ZMB_ParseROMB kind:function(thumb,size=0xe) addr:0x020bae54
ZMB_ParseLDLB kind:function(thumb,size=0xfc) addr:0x020bae64
ZMB_ParseARAB kind:function(thumb,size=0x40) addr:0x020baf60
ZMB_ParseRALB kind:function(thumb,size=0xe0) addr:0x020bafa0
ZMB_ParseWARP kind:function(thumb,size=0xc4) addr:0x020bb080
ZMB_ParseMapObjList kind:function(thumb,size=0x140) addr:0x020bb144
ZMB_ParseActorList kind:function(thumb,size=0x22c) addr:0x020bb284
ZMB_ParseROOM kind:function(thumb,size=0x460) addr:0x020bb4b0
ZMB_ParsePLYR kind:function(thumb,size=0x17c) addr:0x020bb910
ZMB_ParseCAME kind:function(thumb,size=0xa4) addr:0x020bba8c
ZMB_ParseCMPT kind:function(thumb,size=0x5e) addr:0x020bbb30
ZMB_020ba350 kind:function(thumb,size=0x36) addr:0x020bbb90
ZMB_020ba388 kind:function(thumb,size=0x7e) addr:0x020bbbc8
ZMB_020ba408 kind:function(thumb,size=0x80) addr:0x020bbc48
_ZNSt13__vec_deleterI12EntranceInfoSaIS0_EED1Ev kind:function(thumb,size=0x1c) addr:0x020bbcc8
func_ov001_020ba4a4 kind:function(thumb,size=0x28) addr:0x020bbce4
_ZNSt13__vec_deleterIP38UnkStruct_027e0cd8_0C_Base_148_00_BaseSaIS1_EED1Ev kind:function(thumb,size=0x1c) addr:0x020bbd0c
func_ov001_020ba4e8 kind:function(thumb,size=0x24) addr:0x020bbd28
_ZN18UnkStruct_027e095c6CreateEv kind:function(thumb,size=0x1c) addr:0x020bbd4c
_ZN18UnkStruct_027e095cC1Ev kind:function(thumb,size=0x50) addr:0x020bbd68
_ZN8InstanceI18UnkStruct_027e095cEC2Ev kind:function(thumb,size=0xc) addr:0x020bbdb8
_ZN18UnkStruct_02011e1019func_ov001_020ba588Eii kind:function(thumb,size=0x12) addr:0x020bbdc4
_ZN18UnkStruct_02011e1019func_ov001_020ba59cEv kind:function(thumb,size=0x10) addr:0x020bbdd8
_ZN18UnkStruct_02011e1019func_ov001_020ba5acEii kind:function(thumb,size=0x12) addr:0x020bbde8
_ZN18UnkStruct_02011e1019func_ov001_020ba5c0Ev kind:function(thumb,size=0x10) addr:0x020bbdfc
_ZN18UnkStruct_02011e1019func_ov001_020ba5d0Ev kind:function(thumb,size=0x38) addr:0x020bbe0c
_ZN18UnkStruct_02011e1019func_ov001_020ba608Ev kind:function(thumb,size=0x18) addr:0x020bbe44
_ZN18UnkStruct_02011e1019func_ov001_020ba620Ev kind:function(thumb,size=0x20) addr:0x020bbe5c
_ZN18UnkStruct_02011e1019func_ov001_020ba640Ev kind:function(thumb,size=0x16) addr:0x020bbe7c
_ZN18UnkStruct_02011e1019func_ov001_020ba658Ev kind:function(thumb,size=0x18) addr:0x020bbe94
_ZN11SaveManager19func_ov001_020ba670Ev kind:function(thumb,size=0x138) addr:0x020bbeac
_ZN11SaveManager19func_ov001_020ba7a8Ev kind:function(thumb,size=0x20) addr:0x020bbfe4
_ZN11SaveManager19func_ov001_020ba7c8Et kind:function(thumb,size=0x90) addr:0x020bc004
_ZN11SaveManager19func_ov001_020ba858Ev kind:function(thumb,size=0x15c) addr:0x020bc094
_ZN15SaveManager_244C1Ev kind:function(thumb,size=0x2) addr:0x020bc1f0
_ZN18UnkStruct_027e09bc6CreateEv kind:function(thumb,size=0x16) addr:0x020bc1f4
_ZN18UnkStruct_027e09bcC1Ev kind:function(thumb,size=0x110) addr:0x020bc20c
_ZN18UnkStruct_027e09bcD1Ev kind:function(thumb,size=0x7c) addr:0x020bc31c
_ZN18UnkStruct_027e09bc19func_ov001_020bab5cEv kind:function(thumb,size=0x6c) addr:0x020bc398
_ZN18UnkStruct_027e09bc19func_ov001_020babc8Ev kind:function(thumb,size=0x20) addr:0x020bc404
_ZN18UnkStruct_027e09bc19func_ov001_020babe8Ev kind:function(thumb,size=0x20) addr:0x020bc424
_ZN18UnkStruct_027e09bc19func_ov001_020bac08Ev kind:function(thumb,size=0x20) addr:0x020bc444
_ZN8InstanceI18UnkStruct_027e09bcEC2Ev kind:function(thumb,size=0xc) addr:0x020bc464
_ZN8InstanceI18UnkStruct_027e09bcED2Ev kind:function(thumb,size=0xc) addr:0x020bc470
_ZN16MapObjectManager6CreateEv kind:function(thumb,size=0x16) addr:0x020bc47c
_ZN16MapObjectManagerC1Ev kind:function(thumb,size=0x1e) addr:0x020bc494
_ZN16MapObjectManagerD1Ev kind:function(thumb,size=0x22) addr:0x020bc4b4
_ZN16MapObjectManager19func_ov001_020bac9cEv kind:function(thumb,size=0x3c) addr:0x020bc4d8
_ZN16MapObjectManager19func_ov001_020bacd8EP9ZOBHeader kind:function(thumb,size=0xa8) addr:0x020bc514
_ZN16MapObjectManager19func_ov001_020bad80Ev kind:function(thumb,size=0x20) addr:0x020bc5bc
_ZN16MapObjectManager19func_ov001_020bada0Ev kind:function(thumb,size=0x20) addr:0x020bc5dc
_ZN16MapObjectManager19func_ov001_020badb4Ev kind:function(thumb,size=0x2c) addr:0x020bc5fc
_ZN16MapObjectManager19func_ov001_020bade0Ev kind:function(thumb,size=0x60) addr:0x020bc628
_ZN16MapObjectManager19func_ov001_020bae40EP15ZeldaObjectList kind:function(thumb,size=0x2c) addr:0x020bc688
_ZN16MapObjectManager19func_ov001_020bae6cEv kind:function(thumb,size=0x34) addr:0x020bc6b4
_ZN16MapObjectManager19func_ov001_020baea0EPt kind:function(thumb,size=0x88) addr:0x020bc6e8
_ZN16MapObjectManager19func_ov001_020baf28Ev kind:function(thumb,size=0x22) addr:0x020bc770
_ZN8InstanceI16MapObjectManagerEC2Ev kind:function(thumb,size=0xc) addr:0x020bc794
_ZN8InstanceI16MapObjectManagerED2Ev kind:function(thumb,size=0xc) addr:0x020bc7a0
_ZN12ActorManager6CreateEv kind:function(thumb,size=0x16) addr:0x020bc7ac
_ZN12ActorManagerC1Ev kind:function(thumb,size=0x46) addr:0x020bc7c4
_ZN12ActorManagerD1Ev kind:function(thumb,size=0x18) addr:0x020bc80c
_ZN12ActorManager19func_ov001_020bafdcEv kind:function(thumb,size=0x3c) addr:0x020bc824
_ZN12ActorManager19func_ov001_020bb018EP9ZOBHeader kind:function(thumb,size=0x3fc) addr:0x020bc860
_ZN12ActorManager19func_ov001_020bb414Ev kind:function(thumb,size=0x74) addr:0x020bcc5c
_ZN12ActorManager19func_ov001_020bb488Ev kind:function(thumb,size=0xc0) addr:0x020bccd0
_ZN12ActorManager19func_ov001_020bb548Ev kind:function(thumb,size=0xe8) addr:0x020bcd90
_ZN12ActorManager19func_ov001_020bb630Ev kind:function(thumb,size=0x80) addr:0x020bce78
_ZN12ActorManager19func_ov001_020bb6b0EP12EntranceInfo kind:function(thumb,size=0x78) addr:0x020bcef8
_ZN12ActorManager19func_ov001_020bb728Ej kind:function(thumb,size=0x88) addr:0x020bcf70
_ZN12ActorManager19func_ov001_020bb7b0EP15ZeldaObjectList kind:function(thumb,size=0x40) addr:0x020bcff8
_ZN12ActorManager19func_ov001_020bb7f0Ev kind:function(thumb,size=0x34) addr:0x020bd038
_ZN12ActorManager19func_ov001_020bb824Ev kind:function(thumb,size=0x20) addr:0x020bd06c
_ZN12ActorManager19func_ov001_020bb844Ev kind:function(thumb,size=0x20) addr:0x020bd08c
_ZN8InstanceI12ActorManagerEC2Ev kind:function(thumb,size=0xc) addr:0x020bd0ac
_ZN8InstanceI12ActorManagerED2Ev kind:function(thumb,size=0xc) addr:0x020bd0b8
_ZN9InventoryC1Ev kind:function(thumb,size=0x3c) addr:0x020bd0c4
_ZN9InventoryD1Ev kind:function(thumb,size=0x2) addr:0x020bd100
_ZN9Inventory19func_ov001_020bb8bcEPK13InvImportData kind:function(thumb,size=0x13c) addr:0x020bd104
_ZN9Inventory19func_ov001_020bb9f8Ev kind:function(thumb,size=0x5c) addr:0x020bd240
_ZN9Inventory19func_ov001_020bba54Ev kind:function(thumb,size=0x18) addr:0x020bd29c
_ZN9Inventory19func_ov001_020bba6cEv kind:function(thumb,size=0x58) addr:0x020bd2b4
_Z19func_ov001_020bbac4iP10G3d_Model_ib kind:function(thumb,size=0x5c) addr:0x020bd30c
_ZN18PlayerActorBase_70C1Eii kind:function(thumb,size=0x260) addr:0x020bd368
_ZN18PlayerActorBase_70D1Ev kind:function(thumb,size=0x96) addr:0x020bd5c8
_ZN18PlayerActorBase_7019func_ov001_020bbe18Ei29UnkStruct_func_ov001_020bbe18jh kind:function(thumb,size=0x4c) addr:0x020bd660
_ZN24UnkStruct_027e0ce0_30_00C1EP21UnkStruct_027e0ce0_38P21UnkStruct_027e0ce0_3CiPii kind:function(thumb,size=0x7c) addr:0x020bd6ac
_ZN24UnkStruct_027e0ce0_30_00D1Ev kind:function(thumb,size=0x2) addr:0x020bd728
_ZN21UnkStruct_027e0ce0_30C1Ev kind:function(thumb,size=0x18) addr:0x020bd72c
_ZN21UnkStruct_027e0ce0_30D1Ev kind:function(thumb,size=0x2) addr:0x020bd744
_ZN21UnkStruct_027e0ce0_3019func_ov001_020bbf00Eii kind:function(thumb,size=0x24) addr:0x020bd748
_ZN21UnkStruct_027e0ce0_3019func_ov001_020bbf24EP21UnkStruct_027e0ce0_38 kind:function(thumb,size=0x2a) addr:0x020bd76c
_ZN21UnkStruct_027e0ce0_3019func_ov001_020bbf50EP21UnkStruct_027e0ce0_3C kind:function(thumb,size=0x2a) addr:0x020bd798
_ZN21UnkStruct_027e0ce0_3019func_ov001_020bbf7cEiPii kind:function(thumb,size=0x50) addr:0x020bd7c4
_ZN21UnkStruct_027e0ce0_3019func_ov001_020bbfccEv kind:function(thumb,size=0x5a) addr:0x020bd814
_ZN26UnkStruct_027e0ce0_40_BaseC2EiPvP11ItemManager kind:function(thumb,size=0x88) addr:0x020bd870
_ZN26UnkStruct_027e0ce0_40_BaseD2Ev kind:function(thumb,size=0x30) addr:0x020bd8f8
_ZN26UnkStruct_027e0ce0_40_Base19func_ov001_020bc0e0Eb kind:function(thumb,size=0x154) addr:0x020bd928
_ZN11ItemManagerC1Ev kind:function(thumb,size=0x16) addr:0x020bda7c
_ZN11ItemManager19func_ov001_020bc24cEv kind:function(thumb,size=0x30) addr:0x020bda94
_ZN11ItemManager19func_ov001_020bc27cEv kind:function(thumb,size=0x1e) addr:0x020bdac4
_ZN11ItemManager19func_ov001_020bc29cEv kind:function(thumb,size=0x1a) addr:0x020bdae4
_ZN11ItemManager19func_ov001_020bc2b8Ev kind:function(thumb,size=0x10) addr:0x020bdb00
_ZN29UnkStruct_027e0ce0_40_Base_94C1Ei kind:function(thumb,size=0x70) addr:0x020bdb10
_ZN29UnkStruct_027e0ce0_40_Base_94D1Ev kind:function(thumb,size=0x12) addr:0x020bdb80
_ZN18UnkStruct_027e0ce06CreateEv kind:function(thumb,size=0x16) addr:0x020bdb94
_ZN18UnkStruct_027e0ce0C1Ev kind:function(thumb,size=0xec) addr:0x020bdbac
_ZN18UnkStruct_027e0ce0D1Ev kind:function(thumb,size=0x86) addr:0x020bdc98
_ZN18UnkStruct_027e0ce019func_ov001_020bc4d8EP13InvImportDataP27SaveFile_00000_0000_Data_D8i kind:function(thumb,size=0x4c) addr:0x020bdd20
_ZN18UnkStruct_027e0ce019func_ov001_020bc524Eb kind:function(thumb,size=0xd4) addr:0x020bdd6c
_ZN18UnkStruct_027e0ce019func_ov001_020bc5f8Ev kind:function(thumb,size=0x62) addr:0x020bde40
_ZN18UnkStruct_027e0ce019func_ov001_020bc65cEv kind:function(thumb,size=0x40) addr:0x020bdea4
_ZN18UnkStruct_027e0ce019func_ov001_020bc69cEv kind:function(thumb,size=0x3c) addr:0x020bdee4
_ZN18UnkStruct_027e0ce019func_ov001_020bc6d8EiPK24UnkStruct_ov001_020c40f4 kind:function(thumb,size=0xe) addr:0x020bdf20
_ZN18UnkStruct_027e0ce019func_ov001_020bc6e8EPK24UnkStruct_ov001_020c40f4 kind:function(thumb,size=0x14) addr:0x020bdf30
_ZN18UnkStruct_027e0ce019func_ov001_020bc6fcEPK24UnkStruct_ov001_020c40f4S2_ii kind:function(thumb,size=0x52) addr:0x020bdf44
_ZN8InstanceI18UnkStruct_027e0ce0EC2Ev kind:function(thumb,size=0xc) addr:0x020bdf98
_ZN8InstanceI18UnkStruct_027e0ce0ED2Ev kind:function(thumb,size=0xc) addr:0x020bdfa4
_ZN18UnkStruct_027e0cdc7DestroyEv kind:function(thumb,size=0x20) addr:0x020bdfb0
_ZN8InstanceI18UnkStruct_027e0cdcED2Ev kind:function(thumb,size=0xc) addr:0x020bdfd0
_ZN20ModelRender_Derived4C1EiiP10G3d_Model_P18G3d_BoneMtxStruct_ kind:function(thumb,size=0x8c) addr:0x020bdfdc
_ZN15PlayerActorBaseC2EiiiP21UnkStruct_027e0ce0_40 kind:function(thumb,size=0x124) addr:0x020be068
_ZN15PlayerActorBaseD2Ev kind:function(thumb,size=0x28) addr:0x020be18c
_ZN15PlayerActorBase19func_ov001_020bc96cEv kind:function(thumb,size=0x2e) addr:0x020be1b4
_ZN15PlayerLinkActorC1EiiP21UnkStruct_027e0ce0_40Pb kind:function(thumb,size=0x138) addr:0x020be1e4
_ZN19PlayerLinkActor_1B0D1Ev kind:function(thumb,size=0xc) addr:0x020be31c
_ZN15PlayerLinkActorD1Ev kind:function(thumb,size=0x80) addr:0x020be328
_ZN15PlayerLinkActor19func_ov001_020bcb60Ei kind:function(thumb,size=0x10) addr:0x020be3a8
_ZN15PlayerLinkActor19func_ov001_020bcb70Ev kind:function(thumb,size=0x36) addr:0x020be3b8
_ZN15PlayerLinkActor19func_ov001_020bcba8Ev kind:function(thumb,size=0x26) addr:0x020be3f0
_ZN15PlayerLinkActor19func_ov001_020bcbd0EP7VecFx32 kind:function(thumb,size=0x98) addr:0x020be418
_ZN18UnkStruct_027e0d347DestroyEv kind:function(thumb,size=0x20) addr:0x020be4b0
_ZN19PlayerLinkActor_1B0C1Ev kind:function(thumb,size=0xc) addr:0x020be4d0
_ZN8InstanceI18UnkStruct_027e0d34ED2Ev kind:function(thumb,size=0xc) addr:0x020be4dc
_ZN21UnkStruct_027e0ce0_1CC1Ev kind:function(thumb,size=0x46) addr:0x020be4e8
_ZN21UnkStruct_027e0ce0_1CD1Ev kind:function(thumb,size=0x2) addr:0x020be530
_ZN21UnkStruct_027e0ce0_1C19func_ov001_020bccecEv kind:function(thumb,size=0x2fe) addr:0x020be534
_ZN21UnkStruct_027e0ce0_1C19func_ov001_020bcfecEv kind:function(thumb,size=0xb8) addr:0x020be834
_ZN21UnkStruct_027e0ce0_1C19func_ov001_020bd0a4Eb kind:function(thumb,size=0x148) addr:0x020be8ec
_ZN21UnkStruct_027e0ce0_1C19func_ov001_020bd1ecEv kind:function(thumb,size=0x80) addr:0x020bea34
_ZN18PlayerLinkActor_A0D1Ev kind:function(thumb,size=0x74) addr:0x020beab4
_ZN18PlayerLinkActor_A019func_ov001_020bd2e0Ev kind:function(thumb,size=0x78) addr:0x020beb28
_ZN18PlayerLinkActor_A019func_ov001_020bd358Ev kind:function(thumb,size=0x30) addr:0x020beba0
_ZN18PlayerLinkActor_A019func_ov001_020bd388Ebb kind:function(thumb,size=0x128) addr:0x020bebd0
_ZN29UnkStruct_027e0ce0_40_Base_7CC1Ei kind:function(thumb,size=0x40) addr:0x020becf8
_ZN29UnkStruct_027e0ce0_40_Base_7CD1Ev kind:function(thumb,size=0x22) addr:0x020bed38
_ZN18UnkStruct_0204a11019func_ov001_020bd514EiPFP19GameModeManagerBaseP23UnkStruct_0204a110_Sub2Ebb kind:function(thumb,size=0x78) addr:0x020bed5c
_ZN18UnkStruct_0204a11019func_ov001_020bd58cEv kind:function(thumb,size=0x24) addr:0x020bedd4
_ZN18UnkStruct_0204a11019func_ov001_020bd5b0Ev kind:function(thumb,size=0x88) addr:0x020bedf8
_ZN18UnkStruct_0204a11019func_ov001_020bd638Ev kind:function(thumb,size=0x40) addr:0x020bee80
_ZN18UnkStruct_0204a11019func_ov001_020bd678Ev kind:function(thumb,size=0x14) addr:0x020beec0
_ZN18UnkStruct_0204a11019func_ov001_020bd68cEv kind:function(thumb,size=0x1c) addr:0x020beed4
_ZN18UnkStruct_0204a0886CreateEv kind:function(thumb,size=0x18) addr:0x020beef0
_ZN18UnkStruct_0204a088C1Ev kind:function(thumb,size=0x38) addr:0x020bef08
_ZN18UnkStruct_0204a08819func_ov001_020bd6f8Ev kind:function(thumb,size=0x30) addr:0x020bef40
_ZN8InstanceI18UnkStruct_0204a088EC2Ev kind:function(thumb,size=0xc) addr:0x020bef70
_ZN23GameModeManagerBase_00419func_ov001_020bd734EPKs kind:function(thumb,size=0x50) addr:0x020bef7c
_ZN23GameModeManagerBase_00419func_ov001_020bd784Ev kind:function(thumb,size=0x3c) addr:0x020befcc
_ZN23UnkStruct_0204a110_Sub219func_ov001_020bd7c0Ev kind:function(thumb,size=0x8) addr:0x020bf008
_ZN24UnkStruct_ov024_020d86a0C1Ev kind:function(thumb,size=0x32) addr:0x020bf010
_ZN24UnkStruct_ov024_020d86a0D1Ev kind:function(thumb,size=0x1a) addr:0x020bf044
_ZN24UnkStruct_ov024_020d86a019func_ov001_020bd818Ev kind:function(thumb,size=0x24) addr:0x020bf060
_ZN8InstanceI24UnkStruct_ov024_020d86a0EC2Ev kind:function(thumb,size=0xc) addr:0x020bf084
_ZN8InstanceI24UnkStruct_ov024_020d86a0ED2Ev kind:function(thumb,size=0xc) addr:0x020bf090
_ZN24UnkStruct_ov000_020b50c019func_ov001_020bd854Ev kind:function(thumb,size=0x28) addr:0x020bf09c
_ZN24UnkStruct_ov000_020b50c019func_ov001_020bd87cEv kind:function(thumb,size=0x30) addr:0x020bf0c4
_ZN24UnkStruct_ov000_020b50c019func_ov001_020bd8acEv kind:function(thumb,size=0x30) addr:0x020bf0f4
_ZN24UnkStruct_ov000_020b50c019func_ov001_020bd8dcEv kind:function(thumb,size=0xc) addr:0x020bf124
_ZN24UnkStruct_ov000_020b50c019func_ov001_020bd8e8Ev kind:function(thumb,size=0x28) addr:0x020bf130
_ZN24UnkStruct_ov000_020b50c019func_ov001_020bd910Ev kind:function(thumb,size=0x30) addr:0x020bf158
_ZN24UnkStruct_ov000_020b50c019func_ov001_020bd934Eb kind:function(thumb,size=0x3c) addr:0x020bf188
_ZN24UnkStruct_ov000_020b50c019func_ov001_020bd970EPK12EntranceInfo kind:function(thumb,size=0x494) addr:0x020bf1c4
_ZN24UnkStruct_ov000_020b50c019func_ov001_020bde04EPK12EntranceInfo kind:function(thumb,size=0x48) addr:0x020bf658
_ZN24UnkStruct_ov000_020b50c019func_ov001_020bde4cEPK12EntranceInfo kind:function(thumb,size=0x10) addr:0x020bf6a0
_ZN24UnkStruct_ov000_020b50c019func_ov001_020bde5cEv kind:function(thumb,size=0x10) addr:0x020bf6b0
_ZN24UnkStruct_ov018_020c5ac019func_ov001_020bde6cEv kind:function(thumb,size=0xe) addr:0x020bf6c0
_ZN24UnkStruct_ov018_020c5ac019func_ov001_020bde7cEv kind:function(thumb,size=0x14) addr:0x020bf6d0
_ZN24UnkStruct_ov018_020c5ac019func_ov001_020bde90EPK12EntranceInfo kind:function(thumb,size=0x110) addr:0x020bf6e4
_ZN24UnkStruct_ov018_020c5ac019func_ov001_020bdfa0EPK12EntranceInfo kind:function(thumb,size=0x16) addr:0x020bf7f4
_ZN24UnkStruct_ov018_020c5ac019func_ov001_020bdfb8EPK12EntranceInfo kind:function(thumb,size=0x78) addr:0x020bf80c
_ZN24UnkStruct_ov018_020c5ac019func_ov001_020be030Ev kind:function(thumb,size=0x2) addr:0x020bf884
_ZN18UnkStruct_027e0d087DestroyEv kind:function(thumb,size=0x20) addr:0x020bf888
_ZN19GameModeTitleScreen6CreateEv kind:function(thumb,size=0x60) addr:0x020bf8a8
_ZN17GameModeAdventure6CreateEv kind:function(thumb,size=0x24) addr:0x020bf908
_ZN19GameModeContactMode6CreateEv kind:function(thumb,size=0x14) addr:0x020bf92c
_ZN20GameModeDownloadPlay6CreateEv kind:function(thumb,size=0x14) addr:0x020bf940
_ZN14GameModeBattle6CreateEv kind:function(thumb,size=0x2c) addr:0x020bf954
_ZN24UnkStruct_ov000_020b4eec19func_ov001_020be12cEv kind:function(thumb,size=0xc) addr:0x020bf980
ZCB_ParseFile kind:function(thumb,size=0xc0) addr:0x020bf98c
ZCB_ParseVTXB kind:function(thumb,size=0x96) addr:0x020bfa4c
ZCB_ParseNRMB kind:function(thumb,size=0x12) addr:0x020bfae4
ZCB_ParsePCLB kind:function(thumb,size=0x10) addr:0x020bfaf8
ZCB_ParseTRIB kind:function(thumb,size=0x10) addr:0x020bfb08
ZCB_ParseGRDB kind:function(thumb,size=0xc) addr:0x020bfb18
_ZN18UnkStruct_027e09c06CreateEv kind:function(thumb,size=0x1c) addr:0x020bfb24
_ZN18UnkStruct_027e09c07DestroyEv kind:function(thumb,size=0x8) addr:0x020bfb40
_ZN18UnkStruct_027e09c0C1Ev kind:function(thumb,size=0xa0) addr:0x020bfb48
_ZN18UnkStruct_027e09c019func_ov001_020be394Ev kind:function(thumb,size=0x30) addr:0x020bfbe8
_ZN18UnkStruct_027e09c019func_ov001_020be3c4Ev kind:function(thumb,size=0x18) addr:0x020bfc18
_ZN18UnkStruct_027e09c019func_ov001_020be3dcEP14UnkFileSystem3P26UnkStruct_027e0cd8_0C_Base kind:function(thumb,size=0x24) addr:0x020bfc30
_ZN18UnkStruct_027e09c019func_ov001_020be400Ev kind:function(thumb,size=0x3c) addr:0x020bfc54
_ZN18UnkStruct_027e09c011DestroyImplEv kind:function(thumb,size=0x20) addr:0x020bfc90
_ZN8InstanceI18UnkStruct_027e09c0EC2Ev kind:function(thumb,size=0xc) addr:0x020bfcb0
_ZN8InstanceI18UnkStruct_027e09c0ED2Ev kind:function(thumb,size=0xc) addr:0x020bfcbc
_ZN18UnkStruct_027e0b4819func_ov001_020be474Ev kind:function(thumb,size=0x70) addr:0x020bfcc8
_ZN18UnkStruct_027e0b4819func_ov001_020be4e4Ev kind:function(thumb,size=0x1e) addr:0x020bfd38
_ZN24UnkStruct_ov000_020b504c19func_ov001_020be504Ev kind:function(thumb,size=0xc) addr:0x020bfd58
_ZN24UnkStruct_ov000_020b504c19func_ov001_020be510Ev kind:function(thumb,size=0xd8) addr:0x020bfd64
_ZN24UnkStruct_ov000_020b504c19func_ov001_020be5e8Ev kind:function(thumb,size=0x80) addr:0x020bfe3c
_ZN24UnkStruct_ov000_020b504c19func_ov001_020be668Ev kind:function(thumb,size=0x70) addr:0x020bfebc
_ZN24UnkStruct_ov000_020b504c19func_ov001_020be6d8Ev kind:function(thumb,size=0x1c) addr:0x020bff2c
_ZN24UnkStruct_ov000_020b504c19func_ov001_020be6f4Ev kind:function(thumb,size=0xa8) addr:0x020bff48
_ZN24UnkStruct_ov000_020b504c19func_ov001_020be79cEj kind:function(thumb,size=0x90) addr:0x020bfff0
_ZN24UnkStruct_ov000_020b504c19func_ov001_020be82cEj kind:function(thumb,size=0x54) addr:0x020c0080
_ZN24UnkStruct_ov000_020b504c19func_ov001_020be880Ej kind:function(thumb,size=0x60) addr:0x020c00d4
_ZN24UnkStruct_ov000_020b504c19func_ov001_020be8e0Ev kind:function(thumb,size=0x4c) addr:0x020c0134
_ZN24UnkStruct_ov000_020b504c19func_ov001_020be92cEP24UnkStruct_027e0cd8_04_0C kind:function(thumb,size=0x20) addr:0x020c0180
_ZN24UnkStruct_ov000_020b504c19func_ov001_020be94cEv kind:function(thumb,size=0x4c) addr:0x020c01a0
_ZN24UnkStruct_ov000_020b504c19func_ov001_020be998Ev kind:function(thumb,size=0x64) addr:0x020c01ec
_ZN24UnkStruct_ov000_020b504c19func_ov001_020be9fcEv kind:function(thumb,size=0x30) addr:0x020c0250
_ZN24UnkStruct_ov000_020b504c19func_ov001_020bea2cEv kind:function(thumb,size=0x14) addr:0x020c0280
_ZN18UnkStruct_027e09b46CreateEv kind:function(thumb,size=0x18) addr:0x020c0294
_ZN18UnkStruct_027e09b4C1Ev kind:function(thumb,size=0x2c) addr:0x020c02ac
_ZN18UnkStruct_027e09b419func_ov001_020bea84Ev kind:function(thumb,size=0x48) addr:0x020c02d8
_ZN8InstanceI18UnkStruct_027e09b4EC2Ev kind:function(thumb,size=0xc) addr:0x020c0320
_ZN8InstanceI18UnkStruct_027e09b4ED2Ev kind:function(thumb,size=0xc) addr:0x020c032c
_ZN18UnkStruct_027e09ac6CreateEv kind:function(thumb,size=0x18) addr:0x020c0338
_ZN18UnkStruct_027e09acC1Ev kind:function(thumb,size=0x90) addr:0x020c0350
_ZN18UnkStruct_027e09acD1Ev kind:function(thumb,size=0x2c) addr:0x020c03e0
_ZN18UnkStruct_027e09ac19func_ov001_020bebb8Ev kind:function(thumb,size=0xd4) addr:0x020c040c
_ZN18UnkStruct_027e09ac19func_ov001_020bec8cEv kind:function(thumb,size=0x2) addr:0x020c04e0
_ZN18UnkStruct_027e09a87DestroyEv kind:function(thumb,size=0x20) addr:0x020c04e4
_ZN18UnkStruct_027e09b47DestroyEv kind:function(thumb,size=0x20) addr:0x020c0504
_ZN18UnkStruct_027e09b07DestroyEv kind:function(thumb,size=0x20) addr:0x020c0524
_ZN8InstanceI18UnkStruct_027e09acEC2Ev kind:function(thumb,size=0xc) addr:0x020c0544
_ZN8InstanceI18UnkStruct_027e09acED2Ev kind:function(thumb,size=0xc) addr:0x020c0550
_ZN8InstanceI18UnkStruct_027e09a8ED2Ev kind:function(thumb,size=0xc) addr:0x020c055c
_ZN18UnkStruct_027e0cec6CreateEv kind:function(thumb,size=0x20) addr:0x020c0568
_ZN18UnkStruct_027e0cec19func_ov001_020bed34Ev kind:function(thumb,size=0x1c) addr:0x020c0588
_ZN18UnkStruct_027e0cecC1Ev kind:function(thumb,size=0x248) addr:0x020c05a4
_ZN18UnkStruct_027e0cec19func_ov001_020bef98Ev kind:function(thumb,size=0x7c) addr:0x020c07ec
_ZN18UnkStruct_027e0cecD1Ev kind:function(thumb,size=0x14) addr:0x020c0868
_ZN18UnkStruct_027e0cec19func_ov001_020bf028Ev kind:function(thumb,size=0x1c) addr:0x020c087c
_ZN21UnkStruct_027e0cec_00C1EPv kind:function(arm,size=0x38) addr:0x020c0898
_ZN8InstanceI18UnkStruct_027e0cecEC2Ev kind:function(arm,size=0x10) addr:0x020c08d0
_ZN8InstanceI18UnkStruct_027e0cecED2Ev kind:function(arm,size=0x14) addr:0x020c08e0
_ZN21UnkStruct_027e0cec_1819func_ov001_020bf0a0Em kind:function(thumb,size=0x14) addr:0x020c08f4
_ZN21UnkStruct_027e0cec_18C1EP14UnkFileSystem1bi kind:function(thumb,size=0xf4) addr:0x020c0908
_ZN21UnkStruct_027e0cec_18D1Ev kind:function(thumb,size=0x2) addr:0x020c09fc
_ZN21UnkStruct_027e0cec_18D0Ev kind:function(thumb,size=0xc) addr:0x020c0a00
_ZN21UnkStruct_027e0ce0_34C1Ev kind:function(thumb,size=0x60) addr:0x020c0a0c
_ZN21UnkStruct_027e0ce0_34D1Ev kind:function(thumb,size=0x14) addr:0x020c0a6c
_ZN21UnkStruct_027e0ce0_3419func_ov001_020bf22cEP27SaveFile_00000_0000_Data_D8i kind:function(thumb,size=0x8c) addr:0x020c0a80
_ZN21UnkStruct_027e0ce0_3419func_ov001_020bf2b8Eb kind:function(thumb,size=0xc0) addr:0x020c0b0c
_ZN21UnkStruct_027e0ce0_3419func_ov001_020bf378Ev kind:function(thumb,size=0x44) addr:0x020c0bcc
_ZN21UnkStruct_027e0ce0_3419func_ov001_020bf3bcEv kind:function(thumb,size=0xe) addr:0x020c0c10
_ZN21UnkStruct_027e0ce0_3419func_ov001_020bf3ccEv kind:function(thumb,size=0x30) addr:0x020c0c20
_ZN21UnkStruct_027e0ce0_3419func_ov001_020bf3fcEv kind:function(thumb,size=0x2c) addr:0x020c0c50
_ZN12CargoManager7DestroyEv kind:function(arm,size=0x2c) addr:0x020c0c7c
_ZN18UnkStruct_027e0d007DestroyEv kind:function(arm,size=0x2c) addr:0x020c0ca8
_ZN16PassengerManager7DestroyEv kind:function(arm,size=0x2c) addr:0x020c0cd4
_ZN18UnkStruct_027e0d00C1Ev kind:function(thumb,size=0x76) addr:0x020c0d00
_ZN18UnkStruct_027e0d00D1Ev kind:function(thumb,size=0xc) addr:0x020c0d78
_ZN18UnkStruct_027e0d0019func_ov001_020bf530Ev kind:function(thumb,size=0x38) addr:0x020c0d84
_ZN18UnkStruct_027e0d0019func_ov001_020bf568Ev kind:function(thumb,size=0x28) addr:0x020c0dbc
func_ov001_020bf590 kind:function(thumb,size=0x10c) addr:0x020c0de4
func_ov001_020bf69c kind:function(thumb,size=0x94) addr:0x020c0ef0
func_ov001_020bf730 kind:function(thumb,size=0x20) addr:0x020c0f84
func_ov001_020bf750 kind:function(thumb,size=0x16) addr:0x020c0fa4
func_ov001_020bf768 kind:function(thumb,size=0x50) addr:0x020c0fbc
func_ov001_020bf7b8 kind:function(thumb,size=0x2e) addr:0x020c100c
func_ov001_020bf7e8 kind:function(thumb,size=0xc) addr:0x020c103c
func_ov001_020bf7f4 kind:function(thumb,size=0xc) addr:0x020c1048
_ZN12CargoManagerC1Ev kind:function(thumb,size=0x22) addr:0x020c1054
_ZN12CargoManagerD1Ev kind:function(thumb,size=0xc) addr:0x020c1078
_ZN12CargoManager19func_ov001_020bf830Ev kind:function(thumb,size=0x28) addr:0x020c1084
_ZN8InstanceI12CargoManagerEC2Ev kind:function(thumb,size=0xc) addr:0x020c10ac
_ZN8InstanceI12CargoManagerED2Ev kind:function(thumb,size=0xc) addr:0x020c10b8
_ZN16PassengerManager19func_ov001_020bf870Ev kind:function(thumb,size=0x44) addr:0x020c10c4
_ZN16PassengerManagerC1Ev kind:function(thumb,size=0x24) addr:0x020c1108
_ZN16PassengerManagerD1Ev kind:function(thumb,size=0xc) addr:0x020c112c
_ZN16PassengerManager19func_ov001_020bf8e4Ev kind:function(thumb,size=0x28) addr:0x020c1138
_ZN16PassengerManager19func_ov001_020bf90cEv kind:function(thumb,size=0x2) addr:0x020c1160
_ZN16PassengerManager19func_ov001_020bf910Ev kind:function(thumb,size=0x10c) addr:0x020c1164
_ZN16PassengerManager19func_ov001_020bfa1cEv kind:function(thumb,size=0x1c) addr:0x020c1270
_ZN8InstanceI16PassengerManagerEC2Ev kind:function(thumb,size=0xc) addr:0x020c128c
_ZN8InstanceI16PassengerManagerED2Ev kind:function(thumb,size=0xc) addr:0x020c1298
_ZN24UnkStruct_027e0cf8_08_00C1Eh kind:function(thumb,size=0xc2) addr:0x020c12a4
_ZN24UnkStruct_027e0cf8_08_00D1Ev kind:function(thumb,size=0xc) addr:0x020c1368
_ZN24UnkStruct_027e0cf8_08_0019func_ov001_020bfb20Ev kind:function(thumb,size=0x1a0) addr:0x020c1374
func_ov001_020bfcc0 kind:function(thumb,size=0x30) addr:0x020c1514
func_ov001_020bfcf0 kind:function(thumb,size=0x30) addr:0x020c1544
func_ov001_020bfd20 kind:function(thumb,size=0x34) addr:0x020c1574
func_ov001_020bfd54 kind:function(thumb,size=0x30) addr:0x020c15a8
func_ov001_020bfd84 kind:function(thumb,size=0x4c) addr:0x020c15d8
func_ov001_020bfdd0 kind:function(thumb,size=0x3c) addr:0x020c1624
func_ov001_020bfe0c kind:function(thumb,size=0x3c) addr:0x020c1660
func_ov001_020bfe48 kind:function(thumb,size=0x3c) addr:0x020c169c
func_ov001_020bfe84 kind:function(thumb,size=0x2c) addr:0x020c16d8
func_ov001_020bfeb0 kind:function(thumb,size=0x3c) addr:0x020c1704
func_ov001_020bfeec kind:function(thumb,size=0x10) addr:0x020c1740
func_ov001_020bfefc kind:function(thumb,size=0x10) addr:0x020c1750
func_ov001_020bff0c kind:function(thumb,size=0x10) addr:0x020c1760
func_ov001_020bff1c kind:function(thumb,size=0x10) addr:0x020c1770
func_ov001_020bff2c kind:function(thumb,size=0x8) addr:0x020c1780
func_ov001_020bff34 kind:function(thumb,size=0x40) addr:0x020c1788
_ZN20AdventureModeManager6CreateEP23UnkStruct_0204a110_Sub2 kind:function(thumb,size=0x1c) addr:0x020c17c8
_ZN20AdventureModeManagerC1EP23UnkStruct_0204a110_Sub2 kind:function(thumb,size=0x134) addr:0x020c17e4
_ZN20AdventureModeManager8vfunc_10Eiii kind:function(thumb,size=0x10) addr:0x020c1918
_ZN20AdventureModeManager19func_ov001_020c00d4Ev kind:function(thumb,size=0x30) addr:0x020c1928
_ZN20AdventureModeManager19func_ov001_020c0104Ev kind:function(thumb,size=0x90) addr:0x020c1958
_ZN20AdventureModeManager19func_ov001_020c0194Ev kind:function(thumb,size=0x7c) addr:0x020c19e8
_ZN20AdventureModeManager8vfunc_14Ev kind:function(thumb,size=0x364) addr:0x020c1a64
_ZN20AdventureModeManager8vfunc_18Ev kind:function(thumb,size=0x248) addr:0x020c1dc8
_ZN20AdventureModeManager8vfunc_1CEv kind:function(thumb,size=0x40) addr:0x020c2010
_ZN20AdventureModeManager8vfunc_20Ev kind:function(thumb,size=0x28) addr:0x020c2050
_ZN20AdventureModeManager19func_ov001_020c0824Ev kind:function(thumb,size=0x18) addr:0x020c2078
_ZN20AdventureModeManager19func_ov001_020c083cEv kind:function(thumb,size=0x18) addr:0x020c2090
_ZN20AdventureModeManager19func_ov001_020c0854Ev kind:function(thumb,size=0x20) addr:0x020c20a8
_ZN20AdventureModeManager19func_ov001_020c0874Ev kind:function(thumb,size=0x20) addr:0x020c20c8
_ZN20AdventureModeManager19func_ov001_020c0894Ev kind:function(thumb,size=0x18) addr:0x020c20e8
_ZN24UnkStruct_ov000_020b4f70D1Ev kind:function(thumb,size=0xc) addr:0x020c2100
_ZN24AdventureModeManager_15CC1Ev kind:function(thumb,size=0x68) addr:0x020c210c
_ZN24AdventureModeManager_15CD1Ev kind:function(thumb,size=0x22) addr:0x020c2174
_ZN17GameModeAdventureC1Ev kind:function(thumb,size=0x58) addr:0x020c2198
func_ov001_020c099c kind:function(thumb,size=0x24) addr:0x020c21f0
func_ov001_020c09c0 kind:function(thumb,size=0x1c) addr:0x020c2214
func_ov001_020c09dc kind:function(thumb,size=0x48) addr:0x020c2230
DetectFlashcart kind:function(arm,size=0xb8,unknown) addr:0x020c2278
DetectNotFlashcart kind:function(arm,size=0xb8,unknown) addr:0x020c2330
DetectEmulator kind:function(arm,size=0xb8,unknown) addr:0x020c23e8
DetectNotEmulator kind:function(arm,size=0xb8,unknown) addr:0x020c24a0
DetectDummy kind:function(arm,size=0x98,unknown) addr:0x020c2558
DetectNotDummy kind:function(arm,size=0x98,unknown) addr:0x020c25f0
DSProt_DetectFlashcart kind:function(arm,size=0x78,unknown) addr:0x020c2688
DSProt_DetectNotFlashcart kind:function(arm,size=0x78,unknown) addr:0x020c2700
DSProt_DetectEmulator kind:function(arm,size=0x78,unknown) addr:0x020c2778
DSProt_DetectNotEmulator kind:function(arm,size=0x78,unknown) addr:0x020c27f0
DSProt_DetectDummy kind:function(arm,size=0x78,unknown) addr:0x020c2868
DSProt_DetectNotDummy kind:function(arm,size=0x78,unknown) addr:0x020c28e0
NitroStaticInit kind:function(arm,size=0x4c,unknown) addr:0x020c2958 local
Integrity_MACOwner_IsBad kind:function(arm,size=0xd8,unknown) addr:0x020c29a4
Integrity_MACOwner_IsGood kind:function(arm,size=0x114,unknown) addr:0x020c2a7c
Integrity_ROMTest_IsBad kind:function(arm,size=0xd8,unknown) addr:0x020c2b90
Integrity_ROMTest_IsGood kind:function(arm,size=0x114,unknown) addr:0x020c2c68
RunEncrypted_Integrity_MACOwner_IsBad kind:function(arm,size=0x78,unknown) addr:0x020c2d7c
RunEncrypted_Integrity_MACOwner_IsGood kind:function(arm,size=0x78,unknown) addr:0x020c2df4
RunEncrypted_Integrity_ROMTest_IsBad kind:function(arm,size=0x78,unknown) addr:0x020c2e6c
RunEncrypted_Integrity_ROMTest_IsGood kind:function(arm,size=0x78,unknown) addr:0x020c2ee4
NitroStaticInit kind:function(arm,size=0x38,unknown) addr:0x020c2f5c local
clearDataAndInstructionCache kind:function(arm,size=0x20,unknown) addr:0x020c2f94
Encryptor_CategorizeInstruction kind:function(arm,size=0x3c,unknown) addr:0x020c2fb4
Encryptor_DecodeFunctionTable kind:function(arm,size=0x110,unknown) addr:0x020c2ff0
Encryptor_DecryptFunction kind:function(arm,size=0x88,unknown) addr:0x020c3100
Encryptor_EncryptFunction kind:function(arm,size=0x90,unknown) addr:0x020c3188
NitroStaticInit kind:function(arm,size=0x28,unknown) addr:0x020c3218 local
MACOwner_IsBad kind:function(arm,size=0xb0,unknown) addr:0x020c3240
MACOwner_IsGood kind:function(arm,size=0xb0,unknown) addr:0x020c32f0
RunEncrypted_MACOwner_IsBad kind:function(arm,size=0x78,unknown) addr:0x020c33a0
RunEncrypted_MACOwner_IsGood kind:function(arm,size=0x78,unknown) addr:0x020c3418
ROMUtil_Read kind:function(arm,size=0x184,unknown) addr:0x020c3490
ROMUtil_CRC32 kind:function(arm,size=0x58,unknown) addr:0x020c3614
RunEncrypted_ROMUtil_Read kind:function(arm,size=0x78,unknown) addr:0x020c366c
RunEncrypted_ROMUtil_CRC32 kind:function(arm,size=0x78,unknown) addr:0x020c36e4
ROMTest_IsBad kind:function(arm,size=0xc4,unknown) addr:0x020c375c
ROMTest_IsGood kind:function(arm,size=0xc4,unknown) addr:0x020c3820
RunEncrypted_ROMTest_IsBad kind:function(arm,size=0x78,unknown) addr:0x020c38e4
RunEncrypted_ROMTest_IsGood kind:function(arm,size=0x78,unknown) addr:0x020c395c
NitroStaticInit kind:function(arm,size=0x48,unknown) addr:0x020c39d4 local
RC4_Init kind:function(arm,size=0x74,unknown) addr:0x020c3a1c
RC4_Byte kind:function(arm,size=0x4c,unknown) addr:0x020c3a90
RC4_InitSBox kind:function(arm,size=0x24,unknown) addr:0x020c3adc
RC4_EncryptInstructions kind:function(arm,size=0x108,unknown) addr:0x020c3b00
RC4_DecryptInstructions kind:function(arm,size=0x10c,unknown) addr:0x020c3c08
RC4_InitAndEncryptInstructions kind:function(arm,size=0x58,unknown) addr:0x020c3d14
RC4_InitAndDecryptInstructions kind:function(arm,size=0x58,unknown) addr:0x020c3d6c
NitroStaticInit kind:function(arm,size=0x50,unknown) addr:0x020c3dc4 local
data_ov001_020c25c0 kind:data(any) addr:0x020c3e14
data_ov001_020c25d4 kind:data(any) addr:0x020c3e28
data_ov001_020c25fc kind:data(any) addr:0x020c3e50
data_ov001_020c2624 kind:data(any) addr:0x020c3e78 local
data_ov001_020c262e kind:data(any) addr:0x020c3e82 local
data_ov001_020c2638 kind:data(any) addr:0x020c3e8c local
data_ov001_020c264c kind:data(any) addr:0x020c3ea0
data_ov001_020c26bc kind:data(any) addr:0x020c3f10
data_ov001_020c3f90 kind:data(any) addr:0x020c3f90
data_ov001_020c3fa4 kind:data(any) addr:0x020c3fa4
data_ov001_020c3fb2 kind:data(any) addr:0x020c3fb2
data_ov001_020c276c kind:data(any) addr:0x020c3fc0
data_ov001_020c27a8 kind:data(any) addr:0x020c3ffc
data_ov001_020c4060 kind:data(any) addr:0x020c4060
__sinit_CourseList.cpp kind:function(thumb,size=0x24) addr:0x020c4068 local
__sinit_UnkStruct_027e0cd8_0C_001.cpp kind:function(thumb,size=0xb8) addr:0x020c408c
__sinit_ov001_020c4144 kind:function(thumb,size=0x10) addr:0x020c4144
.p__sinit_CourseList.cpp kind:data(word) addr:0x020c4154 local
.p__sinit_UnkStruct_027e0cd8_0C_001.cpp kind:data(word) addr:0x020c4158
.p__sinit_ov001_020c4144 kind:data(word) addr:0x020c415c
.p__sinit_ov001_020c2958 kind:data(word) addr:0x020c4160 local
.p__sinit_ov001_020c2f5c kind:data(word) addr:0x020c4164 local
.p__sinit_ov001_020c3218 kind:data(word) addr:0x020c4168 local
.p__sinit_ov001_020c39d4 kind:data(word) addr:0x020c416c local
.p__sinit_ov001_020c3dc4 kind:data(word) addr:0x020c4170 local
@433 kind:data(byte[22]) addr:0x020c4180 local
@450 kind:data(byte[22]) addr:0x020c4198 local
@3570 kind:data(byte[18]) addr:0x020c41b0 local
@3571 kind:data(byte[4]) addr:0x020c41c4 local
@3572 kind:data(byte[26]) addr:0x020c41c8 local
@3573 kind:data(byte[24]) addr:0x020c41e4 local
@3574 kind:data(byte[25]) addr:0x020c41fc local
@3575 kind:data(byte[23]) addr:0x020c4218 local
@3576 kind:data(byte[4]) addr:0x020c4230 local
_ZTV26UnkStruct_027e0cd8_0C_Base kind:data(any) addr:0x020c4234
data_ov001_020c2a40 kind:data(any) addr:0x020c4280
@3283 kind:data(byte[6]) addr:0x020c42d0 local
@3284 kind:data(byte[19]) addr:0x020c42d8 local
@3285 kind:data(byte[19]) addr:0x020c42ec local
@3286 kind:data(byte[19]) addr:0x020c4300 local
@3287 kind:data(byte[27]) addr:0x020c4314 local
@3288 kind:data(byte[28]) addr:0x020c4330 local
@3292 kind:data(byte[23]) addr:0x020c434c local
@3293 kind:data(byte[21]) addr:0x020c4364 local
@5615 kind:data(byte[12]) addr:0x020c437c local
@5616 kind:data(byte[13]) addr:0x020c4388 local
@5617 kind:data(byte[12]) addr:0x020c4398 local
@5618 kind:data(byte[5]) addr:0x020c43a4 local
@5619 kind:data(byte[6]) addr:0x020c43ac local
@5620 kind:data(byte[6]) addr:0x020c43b4 local
@5621 kind:data(byte[6]) addr:0x020c43bc local
@5622 kind:data(byte[6]) addr:0x020c43c4 local
@5623 kind:data(byte[6]) addr:0x020c43cc local
@5624 kind:data(byte[6]) addr:0x020c43d4 local
@5625 kind:data(byte[5]) addr:0x020c43dc local
@5626 kind:data(byte[5]) addr:0x020c43e4 local
@5627 kind:data(byte[6]) addr:0x020c43ec local
@5628 kind:data(byte[6]) addr:0x020c43f4 local
@5629 kind:data(byte[6]) addr:0x020c43fc local
@5630 kind:data(byte[6]) addr:0x020c4404 local
@5631 kind:data(byte[6]) addr:0x020c440c local
@5632 kind:data(byte[6]) addr:0x020c4414 local
@5633 kind:data(byte[6]) addr:0x020c441c local
@5634 kind:data(byte[6]) addr:0x020c4424 local
@5635 kind:data(byte[7]) addr:0x020c442c local
@5636 kind:data(byte[7]) addr:0x020c4434 local
@5637 kind:data(byte[7]) addr:0x020c443c local
@5638 kind:data(byte[11]) addr:0x020c4444 local
@5639 kind:data(byte[7]) addr:0x020c4450 local
@5640 kind:data(byte[17]) addr:0x020c4458 local
@5641 kind:data(byte[7]) addr:0x020c446c local
@5642 kind:data(byte[4]) addr:0x020c4474 local
@5643 kind:data(byte[9]) addr:0x020c4478 local
@5644 kind:data(byte[12]) addr:0x020c4484 local
@5645 kind:data(byte[9]) addr:0x020c4490 local
@5646 kind:data(byte[12]) addr:0x020c449c local
@5647 kind:data(byte[6]) addr:0x020c44a8 local
@4095 kind:data(byte[6]) addr:0x020c44b0 local
@4096 kind:data(byte[7]) addr:0x020c44b8 local
@2191 kind:data(byte[5]) addr:0x020c44c0 local
@2192 kind:data(byte[6]) addr:0x020c44c8 local
@2193 kind:data(byte[6]) addr:0x020c44d0 local
@2194 kind:data(byte[6]) addr:0x020c44d8 local
@2195 kind:data(byte[7]) addr:0x020c44e0 local
@2196 kind:data(byte[7]) addr:0x020c44e8 local
@2197 kind:data(byte[7]) addr:0x020c44f0 local
@2198 kind:data(byte[8]) addr:0x020c44f8 local
@2199 kind:data(byte[8]) addr:0x020c4500 local
@2200 kind:data(byte[8]) addr:0x020c4508 local
@2201 kind:data(byte[10]) addr:0x020c4510 local
@2202 kind:data(byte[12]) addr:0x020c451c local
@2203 kind:data(byte[12]) addr:0x020c4528 local
data_ov001_020c2cf4 kind:data(any) addr:0x020c4534 local
@1725 kind:data(byte[9]) addr:0x020c456c local
@1756 kind:data(byte[14]) addr:0x020c4578 local
@1757 kind:data(byte[14]) addr:0x020c4588 local
@1758 kind:data(byte[7]) addr:0x020c4598 local
@1759 kind:data(byte[8]) addr:0x020c45a0 local
@2363 kind:data(byte[6]) addr:0x020c45a8 local
@2364 kind:data(byte[10]) addr:0x020c45b0 local
@2365 kind:data(byte[8]) addr:0x020c45bc local
@2366 kind:data(byte[6]) addr:0x020c45c4 local
@2367 kind:data(byte[12]) addr:0x020c45cc local
@2368 kind:data(byte[5]) addr:0x020c45d8 local
@2369 kind:data(byte[10]) addr:0x020c45e0 local
@2370 kind:data(byte[10]) addr:0x020c45ec local
@2371 kind:data(byte[10]) addr:0x020c45f8 local
@2372 kind:data(byte[10]) addr:0x020c4604 local
@2373 kind:data(byte[10]) addr:0x020c4610 local
@2374 kind:data(byte[5]) addr:0x020c461c local
@2375 kind:data(byte[5]) addr:0x020c4624 local
@2664 kind:data(byte[0x14]) addr:0x020c462c local
@2665 kind:data(byte[7]) addr:0x020c4640 local
@2666 kind:data(byte[8]) addr:0x020c4648 local
@2667 kind:data(byte[6]) addr:0x020c4650 local
@2668 kind:data(byte[6]) addr:0x020c4658 local
@2669 kind:data(byte[9]) addr:0x020c4660 local
@0 kind:data(byte[0x11]) addr:0x020c466c local
@1 kind:data(byte[0x12]) addr:0x020c4680 local
@2 kind:data(byte[0x13]) addr:0x020c4694 local
@3 kind:data(byte[0x15]) addr:0x020c46a8 local
@4 kind:data(byte[0x16]) addr:0x020c46c0 local
@5 kind:data(byte[0x16]) addr:0x020c46d8 local
@6 kind:data(byte[0x16]) addr:0x020c46f0 local
@7 kind:data(byte[0x16]) addr:0x020c4708 local
@8 kind:data(byte[0x16]) addr:0x020c4720 local
@9 kind:data(byte[0x17]) addr:0x020c4738 local
@10 kind:data(byte[0x17]) addr:0x020c4750 local
data_ov001_020c2f28 kind:data(any) addr:0x020c4768 local
@11 kind:data(byte[0x15]) addr:0x020c4798 local
@14 kind:data(byte[0x11]) addr:0x020c47b0 local
@15 kind:data(byte[0x16]) addr:0x020c47c4 local
@16 kind:data(byte[0xd]) addr:0x020c47dc local
@17 kind:data(byte[0x5]) addr:0x020c47ec local
@18 kind:data(byte[0x10]) addr:0x020c47f4 local
_ZTV21UnkStruct_027e0cec_18 kind:data(any) addr:0x020c4804
data_ov001_020c4814 kind:data(any) addr:0x020c4814
data_ov001_020c4818 kind:data(any) addr:0x020c4818
_ZGVN14StaticInstanceI16CourseInitBinaryE9sInstanceE kind:bss addr:0x020c4820
_ZN14StaticInstanceI16CourseInitBinaryE9sInstanceE kind:bss addr:0x020c4824
@4613 kind:bss addr:0x020c5928 local
data_ov001_020c40f4 kind:bss addr:0x020c5934 local
data_ov001_020c5f34 kind:bss addr:0x020c5f34
data_ov001_020c5f38 kind:bss addr:0x020c5f38
data_ov001_020c5f3c kind:bss addr:0x020c5f3c
data_ov001_020c5f40 kind:bss addr:0x020c5f40
data_ov001_020c5f41 kind:bss addr:0x020c5f41
