_ZN19ActorProfileUnkWTTH10GetProfileEv kind:function(arm,size=0xc) addr:0x021234c0
_ZN19ActorProfileUnkWTTH6CreateEv kind:function(arm,size=0x24) addr:0x021234cc
_ZN19ActorProfileUnkWTTHC1Ev kind:function(arm,size=0x68) addr:0x021234f0
_ZN12ActorUnkWTTHC1Ev kind:function(arm,size=0x170) addr:0x02123558
_ZN12ActorUnkWTTH19func_ov046_021236c8Ev kind:function(arm,size=0x14) addr:0x021236c8
_ZN12ActorUnkWTTH19func_ov046_021236dcEv kind:function(arm,size=0xa8) addr:0x021236dc
_ZN12ActorUnkWTTH19func_ov046_02123784Ev kind:function(arm,size=0x24) addr:0x02123784
_ZN12ActorUnkWTTH19func_ov046_021237a8Ev kind:function(arm,size=0x24) addr:0x021237a8
_ZN12ActorUnkWTTH19func_ov046_021237ccEv kind:function(arm,size=0x34) addr:0x021237cc
_ZN12ActorUnkWTTH19func_ov046_02123800Ev kind:function(arm,size=0x3c) addr:0x02123800
_ZN12ActorUnkWTTH19func_ov046_0212383cEv kind:function(arm,size=0x10) addr:0x0212383c
_ZN12ActorUnkWTTH19func_ov046_0212384cEv kind:function(arm,size=0x6c) addr:0x0212384c
_ZN12ActorUnkWTTH19func_ov046_021238b8Ev kind:function(arm,size=0x1c) addr:0x021238b8
_ZN12ActorUnkWTTH19func_ov046_021238d4Ev kind:function(arm,size=0x4) addr:0x021238d4
_ZN12ActorUnkWTTH19func_ov046_021238d8Ev kind:function(arm,size=0xec) addr:0x021238d8
_ZN12ActorUnkWTTH19func_ov046_021239c4Ev kind:function(arm,size=0x114) addr:0x021239c4
_ZN12ActorUnkWTTH19func_ov046_02123ad8Ev kind:function(arm,size=0x1c) addr:0x02123ad8
_ZN12ActorUnkWTTH19func_ov046_02123af4Ev kind:function(arm,size=0xc0) addr:0x02123af4
_ZN12ActorUnkWTTH19func_ov046_02123bb4Ev kind:function(arm,size=0x38) addr:0x02123bb4
_ZN12ActorUnkWTTH19func_ov046_02123becEv kind:function(arm,size=0x88) addr:0x02123bec
_ZN12ActorUnkWTTH19func_ov046_02123c74Ev kind:function(arm,size=0x1d4) addr:0x02123c74
_ZN12ActorUnkWTTH19func_ov046_02123e48Ev kind:function(arm,size=0x2c) addr:0x02123e48
_ZN12ActorUnkWTTH19func_ov046_02123e74Ev kind:function(arm,size=0x88) addr:0x02123e74
_ZN12ActorUnkWTTH19func_ov046_02123efcEv kind:function(arm,size=0x148) addr:0x02123efc
_ZN12ActorUnkWTTH19func_ov046_02124044Ev kind:function(arm,size=0x2c) addr:0x02124044
_ZN12ActorUnkWTTH19func_ov046_02124070Ev kind:function(arm,size=0xf4) addr:0x02124070
_ZN12ActorUnkWTTH19func_ov046_02124164Ev kind:function(arm,size=0xa4) addr:0x02124164
_ZN12ActorUnkWTTH19func_ov046_02124208Ev kind:function(arm,size=0x44) addr:0x02124208
_ZN12ActorUnkWTTH19func_ov046_0212424cEv kind:function(arm,size=0x9c) addr:0x0212424c
_ZN12ActorUnkWTTH19func_ov046_021242e8Ev kind:function(arm,size=0x9c) addr:0x021242e8
_ZN12ActorUnkWTTH19func_ov046_02124384Ev kind:function(arm,size=0x44) addr:0x02124384
_ZN12ActorUnkWTTH19func_ov046_021243c8Ev kind:function(arm,size=0x90) addr:0x021243c8
_ZN12ActorUnkWTTH19func_ov046_02124458Ev kind:function(arm,size=0x11c) addr:0x02124458
_ZN12ActorUnkWTTH19func_ov046_02124574Ev kind:function(arm,size=0x3c) addr:0x02124574
_ZN12ActorUnkWTTH19func_ov046_021245b0Ev kind:function(arm,size=0x204) addr:0x021245b0
_ZN12ActorUnkWTTH19func_ov046_021247b4Ev kind:function(arm,size=0x430) addr:0x021247b4
_ZN12ActorUnkWTTH19func_ov046_02124be4Ev kind:function(arm,size=0x2c) addr:0x02124be4
_ZN12ActorUnkWTTH19func_ov046_02124c10Ev kind:function(arm,size=0x78) addr:0x02124c10
_ZN12ActorUnkWTTH19func_ov046_02124c88Ev kind:function(arm,size=0x1c) addr:0x02124c88
_ZN12ActorUnkWTTH19func_ov046_02124ca4Ev kind:function(arm,size=0x24) addr:0x02124ca4
_ZN12ActorUnkWTTH19func_ov046_02124cc8Ev kind:function(arm,size=0x2c) addr:0x02124cc8
_ZN12ActorUnkWTTH19func_ov046_02124cf4Ev kind:function(arm,size=0xc) addr:0x02124cf4
_ZN12ActorUnkWTTHD0Ev kind:function(arm,size=0x1c) addr:0x02124d00
_ZN12ActorUnkWTTHD1Ev kind:function(arm,size=0x48) addr:0x02124d1c
_ZN12ActorUnkWTTH19func_ov046_02124d64Ev kind:function(arm,size=0x50) addr:0x02124d64
_ZN19ActorProfileUnkWTTHD1Ev kind:function(arm,size=0x14) addr:0x02124db4
_ZN19ActorProfileUnkWTH210GetProfileEv kind:function(arm,size=0xc) addr:0x02124dc8
_ZN19ActorProfileUnkWTH26CreateEv kind:function(arm,size=0x24) addr:0x02124dd4
_ZN19ActorProfileUnkWTH2C1Ev kind:function(arm,size=0x50) addr:0x02124df8
_ZN12ActorUnkWTH2C1Ev kind:function(arm,size=0x23c) addr:0x02124e48
_ZN12ActorUnkWTH219func_ov046_02125084Ev kind:function(arm,size=0x80) addr:0x02125084
_ZN12ActorUnkWTH2D0Ev kind:function(arm,size=0x88) addr:0x02125104
_ZN12ActorUnkWTH219func_ov046_0212518cEv kind:function(arm,size=0xc4) addr:0x0212518c
_ZN12ActorUnkWTH219func_ov046_02125250Ev kind:function(arm,size=0x68) addr:0x02125250
_ZN12ActorUnkWTH219func_ov046_021252b8Ev kind:function(arm,size=0xc0) addr:0x021252b8
_ZN12ActorUnkWTH219func_ov046_02125378Ev kind:function(arm,size=0x30) addr:0x02125378
_ZN12ActorUnkWTH219func_ov046_021253a8Ev kind:function(arm,size=0x30) addr:0x021253a8
_ZN12ActorUnkWTH219func_ov046_021253d8Ev kind:function(arm,size=0x90) addr:0x021253d8
_ZN12ActorUnkWTH219func_ov046_02125468Ev kind:function(arm,size=0x60) addr:0x02125468
_ZN12ActorUnkWTH219func_ov046_021254c8Ev kind:function(arm,size=0x60) addr:0x021254c8
_ZN12ActorUnkWTH219func_ov046_02125528Ev kind:function(arm,size=0x48) addr:0x02125528
_ZN12ActorUnkWTH219func_ov046_02125570Ev kind:function(arm,size=0xc0) addr:0x02125570
_ZN12ActorUnkWTH219func_ov046_02125630Ev kind:function(arm,size=0x7c) addr:0x02125630
_ZN12ActorUnkWTH219func_ov046_021256acEv kind:function(arm,size=0xbc) addr:0x021256ac
_ZN12ActorUnkWTH219func_ov046_02125768Ev kind:function(arm,size=0xec) addr:0x02125768
_ZN12ActorUnkWTH219func_ov046_02125854Ev kind:function(arm,size=0x84) addr:0x02125854
_ZN12ActorUnkWTH219func_ov046_021258d8Ev kind:function(arm,size=0xcc) addr:0x021258d8
_ZN12ActorUnkWTH219func_ov046_021259a4Ev kind:function(arm,size=0xa0) addr:0x021259a4
_ZN12ActorUnkWTH219func_ov046_02125a44Ev kind:function(arm,size=0x3c) addr:0x02125a44
_ZN12ActorUnkWTH219func_ov046_02125a80Ev kind:function(arm,size=0x90) addr:0x02125a80
_ZN12ActorUnkWTH219func_ov046_02125b10Ev kind:function(arm,size=0x3c) addr:0x02125b10
_ZN12ActorUnkWTH219func_ov046_02125b4cEv kind:function(arm,size=0x2b4) addr:0x02125b4c
_ZN12ActorUnkWTH219func_ov046_02125e00Ev kind:function(arm,size=0x444) addr:0x02125e00
_ZN12ActorUnkWTH219func_ov046_02126244Ev kind:function(arm,size=0x2c) addr:0x02126244
_ZN12ActorUnkWTH219func_ov046_02126270Ev kind:function(arm,size=0xac) addr:0x02126270
_ZN12ActorUnkWTH219func_ov046_0212631cEv kind:function(arm,size=0x34) addr:0x0212631c
_ZN12ActorUnkWTH219func_ov046_02126350Ev kind:function(arm,size=0x1c) addr:0x02126350
_ZN12ActorUnkWTH219func_ov046_0212636cEv kind:function(arm,size=0x184) addr:0x0212636c
_ZN19ActorProfileUnkWTH2D1Ev kind:function(arm,size=0x14) addr:0x021264f0
_ZN19ActorProfileUnkWTH310GetProfileEv kind:function(arm,size=0xc) addr:0x02126504
_ZN19ActorProfileUnkWTH36CreateEv kind:function(arm,size=0x24) addr:0x02126510
_ZN19ActorProfileUnkWTH3C1Ev kind:function(arm,size=0x4c) addr:0x02126534
_ZN12ActorUnkWTH3C1Ev kind:function(arm,size=0x238) addr:0x02126580
_ZN12ActorUnkWTH319func_ov046_021267b8Ev kind:function(arm,size=0x70) addr:0x021267b8
_ZN12ActorUnkWTH3D0Ev kind:function(arm,size=0x78) addr:0x02126828
_ZN12ActorUnkWTH319func_ov046_021268a0Ev kind:function(arm,size=0xfc) addr:0x021268a0
_ZN12ActorUnkWTH319func_ov046_0212699cEv kind:function(arm,size=0x5c) addr:0x0212699c
_ZN12ActorUnkWTH319func_ov046_021269f8Ev kind:function(arm,size=0x7c) addr:0x021269f8
_ZN12ActorUnkWTH319func_ov046_02126a74Ev kind:function(arm,size=0x30) addr:0x02126a74
_ZN12ActorUnkWTH319func_ov046_02126aa4Ev kind:function(arm,size=0x80) addr:0x02126aa4
_ZN12ActorUnkWTH319func_ov046_02126b24Ev kind:function(arm,size=0xf8) addr:0x02126b24
_ZN12ActorUnkWTH319func_ov046_02126c1cEv kind:function(arm,size=0x1c) addr:0x02126c1c
_ZN12ActorUnkWTH319func_ov046_02126c38Ev kind:function(arm,size=0x60) addr:0x02126c38
_ZN12ActorUnkWTH319func_ov046_02126c98Ev kind:function(arm,size=0x10) addr:0x02126c98
_ZN12ActorUnkWTH319func_ov046_02126ca8Ev kind:function(arm,size=0x84) addr:0x02126ca8
_ZN12ActorUnkWTH319func_ov046_02126d2cEv kind:function(arm,size=0x8c) addr:0x02126d2c
_ZN12ActorUnkWTH319func_ov046_02126db8Ev kind:function(arm,size=0x40) addr:0x02126db8
_ZN12ActorUnkWTH319func_ov046_02126df8Ev kind:function(arm,size=0x5c) addr:0x02126df8
_ZN12ActorUnkWTH319func_ov046_02126e54Ev kind:function(arm,size=0x48) addr:0x02126e54
_ZN12ActorUnkWTH319func_ov046_02126e9cEv kind:function(arm,size=0xa0) addr:0x02126e9c
_ZN12ActorUnkWTH319func_ov046_02126f3cEv kind:function(arm,size=0x3c) addr:0x02126f3c
_ZN12ActorUnkWTH319func_ov046_02126f78Ev kind:function(arm,size=0x90) addr:0x02126f78
_ZN12ActorUnkWTH319func_ov046_02127008Ev kind:function(arm,size=0x188) addr:0x02127008
_ZN12ActorUnkWTH319func_ov046_02127190Ev kind:function(arm,size=0x88) addr:0x02127190
_ZN12ActorUnkWTH319func_ov046_02127218Ev kind:function(arm,size=0x190) addr:0x02127218
_ZN12ActorUnkWTH319func_ov046_021273a8Ev kind:function(arm,size=0x2f8) addr:0x021273a8
_ZN12ActorUnkWTH319func_ov046_021276a0Ev kind:function(arm,size=0x2c) addr:0x021276a0
_ZN12ActorUnkWTH319func_ov046_021276ccEv kind:function(arm,size=0x50) addr:0x021276cc
_ZN12ActorUnkWTH319func_ov046_0212771cEv kind:function(arm,size=0x34) addr:0x0212771c
_ZN12ActorUnkWTH319func_ov046_02127750Ev kind:function(arm,size=0x64) addr:0x02127750
_ZN12ActorUnkWTH319func_ov046_021277b4Ev kind:function(arm,size=0x78) addr:0x021277b4
_ZN19ActorProfileUnkWTH3D1Ev kind:function(arm,size=0x14) addr:0x0212782c
_ZN19ActorProfileUnkWBTN10GetProfileEv kind:function(arm,size=0xc) addr:0x02127840
_ZN19ActorProfileUnkWBTN6CreateEv kind:function(arm,size=0x24) addr:0x0212784c
_ZN19ActorProfileUnkWBTNC1Ev kind:function(arm,size=0x50) addr:0x02127870
_ZN12ActorUnkWBTNC1Ev kind:function(arm,size=0x140) addr:0x021278c0
_ZN12ActorUnkWBTN19func_ov046_02127a00Ev kind:function(arm,size=0x14) addr:0x02127a00
_ZN12ActorUnkWBTN19func_ov046_02127a14Ev kind:function(arm,size=0x14) addr:0x02127a14
_ZN12ActorUnkWBTND1Ev kind:function(arm,size=0x5c) addr:0x02127a28
_ZN12ActorUnkWBTND0Ev kind:function(arm,size=0x64) addr:0x02127a84
_ZN12ActorUnkWBTN19func_ov046_02127ae8Ev kind:function(arm,size=0x90) addr:0x02127ae8
_ZN12ActorUnkWBTN19func_ov046_02127b78Ev kind:function(arm,size=0xc) addr:0x02127b78
_ZN12ActorUnkWBTN19func_ov046_02127b84Ev kind:function(arm,size=0x68) addr:0x02127b84
_ZN12ActorUnkWBTN19func_ov046_02127becEv kind:function(arm,size=0x30) addr:0x02127bec
_ZN12ActorUnkWBTN19func_ov046_02127c1cEv kind:function(arm,size=0xac) addr:0x02127c1c
_ZN12ActorUnkWBTN19func_ov046_02127cc8Ev kind:function(arm,size=0x8) addr:0x02127cc8
_ZN12ActorUnkWBTN19func_ov046_02127cd0Ev kind:function(arm,size=0xc) addr:0x02127cd0
_ZN12ActorUnkWBTN19func_ov046_02127cdcEv kind:function(arm,size=0xb0) addr:0x02127cdc
_ZN12ActorUnkWBTN19func_ov046_02127d8cEv kind:function(arm,size=0x15c) addr:0x02127d8c
_ZN12ActorUnkWBTN19func_ov046_02127ee8Ev kind:function(arm,size=0x54) addr:0x02127ee8
_ZN12ActorUnkWBTN19func_ov046_02127f3cEv kind:function(arm,size=0x238) addr:0x02127f3c
_ZN12ActorUnkWBTN19func_ov046_02128174Ev kind:function(arm,size=0xe8) addr:0x02128174
_ZN12ActorUnkWBTN19func_ov046_0212825cEv kind:function(arm,size=0x4) addr:0x0212825c
_ZN12ActorUnkWBTN19func_ov046_02128260Ev kind:function(arm,size=0x44) addr:0x02128260
_ZN12ActorUnkWBTN19func_ov046_021282a4Ev kind:function(arm,size=0x38) addr:0x021282a4
_ZN12ActorUnkWBTN19func_ov046_021282dcEv kind:function(arm,size=0x7c) addr:0x021282dc
_ZN12ActorUnkWBTN19func_ov046_02128358Ev kind:function(arm,size=0x30) addr:0x02128358
_ZN12ActorUnkWBTN19func_ov046_02128388Ev kind:function(arm,size=0x11c) addr:0x02128388
_ZN12ActorUnkWBTN19func_ov046_021284a4Ev kind:function(arm,size=0x58) addr:0x021284a4
_ZN12ActorUnkWBTN19func_ov046_021284fcEv kind:function(arm,size=0x1c) addr:0x021284fc
_ZN12ActorUnkWBTN19func_ov046_02128518Ev kind:function(arm,size=0x10) addr:0x02128518
_ZN12ActorUnkWBTN19func_ov046_02128528Ev kind:function(arm,size=0x40) addr:0x02128528
_ZN12ActorUnkWBTN19func_ov046_02128568Ev kind:function(arm,size=0x6c) addr:0x02128568
_ZN12ActorUnkWBTN19func_ov046_021285d4Ev kind:function(arm,size=0x34) addr:0x021285d4
_ZN12ActorUnkWBTN19func_ov046_02128608Ev kind:function(arm,size=0x3c) addr:0x02128608
_ZN12ActorUnkWBTN19func_ov046_02128644Ev kind:function(arm,size=0x1c) addr:0x02128644
_ZN12ActorUnkWBTN19func_ov046_02128660Ev kind:function(arm,size=0x40) addr:0x02128660
_ZN12ActorUnkWBTN19func_ov046_021286a0Ev kind:function(arm,size=0x3c) addr:0x021286a0
_ZN12ActorUnkWBTN19func_ov046_021286dcEv kind:function(arm,size=0x40) addr:0x021286dc
_ZN12ActorUnkWBTN19func_ov046_0212871cEv kind:function(arm,size=0x14) addr:0x0212871c
_ZN12ActorUnkWBTN19func_ov046_02128730Ev kind:function(arm,size=0x20) addr:0x02128730
_ZN12ActorUnkWBTN19func_ov046_02128750Ev kind:function(arm,size=0x30) addr:0x02128750
_ZN12ActorUnkWBTN19func_ov046_02128780Ev kind:function(arm,size=0x44) addr:0x02128780
_ZN12ActorUnkWBTN19func_ov046_021287c4Ev kind:function(arm,size=0x80) addr:0x021287c4
_ZN12ActorUnkWBTN19func_ov046_02128844Ev kind:function(arm,size=0x1c) addr:0x02128844
_ZN12ActorUnkWBTN19func_ov046_02128860Ev kind:function(arm,size=0x1c) addr:0x02128860
_ZN19ActorProfileUnkWBTND1Ev kind:function(arm,size=0x14) addr:0x0212887c
_ZN19ActorProfileUnkWBN210GetProfileEv kind:function(arm,size=0xc) addr:0x02128890
_ZN19ActorProfileUnkWBN26CreateEv kind:function(arm,size=0x24) addr:0x0212889c
_ZN19ActorProfileUnkWBN2C1Ev kind:function(arm,size=0x44) addr:0x021288c0
_ZN12ActorUnkWBN219func_ov046_02128904Ev kind:function(arm,size=0x1c) addr:0x02128904
_ZN12ActorUnkWBN2C1Ev kind:function(arm,size=0x128) addr:0x02128920
_ZN12ActorUnkWBN219func_ov046_02128a48Ev kind:function(arm,size=0x14) addr:0x02128a48
_ZN12ActorUnkWBN2D1Ev kind:function(arm,size=0x54) addr:0x02128a5c
_ZN12ActorUnkWBN2D0Ev kind:function(arm,size=0x5c) addr:0x02128ab0
_ZN12ActorUnkWBN219func_ov046_02128b0cEv kind:function(arm,size=0x80) addr:0x02128b0c
_ZN12ActorUnkWBN219func_ov046_02128b8cEv kind:function(arm,size=0x34) addr:0x02128b8c
_ZN12ActorUnkWBN219func_ov046_02128bc0Ev kind:function(arm,size=0x24) addr:0x02128bc0
_ZN12ActorUnkWBN219func_ov046_02128be4Ev kind:function(arm,size=0xac) addr:0x02128be4
_ZN12ActorUnkWBN219func_ov046_02128c90Ev kind:function(arm,size=0x8) addr:0x02128c90
_ZN12ActorUnkWBN219func_ov046_02128c98Ev kind:function(arm,size=0xc) addr:0x02128c98
_ZN12ActorUnkWBN219func_ov046_02128ca4Ev kind:function(arm,size=0x70) addr:0x02128ca4
_ZN12ActorUnkWBN219func_ov046_02128d14Ev kind:function(arm,size=0x1b4) addr:0x02128d14
_ZN12ActorUnkWBN219func_ov046_02128ec8Ev kind:function(arm,size=0x44) addr:0x02128ec8
_ZN12ActorUnkWBN219func_ov046_02128f0cEv kind:function(arm,size=0x1ec) addr:0x02128f0c
_ZN12ActorUnkWBN219func_ov046_021290f8Ev kind:function(arm,size=0xe8) addr:0x021290f8
_ZN12ActorUnkWBN219func_ov046_021291e0Ev kind:function(arm,size=0x4) addr:0x021291e0
_ZN12ActorUnkWBN219func_ov046_021291e4Ev kind:function(arm,size=0x44) addr:0x021291e4
_ZN12ActorUnkWBN219func_ov046_02129228Ev kind:function(arm,size=0x38) addr:0x02129228
_ZN12ActorUnkWBN219func_ov046_02129260Ev kind:function(arm,size=0x74) addr:0x02129260
_ZN12ActorUnkWBN219func_ov046_021292d4Ev kind:function(arm,size=0x30) addr:0x021292d4
_ZN12ActorUnkWBN219func_ov046_02129304Ev kind:function(arm,size=0xb0) addr:0x02129304
_ZN12ActorUnkWBN219func_ov046_021293b4Ev kind:function(arm,size=0x14) addr:0x021293b4
_ZN12ActorUnkWBN219func_ov046_021293c8Ev kind:function(arm,size=0x1c) addr:0x021293c8
_ZN12ActorUnkWBN219func_ov046_021293e4Ev kind:function(arm,size=0x10) addr:0x021293e4
_ZN12ActorUnkWBN219func_ov046_021293f4Ev kind:function(arm,size=0x40) addr:0x021293f4
_ZN12ActorUnkWBN219func_ov046_02129434Ev kind:function(arm,size=0x38) addr:0x02129434
_ZN12ActorUnkWBN219func_ov046_0212946cEv kind:function(arm,size=0x34) addr:0x0212946c
_ZN12ActorUnkWBN219func_ov046_021294a0Ev kind:function(arm,size=0x3c) addr:0x021294a0
_ZN12ActorUnkWBN219func_ov046_021294dcEv kind:function(arm,size=0x1c) addr:0x021294dc
_ZN12ActorUnkWBN219func_ov046_021294f8Ev kind:function(arm,size=0x40) addr:0x021294f8
_ZN12ActorUnkWBN219func_ov046_02129538Ev kind:function(arm,size=0x3c) addr:0x02129538
_ZN12ActorUnkWBN219func_ov046_02129574Ev kind:function(arm,size=0x40) addr:0x02129574
_ZN12ActorUnkWBN219func_ov046_021295b4Ev kind:function(arm,size=0x14) addr:0x021295b4
_ZN12ActorUnkWBN219func_ov046_021295c8Ev kind:function(arm,size=0x1c) addr:0x021295c8
_ZN19ActorProfileUnkWBN2D1Ev kind:function(arm,size=0x14) addr:0x021295e4
func_ov046_021295f8 kind:function(arm,size=0x20) addr:0x021295f8
func_ov046_02129618 kind:function(arm,size=0x104) addr:0x02129618
func_ov046_0212971c kind:function(arm,size=0x30c) addr:0x0212971c
data_ov046_02129a44 kind:data(any) addr:0x02129a44
data_ov046_02129a68 kind:data(any) addr:0x02129a68
data_ov046_02129a74 kind:data(any) addr:0x02129a74
data_ov046_02129a94 kind:data(any) addr:0x02129a94
data_ov046_02129bc4 kind:data(any) addr:0x02129bc4
data_ov046_02129bc8 kind:data(any) addr:0x02129bc8
data_ov046_02129bd0 kind:data(any) addr:0x02129bd0
data_ov046_02129bd8 kind:data(any) addr:0x02129bd8
data_ov046_02129bf0 kind:data(any) addr:0x02129bf0
data_ov046_02129c10 kind:data(any) addr:0x02129c10
data_ov046_02129c58 kind:data(any) addr:0x02129c58
data_ov046_02129cb8 kind:data(any) addr:0x02129cb8
data_ov046_02129cc4 kind:data(any) addr:0x02129cc4
__sinit_ActorUnkWTTH.cpp kind:function(arm,size=0x88) addr:0x02129cd0
__sinit_ActorUnkWTH2.cpp kind:function(arm,size=0xb8) addr:0x02129d58
__sinit_ActorUnkWTH3.cpp kind:function(arm,size=0xb0) addr:0x02129e10
__sinit_ActorUnkWBTN.cpp kind:function(arm,size=0x50) addr:0x02129ec0
__sinit_ActorUnkWBN2.cpp kind:function(arm,size=0x50) addr:0x02129f10
.p__sinit_ActorUnkWTTH.cpp kind:data(word) addr:0x02129f60
.p__sinit_ActorUnkWTH2.cpp kind:data(word) addr:0x02129f64
.p__sinit_ActorUnkWTH3.cpp kind:data(word) addr:0x02129f68
.p__sinit_ActorUnkWBTN.cpp kind:data(word) addr:0x02129f6c
.p__sinit_ActorUnkWBN2.cpp kind:data(word) addr:0x02129f70
_ZTV19data_ov046_02129f80 kind:data(any) addr:0x02129f80
data_ov046_02129fac kind:data(any) addr:0x02129fac
data_ov046_02129ff0 kind:data(any) addr:0x02129ff0
_ZTV19data_ov046_0212a050 kind:data(any) addr:0x0212a050
data_ov046_0212a0b0 kind:data(any) addr:0x0212a0b0
data_ov046_0212a110 kind:data(any) addr:0x0212a110
data_ov046_0212a120 kind:data(any) addr:0x0212a120
data_ov046_0212a1b8 kind:data(any) addr:0x0212a1b8
_ZTV19data_ov046_0212a1c4 kind:data(any) addr:0x0212a1c4
data_ov046_0212a1f0 kind:data(any) addr:0x0212a1f0
data_ov046_0212a210 kind:data(any) addr:0x0212a210
data_ov046_0212a258 kind:data(any) addr:0x0212a258
_ZTV19data_ov046_0212a2a0 kind:data(any) addr:0x0212a2a0
data_ov046_0212a300 kind:data(any) addr:0x0212a300
data_ov046_0212a310 kind:data(any) addr:0x0212a310
data_ov046_0212a378 kind:data(any) addr:0x0212a378
data_ov046_0212a38c kind:data(any) addr:0x0212a38c
_ZTV19data_ov046_0212a394 kind:data(any) addr:0x0212a394
data_ov046_0212a3b8 kind:data(any) addr:0x0212a3b8
data_ov046_0212a3d0 kind:data(any) addr:0x0212a3d0
data_ov046_0212a3e8 kind:data(any) addr:0x0212a3e8
data_ov046_0212a400 kind:data(any) addr:0x0212a400
data_ov046_0212a410 kind:data(any) addr:0x0212a410
data_ov046_0212a440 kind:data(any) addr:0x0212a440 ambiguous
_ZTV19data_ov046_0212a460 kind:data(any) addr:0x0212a460
data_ov046_0212a4cc kind:data(any) addr:0x0212a4cc
data_ov046_0212a4e4 kind:data(any) addr:0x0212a4e4
data_ov046_0212a500 kind:data(any) addr:0x0212a500
_ZTV19data_ov046_0212a514 kind:data(any) addr:0x0212a514
data_ov046_0212a538 kind:data(any) addr:0x0212a538
_ZTV19data_ov046_0212a588 kind:data(any) addr:0x0212a588
data_ov046_0212a5f0 kind:data(any) addr:0x0212a5f0
data_ov046_0212a608 kind:data(any) addr:0x0212a608
_ZTV19data_ov046_0212a61c kind:data(any) addr:0x0212a61c
data_ov046_0212a640 kind:data(any) addr:0x0212a640
_ZTV19data_ov046_0212a690 kind:data(any) addr:0x0212a690
_ZGVN15ProfileInstanceI19ActorProfileUnkWTTHE8sProfileE kind:bss addr:0x0212a700
@11712 kind:bss addr:0x0212a704
_ZN15ProfileInstanceI19ActorProfileUnkWTTHE8sProfileE kind:bss addr:0x0212a710
data_ov046_0212a798 kind:bss addr:0x0212a798 ambiguous
data_ov046_0212a7c4 kind:bss addr:0x0212a7c4 ambiguous
_ZGVN15ProfileInstanceI19ActorProfileUnkWTH2E8sProfileE kind:bss addr:0x0212a7e8
@11718 kind:bss addr:0x0212a7ec
_ZN15ProfileInstanceI19ActorProfileUnkWTH2E8sProfileE kind:bss addr:0x0212a7f8
_ZGVN15ProfileInstanceI19ActorProfileUnkWTH3E8sProfileE kind:bss addr:0x0212a8d0
@11724 kind:bss addr:0x0212a8d4
_ZN15ProfileInstanceI19ActorProfileUnkWTH3E8sProfileE kind:bss addr:0x0212a8e0
_ZGVN15ProfileInstanceI19ActorProfileUnkWBTNE8sProfileE kind:bss addr:0x0212a9b8
@11730 kind:bss addr:0x0212a9bc
_ZN15ProfileInstanceI19ActorProfileUnkWBTNE8sProfileE kind:bss addr:0x0212a9c8
data_ov046_0212a9cc kind:bss addr:0x0212a9cc
_ZGVN15ProfileInstanceI19ActorProfileUnkWBN2E8sProfileE kind:bss addr:0x0212aaa0
@11736 kind:bss addr:0x0212aaa4
_ZN15ProfileInstanceI19ActorProfileUnkWBN2E8sProfileE kind:bss addr:0x0212aab0
data_ov046_0212aab4 kind:bss addr:0x0212aab4
