_ZN19ActorProfileUnkSTLW10GetProfileEv kind:function(arm,size=0xc) addr:0x021304a0
_ZN19ActorProfileUnkSTLW6CreateEv kind:function(arm,size=0x24) addr:0x021304ac
_ZN19ActorProfileUnkSTLWC1Ev kind:function(arm,size=0x50) addr:0x021304d0
_ZN12ActorUnkSTLWC1Ev kind:function(arm,size=0x1b8) addr:0x02130520
_ZN12ActorUnkSTLW19func_ov052_021306d8Ev kind:function(arm,size=0x14) addr:0x021306d8
_ZN12ActorUnkSTLWD1Ev kind:function(arm,size=0x70) addr:0x021306ec
_ZN12ActorUnkSTLWD0Ev kind:function(arm,size=0x78) addr:0x0213075c
_ZN12ActorUnkSTLW19func_ov052_021307d4Ev kind:function(arm,size=0xf0) addr:0x021307d4
_ZN12ActorUnkSTLW19func_ov052_021308c4Ev kind:function(arm,size=0x54) addr:0x021308c4
_ZN12ActorUnkSTLW19func_ov052_02130918Ev kind:function(arm,size=0x24) addr:0x02130918
_ZN12ActorUnkSTLW19func_ov052_0213093cEv kind:function(arm,size=0x94) addr:0x0213093c
_ZN12ActorUnkSTLW19func_ov052_021309d0Ev kind:function(arm,size=0x300) addr:0x021309d0
_ZN12ActorUnkSTLW19func_ov052_02130cd0Ev kind:function(arm,size=0xb8) addr:0x02130cd0
_ZN12ActorUnkSTLW19func_ov052_02130d88Ev kind:function(arm,size=0x80) addr:0x02130d88
_ZN12ActorUnkSTLW19func_ov052_02130e08Ev kind:function(arm,size=0x68) addr:0x02130e08
_ZN12ActorUnkSTLW19func_ov052_02130e70Ev kind:function(arm,size=0xc0) addr:0x02130e70
_ZN12ActorUnkSTLW19func_ov052_02130f30Ev kind:function(arm,size=0x54) addr:0x02130f30
_ZN12ActorUnkSTLW19func_ov052_02130f84Ev kind:function(arm,size=0x10) addr:0x02130f84
_ZN12ActorUnkSTLW19func_ov052_02130f94Ev kind:function(arm,size=0x8c) addr:0x02130f94
_ZN12ActorUnkSTLW19func_ov052_02131020Ev kind:function(arm,size=0xcc) addr:0x02131020
_ZN12ActorUnkSTLW19func_ov052_021310ecEv kind:function(arm,size=0xb8) addr:0x021310ec
_ZN12ActorUnkSTLW19func_ov052_021311a4Ev kind:function(arm,size=0x80) addr:0x021311a4
_ZN12ActorUnkSTLW19func_ov052_02131224Ev kind:function(arm,size=0x84) addr:0x02131224
_ZN12ActorUnkSTLW19func_ov052_021312a8Ev kind:function(arm,size=0xd8) addr:0x021312a8
_ZN12ActorUnkSTLW19func_ov052_02131380Ev kind:function(arm,size=0xe0) addr:0x02131380
_ZN12ActorUnkSTLW19func_ov052_02131460Ev kind:function(arm,size=0x210) addr:0x02131460
_ZN12ActorUnkSTLW19func_ov052_02131670Ev kind:function(arm,size=0xe4) addr:0x02131670
_ZN12ActorUnkSTLW19func_ov052_02131754Ev kind:function(arm,size=0x264) addr:0x02131754
_ZN12ActorUnkSTLW19func_ov052_021319b8Ev kind:function(arm,size=0x7c) addr:0x021319b8
_ZN12ActorUnkSTLW19func_ov052_02131a34Ev kind:function(arm,size=0x9c) addr:0x02131a34
_ZN12ActorUnkSTLW19func_ov052_02131ad0Ev kind:function(arm,size=0xec) addr:0x02131ad0
_ZN12ActorUnkSTLW19func_ov052_02131bbcEv kind:function(arm,size=0x7c) addr:0x02131bbc
_ZN12ActorUnkSTLW19func_ov052_02131c38Ev kind:function(arm,size=0x138) addr:0x02131c38
_ZN12ActorUnkSTLW19func_ov052_02131d70Ev kind:function(arm,size=0xfc) addr:0x02131d70
_ZN12ActorUnkSTLW19func_ov052_02131e6cEv kind:function(arm,size=0x48) addr:0x02131e6c
_ZN12ActorUnkSTLW19func_ov052_02131eb4Ev kind:function(arm,size=0x18) addr:0x02131eb4
_ZN12ActorUnkSTLW19func_ov052_02131eccEv kind:function(arm,size=0x44) addr:0x02131ecc
_ZN12ActorUnkSTLW19func_ov052_02131f10Ev kind:function(arm,size=0xdc) addr:0x02131f10
_ZN12ActorUnkSTLW19func_ov052_02131fecEv kind:function(arm,size=0x6c) addr:0x02131fec
_ZN12ActorUnkSTLW19func_ov052_02132058Ev kind:function(arm,size=0x18) addr:0x02132058
_ZN12ActorUnkSTLW19func_ov052_02132070Ev kind:function(arm,size=0x88) addr:0x02132070
_ZN12ActorUnkSTLW19func_ov052_021320f8Ev kind:function(arm,size=0x134) addr:0x021320f8
_ZN12ActorUnkSTLW19func_ov052_0213222cEv kind:function(arm,size=0x14c) addr:0x0213222c
_ZN12ActorUnkSTLW19func_ov052_02132378Ev kind:function(arm,size=0xfc) addr:0x02132378
_ZN12ActorUnkSTLW19func_ov052_02132474Ev kind:function(arm,size=0x90) addr:0x02132474
_ZN12ActorUnkSTLW19func_ov052_02132504Ev kind:function(arm,size=0xe0) addr:0x02132504
_ZN12ActorUnkSTLW19func_ov052_021325e4Ev kind:function(arm,size=0x24) addr:0x021325e4
_ZN12ActorUnkSTLW19func_ov052_02132608Ev kind:function(arm,size=0x74) addr:0x02132608
_ZN12ActorUnkSTLW19func_ov052_0213267cEv kind:function(arm,size=0x9c) addr:0x0213267c
_ZN12ActorUnkSTLW19func_ov052_02132718Ev kind:function(arm,size=0x78) addr:0x02132718
_ZN12ActorUnkSTLW19func_ov052_02132790Ev kind:function(arm,size=0xa4) addr:0x02132790
_ZN12ActorUnkSTLW19func_ov052_02132834Ev kind:function(arm,size=0x18) addr:0x02132834
_ZN12ActorUnkSTLW19func_ov052_0213284cEv kind:function(arm,size=0x3b8) addr:0x0213284c
_ZN12ActorUnkSTLW19func_ov052_02132c04Ev kind:function(arm,size=0x68) addr:0x02132c04
_ZN12ActorUnkSTLW19func_ov052_02132c6cEv kind:function(arm,size=0x28) addr:0x02132c6c
_ZN12ActorUnkSTLW19func_ov052_02132c94Ev kind:function(arm,size=0xe8) addr:0x02132c94
_ZN12ActorUnkSTLW19func_ov052_02132d7cEv kind:function(arm,size=0x30) addr:0x02132d7c
_ZN12ActorUnkSTLW19func_ov052_02132dacEv kind:function(arm,size=0x94) addr:0x02132dac
_ZN12ActorUnkSTLW19func_ov052_02132e40Ev kind:function(arm,size=0x18c) addr:0x02132e40
_ZN12ActorUnkSTLW19func_ov052_02132fccEv kind:function(arm,size=0x10c) addr:0x02132fcc
_ZN12ActorUnkSTLW19func_ov052_021330d8Ev kind:function(arm,size=0x24) addr:0x021330d8
_ZN12ActorUnkSTLW19func_ov052_021330fcEv kind:function(arm,size=0x2c) addr:0x021330fc
_ZN12ActorUnkSTLW19func_ov052_02133128Ev kind:function(arm,size=0xc) addr:0x02133128
_ZN12ActorUnkSTLW19func_ov052_02133134Ev kind:function(arm,size=0x1c) addr:0x02133134
_ZN19ActorProfileUnkSTLWD1Ev kind:function(arm,size=0x14) addr:0x02133150
_ZN19ActorProfileUnkSTWH10GetProfileEv kind:function(arm,size=0xc) addr:0x02133164
_ZN19ActorProfileUnkSTWH6CreateEv kind:function(arm,size=0x24) addr:0x02133170
_ZN19ActorProfileUnkSTWHC1Ev kind:function(arm,size=0x58) addr:0x02133194
_ZN12ActorUnkSTWH19func_ov052_021331ecEv kind:function(arm,size=0x34) addr:0x021331ec
_ZN12ActorUnkSTWH19func_ov052_02133220Ev kind:function(arm,size=0x3c) addr:0x02133220
_ZN12ActorUnkSTWH19func_ov052_0213325cEv kind:function(arm,size=0x20) addr:0x0213325c
_ZN12ActorUnkSTWH19func_ov052_0213327cEv kind:function(arm,size=0x24) addr:0x0213327c
_ZN12ActorUnkSTWHC1Ev kind:function(arm,size=0x260) addr:0x021332a0
_ZN12ActorUnkSTWH19func_ov052_02133500Ev kind:function(arm,size=0x14) addr:0x02133500
_ZN12ActorUnkSTWH19func_ov052_02133514Ev kind:function(arm,size=0x14) addr:0x02133514
_ZN12ActorUnkSTWH19func_ov052_02133528Ev kind:function(arm,size=0x50) addr:0x02133528
_ZN12ActorUnkSTWH19func_ov052_02133578Ev kind:function(arm,size=0x30) addr:0x02133578
_ZN12ActorUnkSTWH19func_ov052_021335a8Ev kind:function(arm,size=0x94) addr:0x021335a8
_ZN12ActorUnkSTWH19func_ov052_0213363cEv kind:function(arm,size=0x84) addr:0x0213363c
_ZN12ActorUnkSTWH19func_ov052_021336c0Ev kind:function(arm,size=0x6c) addr:0x021336c0
_ZN12ActorUnkSTWH19func_ov052_0213372cEv kind:function(arm,size=0x28) addr:0x0213372c
_ZN12ActorUnkSTWH19func_ov052_02133754Ev kind:function(arm,size=0x84) addr:0x02133754
_ZN12ActorUnkSTWH19func_ov052_021337d8Ev kind:function(arm,size=0xd4) addr:0x021337d8
_ZN12ActorUnkSTWH19func_ov052_021338acEv kind:function(arm,size=0xec) addr:0x021338ac
_ZN12ActorUnkSTWH19func_ov052_02133998Ev kind:function(arm,size=0x100) addr:0x02133998
_ZN12ActorUnkSTWH19func_ov052_02133a98Ev kind:function(arm,size=0x4) addr:0x02133a98
_ZN12ActorUnkSTWH19func_ov052_02133a9cEv kind:function(arm,size=0x4c) addr:0x02133a9c
_ZN12ActorUnkSTWH19func_ov052_02133ae8Ev kind:function(arm,size=0x4) addr:0x02133ae8
_ZN12ActorUnkSTWH19func_ov052_02133aecEv kind:function(arm,size=0x44) addr:0x02133aec
_ZN12ActorUnkSTWH19func_ov052_02133b30Ev kind:function(arm,size=0x94) addr:0x02133b30
_ZN12ActorUnkSTWH19func_ov052_02133bc4Ev kind:function(arm,size=0x98) addr:0x02133bc4
_ZN12ActorUnkSTWH19func_ov052_02133c5cEv kind:function(arm,size=0x8c) addr:0x02133c5c
_ZN12ActorUnkSTWH19func_ov052_02133ce8Ev kind:function(arm,size=0x154) addr:0x02133ce8
_ZN12ActorUnkSTWH19func_ov052_02133e3cEv kind:function(arm,size=0x64) addr:0x02133e3c
_ZN12ActorUnkSTWH19func_ov052_02133ea0Ev kind:function(arm,size=0x4) addr:0x02133ea0
_ZN12ActorUnkSTWH19func_ov052_02133ea4Ev kind:function(arm,size=0x7c) addr:0x02133ea4
_ZN12ActorUnkSTWH19func_ov052_02133f20Ev kind:function(arm,size=0xd0) addr:0x02133f20
_ZN12ActorUnkSTWH19func_ov052_02133ff0Ev kind:function(arm,size=0xac) addr:0x02133ff0
_ZN12ActorUnkSTWH19func_ov052_0213409cEv kind:function(arm,size=0x138) addr:0x0213409c
_ZN12ActorUnkSTWH19func_ov052_021341d4Ev kind:function(arm,size=0x90) addr:0x021341d4
_ZN12ActorUnkSTWH19func_ov052_02134264Ev kind:function(arm,size=0xb4) addr:0x02134264
_ZN12ActorUnkSTWH19func_ov052_02134318Ev kind:function(arm,size=0xc0) addr:0x02134318
_ZN12ActorUnkSTWH19func_ov052_021343d8Ev kind:function(arm,size=0x98) addr:0x021343d8
_ZN12ActorUnkSTWH19func_ov052_02134470Ev kind:function(arm,size=0x24) addr:0x02134470
_ZN12ActorUnkSTWH19func_ov052_02134494Ev kind:function(arm,size=0x8c) addr:0x02134494
_ZN12ActorUnkSTWH19func_ov052_02134520Ev kind:function(arm,size=0x9c) addr:0x02134520
_ZN12ActorUnkSTWH19func_ov052_021345bcEv kind:function(arm,size=0x140) addr:0x021345bc
_ZN12ActorUnkSTWH19func_ov052_021346fcEv kind:function(arm,size=0xac) addr:0x021346fc
_ZN12ActorUnkSTWH19func_ov052_021347a8Ev kind:function(arm,size=0x24) addr:0x021347a8
_ZN12ActorUnkSTWH19func_ov052_021347ccEv kind:function(arm,size=0x60) addr:0x021347cc
_ZN12ActorUnkSTWH19func_ov052_0213482cEv kind:function(arm,size=0x2c) addr:0x0213482c
_ZN12ActorUnkSTWH19func_ov052_02134858Ev kind:function(arm,size=0xc0) addr:0x02134858
_ZN12ActorUnkSTWH19func_ov052_02134918Ev kind:function(arm,size=0x10) addr:0x02134918
_ZN12ActorUnkSTWH19func_ov052_02134928Ev kind:function(arm,size=0x64) addr:0x02134928
_ZN12ActorUnkSTWH19func_ov052_0213498cEv kind:function(arm,size=0x1fc) addr:0x0213498c
_ZN12ActorUnkSTWH19func_ov052_02134b88Ev kind:function(arm,size=0x44) addr:0x02134b88
_ZN12ActorUnkSTWH19func_ov052_02134bccEv kind:function(arm,size=0xa8) addr:0x02134bcc
_ZN12ActorUnkSTWH19func_ov052_02134c74Ev kind:function(arm,size=0x24) addr:0x02134c74
_ZN12ActorUnkSTWH19func_ov052_02134c98Ev kind:function(arm,size=0x10) addr:0x02134c98
_ZN12ActorUnkSTWH19func_ov052_02134ca8Ev kind:function(arm,size=0x8) addr:0x02134ca8
_ZN12ActorUnkSTWHD0Ev kind:function(arm,size=0x1c) addr:0x02134cb0
_ZN12ActorUnkSTWH19func_ov052_02134cccEv kind:function(arm,size=0x1c) addr:0x02134ccc
_ZN12ActorUnkSTWHD1Ev kind:function(arm,size=0x40) addr:0x02134ce8
_ZN12ActorUnkSTWH19func_ov052_02134d28Ev kind:function(arm,size=0x48) addr:0x02134d28
_ZN19ActorProfileUnkSTWHD1Ev kind:function(arm,size=0x14) addr:0x02134d70
_ZN19ActorProfileUnkNAVI10GetProfileEv kind:function(arm,size=0xc) addr:0x02134d84
_ZN19ActorProfileUnkNAVI6CreateEv kind:function(arm,size=0x24) addr:0x02134d90
_ZN19ActorProfileUnkNAVIC1Ev kind:function(arm,size=0x5c) addr:0x02134db4
_ZN12ActorUnkNAVIC1Ev kind:function(arm,size=0x17c) addr:0x02134e10
_ZN12ActorUnkNAVI19func_ov052_02134f8cEv kind:function(arm,size=0x14) addr:0x02134f8c
_ZN12ActorUnkNAVI19func_ov052_02134fa0Ev kind:function(arm,size=0x14) addr:0x02134fa0
_ZN12ActorUnkNAVID1Ev kind:function(arm,size=0x64) addr:0x02134fb4
_ZN12ActorUnkNAVID0Ev kind:function(arm,size=0x6c) addr:0x02135018
_ZN12ActorUnkNAVI19func_ov052_02135084Ev kind:function(arm,size=0x20) addr:0x02135084
_ZN12ActorUnkNAVI19func_ov052_021350a4Ev kind:function(arm,size=0x5c) addr:0x021350a4
_ZN12ActorUnkNAVI19func_ov052_02135100Ev kind:function(arm,size=0x1b0) addr:0x02135100
_ZN12ActorUnkNAVI19func_ov052_021352b0Ev kind:function(arm,size=0x60) addr:0x021352b0
_ZN12ActorUnkNAVI19func_ov052_02135310Ev kind:function(arm,size=0xa0) addr:0x02135310
_ZN12ActorUnkNAVI19func_ov052_021353b0Ev kind:function(arm,size=0x248) addr:0x021353b0
_ZN12ActorUnkNAVI19func_ov052_021355f8Ev kind:function(arm,size=0x7c) addr:0x021355f8
_ZN12ActorUnkNAVI19func_ov052_02135674Ev kind:function(arm,size=0x1bc) addr:0x02135674
_ZN12ActorUnkNAVI19func_ov052_02135830Ev kind:function(arm,size=0x24) addr:0x02135830
_ZN12ActorUnkNAVI19func_ov052_02135854Ev kind:function(arm,size=0x13c) addr:0x02135854
_ZN12ActorUnkNAVI19func_ov052_02135990Ev kind:function(arm,size=0x20) addr:0x02135990
_ZN12ActorUnkNAVI19func_ov052_021359b0Ev kind:function(arm,size=0x14) addr:0x021359b0
_ZN12ActorUnkNAVI19func_ov052_021359c4Ev kind:function(arm,size=0x18) addr:0x021359c4
_ZN12ActorUnkNAVI19func_ov052_021359dcEv kind:function(arm,size=0x30) addr:0x021359dc
_ZN12ActorUnkNAVI19func_ov052_02135a0cEv kind:function(arm,size=0x38) addr:0x02135a0c
_ZN12ActorUnkNAVI19func_ov052_02135a44Ev kind:function(arm,size=0x18) addr:0x02135a44
_ZN12ActorUnkNAVI19func_ov052_02135a5cEv kind:function(arm,size=0x20) addr:0x02135a5c
_ZN12ActorUnkNAVI19func_ov052_02135a7cEv kind:function(arm,size=0x30) addr:0x02135a7c
_ZN12ActorUnkNAVI19func_ov052_02135aacEv kind:function(arm,size=0xc) addr:0x02135aac
_ZN12ActorUnkNAVI19func_ov052_02135ab8Ev kind:function(arm,size=0x20) addr:0x02135ab8
_ZN12ActorUnkNAVI19func_ov052_02135ad8Ev kind:function(arm,size=0x20) addr:0x02135ad8
_ZN12ActorUnkNAVI19func_ov052_02135af8Ev kind:function(arm,size=0x14) addr:0x02135af8
_ZN12ActorUnkNAVI19func_ov052_02135b0cEv kind:function(arm,size=0x1c) addr:0x02135b0c
_ZN12ActorUnkNAVI19func_ov052_02135b28Ev kind:function(arm,size=0x28) addr:0x02135b28
_ZN12ActorUnkNAVID2Ev kind:function(arm,size=0x20) addr:0x02135b50
_ZN19ActorProfileUnkNAVID1Ev kind:function(arm,size=0x14) addr:0x02135b70
data_ov052_02135b84 kind:data(any) addr:0x02135b84
data_ov052_02135b88 kind:data(any) addr:0x02135b88
data_ov052_02135b98 kind:data(any) addr:0x02135b98
data_ov052_02135b9c kind:data(any) addr:0x02135b9c
__sinit_ActorUnkSTLW.cpp kind:function(arm,size=0xe0) addr:0x02135bac
__sinit_ActorUnkSTWH.cpp kind:function(arm,size=0xe8) addr:0x02135c8c
__sinit_ActorUnkNAVI.cpp kind:function(arm,size=0x90) addr:0x02135d74
.p__sinit_ActorUnkSTLW.cpp kind:data(word) addr:0x02135e04
.p__sinit_ActorUnkSTWH.cpp kind:data(word) addr:0x02135e08
.p__sinit_ActorUnkNAVI.cpp kind:data(word) addr:0x02135e0c
_ZTV19data_ov052_02135e20 kind:data(any) addr:0x02135e20
data_ov052_02135e4c kind:data(any) addr:0x02135e4c
_ZTV19data_ov052_02135e90 kind:data(any) addr:0x02135e90
data_ov052_02135ef0 kind:data(any) addr:0x02135ef0
data_ov052_02135f08 kind:data(any) addr:0x02135f08
data_ov052_02135f20 kind:data(any) addr:0x02135f20
data_ov052_02135f38 kind:data(any) addr:0x02135f38
data_ov052_02135f50 kind:data(any) addr:0x02135f50
data_ov052_02135f68 kind:data(any) addr:0x02135f68
data_ov052_02135f80 kind:data(any) addr:0x02135f80
data_ov052_02135f90 kind:data(any) addr:0x02135f90
data_ov052_02136108 kind:data(any) addr:0x02136108
data_ov052_02136118 kind:data(any) addr:0x02136118
_ZTV19data_ov052_02136130 kind:data(any) addr:0x02136130
data_ov052_0213615c kind:data(any) addr:0x0213615c
data_ov052_021361a4 kind:data(any) addr:0x021361a4
_ZTV19data_ov052_021361e8 kind:data(any) addr:0x021361e8
_ZTV19data_ov052_02136224 kind:data(any) addr:0x02136224 ambiguous
data_ov052_02136248 kind:data(any) addr:0x02136248
data_ov052_02136260 kind:data(any) addr:0x02136260
data_ov052_02136278 kind:data(any) addr:0x02136278
data_ov052_02136290 kind:data(any) addr:0x02136290
data_ov052_021362c0 kind:data(any) addr:0x021362c0
data_ov052_021362d8 kind:data(any) addr:0x021362d8
data_ov052_021362e8 kind:data(any) addr:0x021362e8
data_ov052_02136428 kind:data(any) addr:0x02136428
data_ov052_02136434 kind:data(any) addr:0x02136434
data_ov052_02136448 kind:data(any) addr:0x02136448
_ZTV19data_ov052_02136450 kind:data(any) addr:0x02136450
data_ov052_02136474 kind:data(any) addr:0x02136474
data_ov052_021364c4 kind:data(any) addr:0x021364c4
_ZTV19data_ov052_02136508 kind:data(any) addr:0x02136508
_ZTV19data_ov052_02136624 kind:data(any) addr:0x02136624
_ZGVN15ProfileInstanceI19ActorProfileUnkSTLWE8sProfileE kind:bss addr:0x02136740
@11882 kind:bss addr:0x0213674c
_ZN15ProfileInstanceI19ActorProfileUnkSTLWE8sProfileE kind:bss addr:0x02136758
_ZGVN15ProfileInstanceI19ActorProfileUnkSTWHE8sProfileE kind:bss addr:0x02136830
@11888 kind:bss addr:0x02136834
_ZN15ProfileInstanceI19ActorProfileUnkSTWHE8sProfileE kind:bss addr:0x02136840
data_ov052_02136918 kind:bss addr:0x02136918
data_ov052_0213691c kind:bss addr:0x0213691c
_ZN15ProfileInstanceI19ActorProfileUnkNAVIE8sProfileE kind:bss addr:0x02136928
