_ZN19ActorProfileUnkDSBN10GetProfileEv kind:function(arm,size=0xc) addr:0x02154440
_ZN19ActorProfileUnkDSBN6CreateEv kind:function(arm,size=0x24) addr:0x0215444c
_ZN19ActorProfileUnkDSBNC1Ev kind:function(arm,size=0x58) addr:0x02154470
_ZN12ActorUnkDSBNC1Ev kind:function(arm,size=0x654) addr:0x021544c8
_ZN12ActorUnkDSBN19func_ov087_02154b1cEv kind:function(arm,size=0x14) addr:0x02154b1c
_ZN12ActorUnkDSBN19func_ov087_02154b30Ev kind:function(arm,size=0x14) addr:0x02154b30
_ZN12ActorUnkDSBN19func_ov087_02154b44Ev kind:function(arm,size=0x14) addr:0x02154b44
_ZN12ActorUnkDSBN19func_ov087_02154b58Ev kind:function(arm,size=0x1e8) addr:0x02154b58
_ZN12ActorUnkDSBN19func_ov087_02154d40Ev kind:function(arm,size=0x24) addr:0x02154d40
_ZN12ActorUnkDSBN19func_ov087_02154d64Ev kind:function(arm,size=0x3c) addr:0x02154d64
_ZN12ActorUnkDSBN19func_ov087_02154da0Ev kind:function(arm,size=0x48) addr:0x02154da0
_ZN12ActorUnkDSBN19func_ov087_02154de8Ev kind:function(arm,size=0x1d4) addr:0x02154de8
_ZN12ActorUnkDSBN19func_ov087_02154fbcEv kind:function(arm,size=0x68) addr:0x02154fbc
_ZN12ActorUnkDSBN19func_ov087_02155024Ev kind:function(arm,size=0x1114) addr:0x02155024
_ZN12ActorUnkDSBN19func_ov087_02156138Ev kind:function(arm,size=0x58) addr:0x02156138
_ZN12ActorUnkDSBN19func_ov087_02156190Ev kind:function(arm,size=0x1e4) addr:0x02156190
_ZN12ActorUnkDSBN19func_ov087_02156374Ev kind:function(arm,size=0x98) addr:0x02156374
_ZN12ActorUnkDSBN19func_ov087_0215640cEv kind:function(arm,size=0x60) addr:0x0215640c
_ZN12ActorUnkDSBN19func_ov087_0215646cEv kind:function(arm,size=0x3c) addr:0x0215646c
_ZN12ActorUnkDSBN19func_ov087_021564a8Ev kind:function(arm,size=0x7c) addr:0x021564a8
_ZN12ActorUnkDSBN19func_ov087_02156524Ev kind:function(arm,size=0xb8) addr:0x02156524
_ZN12ActorUnkDSBN19func_ov087_021565dcEv kind:function(arm,size=0x138) addr:0x021565dc
_ZN12ActorUnkDSBN19func_ov087_02156714Ev kind:function(arm,size=0x3c) addr:0x02156714
_ZN12ActorUnkDSBN19func_ov087_02156750Ev kind:function(arm,size=0x110) addr:0x02156750
_ZN12ActorUnkDSBN19func_ov087_02156860Ev kind:function(arm,size=0x50) addr:0x02156860
_ZN12ActorUnkDSBN19func_ov087_021568b0Ev kind:function(arm,size=0x19c) addr:0x021568b0
_ZN12ActorUnkDSBN19func_ov087_02156a4cEv kind:function(arm,size=0xa8) addr:0x02156a4c
_ZN12ActorUnkDSBN19func_ov087_02156af4Ev kind:function(arm,size=0xd0) addr:0x02156af4
_ZN12ActorUnkDSBN19func_ov087_02156bc4Ev kind:function(arm,size=0x68) addr:0x02156bc4
_ZN12ActorUnkDSBN19func_ov087_02156c2cEv kind:function(arm,size=0xf8) addr:0x02156c2c
_ZN12ActorUnkDSBN19func_ov087_02156d24Ev kind:function(arm,size=0x4c) addr:0x02156d24
_ZN12ActorUnkDSBN19func_ov087_02156d70Ev kind:function(arm,size=0x140) addr:0x02156d70
_ZN12ActorUnkDSBN19func_ov087_02156eb0Ev kind:function(arm,size=0x24) addr:0x02156eb0
_ZN12ActorUnkDSBN19func_ov087_02156ed4Ev kind:function(arm,size=0x64) addr:0x02156ed4
_ZN12ActorUnkDSBN19func_ov087_02156f38Ev kind:function(arm,size=0x1cc) addr:0x02156f38
_ZN12ActorUnkDSBN19func_ov087_02157104Ev kind:function(arm,size=0x76c) addr:0x02157104
_ZN12ActorUnkDSBN19func_ov087_02157870Ev kind:function(arm,size=0x140) addr:0x02157870
_ZN12ActorUnkDSBN19func_ov087_021579b0Ev kind:function(arm,size=0x7e0) addr:0x021579b0
_ZN12ActorUnkDSBN19func_ov087_02158190Ev kind:function(arm,size=0xf4) addr:0x02158190
_ZN12ActorUnkDSBN19func_ov087_02158284Ev kind:function(arm,size=0x8c) addr:0x02158284
_ZN12ActorUnkDSBN19func_ov087_02158310Ev kind:function(arm,size=0x210) addr:0x02158310
_ZN12ActorUnkDSBN19func_ov087_02158520Ev kind:function(arm,size=0x118) addr:0x02158520
_ZN12ActorUnkDSBN19func_ov087_02158638Ev kind:function(arm,size=0x138) addr:0x02158638
_ZN12ActorUnkDSBN19func_ov087_02158770Ev kind:function(arm,size=0xd8) addr:0x02158770
_ZN12ActorUnkDSBN19func_ov087_02158848Ev kind:function(arm,size=0xac) addr:0x02158848
_ZN12ActorUnkDSBN19func_ov087_021588f4Ev kind:function(arm,size=0x140) addr:0x021588f4
_ZN12ActorUnkDSBN19func_ov087_02158a34Ev kind:function(arm,size=0x9c) addr:0x02158a34
_ZN12ActorUnkDSBN19func_ov087_02158ad0Ev kind:function(arm,size=0x24) addr:0x02158ad0
_ZN12ActorUnkDSBN19func_ov087_02158af4Ev kind:function(arm,size=0x200) addr:0x02158af4
_ZN12ActorUnkDSBN19func_ov087_02158cf4Ev kind:function(arm,size=0x10) addr:0x02158cf4
_ZN12ActorUnkDSBN19func_ov087_02158d04Ev kind:function(arm,size=0xb8) addr:0x02158d04
_ZN12ActorUnkDSBN19func_ov087_02158dbcEv kind:function(arm,size=0x108) addr:0x02158dbc
_ZN12ActorUnkDSBN19func_ov087_02158ec4Ev kind:function(arm,size=0x80) addr:0x02158ec4
_ZN12ActorUnkDSBN19func_ov087_02158f44Ev kind:function(arm,size=0x20) addr:0x02158f44
_ZN12ActorUnkDSBN19func_ov087_02158f64Ev kind:function(arm,size=0xa8) addr:0x02158f64
_ZN12ActorUnkDSBN19func_ov087_0215900cEv kind:function(arm,size=0x1c8) addr:0x0215900c
_ZN12ActorUnkDSBN19func_ov087_021591d4Ev kind:function(arm,size=0x548) addr:0x021591d4
_ZN12ActorUnkDSBN19func_ov087_0215971cEv kind:function(arm,size=0x40) addr:0x0215971c
_ZN12ActorUnkDSBN19func_ov087_0215975cEv kind:function(arm,size=0x300) addr:0x0215975c
_ZN12ActorUnkDSBN19func_ov087_02159a5cEv kind:function(arm,size=0x13c) addr:0x02159a5c
_ZN12ActorUnkDSBN19func_ov087_02159b98Ev kind:function(arm,size=0x3e0) addr:0x02159b98
_ZN12ActorUnkDSBN19func_ov087_02159f78Ev kind:function(arm,size=0x64) addr:0x02159f78
_ZN12ActorUnkDSBN19func_ov087_02159fdcEv kind:function(arm,size=0x68) addr:0x02159fdc
_ZN12ActorUnkDSBN19func_ov087_0215a044Ev kind:function(arm,size=0x34) addr:0x0215a044
_ZN12ActorUnkDSBN19func_ov087_0215a078Ev kind:function(arm,size=0x8cc) addr:0x0215a078
_ZN12ActorUnkDSBN19func_ov087_0215a944Ev kind:function(arm,size=0x3b8) addr:0x0215a944
_ZN12ActorUnkDSBN19func_ov087_0215acfcEv kind:function(arm,size=0x2c) addr:0x0215acfc
_ZN12ActorUnkDSBN19func_ov087_0215ad28Ev kind:function(arm,size=0x18) addr:0x0215ad28
_ZN12ActorUnkDSBN19func_ov087_0215ad40Ev kind:function(arm,size=0x9c) addr:0x0215ad40
_ZN12ActorUnkDSBN19func_ov087_0215addcEv kind:function(arm,size=0xa8) addr:0x0215addc
_ZN12ActorUnkDSBN19func_ov087_0215ae84Ev kind:function(arm,size=0x118) addr:0x0215ae84
_ZN12ActorUnkDSBN19func_ov087_0215af9cEv kind:function(arm,size=0x10) addr:0x0215af9c
_ZN12ActorUnkDSBN19func_ov087_0215afacEv kind:function(arm,size=0x8) addr:0x0215afac
_ZN12ActorUnkDSBND0Ev kind:function(arm,size=0x1c) addr:0x0215afb4
_ZN12ActorUnkDSBN19func_ov087_0215afd0Ev kind:function(arm,size=0x1c) addr:0x0215afd0
_ZN12ActorUnkDSBN19func_ov087_0215afecEv kind:function(arm,size=0x1c) addr:0x0215afec
_ZN12ActorUnkDSBND1Ev kind:function(arm,size=0xc8) addr:0x0215b008
_ZN12ActorUnkDSBN19func_ov087_0215b0d0Ev kind:function(arm,size=0xd0) addr:0x0215b0d0
_ZN19ActorProfileUnkDSBND1Ev kind:function(arm,size=0x14) addr:0x0215b1a0
_ZN19ActorProfileUnkDSBB10GetProfileEv kind:function(arm,size=0xc) addr:0x0215b1b4
_ZN19ActorProfileUnkDSBB6CreateEv kind:function(arm,size=0x24) addr:0x0215b1c0
_ZN19ActorProfileUnkDSBBC1Ev kind:function(arm,size=0x68) addr:0x0215b1e4
_ZN12ActorUnkDSBBC1Ev kind:function(arm,size=0x1e4) addr:0x0215b24c
_ZN12ActorUnkDSBB19func_ov087_0215b430Ev kind:function(arm,size=0x14) addr:0x0215b430
_ZN12ActorUnkDSBB19func_ov087_0215b444Ev kind:function(arm,size=0x14) addr:0x0215b444
_ZN12ActorUnkDSBBD1Ev kind:function(arm,size=0x7c) addr:0x0215b458
_ZN12ActorUnkDSBBD0Ev kind:function(arm,size=0x84) addr:0x0215b4d4
_ZN12ActorUnkDSBB19func_ov087_0215b558Ev kind:function(arm,size=0xe0) addr:0x0215b558
_ZN12ActorUnkDSBB19func_ov087_0215b638Ev kind:function(arm,size=0x24) addr:0x0215b638
_ZN12ActorUnkDSBB19func_ov087_0215b65cEv kind:function(arm,size=0x48) addr:0x0215b65c
_ZN12ActorUnkDSBB19func_ov087_0215b6a4Ev kind:function(arm,size=0x40) addr:0x0215b6a4
_ZN12ActorUnkDSBB19func_ov087_0215b6e4Ev kind:function(arm,size=0xe0) addr:0x0215b6e4
_ZN12ActorUnkDSBB19func_ov087_0215b7c4Ev kind:function(arm,size=0x80) addr:0x0215b7c4
_ZN12ActorUnkDSBB19func_ov087_0215b844Ev kind:function(arm,size=0x80) addr:0x0215b844
_ZN12ActorUnkDSBB19func_ov087_0215b8c4Ev kind:function(arm,size=0xcc) addr:0x0215b8c4
_ZN12ActorUnkDSBB19func_ov087_0215b990Ev kind:function(arm,size=0x15c) addr:0x0215b990
_ZN12ActorUnkDSBB19func_ov087_0215baecEv kind:function(arm,size=0x6c) addr:0x0215baec
_ZN12ActorUnkDSBB19func_ov087_0215bb58Ev kind:function(arm,size=0x64) addr:0x0215bb58
_ZN12ActorUnkDSBB19func_ov087_0215bbbcEv kind:function(arm,size=0x88) addr:0x0215bbbc
_ZN12ActorUnkDSBB19func_ov087_0215bc44Ev kind:function(arm,size=0xd8) addr:0x0215bc44
_ZN12ActorUnkDSBB19func_ov087_0215bd1cEv kind:function(arm,size=0x370) addr:0x0215bd1c
_ZN12ActorUnkDSBB19func_ov087_0215c08cEv kind:function(arm,size=0x20) addr:0x0215c08c
_ZN12ActorUnkDSBB19func_ov087_0215c0acEv kind:function(arm,size=0x44) addr:0x0215c0ac
_ZN12ActorUnkDSBB19func_ov087_0215c0f0Ev kind:function(arm,size=0x4c) addr:0x0215c0f0
_ZN12ActorUnkDSBB19func_ov087_0215c13cEv kind:function(arm,size=0x88) addr:0x0215c13c
_ZN12ActorUnkDSBB19func_ov087_0215c1c4Ev kind:function(arm,size=0x88) addr:0x0215c1c4
_ZN12ActorUnkDSBB19func_ov087_0215c24cEv kind:function(arm,size=0x1c) addr:0x0215c24c
_ZN12ActorUnkDSBB19func_ov087_0215c268Ev kind:function(arm,size=0x1c) addr:0x0215c268
_ZN19ActorProfileUnkDSBBD1Ev kind:function(arm,size=0x14) addr:0x0215c284
_ZN19ActorProfileUnkDSBH10GetProfileEv kind:function(arm,size=0xc) addr:0x0215c298
_ZN19ActorProfileUnkDSBH6CreateEv kind:function(arm,size=0x24) addr:0x0215c2a4
_ZN19ActorProfileUnkDSBHC1Ev kind:function(arm,size=0x74) addr:0x0215c2c8
_ZN12ActorUnkDSBHC1Ev kind:function(arm,size=0x394) addr:0x0215c33c
_ZN12ActorUnkDSBH19func_ov087_0215c6d0Ev kind:function(arm,size=0x60) addr:0x0215c6d0
_ZN12ActorUnkDSBH19func_ov087_0215c730Ev kind:function(arm,size=0x24) addr:0x0215c730
_ZN12ActorUnkDSBH19func_ov087_0215c754Ev kind:function(arm,size=0x48) addr:0x0215c754
_ZN12ActorUnkDSBH19func_ov087_0215c79cEv kind:function(arm,size=0x260) addr:0x0215c79c
_ZN12ActorUnkDSBH19func_ov087_0215c9fcEv kind:function(arm,size=0x80) addr:0x0215c9fc
_ZN12ActorUnkDSBH19func_ov087_0215ca7cEv kind:function(arm,size=0x114) addr:0x0215ca7c
_ZN12ActorUnkDSBH19func_ov087_0215cb90Ev kind:function(arm,size=0x4) addr:0x0215cb90
_ZN12ActorUnkDSBH19func_ov087_0215cb94Ev kind:function(arm,size=0x270) addr:0x0215cb94
_ZN12ActorUnkDSBH19func_ov087_0215ce04Ev kind:function(arm,size=0x8c) addr:0x0215ce04
_ZN12ActorUnkDSBH19func_ov087_0215ce90Ev kind:function(arm,size=0x1b8) addr:0x0215ce90
_ZN12ActorUnkDSBH19func_ov087_0215d048Ev kind:function(arm,size=0xa4) addr:0x0215d048
_ZN12ActorUnkDSBH19func_ov087_0215d0ecEv kind:function(arm,size=0x24) addr:0x0215d0ec
_ZN12ActorUnkDSBH19func_ov087_0215d110Ev kind:function(arm,size=0x74) addr:0x0215d110
_ZN12ActorUnkDSBH19func_ov087_0215d184Ev kind:function(arm,size=0x3c) addr:0x0215d184
_ZN12ActorUnkDSBH19func_ov087_0215d1c0Ev kind:function(arm,size=0x84) addr:0x0215d1c0
_ZN12ActorUnkDSBH19func_ov087_0215d244Ev kind:function(arm,size=0x58) addr:0x0215d244
_ZN12ActorUnkDSBH19func_ov087_0215d29cEv kind:function(arm,size=0x150) addr:0x0215d29c
_ZN12ActorUnkDSBH19func_ov087_0215d3ecEv kind:function(arm,size=0x944) addr:0x0215d3ec
_ZN12ActorUnkDSBH19func_ov087_0215dd30Ev kind:function(arm,size=0xf0) addr:0x0215dd30
_ZN12ActorUnkDSBH19func_ov087_0215de20Ev kind:function(arm,size=0xe4) addr:0x0215de20
_ZN12ActorUnkDSBH19func_ov087_0215df04Ev kind:function(arm,size=0xbc) addr:0x0215df04
_ZN12ActorUnkDSBH19func_ov087_0215dfc0Ev kind:function(arm,size=0x578) addr:0x0215dfc0
_ZN12ActorUnkDSBH19func_ov087_0215e538Ev kind:function(arm,size=0x6d8) addr:0x0215e538
_ZN12ActorUnkDSBH19func_ov087_0215ec10Ev kind:function(arm,size=0x8c) addr:0x0215ec10
_ZN12ActorUnkDSBH19func_ov087_0215ec9cEv kind:function(arm,size=0x88) addr:0x0215ec9c
_ZN12ActorUnkDSBH19func_ov087_0215ed24Ev kind:function(arm,size=0x44) addr:0x0215ed24
_ZN12ActorUnkDSBH19func_ov087_0215ed68Ev kind:function(arm,size=0x1f8) addr:0x0215ed68
_ZN12ActorUnkDSBH19func_ov087_0215ef60Ev kind:function(arm,size=0x80) addr:0x0215ef60
_ZN12ActorUnkDSBH19func_ov087_0215efe0Ev kind:function(arm,size=0x64) addr:0x0215efe0
_ZN12ActorUnkDSBH19func_ov087_0215f044Ev kind:function(arm,size=0x74) addr:0x0215f044
_ZN12ActorUnkDSBH19func_ov087_0215f0b8Ev kind:function(arm,size=0x104) addr:0x0215f0b8
_ZN12ActorUnkDSBH19func_ov087_0215f1bcEv kind:function(arm,size=0x1dc) addr:0x0215f1bc
_ZN12ActorUnkDSBH19func_ov087_0215f398Ev kind:function(arm,size=0xc) addr:0x0215f398
_ZN12ActorUnkDSBH19func_ov087_0215f3a4Ev kind:function(arm,size=0x384) addr:0x0215f3a4
_ZN12ActorUnkDSBH19func_ov087_0215f728Ev kind:function(arm,size=0x210) addr:0x0215f728
_ZN12ActorUnkDSBH19func_ov087_0215f938Ev kind:function(arm,size=0x2c) addr:0x0215f938
_ZN12ActorUnkDSBH19func_ov087_0215f964Ev kind:function(arm,size=0x8c) addr:0x0215f964
_ZN12ActorUnkDSBH19func_ov087_0215f9f0Ev kind:function(arm,size=0x44) addr:0x0215f9f0
_ZN12ActorUnkDSBH19func_ov087_0215fa34Ev kind:function(arm,size=0x108) addr:0x0215fa34
_ZN12ActorUnkDSBH19func_ov087_0215fb3cEv kind:function(arm,size=0x6a8) addr:0x0215fb3c
_ZN12ActorUnkDSBH19func_ov087_021601e4Ev kind:function(arm,size=0xf8) addr:0x021601e4
_ZN12ActorUnkDSBH19func_ov087_021602dcEv kind:function(arm,size=0x204) addr:0x021602dc
_ZN12ActorUnkDSBH19func_ov087_021604e0Ev kind:function(arm,size=0xb8) addr:0x021604e0
_ZN12ActorUnkDSBH19func_ov087_02160598Ev kind:function(arm,size=0xe8) addr:0x02160598
_ZN12ActorUnkDSBH19func_ov087_02160680Ev kind:function(arm,size=0xfc) addr:0x02160680
_ZN12ActorUnkDSBH19func_ov087_0216077cEv kind:function(arm,size=0x68) addr:0x0216077c
_ZN12ActorUnkDSBH19func_ov087_021607e4Ev kind:function(arm,size=0x34) addr:0x021607e4
_ZN12ActorUnkDSBH19func_ov087_02160818Ev kind:function(arm,size=0x148) addr:0x02160818
_ZN12ActorUnkDSBH19func_ov087_02160960Ev kind:function(arm,size=0x28) addr:0x02160960
_ZN12ActorUnkDSBHD1Ev kind:function(arm,size=0x1c) addr:0x02160988
_ZN12ActorUnkDSBHD0Ev kind:function(arm,size=0x24) addr:0x021609a4
_ZN12ActorUnkDSBH19func_ov087_021609c8Ev kind:function(arm,size=0xb4) addr:0x021609c8
_ZN12ActorUnkDSBH19func_ov087_02160a7cEv kind:function(arm,size=0x28) addr:0x02160a7c
_ZN12ActorUnkDSBH19func_ov087_02160aa4Ev kind:function(arm,size=0x24) addr:0x02160aa4
_ZN12ActorUnkDSBH19func_ov087_02160ac8Ev kind:function(arm,size=0x40) addr:0x02160ac8
_ZN12ActorUnkDSBH19func_ov087_02160b08Ev kind:function(arm,size=0x244) addr:0x02160b08
_ZN12ActorUnkDSBH19func_ov087_02160d4cEv kind:function(arm,size=0x338) addr:0x02160d4c
_ZN12ActorUnkDSBH19func_ov087_02161084Ev kind:function(arm,size=0x6c) addr:0x02161084
_ZN12ActorUnkDSBH19func_ov087_021610f0Ev kind:function(arm,size=0x74) addr:0x021610f0
_ZN19ActorProfileUnkDSBHD1Ev kind:function(arm,size=0x14) addr:0x02161164
_ZN19ActorProfileUnkRBDS10GetProfileEv kind:function(arm,size=0xc) addr:0x02161178
_ZN19ActorProfileUnkRBDS6CreateEv kind:function(arm,size=0x24) addr:0x02161184
_ZN19ActorProfileUnkRBDSC1Ev kind:function(arm,size=0x28) addr:0x021611a8
_ZN12ActorUnkRBDSC1Ev kind:function(arm,size=0x74) addr:0x021611d0
_ZN12ActorUnkRBDS19func_ov087_02161244Ev kind:function(arm,size=0x70) addr:0x02161244
_ZN12ActorUnkRBDS19func_ov087_021612b4Ev kind:function(arm,size=0x4) addr:0x021612b4
_ZN12ActorUnkRBDS19func_ov087_021612b8Ev kind:function(arm,size=0x14) addr:0x021612b8
_ZN12ActorUnkRBDS19func_ov087_021612ccEv kind:function(arm,size=0x14) addr:0x021612cc
_ZN12ActorUnkRBDS19func_ov087_021612e0Ev kind:function(arm,size=0xc) addr:0x021612e0
_ZN12ActorUnkRBDS19func_ov087_021612ecEv kind:function(arm,size=0x50) addr:0x021612ec
_ZN12ActorUnkRBDSD1Ev kind:function(arm,size=0x28) addr:0x0216133c
_ZN12ActorUnkRBDSD0Ev kind:function(arm,size=0x30) addr:0x02161364
_ZN19ActorProfileUnkRBDSD1Ev kind:function(arm,size=0x14) addr:0x02161394
_ZN19ActorProfileUnkRBD210GetProfileEv kind:function(arm,size=0xc) addr:0x021613a8
_ZN19ActorProfileUnkRBD26CreateEv kind:function(arm,size=0x24) addr:0x021613b4
_ZN19ActorProfileUnkRBD2C1Ev kind:function(arm,size=0x28) addr:0x021613d8
_ZN12ActorUnkRBD2C1Ev kind:function(arm,size=0x1bc) addr:0x02161400
_ZN12ActorUnkRBD219func_ov087_021615bcEv kind:function(arm,size=0x110) addr:0x021615bc
_ZN12ActorUnkRBD219func_ov087_021616ccEv kind:function(arm,size=0x4) addr:0x021616cc
_ZN12ActorUnkRBD219func_ov087_021616d0Ev kind:function(arm,size=0x7c) addr:0x021616d0
_ZN12ActorUnkRBD219func_ov087_0216174cEv kind:function(arm,size=0x20) addr:0x0216174c
_ZN12ActorUnkRBD219func_ov087_0216176cEv kind:function(arm,size=0x7c) addr:0x0216176c
_ZN12ActorUnkRBD219func_ov087_021617e8Ev kind:function(arm,size=0x40) addr:0x021617e8
_ZN12ActorUnkRBD219func_ov087_02161828Ev kind:function(arm,size=0x58) addr:0x02161828
_ZN12ActorUnkRBD219func_ov087_02161880Ev kind:function(arm,size=0xbc) addr:0x02161880
_ZN12ActorUnkRBD219func_ov087_0216193cEv kind:function(arm,size=0x50) addr:0x0216193c
_ZN12ActorUnkRBD2D1Ev kind:function(arm,size=0x40) addr:0x0216198c
_ZN12ActorUnkRBD2D0Ev kind:function(arm,size=0x48) addr:0x021619cc
_ZN19ActorProfileUnkRBD2D1Ev kind:function(arm,size=0x14) addr:0x02161a14
_ZN23MapObjectProfileUnkSTSD10GetProfileEv kind:function(arm,size=0xc) addr:0x02161a28
_ZN23MapObjectProfileUnkSTSD6CreateEv kind:function(arm,size=0x24) addr:0x02161a34
_ZN23MapObjectProfileUnkSTSDC1Ev kind:function(arm,size=0x4c) addr:0x02161a58
_ZN16MapObjectUnkSTSDC1Ev kind:function(arm,size=0x5c) addr:0x02161aa4
_ZN16MapObjectUnkSTSD19func_ov087_02161b00Ev kind:function(arm,size=0x84) addr:0x02161b00
_ZN16MapObjectUnkSTSD19func_ov087_02161b84Ev kind:function(arm,size=0x54) addr:0x02161b84
_ZN16MapObjectUnkSTSD19func_ov087_02161bd8Ev kind:function(arm,size=0x60) addr:0x02161bd8
_ZN16MapObjectUnkSTSD19func_ov087_02161c38Ev kind:function(arm,size=0xc) addr:0x02161c38
_ZN16MapObjectUnkSTSDD1Ev kind:function(arm,size=0x28) addr:0x02161c44
_ZN16MapObjectUnkSTSDD0Ev kind:function(arm,size=0x30) addr:0x02161c6c
_ZN23MapObjectProfileUnkSTSDD1Ev kind:function(arm,size=0x14) addr:0x02161c9c
_ZN19func_ov087_02161cb0D0Ev kind:function(arm,size=0x1c) addr:0x02161cb0
func_ov087_02161ccc kind:function(arm,size=0x10) addr:0x02161ccc
func_ov087_02161cdc kind:function(arm,size=0xec) addr:0x02161cdc
func_ov087_02161dc8 kind:function(arm,size=0xec) addr:0x02161dc8
data_ov087_02161eb4 kind:data(any) addr:0x02161eb4
data_ov087_02161eb8 kind:data(any) addr:0x02161eb8
data_ov087_02161ec8 kind:data(any) addr:0x02161ec8
data_ov087_02161ed8 kind:data(any) addr:0x02161ed8
data_ov087_02161ee8 kind:data(any) addr:0x02161ee8
data_ov087_02161ef0 kind:data(any) addr:0x02161ef0 ambiguous
data_ov087_02161ef8 kind:data(any) addr:0x02161ef8
data_ov087_02161f08 kind:data(any) addr:0x02161f08
data_ov087_02161f18 kind:data(any) addr:0x02161f18
data_ov087_02161f2a kind:data(any) addr:0x02161f2a
data_ov087_02161f2c kind:data(any) addr:0x02161f2c
data_ov087_02161f30 kind:data(any) addr:0x02161f30
data_ov087_02161f40 kind:data(any) addr:0x02161f40
data_ov087_02161f50 kind:data(any) addr:0x02161f50
data_ov087_02161f60 kind:data(any) addr:0x02161f60
__sinit_ActorUnkDSBN.cpp kind:function(arm,size=0x50) addr:0x02161f70
__sinit_ActorUnkDSBB.cpp kind:function(arm,size=0x50) addr:0x02161fc0
__sinit_ActorUnkDSBH.cpp kind:function(arm,size=0x50) addr:0x02162010
__sinit_ActorUnkRBDS.cpp kind:function(arm,size=0x50) addr:0x02162060
__sinit_ActorUnkRBD2.cpp kind:function(arm,size=0x50) addr:0x021620b0
__sinit_MapObjectUnkSTSD.cpp kind:function(arm,size=0x70) addr:0x02162100
.p__sinit_ActorUnkDSBN.cpp kind:data(word) addr:0x02162170
.p__sinit_ActorUnkDSBB.cpp kind:data(word) addr:0x02162174
.p__sinit_ActorUnkDSBH.cpp kind:data(word) addr:0x02162178
.p__sinit_ActorUnkRBDS.cpp kind:data(word) addr:0x0216217c
.p__sinit_ActorUnkRBD2.cpp kind:data(word) addr:0x02162180
.p__sinit_MapObjectUnkSTSD.cpp kind:data(word) addr:0x02162184
_ZTV19data_ov087_021621a0 kind:data(any) addr:0x021621a0
data_ov087_021621cc kind:data(any) addr:0x021621cc
data_ov087_021621f0 kind:data(any) addr:0x021621f0
data_ov087_02162208 kind:data(any) addr:0x02162208
data_ov087_02162228 kind:data(any) addr:0x02162228
data_ov087_02162270 kind:data(any) addr:0x02162270
_ZTV19data_ov087_021622b4 kind:data(any) addr:0x021622b4
data_ov087_02162314 kind:data(any) addr:0x02162314
data_ov087_0216237c kind:data(any) addr:0x0216237c
data_ov087_021623e4 kind:data(any) addr:0x021623e4
data_ov087_021623fc kind:data(any) addr:0x021623fc
data_ov087_02162460 kind:data(any) addr:0x02162460 ambiguous
data_ov087_02162534 kind:data(any) addr:0x02162534
data_ov087_0216254c kind:data(any) addr:0x0216254c
data_ov087_02162564 kind:data(any) addr:0x02162564
data_ov087_0216257c kind:data(any) addr:0x0216257c
data_ov087_0216259c kind:data(any) addr:0x0216259c
_ZTV19data_ov087_021625b0 kind:data(any) addr:0x021625b0
data_ov087_021625dc kind:data(any) addr:0x021625dc
_ZTV19data_ov087_02162620 kind:data(any) addr:0x02162620
data_ov087_0216267c kind:data(any) addr:0x0216267c
data_ov087_02162680 kind:data(any) addr:0x02162680
data_ov087_02162684 kind:data(any) addr:0x02162684
data_ov087_0216269c kind:data(any) addr:0x0216269c
data_ov087_021626bc kind:data(any) addr:0x021626bc
data_ov087_021626cc kind:data(any) addr:0x021626cc
_ZTV19data_ov087_021626e0 kind:data(any) addr:0x021626e0
_ZTV19data_ov087_02162704 kind:data(any) addr:0x02162704
_ZTV19data_ov087_02162710 kind:data(any) addr:0x02162710 ambiguous
data_ov087_02162764 kind:data(any) addr:0x02162764
data_ov087_021627cc kind:data(any) addr:0x021627cc
data_ov087_02162834 kind:data(any) addr:0x02162834
data_ov087_0216284c kind:data(any) addr:0x0216284c
data_ov087_02162864 kind:data(any) addr:0x02162864
data_ov087_0216287c kind:data(any) addr:0x0216287c
data_ov087_02162894 kind:data(any) addr:0x02162894
data_ov087_021628ac kind:data(any) addr:0x021628ac
data_ov087_021628c4 kind:data(any) addr:0x021628c4
data_ov087_021628dc kind:data(any) addr:0x021628dc
data_ov087_021628f4 kind:data(any) addr:0x021628f4
_ZTV19data_ov087_0216290c kind:data(any) addr:0x0216290c
_ZTV19data_ov087_02162930 kind:data(any) addr:0x02162930
_ZTV19data_ov087_02162990 kind:data(any) addr:0x02162990
data_ov087_021629b4 kind:data(any) addr:0x021629b4
data_ov087_021629cc kind:data(any) addr:0x021629cc
data_ov087_021629d0 kind:data(any) addr:0x021629d0 ambiguous
data_ov087_021629e4 kind:data(any) addr:0x021629e4
_ZTV19data_ov087_021629fc kind:data(any) addr:0x021629fc
data_ov087_02162a5c kind:data(any) addr:0x02162a5c
data_ov087_02162a70 kind:data(any) addr:0x02162a70
data_ov087_02162a98 kind:data(any) addr:0x02162a98
data_ov087_02162b08 kind:data(any) addr:0x02162b08
data_ov087_02162b20 kind:bss addr:0x02162b20
data_ov087_02162b24 kind:bss addr:0x02162b24
sActorProfileUnkDSBN kind:bss addr:0x02162b30
data_ov087_02162b78 kind:bss addr:0x02162b78 ambiguous
data_ov087_02162c08 kind:bss addr:0x02162c08
data_ov087_02162c0c kind:bss addr:0x02162c0c
sActorProfileUnkDSBB kind:bss addr:0x02162c18
data_ov087_02162c9c kind:bss addr:0x02162c9c ambiguous
data_ov087_02162cf0 kind:bss addr:0x02162cf0
data_ov087_02162cf4 kind:bss addr:0x02162cf4
sActorProfileUnkDSBH kind:bss addr:0x02162d00
data_ov087_02162dd8 kind:bss addr:0x02162dd8
data_ov087_02162ddc kind:bss addr:0x02162ddc
sActorProfileUnkRBDS kind:bss addr:0x02162de8
data_ov087_02162ec0 kind:bss addr:0x02162ec0
data_ov087_02162ec4 kind:bss addr:0x02162ec4
sActorProfileUnkRBD2 kind:bss addr:0x02162ed0
data_ov087_02162f34 kind:bss addr:0x02162f34 ambiguous
data_ov087_02162fa8 kind:bss addr:0x02162fa8
data_ov087_02162fac kind:bss addr:0x02162fac
sMapObjectProfileUnkSTSD kind:bss addr:0x02162fb8
