_ZN19ActorProfileUnkPSBL10GetProfileEv kind:function(arm,size=0xc) addr:0x02150c00
_ZN19ActorProfileUnkPSBL6CreateEv kind:function(arm,size=0x24) addr:0x02150c0c
_ZN19ActorProfileUnkPSBLC1Ev kind:function(arm,size=0x58) addr:0x02150c30
_ZN12ActorUnkPSBL19func_ov079_02150c88Ev kind:function(arm,size=0xd0) addr:0x02150c88
_ZN12ActorUnkPSBLC1Ev kind:function(arm,size=0xf4) addr:0x02150d58
_ZN12ActorUnkPSBL19func_ov079_02150e4cEv kind:function(arm,size=0x14) addr:0x02150e4c
_ZN12ActorUnkPSBLD1Ev kind:function(arm,size=0x60) addr:0x02150e60
_ZN12ActorUnkPSBLD0Ev kind:function(arm,size=0x68) addr:0x02150ec0
_ZN12ActorUnkPSBL19func_ov079_02150f28Ev kind:function(arm,size=0x1e4) addr:0x02150f28
_ZN12ActorUnkPSBL19func_ov079_0215110cEv kind:function(arm,size=0x22c) addr:0x0215110c
_ZN12ActorUnkPSBL19func_ov079_02151338Ev kind:function(arm,size=0x20) addr:0x02151338
_ZN12ActorUnkPSBL19func_ov079_02151358Ev kind:function(arm,size=0x44) addr:0x02151358
_ZN12ActorUnkPSBL19func_ov079_0215139cEv kind:function(arm,size=0x38) addr:0x0215139c
_ZN12ActorUnkPSBL19func_ov079_021513d4Ev kind:function(arm,size=0x3c) addr:0x021513d4
_ZN12ActorUnkPSBL19func_ov079_02151410Ev kind:function(arm,size=0x90) addr:0x02151410
_ZN12ActorUnkPSBL19func_ov079_021514a0Ev kind:function(arm,size=0xa0) addr:0x021514a0
_ZN12ActorUnkPSBL19func_ov079_02151540Ev kind:function(arm,size=0xb0) addr:0x02151540
_ZN12ActorUnkPSBL19func_ov079_021515f0Ev kind:function(arm,size=0x2e0) addr:0x021515f0
_ZN12ActorUnkPSBL19func_ov079_021518d0Ev kind:function(arm,size=0x9c) addr:0x021518d0
_ZN12ActorUnkPSBL19func_ov079_0215196cEv kind:function(arm,size=0x60) addr:0x0215196c
_ZN12ActorUnkPSBL19func_ov079_021519ccEv kind:function(arm,size=0x200) addr:0x021519cc
_ZN12ActorUnkPSBL19func_ov079_02151bccEv kind:function(arm,size=0x54) addr:0x02151bcc
_ZN12ActorUnkPSBL19func_ov079_02151c20Ev kind:function(arm,size=0xb0) addr:0x02151c20
_ZN12ActorUnkPSBL19func_ov079_02151cd0Ev kind:function(arm,size=0x60) addr:0x02151cd0
_ZN12ActorUnkPSBL19func_ov079_02151d30Ev kind:function(arm,size=0x64) addr:0x02151d30
_ZN12ActorUnkPSBL19func_ov079_02151d94Ev kind:function(arm,size=0x1e8) addr:0x02151d94
_ZN12ActorUnkPSBL19func_ov079_02151f7cEv kind:function(arm,size=0xec) addr:0x02151f7c
_ZN12ActorUnkPSBL19func_ov079_02152068Ev kind:function(arm,size=0x188) addr:0x02152068
_ZN12ActorUnkPSBL19func_ov079_021521f0Ev kind:function(arm,size=0x94) addr:0x021521f0
_ZN12ActorUnkPSBL19func_ov079_02152284Ev kind:function(arm,size=0x84) addr:0x02152284
_ZN12ActorUnkPSBL19func_ov079_02152308Ev kind:function(arm,size=0x70) addr:0x02152308
_ZN12ActorUnkPSBL19func_ov079_02152378Ev kind:function(arm,size=0x68) addr:0x02152378
_ZN12ActorUnkPSBL19func_ov079_021523e0Ev kind:function(arm,size=0x4) addr:0x021523e0
_ZN12ActorUnkPSBL19func_ov079_021523e4Ev kind:function(arm,size=0xf8) addr:0x021523e4
_ZN12ActorUnkPSBL19func_ov079_021524dcEv kind:function(arm,size=0xc) addr:0x021524dc
_ZN12ActorUnkPSBL19func_ov079_021524e8Ev kind:function(arm,size=0x6c) addr:0x021524e8
_ZN12ActorUnkPSBL19func_ov079_02152554Ev kind:function(arm,size=0x40) addr:0x02152554
_ZN12ActorUnkPSBL19func_ov079_02152594Ev kind:function(arm,size=0xc4) addr:0x02152594
_ZN12ActorUnkPSBL19func_ov079_02152658Ev kind:function(arm,size=0x2c) addr:0x02152658
_ZN12ActorUnkPSBL19func_ov079_02152684Ev kind:function(arm,size=0x90) addr:0x02152684
_ZN12ActorUnkPSBL19func_ov079_02152714Ev kind:function(arm,size=0x94) addr:0x02152714
_ZN12ActorUnkPSBL19func_ov079_021527a8Ev kind:function(arm,size=0x194) addr:0x021527a8
_ZN12ActorUnkPSBL19func_ov079_0215293cEv kind:function(arm,size=0xd0) addr:0x0215293c
_ZN12ActorUnkPSBL19func_ov079_02152a0cEv kind:function(arm,size=0x14) addr:0x02152a0c
_ZN12ActorUnkPSBL19func_ov079_02152a20Ev kind:function(arm,size=0xf0) addr:0x02152a20
_ZN12ActorUnkPSBL19func_ov079_02152b10Ev kind:function(arm,size=0x14) addr:0x02152b10
_ZN12ActorUnkPSBL19func_ov079_02152b24Ev kind:function(arm,size=0x1c) addr:0x02152b24
_ZN19ActorProfileUnkPSBLD1Ev kind:function(arm,size=0x14) addr:0x02152b40
_ZN19ActorProfileUnkSSFC10GetProfileEv kind:function(arm,size=0xc) addr:0x02152b54
_ZN19ActorProfileUnkSSFC6CreateEv kind:function(arm,size=0x24) addr:0x02152b60
_ZN19ActorProfileUnkSSFCC1Ev kind:function(arm,size=0x28) addr:0x02152b84
_ZN12ActorUnkSSFCC1Ev kind:function(arm,size=0x3c) addr:0x02152bac
_ZN12ActorUnkSSFC19func_ov079_02152be8Ev kind:function(arm,size=0xe4) addr:0x02152be8
_ZN12ActorUnkSSFC19func_ov079_02152cccEv kind:function(arm,size=0x134) addr:0x02152ccc
_ZN12ActorUnkSSFC19func_ov079_02152e00Ev kind:function(arm,size=0x4c) addr:0x02152e00
_ZN12ActorUnkSSFC19func_ov079_02152e4cEv kind:function(arm,size=0x88) addr:0x02152e4c
_ZN12ActorUnkSSFC19func_ov079_02152ed4Ev kind:function(arm,size=0x50) addr:0x02152ed4
_ZN12ActorUnkSSFCD1Ev kind:function(arm,size=0x14) addr:0x02152f24
_ZN12ActorUnkSSFCD0Ev kind:function(arm,size=0x1c) addr:0x02152f38
_ZN19ActorProfileUnkSSFCD1Ev kind:function(arm,size=0x14) addr:0x02152f54
_ZN19ActorProfileUnkOCTW10GetProfileEv kind:function(arm,size=0xc) addr:0x02152f68
_ZN19ActorProfileUnkOCTW6CreateEv kind:function(arm,size=0x24) addr:0x02152f74
_ZN19ActorProfileUnkOCTWC1Ev kind:function(arm,size=0x54) addr:0x02152f98
_ZN12ActorUnkOCTWC1Ev kind:function(arm,size=0x244) addr:0x02152fec
_ZN12ActorUnkOCTW19func_ov079_02153230Ev kind:function(arm,size=0x14) addr:0x02153230
_ZN12ActorUnkOCTW19func_ov079_02153244Ev kind:function(arm,size=0x98) addr:0x02153244
_ZN12ActorUnkOCTWD0Ev kind:function(arm,size=0xa0) addr:0x021532dc
_ZN12ActorUnkOCTW19func_ov079_0215337cEv kind:function(arm,size=0xdc) addr:0x0215337c
_ZN12ActorUnkOCTW19func_ov079_02153458Ev kind:function(arm,size=0x20) addr:0x02153458
_ZN12ActorUnkOCTW19func_ov079_02153478Ev kind:function(arm,size=0x54) addr:0x02153478
_ZN12ActorUnkOCTW19func_ov079_021534ccEv kind:function(arm,size=0x288) addr:0x021534cc
_ZN12ActorUnkOCTW19func_ov079_02153754Ev kind:function(arm,size=0xd4) addr:0x02153754
_ZN12ActorUnkOCTW19func_ov079_02153828Ev kind:function(arm,size=0xe8) addr:0x02153828
_ZN12ActorUnkOCTW19func_ov079_02153910Ev kind:function(arm,size=0xb0) addr:0x02153910
_ZN12ActorUnkOCTW19func_ov079_021539c0Ev kind:function(arm,size=0xbc) addr:0x021539c0
_ZN12ActorUnkOCTW19func_ov079_02153a7cEv kind:function(arm,size=0xb0) addr:0x02153a7c
_ZN12ActorUnkOCTW19func_ov079_02153b2cEv kind:function(arm,size=0xf4) addr:0x02153b2c
_ZN12ActorUnkOCTW19func_ov079_02153c20Ev kind:function(arm,size=0x80) addr:0x02153c20
_ZN12ActorUnkOCTW19func_ov079_02153ca0Ev kind:function(arm,size=0xf0) addr:0x02153ca0
_ZN12ActorUnkOCTW19func_ov079_02153d90Ev kind:function(arm,size=0xd0) addr:0x02153d90
_ZN12ActorUnkOCTW19func_ov079_02153e60Ev kind:function(arm,size=0x124) addr:0x02153e60
_ZN12ActorUnkOCTW19func_ov079_02153f84Ev kind:function(arm,size=0x10c) addr:0x02153f84
_ZN12ActorUnkOCTW19func_ov079_02154090Ev kind:function(arm,size=0x30) addr:0x02154090
_ZN12ActorUnkOCTW19func_ov079_021540c0Ev kind:function(arm,size=0x6c) addr:0x021540c0
_ZN12ActorUnkOCTW19func_ov079_0215412cEv kind:function(arm,size=0x58) addr:0x0215412c
_ZN12ActorUnkOCTW19func_ov079_02154184Ev kind:function(arm,size=0x84) addr:0x02154184
_ZN12ActorUnkOCTW19func_ov079_02154208Ev kind:function(arm,size=0x210) addr:0x02154208
_ZN12ActorUnkOCTW19func_ov079_02154418Ev kind:function(arm,size=0x70) addr:0x02154418
_ZN12ActorUnkOCTW19func_ov079_02154488Ev kind:function(arm,size=0x378) addr:0x02154488
_ZN12ActorUnkOCTW19func_ov079_02154800Ev kind:function(arm,size=0xa8) addr:0x02154800
_ZN12ActorUnkOCTW19func_ov079_021548a8Ev kind:function(arm,size=0x8c) addr:0x021548a8
_ZN12ActorUnkOCTW19func_ov079_02154934Ev kind:function(arm,size=0x128) addr:0x02154934
_ZN12ActorUnkOCTW19func_ov079_02154a5cEv kind:function(arm,size=0x64) addr:0x02154a5c
_ZN12ActorUnkOCTW19func_ov079_02154ac0Ev kind:function(arm,size=0x78) addr:0x02154ac0
_ZN12ActorUnkOCTW19func_ov079_02154b38Ev kind:function(arm,size=0xd4) addr:0x02154b38
_ZN12ActorUnkOCTW19func_ov079_02154c0cEv kind:function(arm,size=0x90) addr:0x02154c0c
_ZN12ActorUnkOCTW19func_ov079_02154c9cEv kind:function(arm,size=0x44) addr:0x02154c9c
_ZN12ActorUnkOCTW19func_ov079_02154ce0Ev kind:function(arm,size=0x1b8) addr:0x02154ce0
_ZN12ActorUnkOCTW19func_ov079_02154e98Ev kind:function(arm,size=0x94) addr:0x02154e98
_ZN12ActorUnkOCTW19func_ov079_02154f2cEv kind:function(arm,size=0x28) addr:0x02154f2c
_ZN12ActorUnkOCTW19func_ov079_02154f54Ev kind:function(arm,size=0x64) addr:0x02154f54
_ZN12ActorUnkOCTW19func_ov079_02154fb8Ev kind:function(arm,size=0x48) addr:0x02154fb8
_ZN12ActorUnkOCTW19func_ov079_02155000Ev kind:function(arm,size=0x58) addr:0x02155000
_ZN12ActorUnkOCTW19func_ov079_02155058Ev kind:function(arm,size=0x24) addr:0x02155058
_ZN12ActorUnkOCTW19func_ov079_0215507cEv kind:function(arm,size=0x2c) addr:0x0215507c
_ZN12ActorUnkOCTW19func_ov079_021550a8Ev kind:function(arm,size=0x1c) addr:0x021550a8
_ZN19ActorProfileUnkOCTWD1Ev kind:function(arm,size=0x14) addr:0x021550c4
_ZN19ActorProfileUnkOCWS10GetProfileEv kind:function(arm,size=0xc) addr:0x021550d8
_ZN19ActorProfileUnkOCWS6CreateEv kind:function(arm,size=0x24) addr:0x021550e4
_ZN19ActorProfileUnkOCWSC1Ev kind:function(arm,size=0x48) addr:0x02155108
_ZN12ActorUnkOCWSC1Ev kind:function(arm,size=0xd8) addr:0x02155150
_ZN12ActorUnkOCWS19func_ov079_02155228Ev kind:function(arm,size=0x14) addr:0x02155228
_ZN12ActorUnkOCWS19func_ov079_0215523cEv kind:function(arm,size=0xac) addr:0x0215523c
_ZN12ActorUnkOCWS19func_ov079_021552e8Ev kind:function(arm,size=0x248) addr:0x021552e8
_ZN12ActorUnkOCWS19func_ov079_02155530Ev kind:function(arm,size=0x11c) addr:0x02155530
_ZN12ActorUnkOCWS19func_ov079_0215564cEv kind:function(arm,size=0x20) addr:0x0215564c
_ZN12ActorUnkOCWS19func_ov079_0215566cEv kind:function(arm,size=0xa4) addr:0x0215566c
_ZN12ActorUnkOCWS19func_ov079_02155710Ev kind:function(arm,size=0x48) addr:0x02155710
_ZN12ActorUnkOCWS19func_ov079_02155758Ev kind:function(arm,size=0x38) addr:0x02155758
_ZN12ActorUnkOCWS19func_ov079_02155790Ev kind:function(arm,size=0xcc) addr:0x02155790
_ZN12ActorUnkOCWS19func_ov079_0215585cEv kind:function(arm,size=0x3c) addr:0x0215585c
_ZN12ActorUnkOCWS19func_ov079_02155898Ev kind:function(arm,size=0x4c) addr:0x02155898
_ZN12ActorUnkOCWSD0Ev kind:function(arm,size=0x1c) addr:0x021558e4
_ZN12ActorUnkOCWSD1Ev kind:function(arm,size=0x28) addr:0x02155900
_ZN12ActorUnkOCWS19func_ov079_02155928Ev kind:function(arm,size=0x30) addr:0x02155928
_ZN19ActorProfileUnkOCWSD1Ev kind:function(arm,size=0x14) addr:0x02155958
_ZN19ActorProfileUnkDSSN10GetProfileEv kind:function(arm,size=0xc) addr:0x0215596c
_ZN19ActorProfileUnkDSSN6CreateEv kind:function(arm,size=0x24) addr:0x02155978
_ZN19ActorProfileUnkDSSNC1Ev kind:function(arm,size=0x28) addr:0x0215599c
_ZN12ActorUnkDSSNC1Ev kind:function(arm,size=0x20) addr:0x021559c4
_ZN12ActorUnkDSSN19func_ov079_021559e4Ev kind:function(arm,size=0x50) addr:0x021559e4
_ZN12ActorUnkDSSND1Ev kind:function(arm,size=0x20) addr:0x02155a34
_ZN12ActorUnkDSSND0Ev kind:function(arm,size=0x28) addr:0x02155a54
_ZN19ActorProfileUnkDSSND1Ev kind:function(arm,size=0x14) addr:0x02155a7c
_ZN23MapObjectProfileUnkICGR10GetProfileEv kind:function(arm,size=0xc) addr:0x02155a90
_ZN23MapObjectProfileUnkICGR6CreateEv kind:function(arm,size=0x24) addr:0x02155a9c
_ZN23MapObjectProfileUnkICGRC1Ev kind:function(arm,size=0xb4) addr:0x02155ac0
_ZN16MapObjectUnkICGRC1Ev kind:function(arm,size=0x68) addr:0x02155b74
_ZN16MapObjectUnkICGR19func_ov079_02155bdcEv kind:function(arm,size=0x14) addr:0x02155bdc
_ZN16MapObjectUnkICGR19func_ov079_02155bf0Ev kind:function(arm,size=0x14) addr:0x02155bf0
_ZN16MapObjectUnkICGRD1Ev kind:function(arm,size=0x174) addr:0x02155c04
_ZN16MapObjectUnkICGRD0Ev kind:function(arm,size=0x17c) addr:0x02155d78
_ZN16MapObjectUnkICGR19func_ov079_02155ef4Ev kind:function(arm,size=0x2a4) addr:0x02155ef4
_ZN16MapObjectUnkICGR19func_ov079_02156198Ev kind:function(arm,size=0x1c) addr:0x02156198
_ZN16MapObjectUnkICGR19func_ov079_021561b4Ev kind:function(arm,size=0xd8) addr:0x021561b4
_ZN16MapObjectUnkICGR19func_ov079_0215628cEv kind:function(arm,size=0x78) addr:0x0215628c
_ZN16MapObjectUnkICGR19func_ov079_02156304Ev kind:function(arm,size=0x10) addr:0x02156304
_ZN16MapObjectUnkICGR19func_ov079_02156314Ev kind:function(arm,size=0x2b0) addr:0x02156314
_ZN23MapObjectProfileUnkICGRD1Ev kind:function(arm,size=0x14) addr:0x021565c4
_ZN23MapObjectProfileUnkBLHL10GetProfileEv kind:function(arm,size=0xc) addr:0x021565d8
_ZN23MapObjectProfileUnkBLHL6CreateEv kind:function(arm,size=0x24) addr:0x021565e4
_ZN23MapObjectProfileUnkBLHLC1Ev kind:function(arm,size=0xa4) addr:0x02156608
_ZN16MapObjectUnkBLHLC1Ev kind:function(arm,size=0x90) addr:0x021566ac
_ZN16MapObjectUnkBLHL19func_ov079_0215673cEv kind:function(arm,size=0x44) addr:0x0215673c
_ZN16MapObjectUnkBLHL19func_ov079_02156780Ev kind:function(arm,size=0x38) addr:0x02156780
_ZN16MapObjectUnkBLHL19func_ov079_021567b8Ev kind:function(arm,size=0x88) addr:0x021567b8
_ZN16MapObjectUnkBLHL19func_ov079_02156840Ev kind:function(arm,size=0x3c) addr:0x02156840
_ZN16MapObjectUnkBLHLD1Ev kind:function(arm,size=0x20) addr:0x0215687c
_ZN16MapObjectUnkBLHLD0Ev kind:function(arm,size=0x28) addr:0x0215689c
_ZN23MapObjectProfileUnkBLHLD1Ev kind:function(arm,size=0x14) addr:0x021568c4
_ZN23MapObjectProfileUnkDRSN10GetProfileEv kind:function(arm,size=0xc) addr:0x021568d8
_ZN23MapObjectProfileUnkDRSN6CreateEv kind:function(arm,size=0x24) addr:0x021568e4
_ZN23MapObjectProfileUnkDRSNC1Ev kind:function(arm,size=0x48) addr:0x02156908
_ZN16MapObjectUnkDRSNC1Ev kind:function(arm,size=0x64) addr:0x02156950
_ZN16MapObjectUnkDRSN19func_ov079_021569b4Ev kind:function(arm,size=0xdc) addr:0x021569b4
_ZN16MapObjectUnkDRSN19func_ov079_02156a90Ev kind:function(arm,size=0x10c) addr:0x02156a90
_ZN16MapObjectUnkDRSN19func_ov079_02156b9cEv kind:function(arm,size=0x70) addr:0x02156b9c
_ZN16MapObjectUnkDRSN19func_ov079_02156c0cEv kind:function(arm,size=0x18) addr:0x02156c0c
_ZN16MapObjectUnkDRSN19func_ov079_02156c24Ev kind:function(arm,size=0x50) addr:0x02156c24
_ZN16MapObjectUnkDRSND1Ev kind:function(arm,size=0x28) addr:0x02156c74
_ZN16MapObjectUnkDRSND0Ev kind:function(arm,size=0x30) addr:0x02156c9c
_ZN23MapObjectProfileUnkDRSND1Ev kind:function(arm,size=0x14) addr:0x02156ccc
func_ov079_02156ce0 kind:function(arm,size=0x10) addr:0x02156ce0
func_ov079_02156cf0 kind:function(arm,size=0x10) addr:0x02156cf0
_ZN23MapObjectProfileUnkGTSN10GetProfileEv kind:function(arm,size=0xc) addr:0x02156d00
_ZN23MapObjectProfileUnkGTSN6CreateEv kind:function(arm,size=0x24) addr:0x02156d0c
_ZN23MapObjectProfileUnkGTSNC1Ev kind:function(arm,size=0x48) addr:0x02156d30
_ZN16MapObjectUnkGTSNC1Ev kind:function(arm,size=0x9c) addr:0x02156d78
_ZN16MapObjectUnkGTSN19func_ov079_02156e14Ev kind:function(arm,size=0x110) addr:0x02156e14
_ZN16MapObjectUnkGTSN19func_ov079_02156f24Ev kind:function(arm,size=0x4) addr:0x02156f24
_ZN16MapObjectUnkGTSN19func_ov079_02156f28Ev kind:function(arm,size=0x38) addr:0x02156f28
_ZN16MapObjectUnkGTSND1Ev kind:function(arm,size=0x20) addr:0x02156f60
_ZN16MapObjectUnkGTSND0Ev kind:function(arm,size=0x28) addr:0x02156f80
_ZN23MapObjectProfileUnkGTSND1Ev kind:function(arm,size=0x14) addr:0x02156fa8
_ZN23MapObjectProfileUnkFSSV10GetProfileEv kind:function(arm,size=0xc) addr:0x02156fbc
_ZN23MapObjectProfileUnkFSSV6CreateEv kind:function(arm,size=0x24) addr:0x02156fc8
_ZN23MapObjectProfileUnkFSSVC1Ev kind:function(arm,size=0x34) addr:0x02156fec
_ZN16MapObjectUnkFSSVC1Ev kind:function(arm,size=0x2c) addr:0x02157020
_ZN16MapObjectUnkFSSV19func_ov079_0215704cEv kind:function(arm,size=0x80) addr:0x0215704c
_ZN16MapObjectUnkFSSV19func_ov079_021570ccEv kind:function(arm,size=0x64) addr:0x021570cc
_ZN16MapObjectUnkFSSV19func_ov079_02157130Ev kind:function(arm,size=0x50) addr:0x02157130
_ZN16MapObjectUnkFSSV19func_ov079_02157180Ev kind:function(arm,size=0x8) addr:0x02157180
_ZN16MapObjectUnkFSSVD1Ev kind:function(arm,size=0x20) addr:0x02157188
_ZN16MapObjectUnkFSSVD0Ev kind:function(arm,size=0x28) addr:0x021571a8
_ZN23MapObjectProfileUnkFSSVD1Ev kind:function(arm,size=0x14) addr:0x021571d0
data_ov079_021571e4 kind:data(any) addr:0x021571e4
data_ov079_02157214 kind:data(any) addr:0x02157214
data_ov079_02157254 kind:data(any) addr:0x02157254
data_ov079_02157264 kind:data(any) addr:0x02157264
data_ov079_02157274 kind:data(any) addr:0x02157274
__sinit_ActorUnkPSBL.cpp kind:function(arm,size=0x5c) addr:0x02157284
__sinit_ActorUnkSSFC.cpp kind:function(arm,size=0x50) addr:0x021572e0
__sinit_ActorUnkOCTW.cpp kind:function(arm,size=0x8c) addr:0x02157330
__sinit_ActorUnkOCWS.cpp kind:function(arm,size=0x74) addr:0x021573bc
__sinit_ActorUnkDSSN.cpp kind:function(arm,size=0x50) addr:0x02157430
__sinit_MapObjectUnkICGR.cpp kind:function(arm,size=0x50) addr:0x02157480
__sinit_MapObjectUnkBLHL.cpp kind:function(arm,size=0x50) addr:0x021574d0
__sinit_MapObjectUnkDRSN.cpp kind:function(arm,size=0x50) addr:0x02157520
__sinit_MapObjectUnkGTSN.cpp kind:function(arm,size=0x50) addr:0x02157570
__sinit_MapObjectUnkFSSV.cpp kind:function(arm,size=0x50) addr:0x021575c0
.p__sinit_ActorUnkPSBL.cpp kind:data(word) addr:0x02157610
.p__sinit_ActorUnkSSFC.cpp kind:data(word) addr:0x02157614
.p__sinit_ActorUnkOCTW.cpp kind:data(word) addr:0x02157618
.p__sinit_ActorUnkOCWS.cpp kind:data(word) addr:0x0215761c
.p__sinit_ActorUnkDSSN.cpp kind:data(word) addr:0x02157620
.p__sinit_MapObjectUnkICGR.cpp kind:data(word) addr:0x02157624
.p__sinit_MapObjectUnkBLHL.cpp kind:data(word) addr:0x02157628
.p__sinit_MapObjectUnkDRSN.cpp kind:data(word) addr:0x0215762c
.p__sinit_MapObjectUnkGTSN.cpp kind:data(word) addr:0x02157630
.p__sinit_MapObjectUnkFSSV.cpp kind:data(word) addr:0x02157634
data_ov079_02157640 kind:data(any) addr:0x02157640
data_ov079_02157644 kind:data(any) addr:0x02157644
data_ov079_02157648 kind:data(any) addr:0x02157648
data_ov079_0215764c kind:data(any) addr:0x0215764c
data_ov079_02157660 kind:data(any) addr:0x02157660
data_ov079_02157678 kind:data(any) addr:0x02157678
data_ov079_02157698 kind:data(any) addr:0x02157698
data_ov079_021576a4 kind:data(any) addr:0x021576a4 ambiguous
_ZTV19data_ov079_021576ac kind:data(any) addr:0x021576ac
data_ov079_021576d8 kind:data(any) addr:0x021576d8
data_ov079_021576dc kind:data(any) addr:0x021576dc ambiguous
_ZTV19data_ov079_021576f8 kind:data(any) addr:0x021576f8
_ZTV19data_ov079_02157708 kind:data(any) addr:0x02157708 ambiguous
_ZTV19data_ov079_02157778 kind:data(any) addr:0x02157778
_ZTV19data_ov079_0215779c kind:data(any) addr:0x0215779c
data_ov079_021577f8 kind:data(any) addr:0x021577f8
data_ov079_021577fc kind:data(any) addr:0x021577fc
_ZTV19data_ov079_02157808 kind:data(any) addr:0x02157808
data_ov079_02157834 kind:data(any) addr:0x02157834
data_ov079_02157878 kind:data(any) addr:0x02157878
data_ov079_021578d0 kind:data(any) addr:0x021578d0
data_ov079_02157908 kind:data(any) addr:0x02157908 ambiguous
_ZTV19data_ov079_02157928 kind:data(any) addr:0x02157928
data_ov079_02157988 kind:data(any) addr:0x02157988
data_ov079_021579a0 kind:data(any) addr:0x021579a0
data_ov079_021579b8 kind:data(any) addr:0x021579b8
data_ov079_021579d0 kind:data(any) addr:0x021579d0
data_ov079_021579e8 kind:data(any) addr:0x021579e8
data_ov079_02157a00 kind:data(any) addr:0x02157a00
_ZTV19data_ov079_02157a14 kind:data(any) addr:0x02157a14
_ZTV19data_ov079_02157a38 kind:data(any) addr:0x02157a38
_ZTV19data_ov079_02157a68 kind:data(any) addr:0x02157a68 ambiguous
_ZTV19data_ov079_02157a94 kind:data(any) addr:0x02157a94
_ZTV19data_ov079_02157ab8 kind:data(any) addr:0x02157ab8
_ZTV19data_ov079_02157acc kind:data(any) addr:0x02157acc ambiguous
data_ov079_02157b18 kind:data(any) addr:0x02157b18
data_ov079_02157b24 kind:data(any) addr:0x02157b24
data_ov079_02157b40 kind:data(any) addr:0x02157b40
data_ov079_02157b5c kind:data(any) addr:0x02157b5c
data_ov079_02157b9c kind:data(any) addr:0x02157b9c
data_ov079_02157bac kind:data(any) addr:0x02157bac ambiguous
data_ov079_02157bb8 kind:data(any) addr:0x02157bb8
data_ov079_02157bf8 kind:data(any) addr:0x02157bf8
data_ov079_02157c14 kind:data(any) addr:0x02157c14
data_ov079_02157ca4 kind:data(any) addr:0x02157ca4 ambiguous
data_ov079_02157cac kind:data(any) addr:0x02157cac
data_ov079_02157cc8 kind:data(any) addr:0x02157cc8
data_ov079_02157ce4 kind:data(any) addr:0x02157ce4
data_ov079_02157d24 kind:data(any) addr:0x02157d24
data_ov079_02157d40 kind:data(any) addr:0x02157d40
_ZGVN15ProfileInstanceI19ActorProfileUnkPSBLE8sProfileE kind:bss addr:0x02157d80
@13530 kind:bss addr:0x02157d8c
_ZN15ProfileInstanceI19ActorProfileUnkPSBLE8sProfileE kind:bss addr:0x02157d98
_ZGVN15ProfileInstanceI19ActorProfileUnkSSFCE8sProfileE kind:bss addr:0x02157e70
@13536 kind:bss addr:0x02157e74
_ZN15ProfileInstanceI19ActorProfileUnkSSFCE8sProfileE kind:bss addr:0x02157e80
data_ov079_02157e98 kind:bss addr:0x02157e98 ambiguous
data_ov079_02157ea0 kind:bss addr:0x02157ea0 ambiguous
_ZGVN15ProfileInstanceI19ActorProfileUnkOCTWE8sProfileE kind:bss addr:0x02157ebc
@13542 kind:bss addr:0x02157ec0
_ZN15ProfileInstanceI19ActorProfileUnkOCTWE8sProfileE kind:bss addr:0x02157ecc
data_ov079_02157f28 kind:bss addr:0x02157f28 ambiguous
data_ov079_02157f54 kind:bss addr:0x02157f54 ambiguous
data_ov079_02157fa0 kind:bss addr:0x02157fa0 ambiguous
_ZGVN15ProfileInstanceI19ActorProfileUnkOCWSE8sProfileE kind:bss addr:0x02157fa4
@13548 kind:bss addr:0x02157fa8
_ZN15ProfileInstanceI19ActorProfileUnkOCWSE8sProfileE kind:bss addr:0x02157fb4
data_ov079_02157fc4 kind:bss addr:0x02157fc4 ambiguous
data_ov079_02157ff4 kind:bss addr:0x02157ff4 ambiguous
data_ov079_02158004 kind:bss addr:0x02158004 ambiguous
data_ov079_02158050 kind:bss addr:0x02158050 ambiguous
data_ov079_02158070 kind:bss addr:0x02158070 ambiguous
_ZGVN15ProfileInstanceI19ActorProfileUnkDSSNE8sProfileE kind:bss addr:0x0215808c
@13554 kind:bss addr:0x02158090
_ZN15ProfileInstanceI19ActorProfileUnkDSSNE8sProfileE kind:bss addr:0x0215809c
data_ov079_021580a4 kind:bss addr:0x021580a4 ambiguous
data_ov079_021580f4 kind:bss addr:0x021580f4 ambiguous
data_ov079_02158118 kind:bss addr:0x02158118 ambiguous
_ZGVN15ProfileInstanceI23MapObjectProfileUnkICGRE8sProfileE kind:bss addr:0x02158174
@13027 kind:bss addr:0x02158178
_ZN15ProfileInstanceI23MapObjectProfileUnkICGRE8sProfileE kind:bss addr:0x02158184
data_ov079_02158234 kind:bss addr:0x02158234 ambiguous
data_ov079_0215823c kind:bss addr:0x0215823c ambiguous
data_ov079_02158258 kind:bss addr:0x02158258
_ZGVN15ProfileInstanceI23MapObjectProfileUnkBLHLE8sProfileE kind:bss addr:0x0215827c
@13033 kind:bss addr:0x02158280
_ZN15ProfileInstanceI23MapObjectProfileUnkBLHLE8sProfileE kind:bss addr:0x0215828c
data_ov079_02158358 kind:bss addr:0x02158358 ambiguous
data_ov079_02158360 kind:bss addr:0x02158360
_ZGVN15ProfileInstanceI23MapObjectProfileUnkDRSNE8sProfileE kind:bss addr:0x02158384
@13039 kind:bss addr:0x02158388
_ZN15ProfileInstanceI23MapObjectProfileUnkDRSNE8sProfileE kind:bss addr:0x02158394
data_ov079_021583b4 kind:bss addr:0x021583b4
_ZGVN15ProfileInstanceI23MapObjectProfileUnkGTSNE8sProfileE kind:bss addr:0x02158468
@13045 kind:bss addr:0x0215846c
_ZN15ProfileInstanceI23MapObjectProfileUnkGTSNE8sProfileE kind:bss addr:0x02158478
data_ov079_0215847c kind:bss addr:0x0215847c ambiguous
_ZGVN15ProfileInstanceI23MapObjectProfileUnkFSSVE8sProfileE kind:bss addr:0x0215854c
@13051 kind:bss addr:0x02158550
_ZN15ProfileInstanceI23MapObjectProfileUnkFSSVE8sProfileE kind:bss addr:0x0215855c
