_ZN19ActorProfileUnkBANI10GetProfileEv kind:function(arm,size=0xc) addr:0x02159be0
_ZN19ActorProfileUnkBANI6CreateEv kind:function(arm,size=0x24) addr:0x02159bec
_ZN19ActorProfileUnkBANIC1Ev kind:function(arm,size=0x5c) addr:0x02159c10
_ZN12ActorUnkBANIC1Ev kind:function(arm,size=0x218) addr:0x02159c6c
_ZN12ActorUnkBANI19func_ov069_02158144Ev kind:function(arm,size=0x14) addr:0x02159e84
_ZN12ActorUnkBANI19func_ov069_02158158Ev kind:function(arm,size=0x44) addr:0x02159e98
_ZN12ActorUnkBANID1Ev kind:function(arm,size=0x28) addr:0x02159edc
_ZN12ActorUnkBANID0Ev kind:function(arm,size=0x30) addr:0x02159f04
_ZN12ActorUnkBANI19func_ov069_021581f4Ev kind:function(arm,size=0x24) addr:0x02159f34
_ZN12ActorUnkBANI19func_ov069_02158218Ev kind:function(arm,size=0xbc) addr:0x02159f58
_ZN12ActorUnkBANI19func_ov069_021582d4Ev kind:function(arm,size=0x28) addr:0x0215a014
_ZN12ActorUnkBANI19func_ov069_021582fcEv kind:function(arm,size=0x28) addr:0x0215a03c
_ZN12ActorUnkBANI19func_ov069_02158324Ev kind:function(arm,size=0x34) addr:0x0215a064
_ZN12ActorUnkBANI19func_ov069_02158358Ev kind:function(arm,size=0x8c) addr:0x0215a098
_ZN12ActorUnkBANI19func_ov069_021583e4Ev kind:function(arm,size=0x254) addr:0x0215a124
_ZN12ActorUnkBANI19func_ov069_02158638Ev kind:function(arm,size=0xe4) addr:0x0215a378
_ZN12ActorUnkBANI19func_ov069_0215871cEv kind:function(arm,size=0x2c) addr:0x0215a45c
_ZN12ActorUnkBANI19func_ov069_02158748Ev kind:function(arm,size=0x58) addr:0x0215a488
_ZN12ActorUnkBANI19func_ov069_021587a0Ev kind:function(arm,size=0x560) addr:0x0215a4e0
_ZN12ActorUnkBANI19func_ov069_02158d00Ev kind:function(arm,size=0x24) addr:0x0215aa40
_ZN12ActorUnkBANI19func_ov069_02158d24Ev kind:function(arm,size=0x2c) addr:0x0215aa64
_ZN12ActorUnkBANI19func_ov069_02158d50Ev kind:function(arm,size=0x1c) addr:0x0215aa90
_ZN12ActorUnkBANI19func_ov069_02158d6cEv kind:function(arm,size=0x28) addr:0x0215aaac
_ZN12ActorUnkBANID2Ev kind:function(arm,size=0x20) addr:0x0215aad4
_ZN19ActorProfileUnkBANID1Ev kind:function(arm,size=0x14) addr:0x0215aaf4
_ZN19ActorProfileUnkRB1F10GetProfileEv kind:function(arm,size=0xc) addr:0x0215ab08
_ZN19ActorProfileUnkRB1F6CreateEv kind:function(arm,size=0x24) addr:0x0215ab14
_ZN19ActorProfileUnkRB1FC1Ev kind:function(arm,size=0x6c) addr:0x0215ab38
_ZN12ActorUnkRB1FC1Ev kind:function(arm,size=0x19c) addr:0x0215aba4
_ZN12ActorUnkRB1F19func_ov069_02159000Ev kind:function(arm,size=0x14) addr:0x0215ad40
_ZN12ActorUnkRB1F19func_ov069_02159014Ev kind:function(arm,size=0x1b4) addr:0x0215ad54
_ZN12ActorUnkRB1F19func_ov069_021591c8Ev kind:function(arm,size=0x98) addr:0x0215af08
_ZN12ActorUnkRB1F19func_ov069_02159260Ev kind:function(arm,size=0x18) addr:0x0215afa0
_ZN12ActorUnkRB1F19func_ov069_02159278Ev kind:function(arm,size=0x50) addr:0x0215afb8
_ZN12ActorUnkRB1F19func_ov069_021592c8Ev kind:function(arm,size=0x138) addr:0x0215b008
_ZN12ActorUnkRB1F19func_ov069_02159400Ev kind:function(arm,size=0x4) addr:0x0215b140
_ZN12ActorUnkRB1F19func_ov069_02159404Ev kind:function(arm,size=0x48) addr:0x0215b144
_ZN12ActorUnkRB1F19func_ov069_0215944cEv kind:function(arm,size=0xbc) addr:0x0215b18c
_ZN12ActorUnkRB1F19func_ov069_02159508Ev kind:function(arm,size=0x170) addr:0x0215b248
_ZN12ActorUnkRB1F19func_ov069_02159678Ev kind:function(arm,size=0x18) addr:0x0215b3b8
_ZN12ActorUnkRB1F19func_ov069_02159690Ev kind:function(arm,size=0x68) addr:0x0215b3d0
_ZN12ActorUnkRB1F19func_ov069_021596f8Ev kind:function(arm,size=0x214) addr:0x0215b438
_ZN12ActorUnkRB1F19func_ov069_0215990cEv kind:function(arm,size=0x2c) addr:0x0215b64c
_ZN12ActorUnkRB1F19func_ov069_02159938Ev kind:function(arm,size=0x3c) addr:0x0215b678
_ZN12ActorUnkRB1F19func_ov069_02159974Ev kind:function(arm,size=0x34) addr:0x0215b6b4
_ZN12ActorUnkRB1F19func_ov069_021599a8Ev kind:function(arm,size=0x24) addr:0x0215b6e8
_ZN12ActorUnkRB1F19func_ov069_021599ccEv kind:function(arm,size=0x54) addr:0x0215b70c
_ZN12ActorUnkRB1F19func_ov069_02159a20Ev kind:function(arm,size=0x284) addr:0x0215b760
_ZN12ActorUnkRB1F19func_ov069_02159ca4Ev kind:function(arm,size=0x28) addr:0x0215b9e4
_ZN12ActorUnkRB1F19func_ov069_02159cccEv kind:function(arm,size=0x100) addr:0x0215ba0c
_ZN12ActorUnkRB1F19func_ov069_02159dccEv kind:function(arm,size=0x28) addr:0x0215bb0c
_ZN12ActorUnkRB1F19func_ov069_02159df4Ev kind:function(arm,size=0x18) addr:0x0215bb34
_ZN12ActorUnkRB1F19func_ov069_02159e0cEv kind:function(arm,size=0x2c) addr:0x0215bb4c
_ZN12ActorUnkRB1F19func_ov069_02159e38Ev kind:function(arm,size=0x24) addr:0x0215bb78
_ZN12ActorUnkRB1F19func_ov069_02159e5cEv kind:function(arm,size=0x10) addr:0x0215bb9c
_ZN12ActorUnkRB1F19func_ov069_02159e6cEv kind:function(arm,size=0x8) addr:0x0215bbac
_ZN12ActorUnkRB1FD0Ev kind:function(arm,size=0x1c) addr:0x0215bbb4
_ZN12ActorUnkRB1FD1Ev kind:function(arm,size=0x30) addr:0x0215bbd0
_ZN12ActorUnkRB1F19func_ov069_02159ec0Ev kind:function(arm,size=0x38) addr:0x0215bc00
_ZN19ActorProfileUnkRB1FD1Ev kind:function(arm,size=0x14) addr:0x0215bc38
func_ov069_0215bc4c kind:function(arm,size=0x3c) addr:0x0215bc4c
func_ov069_0215bc88 kind:function(arm,size=0x4) addr:0x0215bc88
_ZN19func_ov069_0215bc8cD0Ev kind:function(arm,size=0x14) addr:0x0215bc8c
func_ov069_0215bca0 kind:function(arm,size=0x28) addr:0x0215bca0
func_ov069_0215bcc8 kind:function(arm,size=0x14) addr:0x0215bcc8
func_ov069_0215bcdc kind:function(arm,size=0x174) addr:0x0215bcdc
func_ov069_0215be50 kind:function(arm,size=0x4) addr:0x0215be50
func_ov069_0215be54 kind:function(arm,size=0x4) addr:0x0215be54
func_ov069_0215be58 kind:function(arm,size=0x4) addr:0x0215be58
func_ov069_0215be5c kind:function(arm,size=0xa4) addr:0x0215be5c
func_ov069_0215bf00 kind:function(arm,size=0x6c) addr:0x0215bf00
_ZN19ActorProfileUnkRBRP10GetProfileEv kind:function(arm,size=0xc) addr:0x0215bf6c
_ZN19ActorProfileUnkRBRP6CreateEv kind:function(arm,size=0x24) addr:0x0215bf78
_ZN19ActorProfileUnkRBRPC1Ev kind:function(arm,size=0x70) addr:0x0215bf9c
_ZN12ActorUnkRBRPC1Ev kind:function(arm,size=0x150) addr:0x0215c00c
_ZN12ActorUnkRBRP19func_ov069_0215a41cEv kind:function(arm,size=0x14) addr:0x0215c15c
_ZN12ActorUnkRBRP19func_ov069_0215a430Ev kind:function(arm,size=0x14) addr:0x0215c170
_ZN12ActorUnkRBRPD1Ev kind:function(arm,size=0x30) addr:0x0215c184
_ZN12ActorUnkRBRPD0Ev kind:function(arm,size=0x38) addr:0x0215c1b4
_ZN12ActorUnkRBRP19func_ov069_0215a4acEv kind:function(arm,size=0x60) addr:0x0215c1ec
_ZN12ActorUnkRBRP19func_ov069_0215a50cEv kind:function(arm,size=0x3c) addr:0x0215c24c
_ZN12ActorUnkRBRP19func_ov069_0215a548Ev kind:function(arm,size=0x80) addr:0x0215c288
_ZN12ActorUnkRBRP19func_ov069_0215a5c8Ev kind:function(arm,size=0x10) addr:0x0215c308
_ZN12ActorUnkRBRP19func_ov069_0215a5d8Ev kind:function(arm,size=0x4) addr:0x0215c318
_ZN12ActorUnkRBRP19func_ov069_0215a5dcEv kind:function(arm,size=0x3c) addr:0x0215c31c
_ZN12ActorUnkRBRP19func_ov069_0215a618Ev kind:function(arm,size=0x7c) addr:0x0215c358
_ZN12ActorUnkRBRP19func_ov069_0215a694Ev kind:function(arm,size=0x8c) addr:0x0215c3d4
_ZN12ActorUnkRBRP19func_ov069_0215a720Ev kind:function(arm,size=0xc) addr:0x0215c460
_ZN12ActorUnkRBRP19func_ov069_0215a72cEv kind:function(arm,size=0x30) addr:0x0215c46c
_ZN12ActorUnkRBRP19func_ov069_0215a75cEv kind:function(arm,size=0xd8) addr:0x0215c49c
_ZN12ActorUnkRBRP19func_ov069_0215a834Ev kind:function(arm,size=0x18) addr:0x0215c574
_ZN12ActorUnkRBRP19func_ov069_0215a84cEv kind:function(arm,size=0x1c) addr:0x0215c58c
_ZN12ActorUnkRBRP19func_ov069_0215a868Ev kind:function(arm,size=0x1c) addr:0x0215c5a8
_ZN19ActorProfileUnkRBRPD1Ev kind:function(arm,size=0x14) addr:0x0215c5c4
_ZN23MapObjectProfileUnkGTRB10GetProfileEv kind:function(arm,size=0xc) addr:0x0215c5d8
_ZN23MapObjectProfileUnkGTRB6CreateEv kind:function(arm,size=0x24) addr:0x0215c5e4
_ZN23MapObjectProfileUnkGTRBC1Ev kind:function(arm,size=0x2c) addr:0x0215c608
_ZN16MapObjectUnkGTRBC1Ev kind:function(arm,size=0x88) addr:0x0215c634
_ZN16MapObjectUnkGTRB19func_ov069_0215a97cEv kind:function(arm,size=0x50) addr:0x0215c6bc
_ZN16MapObjectUnkGTRB19func_ov069_0215a9ccEv kind:function(arm,size=0x1c) addr:0x0215c70c
_ZN16MapObjectUnkGTRB19func_ov069_0215a9e8Ev kind:function(arm,size=0x14) addr:0x0215c728
_ZN16MapObjectUnkGTRB19func_ov069_0215a9fcEv kind:function(arm,size=0x1c) addr:0x0215c73c
_ZN16MapObjectUnkGTRB19func_ov069_0215aa18Ev kind:function(arm,size=0x20) addr:0x0215c758
_ZN16MapObjectUnkGTRBD1Ev kind:function(arm,size=0x20) addr:0x0215c778
_ZN16MapObjectUnkGTRBD0Ev kind:function(arm,size=0x28) addr:0x0215c798
_ZN23MapObjectProfileUnkGTRBD1Ev kind:function(arm,size=0x14) addr:0x0215c7c0
data_ov069_0215c7dc kind:data(any) addr:0x0215c7dc
__sinit_ActorUnkBANI.cpp kind:function(arm,size=0x50) addr:0x0215c7e8
__sinit_ActorUnkRB1F.cpp kind:function(arm,size=0x50) addr:0x0215c838
__sinit_ov069_0215c888 kind:function(arm,size=0x50) addr:0x0215c888
__sinit_ActorUnkRBRP.cpp kind:function(arm,size=0x50) addr:0x0215c8d8
__sinit_MapObjectUnkGTRB.cpp kind:function(arm,size=0x50) addr:0x0215c928
.p__sinit_ActorUnkBANI.cpp kind:data(word) addr:0x0215c978
.p__sinit_ActorUnkRB1F.cpp kind:data(word) addr:0x0215c97c
.p__sinit_ov069_0215c888 kind:data(word) addr:0x0215c980
.p__sinit_ActorUnkRBRP.cpp kind:data(word) addr:0x0215c984
.p__sinit_MapObjectUnkGTRB.cpp kind:data(word) addr:0x0215c988
_ZTV19data_ov069_0215c9a0 kind:data(any) addr:0x0215c9a0
data_ov069_0215c9cc kind:data(any) addr:0x0215c9cc
data_ov069_0215ca10 kind:data(any) addr:0x0215ca10
_ZTV19data_ov069_0215ca70 kind:data(any) addr:0x0215ca70
_ZTV19data_ov069_0215cae4 kind:data(any) addr:0x0215cae4 ambiguous
_ZTV19data_ov069_0215cb8c kind:data(any) addr:0x0215cb8c
_ZTV19data_ov069_0215cc34 kind:data(any) addr:0x0215cc34 ambiguous
data_ov069_0215ccb0 kind:data(any) addr:0x0215ccb0
data_ov069_0215ccb4 kind:data(any) addr:0x0215ccb4
_ZTV19data_ov069_0215cccc kind:data(any) addr:0x0215cccc
data_ov069_0215ccf8 kind:data(any) addr:0x0215ccf8
data_ov069_0215cd38 kind:data(any) addr:0x0215cd38
data_ov069_0215cd80 kind:data(any) addr:0x0215cd80
data_ov069_0215cdbc kind:data(any) addr:0x0215cdbc ambiguous
data_ov069_0215cdc8 kind:data(any) addr:0x0215cdc8
_ZTV19data_ov069_0215ce28 kind:data(any) addr:0x0215ce28
_ZTV19data_ov069_0215ce68 kind:data(any) addr:0x0215ce68 ambiguous
data_ov069_0215cf4c kind:data(any) addr:0x0215cf4c
data_ov069_0215cf70 kind:data(any) addr:0x0215cf70
data_ov069_0215cf74 kind:data(any) addr:0x0215cf74
data_ov069_0215cf84 kind:data(any) addr:0x0215cf84
data_ov069_0215cf94 kind:data(any) addr:0x0215cf94
data_ov069_0215cfac kind:data(any) addr:0x0215cfac
_ZTV19data_ov069_0215cfc4 kind:data(any) addr:0x0215cfc4
data_ov069_0215cff0 kind:data(any) addr:0x0215cff0
data_ov069_0215d004 kind:data(any) addr:0x0215d004 ambiguous
data_ov069_0215d038 kind:data(any) addr:0x0215d038
_ZTV19data_ov069_0215d07c kind:data(any) addr:0x0215d07c
data_ov069_0215d0e0 kind:data(any) addr:0x0215d0e0 ambiguous
data_ov069_0215d0e4 kind:data(any) addr:0x0215d0e4
data_ov069_0215d100 kind:data(any) addr:0x0215d100
data_ov069_0215d114 kind:data(any) addr:0x0215d114 ambiguous
_ZGVN15ProfileInstanceI19ActorProfileUnkBANIE8sProfileE kind:bss addr:0x0215d140
@33091 kind:bss addr:0x0215d144
_ZN15ProfileInstanceI19ActorProfileUnkBANIE8sProfileE kind:bss addr:0x0215d150
data_ov069_0215d1ec kind:bss addr:0x0215d1ec ambiguous
data_ov069_0215d204 kind:bss addr:0x0215d204 ambiguous
data_ov069_0215d208 kind:bss addr:0x0215d208 ambiguous
_ZGVN15ProfileInstanceI19ActorProfileUnkRB1FE8sProfileE kind:bss addr:0x0215d228
@33097 kind:bss addr:0x0215d22c
_ZN15ProfileInstanceI19ActorProfileUnkRB1FE8sProfileE kind:bss addr:0x0215d238
data_ov069_0215d24c kind:bss addr:0x0215d24c ambiguous
data_ov069_0215d310 kind:bss addr:0x0215d310
data_ov069_0215d314 kind:bss addr:0x0215d314
data_ov069_0215d320 kind:bss addr:0x0215d320
_ZGVN15ProfileInstanceI19ActorProfileUnkRBRPE8sProfileE kind:bss addr:0x0215d340
@33103 kind:bss addr:0x0215d344
_ZN15ProfileInstanceI19ActorProfileUnkRBRPE8sProfileE kind:bss addr:0x0215d350
data_ov069_0215d428 kind:bss addr:0x0215d428
data_ov069_0215d42c kind:bss addr:0x0215d42c
_ZN15ProfileInstanceI23MapObjectProfileUnkGTRBE8sProfileE kind:bss addr:0x0215d438
