_ZN19ActorProfileUnkBGOK10GetProfileEv kind:function(arm,size=0xc) addr:0x02152c20
_ZN19ActorProfileUnkBGOK6CreateEv kind:function(arm,size=0x24) addr:0x02152c2c
_ZN19ActorProfileUnkBGOKC1Ev kind:function(arm,size=0x5c) addr:0x02152c50
_ZN12ActorUnkBGOK19func_ov076_02152cacEv kind:function(arm,size=0x14) addr:0x02152cac
_ZN12ActorUnkBGOK19func_ov076_02152cc0Ev kind:function(arm,size=0x14) addr:0x02152cc0
_ZN12ActorUnkBGOK19func_ov076_02152cd4Ev kind:function(arm,size=0x14) addr:0x02152cd4
_ZN12ActorUnkBGOKC1Ev kind:function(arm,size=0x204) addr:0x02152ce8
_ZN12ActorUnkBGOK19func_ov076_02152eecEv kind:function(arm,size=0xa8) addr:0x02152eec
_ZN12ActorUnkBGOK19func_ov076_02152f94Ev kind:function(arm,size=0x30) addr:0x02152f94
_ZN12ActorUnkBGOK19func_ov076_02152fc4Ev kind:function(arm,size=0x54) addr:0x02152fc4
_ZN12ActorUnkBGOK19func_ov076_02153018Ev kind:function(arm,size=0x110) addr:0x02153018
_ZN12ActorUnkBGOK19func_ov076_02153128Ev kind:function(arm,size=0x148) addr:0x02153128
_ZN12ActorUnkBGOK19func_ov076_02153270Ev kind:function(arm,size=0x28) addr:0x02153270
_ZN12ActorUnkBGOK19func_ov076_02153298Ev kind:function(arm,size=0x300) addr:0x02153298
_ZN12ActorUnkBGOK19func_ov076_02153598Ev kind:function(arm,size=0x140) addr:0x02153598
_ZN12ActorUnkBGOK19func_ov076_021536d8Ev kind:function(arm,size=0x2c) addr:0x021536d8
_ZN12ActorUnkBGOK19func_ov076_02153704Ev kind:function(arm,size=0xa8) addr:0x02153704
_ZN12ActorUnkBGOK19func_ov076_021537acEv kind:function(arm,size=0x38) addr:0x021537ac
_ZN12ActorUnkBGOK19func_ov076_021537e4Ev kind:function(arm,size=0x74) addr:0x021537e4
_ZN12ActorUnkBGOK19func_ov076_02153858Ev kind:function(arm,size=0xe4) addr:0x02153858
_ZN12ActorUnkBGOK19func_ov076_0215393cEv kind:function(arm,size=0x80) addr:0x0215393c
_ZN12ActorUnkBGOK19func_ov076_021539bcEv kind:function(arm,size=0xc8) addr:0x021539bc
_ZN12ActorUnkBGOK19func_ov076_02153a84Ev kind:function(arm,size=0x80) addr:0x02153a84
_ZN12ActorUnkBGOK19func_ov076_02153b04Ev kind:function(arm,size=0x28) addr:0x02153b04
_ZN12ActorUnkBGOK19func_ov076_02153b2cEv kind:function(arm,size=0xac) addr:0x02153b2c
_ZN12ActorUnkBGOK19func_ov076_02153bd8Ev kind:function(arm,size=0x34) addr:0x02153bd8
_ZN12ActorUnkBGOK19func_ov076_02153c0cEv kind:function(arm,size=0x6c) addr:0x02153c0c
_ZN12ActorUnkBGOK19func_ov076_02153c78Ev kind:function(arm,size=0x4) addr:0x02153c78
_ZN12ActorUnkBGOK19func_ov076_02153c7cEv kind:function(arm,size=0x1c) addr:0x02153c7c
_ZN12ActorUnkBGOK19func_ov076_02153c98Ev kind:function(arm,size=0x18) addr:0x02153c98
_ZN12ActorUnkBGOK19func_ov076_02153cb0Ev kind:function(arm,size=0xc0) addr:0x02153cb0
_ZN12ActorUnkBGOK19func_ov076_02153d70Ev kind:function(arm,size=0x210) addr:0x02153d70
_ZN12ActorUnkBGOK19func_ov076_02153f80Ev kind:function(arm,size=0x90) addr:0x02153f80
_ZN12ActorUnkBGOK19func_ov076_02154010Ev kind:function(arm,size=0xb4) addr:0x02154010
_ZN12ActorUnkBGOK19func_ov076_021540c4Ev kind:function(arm,size=0x16c) addr:0x021540c4
_ZN12ActorUnkBGOK19func_ov076_02154230Ev kind:function(arm,size=0x1f4) addr:0x02154230
_ZN12ActorUnkBGOK19func_ov076_02154424Ev kind:function(arm,size=0x80) addr:0x02154424
_ZN12ActorUnkBGOK19func_ov076_021544a4Ev kind:function(arm,size=0x144) addr:0x021544a4
_ZN12ActorUnkBGOK19func_ov076_021545e8Ev kind:function(arm,size=0x3c) addr:0x021545e8
_ZN12ActorUnkBGOK19func_ov076_02154624Ev kind:function(arm,size=0x80) addr:0x02154624
_ZN12ActorUnkBGOK19func_ov076_021546a4Ev kind:function(arm,size=0x20) addr:0x021546a4
_ZN12ActorUnkBGOK19func_ov076_021546c4Ev kind:function(arm,size=0x14) addr:0x021546c4
_ZN12ActorUnkBGOK19func_ov076_021546d8Ev kind:function(arm,size=0x12c) addr:0x021546d8
_ZN12ActorUnkBGOK19func_ov076_02154804Ev kind:function(arm,size=0x74) addr:0x02154804
_ZN12ActorUnkBGOK19func_ov076_02154878Ev kind:function(arm,size=0x30) addr:0x02154878
_ZN12ActorUnkBGOK19func_ov076_021548a8Ev kind:function(arm,size=0x24) addr:0x021548a8
_ZN12ActorUnkBGOKD0Ev kind:function(arm,size=0x94) addr:0x021548cc
_ZN12ActorUnkBGOK19func_ov076_02154960Ev kind:function(arm,size=0x8c) addr:0x02154960
_ZN12ActorUnkBGOK19func_ov076_021549ecEv kind:function(arm,size=0x24) addr:0x021549ec
_ZN12ActorUnkBGOK19func_ov076_02154a10Ev kind:function(arm,size=0x10) addr:0x02154a10
_ZN12ActorUnkBGOK19func_ov076_02154a20Ev kind:function(arm,size=0x8) addr:0x02154a20
_ZN12ActorUnkBGOK19func_ov076_02154a28Ev kind:function(arm,size=0x24) addr:0x02154a28
_ZN12ActorUnkBGOK19func_ov076_02154a4cEv kind:function(arm,size=0x2c) addr:0x02154a4c
_ZN12ActorUnkBGOK19func_ov076_02154a78Ev kind:function(arm,size=0x1c) addr:0x02154a78
_ZN12ActorUnkBGOK19func_ov076_02154a94Ev kind:function(arm,size=0x1c) addr:0x02154a94
_ZN12ActorUnkBGOK19func_ov076_02154ab0Ev kind:function(arm,size=0x1c) addr:0x02154ab0
_ZN19ActorProfileUnkBGOKD1Ev kind:function(arm,size=0x14) addr:0x02154acc
data_ov076_02154ae0 kind:data(any) addr:0x02154ae0
data_ov076_02154af0 kind:data(any) addr:0x02154af0
__sinit_ActorUnkBGOK.cpp kind:function(arm,size=0x50) addr:0x02154b00
.p__sinit_ActorUnkBGOK.cpp kind:data(word) addr:0x02154b50
data_ov076_02154b60 kind:data(any) addr:0x02154b60
data_ov076_02154b74 kind:data(any) addr:0x02154b74 ambiguous
data_ov076_02154b80 kind:data(any) addr:0x02154b80
_ZTV19data_ov076_02154b94 kind:data(any) addr:0x02154b94
data_ov076_02154bc0 kind:data(any) addr:0x02154bc0
data_ov076_02154be0 kind:data(any) addr:0x02154be0 ambiguous
data_ov076_02154c08 kind:data(any) addr:0x02154c08
data_ov076_02154c4c kind:data(any) addr:0x02154c4c
data_ov076_02154ca4 kind:data(any) addr:0x02154ca4
data_ov076_02154cfc kind:data(any) addr:0x02154cfc
data_ov076_02154d14 kind:data(any) addr:0x02154d14
data_ov076_02154d2c kind:data(any) addr:0x02154d2c
data_ov076_02154d44 kind:data(any) addr:0x02154d44
_ZTV19data_ov076_02154d5c kind:data(any) addr:0x02154d5c
data_ov076_02154dc0 kind:bss addr:0x02154dc0
data_ov076_02154dc4 kind:bss addr:0x02154dc4
sActorProfileUnkBGOK kind:bss addr:0x02154dd0
