func_ov094_021658a0 kind:function(arm,size=0x98) addr:0x021658a0
_ZN19func_ov094_02165938D1Ev kind:function(arm,size=0x28) addr:0x02165938
_ZN19func_ov094_02165960D0Ev kind:function(arm,size=0x30) addr:0x02165960
func_ov094_02165990 kind:function(arm,size=0x170) addr:0x02165990
func_ov094_02165b00 kind:function(arm,size=0x98) addr:0x02165b00
func_ov094_02165b98 kind:function(arm,size=0x18) addr:0x02165b98
func_ov094_02165bb0 kind:function(arm,size=0x20) addr:0x02165bb0
func_ov094_02165bd0 kind:function(arm,size=0x8) addr:0x02165bd0
func_ov094_02165bd8 kind:function(arm,size=0x2c) addr:0x02165bd8
func_ov094_02165c04 kind:function(arm,size=0x3c) addr:0x02165c04
func_ov094_02165c40 kind:function(arm,size=0x34) addr:0x02165c40
func_ov094_02165c74 kind:function(arm,size=0xe0) addr:0x02165c74
func_ov094_02165d54 kind:function(arm,size=0x74) addr:0x02165d54
func_ov094_02165dc8 kind:function(arm,size=0x20) addr:0x02165dc8
func_ov094_02165de8 kind:function(arm,size=0x240) addr:0x02165de8
func_ov094_02166028 kind:function(arm,size=0x8) addr:0x02166028
func_ov094_02166030 kind:function(arm,size=0x8) addr:0x02166030
_ZN19ActorProfileUnkLOCK10GetProfileEv kind:function(arm,size=0xc) addr:0x02166038
_ZN19ActorProfileUnkLOCK6CreateEv kind:function(arm,size=0x24) addr:0x02166044
_ZN19ActorProfileUnkLOCKC1Ev kind:function(arm,size=0x40) addr:0x02166068
_ZN12ActorUnkLOCKC1Ev kind:function(arm,size=0x80) addr:0x021660a8
_ZN12ActorUnkLOCK19func_ov094_02166128Ev kind:function(arm,size=0x14) addr:0x02166128
_ZN12ActorUnkLOCK19func_ov094_0216613cEv kind:function(arm,size=0x8) addr:0x0216613c
_ZN12ActorUnkLOCK19func_ov094_02166144Ev kind:function(arm,size=0xc) addr:0x02166144
_ZN12ActorUnkLOCK19func_ov094_02166150Ev kind:function(arm,size=0x4) addr:0x02166150
_ZN12ActorUnkLOCK19func_ov094_02166154Ev kind:function(arm,size=0x130) addr:0x02166154
_ZN12ActorUnkLOCKD1Ev kind:function(arm,size=0x14) addr:0x02166284
_ZN12ActorUnkLOCKD0Ev kind:function(arm,size=0x1c) addr:0x02166298
_ZN19ActorProfileUnkLOCKD1Ev kind:function(arm,size=0x14) addr:0x021662b4
_ZN19ActorProfileUnkPSWB10GetProfileEv kind:function(arm,size=0xc) addr:0x021662c8
_ZN19ActorProfileUnkPSWB6CreateEv kind:function(arm,size=0x24) addr:0x021662d4
_ZN19ActorProfileUnkPSWBC1Ev kind:function(arm,size=0x12c) addr:0x021662f8
_ZN12ActorUnkPSWBD1Ev kind:function(arm,size=0x14) addr:0x02166424
_ZN12ActorUnkPSWBD0Ev kind:function(arm,size=0x1c) addr:0x02166438
_ZN12ActorUnkPSWB19func_ov094_02166454Ev kind:function(arm,size=0x128) addr:0x02166454
_ZN12ActorUnkPSWBC1Ev kind:function(arm,size=0x104) addr:0x0216657c
_ZN12ActorUnkPSWB19func_ov094_02166680Ev kind:function(arm,size=0x14) addr:0x02166680
_ZN12ActorUnkPSWB19func_ov094_02166694Ev kind:function(arm,size=0x58) addr:0x02166694
_ZN12ActorUnkPSWB19func_ov094_021666ecEv kind:function(arm,size=0x60) addr:0x021666ec
_ZN12ActorUnkPSWB19func_ov094_0216674cEv kind:function(arm,size=0x144) addr:0x0216674c
_ZN12ActorUnkPSWB19func_ov094_02166890Ev kind:function(arm,size=0x3c) addr:0x02166890
_ZN12ActorUnkPSWB19func_ov094_021668ccEv kind:function(arm,size=0x14) addr:0x021668cc
_ZN12ActorUnkPSWB19func_ov094_021668e0Ev kind:function(arm,size=0x44) addr:0x021668e0
_ZN12ActorUnkPSWB19func_ov094_02166924Ev kind:function(arm,size=0x290) addr:0x02166924
_ZN12ActorUnkPSWB19func_ov094_02166bb4Ev kind:function(arm,size=0x18) addr:0x02166bb4
_ZN12ActorUnkPSWB19func_ov094_02166bccEv kind:function(arm,size=0x44) addr:0x02166bcc
_ZN12ActorUnkPSWB19func_ov094_02166c10Ev kind:function(arm,size=0x1c) addr:0x02166c10
_ZN12ActorUnkPSWB19func_ov094_02166c2cEv kind:function(arm,size=0x5c) addr:0x02166c2c
_ZN12ActorUnkPSWB19func_ov094_02166c88Ev kind:function(arm,size=0x188) addr:0x02166c88
_ZN12ActorUnkPSWB19func_ov094_02166e10Ev kind:function(arm,size=0x50) addr:0x02166e10
_ZN12ActorUnkPSWB19func_ov094_02166e60Ev kind:function(arm,size=0x134) addr:0x02166e60
_ZN12ActorUnkPSWB19func_ov094_02166f94Ev kind:function(arm,size=0x90) addr:0x02166f94
_ZN12ActorUnkPSWB19func_ov094_02167024Ev kind:function(arm,size=0x200) addr:0x02167024
_ZN12ActorUnkPSWB19func_ov094_02167224Ev kind:function(arm,size=0x18) addr:0x02167224
_ZN12ActorUnkPSWB19func_ov094_0216723cEv kind:function(arm,size=0x2dc) addr:0x0216723c
_ZN12ActorUnkPSWB19func_ov094_02167518Ev kind:function(arm,size=0x94) addr:0x02167518
_ZN12ActorUnkPSWB19func_ov094_021675acEv kind:function(arm,size=0x68) addr:0x021675ac
_ZN12ActorUnkPSWB19func_ov094_02167614Ev kind:function(arm,size=0x74) addr:0x02167614
_ZN12ActorUnkPSWB19func_ov094_02167688Ev kind:function(arm,size=0x68) addr:0x02167688
_ZN12ActorUnkPSWB19func_ov094_021676f0Ev kind:function(arm,size=0x4) addr:0x021676f0
_ZN12ActorUnkPSWB19func_ov094_021676f4Ev kind:function(arm,size=0xa0) addr:0x021676f4
_ZN12ActorUnkPSWB19func_ov094_02167794Ev kind:function(arm,size=0x88) addr:0x02167794
_ZN12ActorUnkPSWB19func_ov094_0216781cEv kind:function(arm,size=0x20) addr:0x0216781c
_ZN12ActorUnkPSWB19func_ov094_0216783cEv kind:function(arm,size=0x8) addr:0x0216783c
_ZN12ActorUnkPSWB19func_ov094_02167844Ev kind:function(arm,size=0x8) addr:0x02167844
_ZN12ActorUnkPSWB19func_ov094_0216784cEv kind:function(arm,size=0x260) addr:0x0216784c
_ZN12ActorUnkPSWB19func_ov094_02167aacEv kind:function(arm,size=0xc) addr:0x02167aac
_ZN12ActorUnkPSWB19func_ov094_02167ab8Ev kind:function(arm,size=0x6c) addr:0x02167ab8
_ZN12ActorUnkPSWB19func_ov094_02167b24Ev kind:function(arm,size=0x40) addr:0x02167b24
_ZN12ActorUnkPSWB19func_ov094_02167b64Ev kind:function(arm,size=0x8c) addr:0x02167b64
_ZN12ActorUnkPSWB19func_ov094_02167bf0Ev kind:function(arm,size=0x64) addr:0x02167bf0
_ZN12ActorUnkPSWB19func_ov094_02167c54Ev kind:function(arm,size=0xcc) addr:0x02167c54
_ZN12ActorUnkPSWB19func_ov094_02167d20Ev kind:function(arm,size=0x9c) addr:0x02167d20
_ZN12ActorUnkPSWB19func_ov094_02167dbcEv kind:function(arm,size=0x9c) addr:0x02167dbc
_ZN12ActorUnkPSWB19func_ov094_02167e58Ev kind:function(arm,size=0x364) addr:0x02167e58
_ZN12ActorUnkPSWB19func_ov094_021681bcEv kind:function(arm,size=0xa0) addr:0x021681bc
_ZN12ActorUnkPSWB19func_ov094_0216825cEv kind:function(arm,size=0xb4) addr:0x0216825c
_ZN12ActorUnkPSWB19func_ov094_02168310Ev kind:function(arm,size=0x38) addr:0x02168310
_ZN12ActorUnkPSWB19func_ov094_02168348Ev kind:function(arm,size=0x1c) addr:0x02168348
_ZN12ActorUnkPSWB19func_ov094_02168364Ev kind:function(arm,size=0x24) addr:0x02168364
_ZN12ActorUnkPSWB19func_ov094_02168388Ev kind:function(arm,size=0x3c) addr:0x02168388
_ZN19ActorProfileUnkPSWBD1Ev kind:function(arm,size=0x14) addr:0x021683c4
_ZN19ActorProfileUnkVRGN10GetProfileEv kind:function(arm,size=0xc) addr:0x021683d8
_ZN19ActorProfileUnkVRGN6CreateEv kind:function(arm,size=0x24) addr:0x021683e4
_ZN19ActorProfileUnkVRGNC1Ev kind:function(arm,size=0x34) addr:0x02168408
_ZN12ActorUnkVRGNC1Ev kind:function(arm,size=0x2c) addr:0x0216843c
_ZN12ActorUnkVRGN19func_ov094_02168468Ev kind:function(arm,size=0x34) addr:0x02168468
_ZN12ActorUnkVRGN19func_ov094_0216849cEv kind:function(arm,size=0xec) addr:0x0216849c
_ZN12ActorUnkVRGN19func_ov094_02168588Ev kind:function(arm,size=0x34) addr:0x02168588
_ZN12ActorUnkVRGN19func_ov094_021685bcEv kind:function(arm,size=0x68) addr:0x021685bc
_ZN12ActorUnkVRGN19func_ov094_02168624Ev kind:function(arm,size=0x358) addr:0x02168624
_ZN12ActorUnkVRGND1Ev kind:function(arm,size=0x14) addr:0x0216897c
_ZN12ActorUnkVRGND0Ev kind:function(arm,size=0x1c) addr:0x02168990
_ZN19ActorProfileUnkVRGND1Ev kind:function(arm,size=0x14) addr:0x021689ac
_ZN19ActorProfileUnkVLCR10GetProfileEv kind:function(arm,size=0xc) addr:0x021689c0
_ZN19ActorProfileUnkVLCR6CreateEv kind:function(arm,size=0x24) addr:0x021689cc
_ZN19ActorProfileUnkVLCRC1Ev kind:function(arm,size=0x40) addr:0x021689f0
_ZN12ActorUnkVLCRC1Ev kind:function(arm,size=0x180) addr:0x02168a30
_ZN12ActorUnkVLCR19func_ov094_02168bb0Ev kind:function(arm,size=0x1b4) addr:0x02168bb0
_ZN12ActorUnkVLCR19func_ov094_02168d64Ev kind:function(arm,size=0x10) addr:0x02168d64
_ZN12ActorUnkVLCR19func_ov094_02168d74Ev kind:function(arm,size=0x3c) addr:0x02168d74
_ZN12ActorUnkVLCR19func_ov094_02168db0Ev kind:function(arm,size=0xb0) addr:0x02168db0
_ZN12ActorUnkVLCR19func_ov094_02168e60Ev kind:function(arm,size=0x204) addr:0x02168e60
_ZN12ActorUnkVLCR19func_ov094_02169064Ev kind:function(arm,size=0x128) addr:0x02169064
_ZN12ActorUnkVLCR19func_ov094_0216918cEv kind:function(arm,size=0x4c) addr:0x0216918c
_ZN12ActorUnkVLCR19func_ov094_021691d8Ev kind:function(arm,size=0x16c) addr:0x021691d8
_ZN12ActorUnkVLCR19func_ov094_02169344Ev kind:function(arm,size=0x40) addr:0x02169344
_ZN12ActorUnkVLCR19func_ov094_02169384Ev kind:function(arm,size=0x38) addr:0x02169384
_ZN12ActorUnkVLCR19func_ov094_021693bcEv kind:function(arm,size=0xc) addr:0x021693bc
_ZN12ActorUnkVLCR19func_ov094_021693c8Ev kind:function(arm,size=0xcc) addr:0x021693c8
_ZN12ActorUnkVLCR19func_ov094_02169494Ev kind:function(arm,size=0xc) addr:0x02169494
_ZN12ActorUnkVLCRD1Ev kind:function(arm,size=0x40) addr:0x021694a0
_ZN12ActorUnkVLCRD0Ev kind:function(arm,size=0x48) addr:0x021694e0
_ZN19ActorProfileUnkVLCRD1Ev kind:function(arm,size=0x14) addr:0x02169528
_ZN19ActorProfileUnkSYRN10GetProfileEv kind:function(arm,size=0xc) addr:0x0216953c
_ZN19ActorProfileUnkSYRN6CreateEv kind:function(arm,size=0x28) addr:0x02169548
_ZN19ActorProfileUnkSYRNC1Ev kind:function(arm,size=0x78) addr:0x02169570
_ZN12ActorUnkSYRNC1Ev kind:function(arm,size=0x26c) addr:0x021695e8
_ZN12ActorUnkSYRN19func_ov094_02169854Ev kind:function(arm,size=0x14) addr:0x02169854
_ZN12ActorUnkSYRN19func_ov094_02169868Ev kind:function(arm,size=0x14) addr:0x02169868
_ZN12ActorUnkSYRND1Ev kind:function(arm,size=0x64) addr:0x0216987c
_ZN12ActorUnkSYRND0Ev kind:function(arm,size=0x6c) addr:0x021698e0
_ZN12ActorUnkSYRN19func_ov094_0216994cEv kind:function(arm,size=0xa0) addr:0x0216994c
_ZN12ActorUnkSYRN19func_ov094_021699ecEv kind:function(arm,size=0x138) addr:0x021699ec
_ZN12ActorUnkSYRN19func_ov094_02169b24Ev kind:function(arm,size=0x100) addr:0x02169b24
_ZN12ActorUnkSYRN19func_ov094_02169c24Ev kind:function(arm,size=0x8) addr:0x02169c24
_ZN12ActorUnkSYRN19func_ov094_02169c2cEv kind:function(arm,size=0x18) addr:0x02169c2c
_ZN12ActorUnkSYRN19func_ov094_02169c44Ev kind:function(arm,size=0xb8) addr:0x02169c44
_ZN12ActorUnkSYRN19func_ov094_02169cfcEv kind:function(arm,size=0xd4) addr:0x02169cfc
_ZN12ActorUnkSYRN19func_ov094_02169dd0Ev kind:function(arm,size=0xe4) addr:0x02169dd0
_ZN12ActorUnkSYRN19func_ov094_02169eb4Ev kind:function(arm,size=0xa0) addr:0x02169eb4
_ZN12ActorUnkSYRN19func_ov094_02169f54Ev kind:function(arm,size=0xa8) addr:0x02169f54
_ZN12ActorUnkSYRN19func_ov094_02169ffcEv kind:function(arm,size=0x24) addr:0x02169ffc
_ZN12ActorUnkSYRN19func_ov094_0216a020Ev kind:function(arm,size=0x10) addr:0x0216a020
_ZN12ActorUnkSYRN19func_ov094_0216a030Ev kind:function(arm,size=0x1c) addr:0x0216a030
_ZN12ActorUnkSYRN19func_ov094_0216a04cEv kind:function(arm,size=0x24) addr:0x0216a04c
_ZN12ActorUnkSYRN19func_ov094_0216a070Ev kind:function(arm,size=0x2c) addr:0x0216a070
_ZN12ActorUnkSYRN19func_ov094_0216a09cEv kind:function(arm,size=0x1c) addr:0x0216a09c
_ZN12ActorUnkSYRN19func_ov094_0216a0b8Ev kind:function(arm,size=0x28) addr:0x0216a0b8
_ZN12ActorUnkSYRND2Ev kind:function(arm,size=0x20) addr:0x0216a0e0
_ZN19ActorProfileUnkSYRND1Ev kind:function(arm,size=0x14) addr:0x0216a100
func_ov094_0216a114 kind:function(arm,size=0x38) addr:0x0216a114
func_ov094_0216a14c kind:function(arm,size=0x1d4) addr:0x0216a14c
_ZN19ActorProfileUnkSTTG10GetProfileEv kind:function(arm,size=0xc) addr:0x0216a320
_ZN19ActorProfileUnkSTTG6CreateEv kind:function(arm,size=0x24) addr:0x0216a32c
_ZN19ActorProfileUnkSTTGC1Ev kind:function(arm,size=0x4c) addr:0x0216a350
_ZN12ActorUnkSTTGC1Ev kind:function(arm,size=0x104) addr:0x0216a39c
_ZN12ActorUnkSTTG19func_ov094_0216a4a0Ev kind:function(arm,size=0x14) addr:0x0216a4a0
_ZN12ActorUnkSTTGD1Ev kind:function(arm,size=0x20) addr:0x0216a4b4
_ZN12ActorUnkSTTGD0Ev kind:function(arm,size=0x28) addr:0x0216a4d4
_ZN12ActorUnkSTTG19func_ov094_0216a4fcEv kind:function(arm,size=0xd8) addr:0x0216a4fc
_ZN12ActorUnkSTTG19func_ov094_0216a5d4Ev kind:function(arm,size=0x2c) addr:0x0216a5d4
_ZN12ActorUnkSTTG19func_ov094_0216a600Ev kind:function(arm,size=0x14c) addr:0x0216a600
_ZN12ActorUnkSTTG19func_ov094_0216a74cEv kind:function(arm,size=0x14) addr:0x0216a74c
_ZN12ActorUnkSTTG19func_ov094_0216a760Ev kind:function(arm,size=0x8) addr:0x0216a760
_ZN12ActorUnkSTTG19func_ov094_0216a768Ev kind:function(arm,size=0x20) addr:0x0216a768
_ZN12ActorUnkSTTG19func_ov094_0216a788Ev kind:function(arm,size=0xc4) addr:0x0216a788
_ZN12ActorUnkSTTG19func_ov094_0216a84cEv kind:function(arm,size=0x24) addr:0x0216a84c
_ZN12ActorUnkSTTG19func_ov094_0216a870Ev kind:function(arm,size=0xb8) addr:0x0216a870
_ZN12ActorUnkSTTG19func_ov094_0216a928Ev kind:function(arm,size=0x150) addr:0x0216a928
_ZN12ActorUnkSTTG19func_ov094_0216aa78Ev kind:function(arm,size=0x6c) addr:0x0216aa78
_ZN12ActorUnkSTTG19func_ov094_0216aae4Ev kind:function(arm,size=0x50) addr:0x0216aae4
_ZN12ActorUnkSTTG19func_ov094_0216ab34Ev kind:function(arm,size=0x274) addr:0x0216ab34
_ZN12ActorUnkSTTG19func_ov094_0216ada8Ev kind:function(arm,size=0x118) addr:0x0216ada8
_ZN12ActorUnkSTTG19func_ov094_0216aec0Ev kind:function(arm,size=0x28) addr:0x0216aec0
_ZN12ActorUnkSTTG19func_ov094_0216aee8Ev kind:function(arm,size=0x268) addr:0x0216aee8
_ZN12ActorUnkSTTG19func_ov094_0216b150Ev kind:function(arm,size=0x38) addr:0x0216b150
_ZN12ActorUnkSTTG19func_ov094_0216b188Ev kind:function(arm,size=0x1c) addr:0x0216b188
_ZN12ActorUnkSTTG19func_ov094_0216b1a4Ev kind:function(arm,size=0x1c) addr:0x0216b1a4
_ZN19ActorProfileUnkSTTGD1Ev kind:function(arm,size=0x14) addr:0x0216b1c0
func_ov094_0216b1d4 kind:function(arm,size=0xb0) addr:0x0216b1d4
_ZN19ActorProfileUnkPCTG10GetProfileEv kind:function(arm,size=0xc) addr:0x0216b284
_ZN19ActorProfileUnkPCTG6CreateEv kind:function(arm,size=0x24) addr:0x0216b290
_ZN19ActorProfileUnkPCTGC1Ev kind:function(arm,size=0xd0) addr:0x0216b2b4
_ZN12ActorUnkPCTGC1Ev kind:function(arm,size=0xb8) addr:0x0216b384
_ZN12ActorUnkPCTGD1Ev kind:function(arm,size=0x20) addr:0x0216b43c
_ZN12ActorUnkPCTGD0Ev kind:function(arm,size=0x28) addr:0x0216b45c
_ZN12ActorUnkPCTG19func_ov094_0216b484Ev kind:function(arm,size=0x218) addr:0x0216b484
_ZN12ActorUnkPCTG19func_ov094_0216b69cEv kind:function(arm,size=0x40) addr:0x0216b69c
_ZN12ActorUnkPCTG19func_ov094_0216b6dcEv kind:function(arm,size=0x38) addr:0x0216b6dc
_ZN12ActorUnkPCTG19func_ov094_0216b714Ev kind:function(arm,size=0x4) addr:0x0216b714
_ZN12ActorUnkPCTG19func_ov094_0216b718Ev kind:function(arm,size=0x140) addr:0x0216b718
_ZN12ActorUnkPCTG19func_ov094_0216b858Ev kind:function(arm,size=0x38) addr:0x0216b858
_ZN12ActorUnkPCTG19func_ov094_0216b890Ev kind:function(arm,size=0x5a8) addr:0x0216b890
_ZN12ActorUnkPCTG19func_ov094_0216be38Ev kind:function(arm,size=0x120) addr:0x0216be38
_ZN12ActorUnkPCTG19func_ov094_0216bf58Ev kind:function(arm,size=0x4c) addr:0x0216bf58
_ZN12ActorUnkPCTG19func_ov094_0216bfa4Ev kind:function(arm,size=0x224) addr:0x0216bfa4
_ZN12ActorUnkPCTG19func_ov094_0216c1c8Ev kind:function(arm,size=0x184) addr:0x0216c1c8
_ZN12ActorUnkPCTG19func_ov094_0216c34cEv kind:function(arm,size=0x20) addr:0x0216c34c
_ZN12ActorUnkPCTG19func_ov094_0216c36cEv kind:function(arm,size=0x2c) addr:0x0216c36c
_ZN19ActorProfileUnkPCTGD1Ev kind:function(arm,size=0x14) addr:0x0216c398
func_ov094_0216c3ac kind:function(arm,size=0x38) addr:0x0216c3ac
func_ov094_0216c3e4 kind:function(arm,size=0x248) addr:0x0216c3e4
_ZN19ActorProfileUnkSPTG10GetProfileEv kind:function(arm,size=0xc) addr:0x0216c62c
_ZN19ActorProfileUnkSPTG6CreateEv kind:function(arm,size=0x24) addr:0x0216c638
_ZN19ActorProfileUnkSPTGC1Ev kind:function(arm,size=0x50) addr:0x0216c65c
_ZN12ActorUnkSPTGC1Ev kind:function(arm,size=0x120) addr:0x0216c6ac
_ZN12ActorUnkSPTG19func_ov094_0216c7ccEv kind:function(arm,size=0x14) addr:0x0216c7cc
_ZN12ActorUnkSPTGD1Ev kind:function(arm,size=0x20) addr:0x0216c7e0
_ZN12ActorUnkSPTGD0Ev kind:function(arm,size=0x28) addr:0x0216c800
_ZN12ActorUnkSPTG19func_ov094_0216c828Ev kind:function(arm,size=0xd8) addr:0x0216c828
_ZN12ActorUnkSPTG19func_ov094_0216c900Ev kind:function(arm,size=0x2c) addr:0x0216c900
_ZN12ActorUnkSPTG19func_ov094_0216c92cEv kind:function(arm,size=0x518) addr:0x0216c92c
_ZN12ActorUnkSPTG19func_ov094_0216ce44Ev kind:function(arm,size=0x14) addr:0x0216ce44
_ZN12ActorUnkSPTG19func_ov094_0216ce58Ev kind:function(arm,size=0x40) addr:0x0216ce58
_ZN12ActorUnkSPTG19func_ov094_0216ce98Ev kind:function(arm,size=0x20) addr:0x0216ce98
_ZN12ActorUnkSPTG19func_ov094_0216ceb8Ev kind:function(arm,size=0xf8) addr:0x0216ceb8
_ZN12ActorUnkSPTG19func_ov094_0216cfb0Ev kind:function(arm,size=0x4) addr:0x0216cfb0
_ZN12ActorUnkSPTG19func_ov094_0216cfb4Ev kind:function(arm,size=0x24) addr:0x0216cfb4
_ZN12ActorUnkSPTG19func_ov094_0216cfd8Ev kind:function(arm,size=0x4) addr:0x0216cfd8
_ZN12ActorUnkSPTG19func_ov094_0216cfdcEv kind:function(arm,size=0x50) addr:0x0216cfdc
_ZN12ActorUnkSPTG19func_ov094_0216d02cEv kind:function(arm,size=0x88) addr:0x0216d02c
_ZN12ActorUnkSPTG19func_ov094_0216d0b4Ev kind:function(arm,size=0x25c) addr:0x0216d0b4
_ZN12ActorUnkSPTG19func_ov094_0216d310Ev kind:function(arm,size=0x4) addr:0x0216d310
_ZN12ActorUnkSPTG19func_ov094_0216d314Ev kind:function(arm,size=0x74) addr:0x0216d314
_ZN12ActorUnkSPTG19func_ov094_0216d388Ev kind:function(arm,size=0x50) addr:0x0216d388
_ZN12ActorUnkSPTG19func_ov094_0216d3d8Ev kind:function(arm,size=0x29c) addr:0x0216d3d8
_ZN12ActorUnkSPTG19func_ov094_0216d674Ev kind:function(arm,size=0xe8) addr:0x0216d674
_ZN12ActorUnkSPTG19func_ov094_0216d75cEv kind:function(arm,size=0x28) addr:0x0216d75c
_ZN12ActorUnkSPTG19func_ov094_0216d784Ev kind:function(arm,size=0x2b8) addr:0x0216d784
_ZN12ActorUnkSPTG19func_ov094_0216da3cEv kind:function(arm,size=0x38) addr:0x0216da3c
_ZN12ActorUnkSPTG19func_ov094_0216da74Ev kind:function(arm,size=0x1c) addr:0x0216da74
_ZN12ActorUnkSPTG19func_ov094_0216da90Ev kind:function(arm,size=0x1c) addr:0x0216da90
_ZN19ActorProfileUnkSPTGD1Ev kind:function(arm,size=0x14) addr:0x0216daac
_ZN19ActorProfileUnkSNOW10GetProfileEv kind:function(arm,size=0xc) addr:0x0216dac0
_ZN19ActorProfileUnkSNOW6CreateEv kind:function(arm,size=0x24) addr:0x0216dacc
_ZN19ActorProfileUnkSNOWC1Ev kind:function(arm,size=0x28) addr:0x0216daf0
_ZN12ActorUnkSNOWC1Ev kind:function(arm,size=0x54) addr:0x0216db18
_ZN12ActorUnkSNOW19func_ov094_0216db6cEv kind:function(arm,size=0xb0) addr:0x0216db6c
_ZN12ActorUnkSNOW19func_ov094_0216dc1cEv kind:function(arm,size=0x30) addr:0x0216dc1c
_ZN12ActorUnkSNOW19func_ov094_0216dc4cEv kind:function(arm,size=0xbc) addr:0x0216dc4c
_ZN12ActorUnkSNOW19func_ov094_0216dd08Ev kind:function(arm,size=0x14) addr:0x0216dd08
_ZN12ActorUnkSNOW19func_ov094_0216dd1cEv kind:function(arm,size=0x14) addr:0x0216dd1c
_ZN12ActorUnkSNOW19func_ov094_0216dd30Ev kind:function(arm,size=0x68) addr:0x0216dd30
_ZN12ActorUnkSNOW19func_ov094_0216dd98Ev kind:function(arm,size=0x10) addr:0x0216dd98
_ZN12ActorUnkSNOW19func_ov094_0216dda8Ev kind:function(arm,size=0x64) addr:0x0216dda8
_ZN12ActorUnkSNOWD1Ev kind:function(arm,size=0x20) addr:0x0216de0c
_ZN12ActorUnkSNOWD0Ev kind:function(arm,size=0x28) addr:0x0216de2c
_ZN19ActorProfileUnkSNOWD1Ev kind:function(arm,size=0x14) addr:0x0216de54
_ZN19ActorProfileUnkFBRG10GetProfileEv kind:function(arm,size=0xc) addr:0x0216de68
_ZN19ActorProfileUnkFBRG6CreateEv kind:function(arm,size=0x24) addr:0x0216de74
_ZN19ActorProfileUnkFBRGC1Ev kind:function(arm,size=0x3c) addr:0x0216de98
_ZN12ActorUnkFBRGC1Ev kind:function(arm,size=0xc0) addr:0x0216ded4
_ZN12ActorUnkFBRG19func_ov094_0216df94Ev kind:function(arm,size=0x14) addr:0x0216df94
_ZN12ActorUnkFBRG19func_ov094_0216dfa8Ev kind:function(arm,size=0x2e8) addr:0x0216dfa8
_ZN12ActorUnkFBRG19func_ov094_0216e290Ev kind:function(arm,size=0x14) addr:0x0216e290
_ZN12ActorUnkFBRG19func_ov094_0216e2a4Ev kind:function(arm,size=0x8) addr:0x0216e2a4
_ZN12ActorUnkFBRG19func_ov094_0216e2acEv kind:function(arm,size=0x28) addr:0x0216e2ac
_ZN12ActorUnkFBRG19func_ov094_0216e2d4Ev kind:function(arm,size=0x20) addr:0x0216e2d4
_ZN12ActorUnkFBRG19func_ov094_0216e2f4Ev kind:function(arm,size=0xc) addr:0x0216e2f4
_ZN12ActorUnkFBRGD0Ev kind:function(arm,size=0x1c) addr:0x0216e300
_ZN12ActorUnkFBRGD1Ev kind:function(arm,size=0x30) addr:0x0216e31c
_ZN12ActorUnkFBRG19func_ov094_0216e34cEv kind:function(arm,size=0x38) addr:0x0216e34c
_ZN19ActorProfileUnkFBRGD1Ev kind:function(arm,size=0x20) addr:0x0216e384
_ZN19ActorProfileUnkKOTA10GetProfileEv kind:function(arm,size=0xc) addr:0x0216e3a4
_ZN19ActorProfileUnkKOTA6CreateEv kind:function(arm,size=0x24) addr:0x0216e3b0
_ZN19ActorProfileUnkKOTAC1Ev kind:function(arm,size=0x34) addr:0x0216e3d4
_ZN12ActorUnkKOTAC1Ev kind:function(arm,size=0x34) addr:0x0216e408
_ZN12ActorUnkKOTA19func_ov094_0216e43cEv kind:function(arm,size=0x8) addr:0x0216e43c
_ZN12ActorUnkKOTA19func_ov094_0216e444Ev kind:function(arm,size=0x4c) addr:0x0216e444
_ZN12ActorUnkKOTA19func_ov094_0216e490Ev kind:function(arm,size=0x14) addr:0x0216e490
_ZN12ActorUnkKOTA19func_ov094_0216e4a4Ev kind:function(arm,size=0x4c) addr:0x0216e4a4
_ZN12ActorUnkKOTA19func_ov094_0216e4f0Ev kind:function(arm,size=0xb4) addr:0x0216e4f0
_ZN12ActorUnkKOTA19func_ov094_0216e5a4Ev kind:function(arm,size=0x458) addr:0x0216e5a4
_ZN12ActorUnkKOTA19func_ov094_0216e9fcEv kind:function(arm,size=0x398) addr:0x0216e9fc
_ZN12ActorUnkKOTA19func_ov094_0216ed94Ev kind:function(arm,size=0x3c) addr:0x0216ed94
_ZN12ActorUnkKOTAD1Ev kind:function(arm,size=0x14) addr:0x0216edd0
_ZN12ActorUnkKOTAD0Ev kind:function(arm,size=0x1c) addr:0x0216ede4
_ZN19ActorProfileUnkKOTAD1Ev kind:function(arm,size=0x14) addr:0x0216ee00
_ZN19ActorProfileUnkEFOC10GetProfileEv kind:function(arm,size=0xc) addr:0x0216ee14
_ZN19ActorProfileUnkEFOC6CreateEv kind:function(arm,size=0x24) addr:0x0216ee20
_ZN19ActorProfileUnkEFOCC1Ev kind:function(arm,size=0x54) addr:0x0216ee44
_ZN12ActorUnkEFOC19func_ov094_0216ee98Ev kind:function(arm,size=0x74) addr:0x0216ee98
_ZN12ActorUnkEFOC19func_ov094_0216ef0cEv kind:function(arm,size=0x64) addr:0x0216ef0c
_ZN12ActorUnkEFOCC1Ev kind:function(arm,size=0xc0) addr:0x0216ef70
_ZN12ActorUnkEFOC19func_ov094_0216f030Ev kind:function(arm,size=0x78) addr:0x0216f030
_ZN12ActorUnkEFOCD0Ev kind:function(arm,size=0x80) addr:0x0216f0a8
_ZN12ActorUnkEFOC19func_ov094_0216f128Ev kind:function(arm,size=0x14) addr:0x0216f128
_ZN12ActorUnkEFOC19func_ov094_0216f13cEv kind:function(arm,size=0xbc) addr:0x0216f13c
_ZN12ActorUnkEFOC19func_ov094_0216f1f8Ev kind:function(arm,size=0x14) addr:0x0216f1f8
_ZN12ActorUnkEFOC19func_ov094_0216f20cEv kind:function(arm,size=0x44) addr:0x0216f20c
_ZN12ActorUnkEFOC19func_ov094_0216f250Ev kind:function(arm,size=0x3c) addr:0x0216f250
_ZN12ActorUnkEFOC19func_ov094_0216f28cEv kind:function(arm,size=0x134) addr:0x0216f28c
_ZN12ActorUnkEFOC19func_ov094_0216f3c0Ev kind:function(arm,size=0x24) addr:0x0216f3c0
_ZN12ActorUnkEFOC19func_ov094_0216f3e4Ev kind:function(arm,size=0x14) addr:0x0216f3e4
_ZN12ActorUnkEFOC19func_ov094_0216f3f8Ev kind:function(arm,size=0x48) addr:0x0216f3f8
_ZN12ActorUnkEFOC19func_ov094_0216f440Ev kind:function(arm,size=0x6c) addr:0x0216f440
_ZN12ActorUnkEFOC19func_ov094_0216f4acEv kind:function(arm,size=0x5c) addr:0x0216f4ac
_ZN12ActorUnkEFOC19func_ov094_0216f508Ev kind:function(arm,size=0x24) addr:0x0216f508
_ZN12ActorUnkEFOC19func_ov094_0216f52cEv kind:function(arm,size=0x4) addr:0x0216f52c
_ZN19ActorProfileUnkEFOCD1Ev kind:function(arm,size=0x14) addr:0x0216f530
func_ov094_0216f544 kind:function(arm,size=0x24) addr:0x0216f544
func_ov094_0216f568 kind:function(arm,size=0x34) addr:0x0216f568
func_ov094_0216f59c kind:function(arm,size=0x1c) addr:0x0216f59c
func_ov094_0216f5b8 kind:function(arm,size=0x168) addr:0x0216f5b8
func_ov094_0216f720 kind:function(arm,size=0x28) addr:0x0216f720
func_ov094_0216f748 kind:function(arm,size=0xb0) addr:0x0216f748
func_ov094_0216f7f8 kind:function(arm,size=0x54) addr:0x0216f7f8
func_ov094_0216f84c kind:function(arm,size=0x100) addr:0x0216f84c
func_ov094_0216f94c kind:function(arm,size=0x20) addr:0x0216f94c
func_ov094_0216f96c kind:function(arm,size=0xa4) addr:0x0216f96c
func_ov094_0216fa10 kind:function(arm,size=0x34) addr:0x0216fa10
_ZN19func_ov094_0216fa44D1Ev kind:function(arm,size=0x20) addr:0x0216fa44
_ZN19func_ov094_0216fa64D0Ev kind:function(arm,size=0x28) addr:0x0216fa64
_ZN19ActorProfileUnkMNCB10GetProfileEv kind:function(arm,size=0xc) addr:0x0216fa8c
_ZN19ActorProfileUnkMNCB6CreateEv kind:function(arm,size=0x24) addr:0x0216fa98
_ZN19ActorProfileUnkMNCBC1Ev kind:function(arm,size=0x44) addr:0x0216fabc
_ZN12ActorUnkMNCBC1Ev kind:function(arm,size=0xc0) addr:0x0216fb00
_ZN12ActorUnkMNCB19func_ov094_0216fbc0Ev kind:function(arm,size=0x14) addr:0x0216fbc0
_ZN12ActorUnkMNCB19func_ov094_0216fbd4Ev kind:function(arm,size=0x8) addr:0x0216fbd4
_ZN12ActorUnkMNCB19func_ov094_0216fbdcEv kind:function(arm,size=0x98) addr:0x0216fbdc
_ZN12ActorUnkMNCB19func_ov094_0216fc74Ev kind:function(arm,size=0x8) addr:0x0216fc74
_ZN12ActorUnkMNCB19func_ov094_0216fc7cEv kind:function(arm,size=0xdc) addr:0x0216fc7c
_ZN12ActorUnkMNCB19func_ov094_0216fd58Ev kind:function(arm,size=0xdc) addr:0x0216fd58
_ZN12ActorUnkMNCB19func_ov094_0216fe34Ev kind:function(arm,size=0x3c) addr:0x0216fe34
_ZN12ActorUnkMNCB19func_ov094_0216fe70Ev kind:function(arm,size=0x178) addr:0x0216fe70
_ZN12ActorUnkMNCB19func_ov094_0216ffe8Ev kind:function(arm,size=0x38c) addr:0x0216ffe8
_ZN12ActorUnkMNCB19func_ov094_02170374Ev kind:function(arm,size=0x210) addr:0x02170374
_ZN12ActorUnkMNCB19func_ov094_02170584Ev kind:function(arm,size=0x50) addr:0x02170584
_ZN12ActorUnkMNCBD1Ev kind:function(arm,size=0x84) addr:0x021705d4
_ZN12ActorUnkMNCBD0Ev kind:function(arm,size=0x8c) addr:0x02170658
_ZN19ActorProfileUnkMNCBD1Ev kind:function(arm,size=0x14) addr:0x021706e4
_ZN19ActorProfileUnkEFR210GetProfileEv kind:function(arm,size=0xc) addr:0x021706f8
_ZN19ActorProfileUnkEFR26CreateEv kind:function(arm,size=0x24) addr:0x02170704
_ZN19ActorProfileUnkEFR2C1Ev kind:function(arm,size=0x30) addr:0x02170728
_ZN12ActorUnkEFR2C1Ev kind:function(arm,size=0x20) addr:0x02170758
_ZN12ActorUnkEFR219func_ov094_02170778Ev kind:function(arm,size=0x9c) addr:0x02170778
_ZN12ActorUnkEFR219func_ov094_02170814Ev kind:function(arm,size=0x1c) addr:0x02170814
_ZN12ActorUnkEFR2D1Ev kind:function(arm,size=0x30) addr:0x02170830
_ZN12ActorUnkEFR2D0Ev kind:function(arm,size=0x38) addr:0x02170860
_ZN19ActorProfileUnkEFR2D1Ev kind:function(arm,size=0x14) addr:0x02170898
_ZN19ActorProfileUnkEFW210GetProfileEv kind:function(arm,size=0xc) addr:0x021708ac
_ZN19ActorProfileUnkEFW26CreateEv kind:function(arm,size=0x24) addr:0x021708b8
_ZN19ActorProfileUnkEFW2C1Ev kind:function(arm,size=0x30) addr:0x021708dc
_ZN12ActorUnkEFW2C1Ev kind:function(arm,size=0x20) addr:0x0217090c
_ZN12ActorUnkEFW219func_ov094_0217092cEv kind:function(arm,size=0x9c) addr:0x0217092c
_ZN12ActorUnkEFW219func_ov094_021709c8Ev kind:function(arm,size=0x1c) addr:0x021709c8
_ZN12ActorUnkEFW2D1Ev kind:function(arm,size=0x30) addr:0x021709e4
_ZN12ActorUnkEFW2D0Ev kind:function(arm,size=0x38) addr:0x02170a14
_ZN19ActorProfileUnkEFW2D1Ev kind:function(arm,size=0x14) addr:0x02170a4c
_ZN23MapObjectProfileUnkFNCE10GetProfileEv kind:function(arm,size=0xc) addr:0x02170a60
_ZN23MapObjectProfileUnkFNCE6CreateEv kind:function(arm,size=0x24) addr:0x02170a6c
_ZN23MapObjectProfileUnkFNCEC1Ev kind:function(arm,size=0x48) addr:0x02170a90
_ZN16MapObjectUnkFNCEC1Ev kind:function(arm,size=0x3c) addr:0x02170ad8
_ZN16MapObjectUnkFNCE19func_ov094_02170b14Ev kind:function(arm,size=0x44) addr:0x02170b14
_ZN16MapObjectUnkFNCE19func_ov094_02170b58Ev kind:function(arm,size=0x1fc) addr:0x02170b58
_ZN16MapObjectUnkFNCE19func_ov094_02170d54Ev kind:function(arm,size=0x60) addr:0x02170d54
_ZN16MapObjectUnkFNCE19func_ov094_02170db4Ev kind:function(arm,size=0x5c) addr:0x02170db4
_ZN16MapObjectUnkFNCED1Ev kind:function(arm,size=0x20) addr:0x02170e10
_ZN16MapObjectUnkFNCED0Ev kind:function(arm,size=0x28) addr:0x02170e30
_ZN23MapObjectProfileUnkFNCED1Ev kind:function(arm,size=0x14) addr:0x02170e58
func_ov094_02170e6c kind:function(arm,size=0xcc) addr:0x02170e6c
func_ov094_02170f38 kind:function(arm,size=0x40) addr:0x02170f38
func_ov094_02170f78 kind:function(arm,size=0x4) addr:0x02170f78
func_ov094_02170f7c kind:function(arm,size=0x24) addr:0x02170f7c
func_ov094_02170fa0 kind:function(arm,size=0x34) addr:0x02170fa0
func_ov094_02170fd4 kind:function(arm,size=0x20) addr:0x02170fd4
_ZN19func_ov094_02170ff4D0Ev kind:function(arm,size=0x38) addr:0x02170ff4
_ZN19func_ov094_0217102cD2Ev kind:function(arm,size=0x30) addr:0x0217102c
func_ov094_0217105c kind:function(arm,size=0x10) addr:0x0217105c
func_ov094_0217106c kind:function(arm,size=0x10) addr:0x0217106c
_ZN23MapObjectProfileUnkWLMP10GetProfileEv kind:function(arm,size=0xc) addr:0x0217107c
_ZN23MapObjectProfileUnkWLMP6CreateEv kind:function(arm,size=0x24) addr:0x02171088
_ZN23MapObjectProfileUnkWLMPC1Ev kind:function(arm,size=0xa4) addr:0x021710ac
_ZN16MapObjectUnkWLMP19func_ov094_02171150Ev kind:function(arm,size=0x40) addr:0x02171150
_ZN16MapObjectUnkWLMPC1Ev kind:function(arm,size=0x40) addr:0x02171190
_ZN16MapObjectUnkWLMP19func_ov094_021711d0Ev kind:function(arm,size=0x148) addr:0x021711d0
_ZN16MapObjectUnkWLMP19func_ov094_02171318Ev kind:function(arm,size=0x190) addr:0x02171318
_ZN16MapObjectUnkWLMP19func_ov094_021714a8Ev kind:function(arm,size=0xc4) addr:0x021714a8
_ZN16MapObjectUnkWLMP19func_ov094_0217156cEv kind:function(arm,size=0x2c) addr:0x0217156c
_ZN16MapObjectUnkWLMP19func_ov094_02171598Ev kind:function(arm,size=0x6c) addr:0x02171598
_ZN16MapObjectUnkWLMP19func_ov094_02171604Ev kind:function(arm,size=0x70) addr:0x02171604
_ZN16MapObjectUnkWLMP19func_ov094_02171674Ev kind:function(arm,size=0x20) addr:0x02171674
_ZN16MapObjectUnkWLMP19func_ov094_02171694Ev kind:function(arm,size=0x4c) addr:0x02171694
_ZN16MapObjectUnkWLMPD0Ev kind:function(arm,size=0x40) addr:0x021716e0
_ZN16MapObjectUnkWLMPD2Ev kind:function(arm,size=0x38) addr:0x02171720
_ZN23MapObjectProfileUnkWLMPD1Ev kind:function(arm,size=0x14) addr:0x02171758
_ZN19func_ov094_0217176cD0Ev kind:function(arm,size=0x1c) addr:0x0217176c
_ZN19func_ov094_02171788D0Ev kind:function(arm,size=0x1c) addr:0x02171788
_ZN19func_ov094_021717a4D2Ev kind:function(arm,size=0x14) addr:0x021717a4
func_ov094_021717b8 kind:function(arm,size=0x10) addr:0x021717b8
func_ov094_021717c8 kind:function(arm,size=0x10) addr:0x021717c8
func_ov094_021717d8 kind:function(arm,size=0x10) addr:0x021717d8
func_ov094_021717e8 kind:function(arm,size=0x10) addr:0x021717e8
func_ov094_021717f8 kind:function(arm,size=0x10) addr:0x021717f8
_ZN23MapObjectProfileUnkCLMN10GetProfileEv kind:function(arm,size=0xc) addr:0x02171808
_ZN23MapObjectProfileUnkCLMN6CreateEv kind:function(arm,size=0x24) addr:0x02171814
_ZN23MapObjectProfileUnkCLMNC1Ev kind:function(arm,size=0x94) addr:0x02171838
_ZN16MapObjectUnkCLMNC1Ev kind:function(arm,size=0x90) addr:0x021718cc
_ZN16MapObjectUnkCLMN19func_ov094_0217195cEv kind:function(arm,size=0x20) addr:0x0217195c
_ZN16MapObjectUnkCLMND1Ev kind:function(arm,size=0x20) addr:0x0217197c
_ZN16MapObjectUnkCLMND0Ev kind:function(arm,size=0x28) addr:0x0217199c
_ZN23MapObjectProfileUnkCLMND1Ev kind:function(arm,size=0x14) addr:0x021719c4
_ZN23MapObjectProfileUnkWDST10GetProfileEv kind:function(arm,size=0xc) addr:0x021719d8
_ZN23MapObjectProfileUnkWDST6CreateEv kind:function(arm,size=0x24) addr:0x021719e4
_ZN23MapObjectProfileUnkWDSTC1Ev kind:function(arm,size=0x8c) addr:0x02171a08
_ZN16MapObjectUnkWDSTC1Ev kind:function(arm,size=0x178) addr:0x02171a94
_ZN16MapObjectUnkWDSTD1Ev kind:function(arm,size=0x9c) addr:0x02171c0c
_ZN16MapObjectUnkWDSTD0Ev kind:function(arm,size=0xa4) addr:0x02171ca8
_ZN16MapObjectUnkWDST19func_ov094_02171d4cEv kind:function(arm,size=0x10c) addr:0x02171d4c
_ZN16MapObjectUnkWDST19func_ov094_02171e58Ev kind:function(arm,size=0x44) addr:0x02171e58
_ZN16MapObjectUnkWDST19func_ov094_02171e9cEv kind:function(arm,size=0x120) addr:0x02171e9c
_ZN16MapObjectUnkWDST19func_ov094_02171fbcEv kind:function(arm,size=0x74) addr:0x02171fbc
_ZN16MapObjectUnkWDST19func_ov094_02172030Ev kind:function(arm,size=0x260) addr:0x02172030
_ZN16MapObjectUnkWDST19func_ov094_02172290Ev kind:function(arm,size=0x50) addr:0x02172290
_ZN16MapObjectUnkWDST19func_ov094_021722e0Ev kind:function(arm,size=0x14) addr:0x021722e0
_ZN16MapObjectUnkWDST19func_ov094_021722f4Ev kind:function(arm,size=0x3ac) addr:0x021722f4
_ZN16MapObjectUnkWDST19func_ov094_021726a0Ev kind:function(arm,size=0xc) addr:0x021726a0
_ZN16MapObjectUnkWDST19func_ov094_021726acEv kind:function(arm,size=0x128) addr:0x021726ac
_ZN16MapObjectUnkWDST19func_ov094_021727d4Ev kind:function(arm,size=0xd0) addr:0x021727d4
_ZN16MapObjectUnkWDST19func_ov094_021728a4Ev kind:function(arm,size=0x8c) addr:0x021728a4
_ZN16MapObjectUnkWDST19func_ov094_02172930Ev kind:function(arm,size=0xe8) addr:0x02172930
_ZN16MapObjectUnkWDST19func_ov094_02172a18Ev kind:function(arm,size=0x2c) addr:0x02172a18
_ZN16MapObjectUnkWDST19func_ov094_02172a44Ev kind:function(arm,size=0x9c) addr:0x02172a44
_ZN16MapObjectUnkWDST19func_ov094_02172ae0Ev kind:function(arm,size=0x14) addr:0x02172ae0
_ZN16MapObjectUnkWDST19func_ov094_02172af4Ev kind:function(arm,size=0x108) addr:0x02172af4
_ZN16MapObjectUnkWDST19func_ov094_02172bfcEv kind:function(arm,size=0x98) addr:0x02172bfc
_ZN16MapObjectUnkWDST19func_ov094_02172c94Ev kind:function(arm,size=0x478) addr:0x02172c94
_ZN16MapObjectUnkWDST19func_ov094_0217310cEv kind:function(arm,size=0xd8) addr:0x0217310c
_ZN16MapObjectUnkWDST19func_ov094_021731e4Ev kind:function(arm,size=0x280) addr:0x021731e4
_ZN16MapObjectUnkWDST19func_ov094_02173464Ev kind:function(arm,size=0x30) addr:0x02173464
_ZN16MapObjectUnkWDST19func_ov094_02173494Ev kind:function(arm,size=0x40) addr:0x02173494
_ZN16MapObjectUnkWDST19func_ov094_021734d4Ev kind:function(arm,size=0x28) addr:0x021734d4
_ZN16MapObjectUnkWDST19func_ov094_021734fcEv kind:function(arm,size=0x18) addr:0x021734fc
_ZN16MapObjectUnkWDST19func_ov094_02173514Ev kind:function(arm,size=0xc) addr:0x02173514
_ZN16MapObjectUnkWDST19func_ov094_02173520Ev kind:function(arm,size=0x54) addr:0x02173520
_ZN16MapObjectUnkWDST19func_ov094_02173574Ev kind:function(arm,size=0x4) addr:0x02173574
_ZN16MapObjectUnkWDST19func_ov094_02173578Ev kind:function(arm,size=0xc) addr:0x02173578
_ZN16MapObjectUnkWDST19func_ov094_02173584Ev kind:function(arm,size=0x94) addr:0x02173584
_ZN16MapObjectUnkWDST19func_ov094_02173618Ev kind:function(arm,size=0x8) addr:0x02173618
_ZN16MapObjectUnkWDST19func_ov094_02173620Ev kind:function(arm,size=0x60) addr:0x02173620
_ZN16MapObjectUnkWDST19func_ov094_02173680Ev kind:function(arm,size=0x240) addr:0x02173680
_ZN16MapObjectUnkWDST19func_ov094_021738c0Ev kind:function(arm,size=0x4) addr:0x021738c0
_ZN23MapObjectProfileUnkWDSTD1Ev kind:function(arm,size=0x14) addr:0x021738c4
func_ov094_021738d8 kind:function(arm,size=0x10) addr:0x021738d8
func_ov094_021738e8 kind:function(arm,size=0x10) addr:0x021738e8
func_ov094_021738f8 kind:function(arm,size=0x10) addr:0x021738f8
func_ov094_02173908 kind:function(arm,size=0x10) addr:0x02173908
func_ov094_02173918 kind:function(arm,size=0x10) addr:0x02173918
func_ov094_02173928 kind:function(arm,size=0x10) addr:0x02173928
func_ov094_02173938 kind:function(arm,size=0x10) addr:0x02173938
func_ov094_02173948 kind:function(arm,size=0x10) addr:0x02173948
func_ov094_02173958 kind:function(arm,size=0x10) addr:0x02173958
_ZN23MapObjectProfileUnkICEB10GetProfileEv kind:function(arm,size=0xc) addr:0x02173968
_ZN23MapObjectProfileUnkICEB6CreateEv kind:function(arm,size=0x24) addr:0x02173974
_ZN23MapObjectProfileUnkICEBC1Ev kind:function(arm,size=0x170) addr:0x02173998
_ZN16MapObjectUnkICEBC1Ev kind:function(arm,size=0x108) addr:0x02173b08
_ZN16MapObjectUnkICEB19func_ov094_02173c10Ev kind:function(arm,size=0x30) addr:0x02173c10
_ZN16MapObjectUnkICEB19func_ov094_02173c40Ev kind:function(arm,size=0xf4) addr:0x02173c40
_ZN16MapObjectUnkICEB19func_ov094_02173d34Ev kind:function(arm,size=0x528) addr:0x02173d34
_ZN16MapObjectUnkICEB19func_ov094_0217425cEv kind:function(arm,size=0x7c) addr:0x0217425c
_ZN16MapObjectUnkICEB19func_ov094_021742d8Ev kind:function(arm,size=0x88) addr:0x021742d8
_ZN16MapObjectUnkICEB19func_ov094_02174360Ev kind:function(arm,size=0x12c) addr:0x02174360
_ZN16MapObjectUnkICEB19func_ov094_0217448cEv kind:function(arm,size=0x180) addr:0x0217448c
_ZN16MapObjectUnkICEB19func_ov094_0217460cEv kind:function(arm,size=0x88) addr:0x0217460c
_ZN16MapObjectUnkICEB19func_ov094_02174694Ev kind:function(arm,size=0x18) addr:0x02174694
_ZN16MapObjectUnkICEB19func_ov094_021746acEv kind:function(arm,size=0x20) addr:0x021746ac
_ZN16MapObjectUnkICEB19func_ov094_021746ccEv kind:function(arm,size=0x1a4) addr:0x021746cc
_ZN16MapObjectUnkICEB19func_ov094_02174870Ev kind:function(arm,size=0x18) addr:0x02174870
_ZN16MapObjectUnkICEB19func_ov094_02174888Ev kind:function(arm,size=0x50) addr:0x02174888
_ZN16MapObjectUnkICEBD1Ev kind:function(arm,size=0x20) addr:0x021748d8
_ZN16MapObjectUnkICEBD0Ev kind:function(arm,size=0x28) addr:0x021748f8
_ZN23MapObjectProfileUnkICEBD1Ev kind:function(arm,size=0x14) addr:0x02174920
_ZN23MapObjectProfileUnkBRGW10GetProfileEv kind:function(arm,size=0xc) addr:0x02174934
_ZN23MapObjectProfileUnkBRGW6CreateEv kind:function(arm,size=0x24) addr:0x02174940
_ZN23MapObjectProfileUnkBRGWC1Ev kind:function(arm,size=0x50) addr:0x02174964
_ZN16MapObjectUnkBRGWC1Ev kind:function(arm,size=0x50) addr:0x021749b4
_ZN16MapObjectUnkBRGW19func_ov094_02174a04Ev kind:function(arm,size=0x284) addr:0x02174a04
_ZN16MapObjectUnkBRGW19func_ov094_02174c88Ev kind:function(arm,size=0x4) addr:0x02174c88
_ZN16MapObjectUnkBRGW19func_ov094_02174c8cEv kind:function(arm,size=0x1a0) addr:0x02174c8c
_ZN16MapObjectUnkBRGW19func_ov094_02174e2cEv kind:function(arm,size=0x44) addr:0x02174e2c
_ZN16MapObjectUnkBRGWD1Ev kind:function(arm,size=0x20) addr:0x02174e70
_ZN16MapObjectUnkBRGWD0Ev kind:function(arm,size=0x28) addr:0x02174e90
_ZN23MapObjectProfileUnkBRGWD1Ev kind:function(arm,size=0x14) addr:0x02174eb8
_ZN23MapObjectProfileUnkMBBS10GetProfileEv kind:function(arm,size=0xc) addr:0x02174ecc
_ZN23MapObjectProfileUnkMBBS6CreateEv kind:function(arm,size=0x24) addr:0x02174ed8
_ZN23MapObjectProfileUnkMBBSC1Ev kind:function(arm,size=0x9c) addr:0x02174efc
_ZN16MapObjectUnkMBBSC1Ev kind:function(arm,size=0xa8) addr:0x02174f98
_ZN16MapObjectUnkMBBS19func_ov094_02175040Ev kind:function(arm,size=0x2c) addr:0x02175040
_ZN16MapObjectUnkMBBS19func_ov094_0217506cEv kind:function(arm,size=0x1c) addr:0x0217506c
_ZN16MapObjectUnkMBBS19func_ov094_02175088Ev kind:function(arm,size=0x14) addr:0x02175088
_ZN16MapObjectUnkMBBS19func_ov094_0217509cEv kind:function(arm,size=0xd8) addr:0x0217509c
_ZN16MapObjectUnkMBBS19func_ov094_02175174Ev kind:function(arm,size=0x1c) addr:0x02175174
_ZN16MapObjectUnkMBBS19func_ov094_02175190Ev kind:function(arm,size=0x4c) addr:0x02175190
_ZN16MapObjectUnkMBBS19func_ov094_021751dcEv kind:function(arm,size=0x20) addr:0x021751dc
_ZN16MapObjectUnkMBBS19func_ov094_021751fcEv kind:function(arm,size=0x1c) addr:0x021751fc
_ZN16MapObjectUnkMBBS19func_ov094_02175218Ev kind:function(arm,size=0x40) addr:0x02175218
_ZN16MapObjectUnkMBBS19func_ov094_02175258Ev kind:function(arm,size=0x9c) addr:0x02175258
_ZN16MapObjectUnkMBBS19func_ov094_021752f4Ev kind:function(arm,size=0x118) addr:0x021752f4
_ZN16MapObjectUnkMBBSD1Ev kind:function(arm,size=0x20) addr:0x0217540c
_ZN16MapObjectUnkMBBSD0Ev kind:function(arm,size=0x28) addr:0x0217542c
_ZN23MapObjectProfileUnkMBBSD1Ev kind:function(arm,size=0x14) addr:0x02175454
_ZN23MapObjectProfileUnkTHAW10GetProfileEv kind:function(arm,size=0xc) addr:0x02175468
_ZN23MapObjectProfileUnkTHAW6CreateEv kind:function(arm,size=0x24) addr:0x02175474
_ZN23MapObjectProfileUnkTHAWC1Ev kind:function(arm,size=0xdc) addr:0x02175498
_ZN16MapObjectUnkTHAWC1Ev kind:function(arm,size=0x78) addr:0x02175574
_ZN16MapObjectUnkTHAW19func_ov094_021755ecEv kind:function(arm,size=0xc0) addr:0x021755ec
_ZN16MapObjectUnkTHAW19func_ov094_021756acEv kind:function(arm,size=0xf4) addr:0x021756ac
_ZN16MapObjectUnkTHAW19func_ov094_021757a0Ev kind:function(arm,size=0xc) addr:0x021757a0
_ZN16MapObjectUnkTHAW19func_ov094_021757acEv kind:function(arm,size=0x60) addr:0x021757ac
_ZN16MapObjectUnkTHAW19func_ov094_0217580cEv kind:function(arm,size=0x28) addr:0x0217580c
_ZN16MapObjectUnkTHAW19func_ov094_02175834Ev kind:function(arm,size=0x7c) addr:0x02175834
_ZN16MapObjectUnkTHAW19func_ov094_021758b0Ev kind:function(arm,size=0x60) addr:0x021758b0
_ZN16MapObjectUnkTHAW19func_ov094_02175910Ev kind:function(arm,size=0x28) addr:0x02175910
_ZN16MapObjectUnkTHAW19func_ov094_02175938Ev kind:function(arm,size=0x1a4) addr:0x02175938
_ZN16MapObjectUnkTHAWD1Ev kind:function(arm,size=0x28) addr:0x02175adc
_ZN16MapObjectUnkTHAWD0Ev kind:function(arm,size=0x30) addr:0x02175b04
_ZN23MapObjectProfileUnkTHAWD1Ev kind:function(arm,size=0x14) addr:0x02175b34
_ZN23MapObjectProfileUnkMTWD10GetProfileEv kind:function(arm,size=0xc) addr:0x02175b48
_ZN23MapObjectProfileUnkMTWD6CreateEv kind:function(arm,size=0x24) addr:0x02175b54
_ZN23MapObjectProfileUnkMTWDC1Ev kind:function(arm,size=0x90) addr:0x02175b78
_ZN16MapObjectUnkMTWDC1Ev kind:function(arm,size=0x88) addr:0x02175c08
_ZN16MapObjectUnkMTWD19func_ov094_02175c90Ev kind:function(arm,size=0x8c) addr:0x02175c90
_ZN16MapObjectUnkMTWD19func_ov094_02175d1cEv kind:function(arm,size=0x188) addr:0x02175d1c
_ZN16MapObjectUnkMTWD19func_ov094_02175ea4Ev kind:function(arm,size=0x14) addr:0x02175ea4
_ZN16MapObjectUnkMTWD19func_ov094_02175eb8Ev kind:function(arm,size=0x2c) addr:0x02175eb8
_ZN16MapObjectUnkMTWDD1Ev kind:function(arm,size=0x20) addr:0x02175ee4
_ZN16MapObjectUnkMTWDD0Ev kind:function(arm,size=0x28) addr:0x02175f04
_ZN23MapObjectProfileUnkMTWDD1Ev kind:function(arm,size=0x14) addr:0x02175f2c
data_ov094_02175f40 kind:data(any) addr:0x02175f40
data_ov094_02175f44 kind:data(any) addr:0x02175f44
data_ov094_02175f58 kind:data(any) addr:0x02175f58
data_ov094_02175f68 kind:data(any) addr:0x02175f68
data_ov094_02175f78 kind:data(any) addr:0x02175f78
data_ov094_02175f84 kind:data(any) addr:0x02175f84
data_ov094_02175fb4 kind:data(any) addr:0x02175fb4
data_ov094_02175fbc kind:data(any) addr:0x02175fbc
data_ov094_02175fc8 kind:data(any) addr:0x02175fc8
data_ov094_02175ff8 kind:data(any) addr:0x02175ff8
data_ov094_02176038 kind:data(any) addr:0x02176038
data_ov094_02176088 kind:data(any) addr:0x02176088
data_ov094_0217608e kind:data(any) addr:0x0217608e
data_ov094_02176094 kind:data(any) addr:0x02176094
data_ov094_021760a0 kind:data(any) addr:0x021760a0
data_ov094_021760b0 kind:data(any) addr:0x021760b0
data_ov094_021760c8 kind:data(any) addr:0x021760c8 ambiguous
data_ov094_021760cc kind:data(any) addr:0x021760cc
data_ov094_0217611c kind:data(any) addr:0x0217611c
data_ov094_0217612c kind:data(any) addr:0x0217612c
data_ov094_0217613c kind:data(any) addr:0x0217613c
data_ov094_02176150 kind:data(any) addr:0x02176150
data_ov094_02176170 kind:data(any) addr:0x02176170
data_ov094_02176190 kind:data(any) addr:0x02176190
data_ov094_0217619a kind:data(any) addr:0x0217619a
data_ov094_021761a4 kind:data(any) addr:0x021761a4
data_ov094_021761b8 kind:data(any) addr:0x021761b8
data_ov094_021761e8 kind:data(any) addr:0x021761e8
data_ov094_02176248 kind:data(any) addr:0x02176248
data_ov094_02176250 kind:data(any) addr:0x02176250
data_ov094_02176308 kind:data(any) addr:0x02176308
data_ov094_02176338 kind:data(any) addr:0x02176338
data_ov094_02176350 kind:data(any) addr:0x02176350
data_ov094_02176380 kind:data(any) addr:0x02176380
data_ov094_021763f8 kind:data(any) addr:0x021763f8
data_ov094_02176448 kind:data(any) addr:0x02176448
data_ov094_02176458 kind:data(any) addr:0x02176458
data_ov094_021764c8 kind:data(any) addr:0x021764c8
data_ov094_021764d0 kind:data(any) addr:0x021764d0
__sinit_ov094_02176588 kind:function(arm,size=0x50) addr:0x02176588
__sinit_ActorUnkLOCK.cpp kind:function(arm,size=0x50) addr:0x021765d8
__sinit_ActorUnkPSWB.cpp kind:function(arm,size=0x78) addr:0x02176628
__sinit_ActorUnkVRGN.cpp kind:function(arm,size=0x50) addr:0x021766a0
__sinit_ActorUnkVLCR.cpp kind:function(arm,size=0x50) addr:0x021766f0
__sinit_ActorUnkSYRN.cpp kind:function(arm,size=0x50) addr:0x02176740
__sinit_ActorUnkSTTG.cpp kind:function(arm,size=0x50) addr:0x02176790
__sinit_ActorUnkPCTG.cpp kind:function(arm,size=0x5c) addr:0x021767e0
__sinit_ActorUnkSPTG.cpp kind:function(arm,size=0x50) addr:0x0217683c
__sinit_ActorUnkSNOW.cpp kind:function(arm,size=0x50) addr:0x0217688c
__sinit_ActorUnkFBRG.cpp kind:function(arm,size=0x50) addr:0x021768dc
__sinit_ActorUnkKOTA.cpp kind:function(arm,size=0x50) addr:0x0217692c
__sinit_ActorUnkEFOC.cpp kind:function(arm,size=0x60) addr:0x0217697c
__sinit_ActorUnkMNCB.cpp kind:function(arm,size=0x50) addr:0x021769dc
__sinit_ActorUnkEFR2.cpp kind:function(arm,size=0x50) addr:0x02176a2c
__sinit_ActorUnkEFW2.cpp kind:function(arm,size=0x50) addr:0x02176a7c
__sinit_MapObjectUnkFNCE.cpp kind:function(arm,size=0x50) addr:0x02176acc
__sinit_MapObjectUnkWLMP.cpp kind:function(arm,size=0x50) addr:0x02176b1c
__sinit_MapObjectUnkCLMN.cpp kind:function(arm,size=0x50) addr:0x02176b6c
__sinit_MapObjectUnkWDST.cpp kind:function(arm,size=0x88) addr:0x02176bbc
__sinit_MapObjectUnkICEB.cpp kind:function(arm,size=0xcc) addr:0x02176c44
__sinit_MapObjectUnkBRGW.cpp kind:function(arm,size=0x50) addr:0x02176d10
__sinit_MapObjectUnkMBBS.cpp kind:function(arm,size=0x74) addr:0x02176d60
__sinit_MapObjectUnkTHAW.cpp kind:function(arm,size=0x50) addr:0x02176dd4
__sinit_MapObjectUnkMTWD.cpp kind:function(arm,size=0x50) addr:0x02176e24
.p__sinit_ov094_02176588 kind:data(word) addr:0x02176e74
.p__sinit_ActorUnkLOCK.cpp kind:data(word) addr:0x02176e78
.p__sinit_ActorUnkPSWB.cpp kind:data(word) addr:0x02176e7c
.p__sinit_ActorUnkVRGN.cpp kind:data(word) addr:0x02176e80
.p__sinit_ActorUnkVLCR.cpp kind:data(word) addr:0x02176e84
.p__sinit_ActorUnkSYRN.cpp kind:data(word) addr:0x02176e88
.p__sinit_ActorUnkSTTG.cpp kind:data(word) addr:0x02176e8c
.p__sinit_ActorUnkPCTG.cpp kind:data(word) addr:0x02176e90
.p__sinit_ActorUnkSPTG.cpp kind:data(word) addr:0x02176e94
.p__sinit_ActorUnkSNOW.cpp kind:data(word) addr:0x02176e98
.p__sinit_ActorUnkFBRG.cpp kind:data(word) addr:0x02176e9c
.p__sinit_ActorUnkKOTA.cpp kind:data(word) addr:0x02176ea0
.p__sinit_ActorUnkEFOC.cpp kind:data(word) addr:0x02176ea4
.p__sinit_ActorUnkMNCB.cpp kind:data(word) addr:0x02176ea8
.p__sinit_ActorUnkEFR2.cpp kind:data(word) addr:0x02176eac
.p__sinit_ActorUnkEFW2.cpp kind:data(word) addr:0x02176eb0
.p__sinit_MapObjectUnkFNCE.cpp kind:data(word) addr:0x02176eb4
.p__sinit_MapObjectUnkWLMP.cpp kind:data(word) addr:0x02176eb8
.p__sinit_MapObjectUnkCLMN.cpp kind:data(word) addr:0x02176ebc
.p__sinit_MapObjectUnkWDST.cpp kind:data(word) addr:0x02176ec0
.p__sinit_MapObjectUnkICEB.cpp kind:data(word) addr:0x02176ec4
.p__sinit_MapObjectUnkBRGW.cpp kind:data(word) addr:0x02176ec8
.p__sinit_MapObjectUnkMBBS.cpp kind:data(word) addr:0x02176ecc
.p__sinit_MapObjectUnkTHAW.cpp kind:data(word) addr:0x02176ed0
.p__sinit_MapObjectUnkMTWD.cpp kind:data(word) addr:0x02176ed4
data_ov094_02176ee8 kind:data(any) addr:0x02176ee8
_ZTV19data_ov094_02176f18 kind:data(any) addr:0x02176f18
_ZTV19data_ov094_02176f3c kind:data(any) addr:0x02176f3c
data_ov094_02176fa4 kind:data(any) addr:0x02176fa4
data_ov094_02176fb8 kind:data(any) addr:0x02176fb8
_ZTV19data_ov094_02176fcc kind:data(any) addr:0x02176fcc
data_ov094_02176ff8 kind:data(any) addr:0x02176ff8
data_ov094_0217701c kind:data(any) addr:0x0217701c
data_ov094_0217703c kind:data(any) addr:0x0217703c
data_ov094_02177064 kind:data(any) addr:0x02177064
_ZTV19data_ov094_0217708c kind:data(any) addr:0x0217708c
data_ov094_021770f0 kind:data(any) addr:0x021770f0 ambiguous
data_ov094_02177114 kind:data(any) addr:0x02177114
_ZTV19data_ov094_02177118 kind:data(any) addr:0x02177118
_ZTV19data_ov094_0217713c kind:data(any) addr:0x0217713c
_ZTV19data_ov094_02177198 kind:data(any) addr:0x02177198
data_ov094_021771bc kind:data(any) addr:0x021771bc
_ZTV19data_ov094_021771ec kind:data(any) addr:0x021771ec
_ZTV19data_ov094_02177210 kind:data(any) addr:0x02177210 ambiguous
_ZTV19data_ov094_02177220 kind:data(any) addr:0x02177220 ambiguous
data_ov094_02177248 kind:data(any) addr:0x02177248
_ZTV19data_ov094_02177260 kind:data(any) addr:0x02177260
data_ov094_0217728c kind:data(any) addr:0x0217728c
data_ov094_021772cc kind:data(any) addr:0x021772cc
data_ov094_0217731c kind:data(any) addr:0x0217731c
data_ov094_02177360 kind:data(any) addr:0x02177360
data_ov094_021773a8 kind:data(any) addr:0x021773a8
_ZTV19data_ov094_021773c0 kind:data(any) addr:0x021773c0
_ZTV19data_ov094_021774dc kind:data(any) addr:0x021774dc
_ZTV19data_ov094_02177564 kind:data(any) addr:0x02177564 ambiguous
data_ov094_02177600 kind:data(any) addr:0x02177600
data_ov094_02177610 kind:data(any) addr:0x02177610
data_ov094_02177624 kind:data(any) addr:0x02177624
_ZTV19data_ov094_02177644 kind:data(any) addr:0x02177644
data_ov094_02177670 kind:data(any) addr:0x02177670
_ZTV19data_ov094_02177694 kind:data(any) addr:0x02177694
data_ov094_021776f8 kind:data(any) addr:0x021776f8
data_ov094_02177704 kind:data(any) addr:0x02177704
data_ov094_0217770c kind:data(any) addr:0x0217770c
_ZTV19data_ov094_0217772c kind:data(any) addr:0x0217772c
_ZTV19data_ov094_02177750 kind:data(any) addr:0x02177750
data_ov094_021777b4 kind:data(any) addr:0x021777b4
data_ov094_021777c4 kind:data(any) addr:0x021777c4
_ZTV19data_ov094_021777d8 kind:data(any) addr:0x021777d8
data_ov094_02177804 kind:data(any) addr:0x02177804
data_ov094_02177828 kind:data(any) addr:0x02177828
_ZTV19data_ov094_02177868 kind:data(any) addr:0x02177868
_ZTV19data_ov094_021778c4 kind:data(any) addr:0x021778c4
_ZTV19data_ov094_021778e8 kind:data(any) addr:0x021778e8
data_ov094_02177948 kind:data(any) addr:0x02177948
data_ov094_02177950 kind:data(any) addr:0x02177950
_ZTV19data_ov094_02177958 kind:data(any) addr:0x02177958
data_ov094_02177984 kind:data(any) addr:0x02177984
data_ov094_021779a0 kind:data(any) addr:0x021779a0
data_ov094_021779b8 kind:data(any) addr:0x021779b8
data_ov094_021779d8 kind:data(any) addr:0x021779d8
data_ov094_021779f4 kind:data(any) addr:0x021779f4 ambiguous
_ZTV19data_ov094_02177a18 kind:data(any) addr:0x02177a18
_ZTV19data_ov094_02177a78 kind:data(any) addr:0x02177a78
_ZTV19data_ov094_02177a9c kind:data(any) addr:0x02177a9c
data_ov094_02177aa0 kind:data(any) addr:0x02177aa0 ambiguous
data_ov094_02177af8 kind:data(any) addr:0x02177af8
data_ov094_02177afc kind:data(any) addr:0x02177afc
data_ov094_02177b1c kind:data(any) addr:0x02177b1c
_ZTV19data_ov094_02177b3c kind:data(any) addr:0x02177b3c
_ZTV19data_ov094_02177b40 kind:data(any) addr:0x02177b40 ambiguous
_ZTV19data_ov094_02177b60 kind:data(any) addr:0x02177b60
data_ov094_02177bbc kind:data(any) addr:0x02177bbc
data_ov094_02177c0c kind:data(any) addr:0x02177c0c
_ZTV19data_ov094_02177c5c kind:data(any) addr:0x02177c5c
_ZTV19data_ov094_02177cfc kind:data(any) addr:0x02177cfc ambiguous
data_ov094_02177d00 kind:data(any) addr:0x02177d00 ambiguous
_ZTV19data_ov094_02177d04 kind:data(any) addr:0x02177d04 ambiguous
_ZTV19data_ov094_02177d0c kind:data(any) addr:0x02177d0c ambiguous
data_ov094_02177d28 kind:data(any) addr:0x02177d28 ambiguous
data_ov094_02177d30 kind:data(any) addr:0x02177d30 ambiguous
data_ov094_02177d34 kind:data(any) addr:0x02177d34 ambiguous
data_ov094_02177d38 kind:data(any) addr:0x02177d38 ambiguous
data_ov094_02177d78 kind:data(any) addr:0x02177d78 ambiguous
data_ov094_02177d80 kind:data(any) addr:0x02177d80
_ZTV19data_ov094_02177da0 kind:data(any) addr:0x02177da0
_ZTV19data_ov094_02177dc4 kind:data(any) addr:0x02177dc4
_ZTV19data_ov094_02177e28 kind:data(any) addr:0x02177e28
data_ov094_02177e4c kind:data(any) addr:0x02177e4c
data_ov094_02177e64 kind:data(any) addr:0x02177e64
_ZTV19data_ov094_02177e7c kind:data(any) addr:0x02177e7c
_ZTV19data_ov094_02177edc kind:data(any) addr:0x02177edc
data_ov094_02177f00 kind:data(any) addr:0x02177f00
data_ov094_02177f18 kind:data(any) addr:0x02177f18
_ZTV19data_ov094_02177f30 kind:data(any) addr:0x02177f30
data_ov094_02177f98 kind:data(any) addr:0x02177f98
data_ov094_02177fb4 kind:data(any) addr:0x02177fb4
data_ov094_02177ff8 kind:data(any) addr:0x02177ff8
_ZTV19data_ov094_02178034 kind:data(any) addr:0x02178034
data_ov094_02178064 kind:data(any) addr:0x02178064
data_ov094_02178084 kind:data(any) addr:0x02178084
data_ov094_02178090 kind:data(any) addr:0x02178090 ambiguous
data_ov094_021780b0 kind:data(any) addr:0x021780b0
data_ov094_021780d8 kind:data(any) addr:0x021780d8
data_ov094_02178100 kind:data(any) addr:0x02178100
data_ov094_02178128 kind:data(any) addr:0x02178128
_ZTV19data_ov094_02178164 kind:data(any) addr:0x02178164
data_ov094_021781a8 kind:data(any) addr:0x021781a8
data_ov094_021781c4 kind:data(any) addr:0x021781c4
data_ov094_021781e0 kind:data(any) addr:0x021781e0
data_ov094_02178218 kind:data(any) addr:0x02178218
data_ov094_02178238 kind:data(any) addr:0x02178238
data_ov094_02178244 kind:data(any) addr:0x02178244
data_ov094_02178260 kind:data(any) addr:0x02178260
data_ov094_021782bc kind:data(any) addr:0x021782bc
_ZTV19data_ov094_021782c0 kind:data(any) addr:0x021782c0
data_ov094_021782f8 kind:data(any) addr:0x021782f8
data_ov094_0217830c kind:data(any) addr:0x0217830c
data_ov094_02178328 kind:data(any) addr:0x02178328
data_ov094_02178344 kind:data(any) addr:0x02178344
data_ov094_02178388 kind:data(any) addr:0x02178388
data_ov094_021783a4 kind:data(any) addr:0x021783a4
data_ov094_021783e0 kind:data(any) addr:0x021783e0
data_ov094_021783f4 kind:data(any) addr:0x021783f4
data_ov094_02178410 kind:data(any) addr:0x02178410
data_ov094_02178448 kind:data(any) addr:0x02178448
data_ov094_02178458 kind:data(any) addr:0x02178458
data_ov094_02178474 kind:data(any) addr:0x02178474
data_ov094_021784b8 kind:data(any) addr:0x021784b8
data_ov094_021784d4 kind:data(any) addr:0x021784d4
data_ov094_02178500 kind:data(any) addr:0x02178500 ambiguous
data_ov094_02178520 kind:bss addr:0x02178520
data_ov094_02178524 kind:bss addr:0x02178524
data_ov094_02178530 kind:bss addr:0x02178530
data_ov094_02178558 kind:bss addr:0x02178558
data_ov094_0217855c kind:bss addr:0x0217855c
sActorProfileUnkLOCK kind:bss addr:0x02178568
data_ov094_021785a4 kind:bss addr:0x021785a4
data_ov094_021785a8 kind:bss addr:0x021785a8
data_ov094_021785b4 kind:bss addr:0x021785b4
data_ov094_021785c0 kind:bss addr:0x021785c0
sActorProfileUnkPSWB kind:bss addr:0x021785d8
data_ov094_021786b0 kind:bss addr:0x021786b0
data_ov094_0217878c kind:bss addr:0x0217878c
data_ov094_02178790 kind:bss addr:0x02178790
sActorProfileUnkVRGN kind:bss addr:0x0217879c
data_ov094_021787d8 kind:bss addr:0x021787d8
data_ov094_021787dc kind:bss addr:0x021787dc
sActorProfileUnkVLCR kind:bss addr:0x021787e8
data_ov094_02178824 kind:bss addr:0x02178824 ambiguous
data_ov094_021788c0 kind:bss addr:0x021788c0
data_ov094_021788c4 kind:bss addr:0x021788c4
sActorProfileUnkSYRN kind:bss addr:0x021788d0
data_ov094_021789a8 kind:bss addr:0x021789a8
data_ov094_021789ac kind:bss addr:0x021789ac
sActorProfileUnkSTTG kind:bss addr:0x021789b8
data_ov094_02178a90 kind:bss addr:0x02178a90
data_ov094_02178a94 kind:bss addr:0x02178a94
data_ov094_02178aa0 kind:bss addr:0x02178aa0
sActorProfileUnkPCTG kind:bss addr:0x02178ae4
data_ov094_02178bbc kind:bss addr:0x02178bbc
data_ov094_02178bc0 kind:bss addr:0x02178bc0
sActorProfileUnkSPTG kind:bss addr:0x02178bcc
data_ov094_02178c80 kind:bss addr:0x02178c80 ambiguous
data_ov094_02178ca4 kind:bss addr:0x02178ca4
data_ov094_02178ca8 kind:bss addr:0x02178ca8
sActorProfileUnkSNOW kind:bss addr:0x02178cb4
data_ov094_02178cf0 kind:bss addr:0x02178cf0
data_ov094_02178cf4 kind:bss addr:0x02178cf4
sActorProfileUnkFBRG kind:bss addr:0x02178d00
data_ov094_02178dd8 kind:bss addr:0x02178dd8
data_ov094_02178dec kind:bss addr:0x02178dec
data_ov094_02178df0 kind:bss addr:0x02178df0
sActorProfileUnkKOTA kind:bss addr:0x02178dfc
data_ov094_02178e38 kind:bss addr:0x02178e38
data_ov094_02178e3c kind:bss addr:0x02178e3c
sActorProfileUnkEFOC kind:bss addr:0x02178e48
data_ov094_02178f20 kind:bss addr:0x02178f20
data_ov094_02178f24 kind:bss addr:0x02178f24
data_ov094_02178f28 kind:bss addr:0x02178f28
data_ov094_02178f2c kind:bss addr:0x02178f2c
sActorProfileUnkMNCB kind:bss addr:0x02178f38
data_ov094_02178f74 kind:bss addr:0x02178f74
data_ov094_02178f84 kind:bss addr:0x02178f84
data_ov094_02178f94 kind:bss addr:0x02178f94
data_ov094_02178f98 kind:bss addr:0x02178f98
sActorProfileUnkEFR2 kind:bss addr:0x02178fa4
data_ov094_0217907c kind:bss addr:0x0217907c
data_ov094_02179080 kind:bss addr:0x02179080
sActorProfileUnkEFW2 kind:bss addr:0x0217908c
data_ov094_02179164 kind:bss addr:0x02179164
data_ov094_02179168 kind:bss addr:0x02179168
sMapObjectProfileUnkFNCE kind:bss addr:0x02179174
data_ov094_02179248 kind:bss addr:0x02179248
data_ov094_0217924c kind:bss addr:0x0217924c
sMapObjectProfileUnkWLMP kind:bss addr:0x02179258
data_ov094_02179278 kind:bss addr:0x02179278
data_ov094_021792c0 kind:bss addr:0x021792c0
data_ov094_021792e0 kind:bss addr:0x021792e0
data_ov094_021792e4 kind:bss addr:0x021792e4
sMapObjectProfileUnkCLMN kind:bss addr:0x021792f0
data_ov094_021793c4 kind:bss addr:0x021793c4
data_ov094_021793e4 kind:bss addr:0x021793e4
data_ov094_021793ec kind:bss addr:0x021793ec
sMapObjectProfileUnkWDST kind:bss addr:0x021793f8
data_ov094_021794cc kind:bss addr:0x021794cc
data_ov094_021794ec kind:bss addr:0x021794ec
data_ov094_021794f0 kind:bss addr:0x021794f0
data_ov094_021794fc kind:bss addr:0x021794fc
data_ov094_02179508 kind:bss addr:0x02179508
data_ov094_02179514 kind:bss addr:0x02179514
data_ov094_02179520 kind:bss addr:0x02179520
data_ov094_02179538 kind:bss addr:0x02179538
data_ov094_0217955c kind:bss addr:0x0217955c
sMapObjectProfileUnkICEB kind:bss addr:0x02179614
data_ov094_021796e8 kind:bss addr:0x021796e8
data_ov094_0217970c kind:bss addr:0x0217970c
data_ov094_02179710 kind:bss addr:0x02179710
sMapObjectProfileUnkBRGW kind:bss addr:0x0217971c
data_ov094_021797f0 kind:bss addr:0x021797f0
data_ov094_021797f4 kind:bss addr:0x021797f4
sMapObjectProfileUnkMBBS kind:bss addr:0x02179800
data_ov094_021798d4 kind:bss addr:0x021798d4
data_ov094_021798f8 kind:bss addr:0x021798f8
data_ov094_021798fc kind:bss addr:0x021798fc
sMapObjectProfileUnkTHAW kind:bss addr:0x02179908
data_ov094_021799dc kind:bss addr:0x021799dc
data_ov094_021799fc kind:bss addr:0x021799fc
data_ov094_02179a00 kind:bss addr:0x02179a00
sMapObjectProfileUnkMTWD kind:bss addr:0x02179a0c
data_ov094_02179ae0 kind:bss addr:0x02179ae0
