_ZN19ActorProfileUnkWHMA10GetProfileEv kind:function(arm,size=0xc) addr:0x02152ca0
_ZN19ActorProfileUnkWHMA6CreateEv kind:function(arm,size=0x24) addr:0x02152cac
_ZN19ActorProfileUnkWHMAC1Ev kind:function(arm,size=0x4c) addr:0x02152cd0
_ZN12ActorUnkWHMA19func_ov082_02152d1cEv kind:function(arm,size=0x14) addr:0x02152d1c
_ZN12ActorUnkWHMAC1Ev kind:function(arm,size=0x1bc) addr:0x02152d30
_ZN12ActorUnkWHMA19func_ov082_02152eecEv kind:function(arm,size=0x7c) addr:0x02152eec
_ZN12ActorUnkWHMA19func_ov082_02152f68Ev kind:function(arm,size=0x48) addr:0x02152f68
_ZN12ActorUnkWHMA19func_ov082_02152fb0Ev kind:function(arm,size=0x54) addr:0x02152fb0
_ZN12ActorUnkWHMA19func_ov082_02153004Ev kind:function(arm,size=0x194) addr:0x02153004
_ZN12ActorUnkWHMA19func_ov082_02153198Ev kind:function(arm,size=0x70) addr:0x02153198
_ZN12ActorUnkWHMA19func_ov082_02153208Ev kind:function(arm,size=0x28) addr:0x02153208
_ZN12ActorUnkWHMA19func_ov082_02153230Ev kind:function(arm,size=0x3c) addr:0x02153230
_ZN12ActorUnkWHMA19func_ov082_0215326cEv kind:function(arm,size=0x80) addr:0x0215326c
_ZN12ActorUnkWHMA19func_ov082_021532ecEv kind:function(arm,size=0x98) addr:0x021532ec
_ZN12ActorUnkWHMA19func_ov082_02153384Ev kind:function(arm,size=0x9c) addr:0x02153384
_ZN12ActorUnkWHMA19func_ov082_02153420Ev kind:function(arm,size=0xf0) addr:0x02153420
_ZN12ActorUnkWHMA19func_ov082_02153510Ev kind:function(arm,size=0x7c) addr:0x02153510
_ZN12ActorUnkWHMA19func_ov082_0215358cEv kind:function(arm,size=0xa8) addr:0x0215358c
_ZN12ActorUnkWHMA19func_ov082_02153634Ev kind:function(arm,size=0xd4) addr:0x02153634
_ZN12ActorUnkWHMA19func_ov082_02153708Ev kind:function(arm,size=0x308) addr:0x02153708
_ZN12ActorUnkWHMA19func_ov082_02153a10Ev kind:function(arm,size=0x138) addr:0x02153a10
_ZN12ActorUnkWHMA19func_ov082_02153b48Ev kind:function(arm,size=0x330) addr:0x02153b48
_ZN12ActorUnkWHMA19func_ov082_02153e78Ev kind:function(arm,size=0x7c) addr:0x02153e78
_ZN12ActorUnkWHMA19func_ov082_02153ef4Ev kind:function(arm,size=0x28c) addr:0x02153ef4
_ZN12ActorUnkWHMA19func_ov082_02154180Ev kind:function(arm,size=0x1e8) addr:0x02154180
_ZN12ActorUnkWHMA19func_ov082_02154368Ev kind:function(arm,size=0x2bc) addr:0x02154368
_ZN12ActorUnkWHMA19func_ov082_02154624Ev kind:function(arm,size=0x11c) addr:0x02154624
_ZN12ActorUnkWHMA19func_ov082_02154740Ev kind:function(arm,size=0x1f8) addr:0x02154740
_ZN12ActorUnkWHMA19func_ov082_02154938Ev kind:function(arm,size=0xf0) addr:0x02154938
_ZN12ActorUnkWHMA19func_ov082_02154a28Ev kind:function(arm,size=0x2bc) addr:0x02154a28
_ZN12ActorUnkWHMA19func_ov082_02154ce4Ev kind:function(arm,size=0x12c) addr:0x02154ce4
_ZN12ActorUnkWHMA19func_ov082_02154e10Ev kind:function(arm,size=0x220) addr:0x02154e10
_ZN12ActorUnkWHMA19func_ov082_02155030Ev kind:function(arm,size=0xf4) addr:0x02155030
_ZN12ActorUnkWHMA19func_ov082_02155124Ev kind:function(arm,size=0x9c) addr:0x02155124
_ZN12ActorUnkWHMA19func_ov082_021551c0Ev kind:function(arm,size=0xd0) addr:0x021551c0
_ZN12ActorUnkWHMA19func_ov082_02155290Ev kind:function(arm,size=0x70) addr:0x02155290
_ZN12ActorUnkWHMA19func_ov082_02155300Ev kind:function(arm,size=0x12c) addr:0x02155300
_ZN12ActorUnkWHMA19func_ov082_0215542cEv kind:function(arm,size=0x70) addr:0x0215542c
_ZN12ActorUnkWHMA19func_ov082_0215549cEv kind:function(arm,size=0x390) addr:0x0215549c
_ZN12ActorUnkWHMA19func_ov082_0215582cEv kind:function(arm,size=0xc8) addr:0x0215582c
_ZN12ActorUnkWHMA19func_ov082_021558f4Ev kind:function(arm,size=0x60) addr:0x021558f4
_ZN12ActorUnkWHMA19func_ov082_02155954Ev kind:function(arm,size=0xc0) addr:0x02155954
_ZN12ActorUnkWHMA19func_ov082_02155a14Ev kind:function(arm,size=0x90) addr:0x02155a14
_ZN12ActorUnkWHMA19func_ov082_02155aa4Ev kind:function(arm,size=0xb8) addr:0x02155aa4
_ZN12ActorUnkWHMA19func_ov082_02155b5cEv kind:function(arm,size=0xd4) addr:0x02155b5c
_ZN12ActorUnkWHMA19func_ov082_02155c30Ev kind:function(arm,size=0xf0) addr:0x02155c30
_ZN12ActorUnkWHMA19func_ov082_02155d20Ev kind:function(arm,size=0xb0) addr:0x02155d20
_ZN12ActorUnkWHMA19func_ov082_02155dd0Ev kind:function(arm,size=0x90) addr:0x02155dd0
_ZN12ActorUnkWHMA19func_ov082_02155e60Ev kind:function(arm,size=0x5c) addr:0x02155e60
_ZN12ActorUnkWHMA19func_ov082_02155ebcEv kind:function(arm,size=0x74) addr:0x02155ebc
_ZN12ActorUnkWHMA19func_ov082_02155f30Ev kind:function(arm,size=0x50) addr:0x02155f30
_ZN12ActorUnkWHMA19func_ov082_02155f80Ev kind:function(arm,size=0x49c) addr:0x02155f80
_ZN12ActorUnkWHMA19func_ov082_0215641cEv kind:function(arm,size=0x8c) addr:0x0215641c
_ZN12ActorUnkWHMA19func_ov082_021564a8Ev kind:function(arm,size=0x190) addr:0x021564a8
_ZN12ActorUnkWHMA19func_ov082_02156638Ev kind:function(arm,size=0x1c) addr:0x02156638
_ZN12ActorUnkWHMA19func_ov082_02156654Ev kind:function(arm,size=0x78) addr:0x02156654
_ZN12ActorUnkWHMA19func_ov082_021566ccEv kind:function(arm,size=0x5c) addr:0x021566cc
_ZN12ActorUnkWHMA19func_ov082_02156728Ev kind:function(arm,size=0x28) addr:0x02156728
_ZN12ActorUnkWHMA19func_ov082_02156750Ev kind:function(arm,size=0xf4) addr:0x02156750
_ZN12ActorUnkWHMA19func_ov082_02156844Ev kind:function(arm,size=0xec) addr:0x02156844
_ZN12ActorUnkWHMA19func_ov082_02156930Ev kind:function(arm,size=0x2c) addr:0x02156930
_ZN12ActorUnkWHMA19func_ov082_0215695cEv kind:function(arm,size=0xc0) addr:0x0215695c
_ZN12ActorUnkWHMA19func_ov082_02156a1cEv kind:function(arm,size=0xec) addr:0x02156a1c
_ZN12ActorUnkWHMA19func_ov082_02156b08Ev kind:function(arm,size=0x1f0) addr:0x02156b08
_ZN12ActorUnkWHMA19func_ov082_02156cf8Ev kind:function(arm,size=0x174) addr:0x02156cf8
_ZN12ActorUnkWHMA19func_ov082_02156e6cEv kind:function(arm,size=0x4dc) addr:0x02156e6c
_ZN12ActorUnkWHMA19func_ov082_02157348Ev kind:function(arm,size=0x1ac) addr:0x02157348
_ZN12ActorUnkWHMA19func_ov082_021574f4Ev kind:function(arm,size=0x68) addr:0x021574f4
_ZN12ActorUnkWHMAD0Ev kind:function(arm,size=0x84) addr:0x0215755c
_ZN12ActorUnkWHMA19func_ov082_021575e0Ev kind:function(arm,size=0x7c) addr:0x021575e0
_ZN12ActorUnkWHMA19func_ov082_0215765cEv kind:function(arm,size=0x24) addr:0x0215765c
_ZN12ActorUnkWHMA19func_ov082_02157680Ev kind:function(arm,size=0x2c) addr:0x02157680
_ZN12ActorUnkWHMA19func_ov082_021576acEv kind:function(arm,size=0x1c) addr:0x021576ac
_ZN19ActorProfileUnkWHMAD1Ev kind:function(arm,size=0x14) addr:0x021576c8
_ZN19ActorProfileUnkEWHI10GetProfileEv kind:function(arm,size=0xc) addr:0x021576dc
_ZN19ActorProfileUnkEWHI6CreateEv kind:function(arm,size=0x24) addr:0x021576e8
_ZN19ActorProfileUnkEWHIC1Ev kind:function(arm,size=0x40) addr:0x0215770c
_ZN12ActorUnkEWHIC1Ev kind:function(arm,size=0x2c) addr:0x0215774c
_ZN12ActorUnkEWHI19func_ov082_02157778Ev kind:function(arm,size=0x34) addr:0x02157778
_ZN12ActorUnkEWHI19func_ov082_021577acEv kind:function(arm,size=0x3c) addr:0x021577ac
_ZN12ActorUnkEWHI19func_ov082_021577e8Ev kind:function(arm,size=0x38) addr:0x021577e8
_ZN12ActorUnkEWHI19func_ov082_02157820Ev kind:function(arm,size=0x38) addr:0x02157820
_ZN12ActorUnkEWHI19func_ov082_02157858Ev kind:function(arm,size=0x40) addr:0x02157858
_ZN12ActorUnkEWHI19func_ov082_02157898Ev kind:function(arm,size=0x4) addr:0x02157898
_ZN12ActorUnkEWHI19func_ov082_0215789cEv kind:function(arm,size=0x1c) addr:0x0215789c
_ZN12ActorUnkEWHI19func_ov082_021578b8Ev kind:function(arm,size=0x4) addr:0x021578b8
_ZN12ActorUnkEWHI19func_ov082_021578bcEv kind:function(arm,size=0x1c) addr:0x021578bc
_ZN12ActorUnkEWHI19func_ov082_021578d8Ev kind:function(arm,size=0x4c) addr:0x021578d8
_ZN12ActorUnkEWHI19func_ov082_02157924Ev kind:function(arm,size=0x1c) addr:0x02157924
_ZN12ActorUnkEWHI19func_ov082_02157940Ev kind:function(arm,size=0x4) addr:0x02157940
_ZN12ActorUnkEWHI19func_ov082_02157944Ev kind:function(arm,size=0x18) addr:0x02157944
_ZN12ActorUnkEWHI19func_ov082_0215795cEv kind:function(arm,size=0x4) addr:0x0215795c
_ZN12ActorUnkEWHI19func_ov082_02157960Ev kind:function(arm,size=0x18) addr:0x02157960
_ZN12ActorUnkEWHI19func_ov082_02157978Ev kind:function(arm,size=0x8) addr:0x02157978
_ZN12ActorUnkEWHI19func_ov082_02157980Ev kind:function(arm,size=0x38) addr:0x02157980
_ZN12ActorUnkEWHI19func_ov082_021579b8Ev kind:function(arm,size=0x4c) addr:0x021579b8
_ZN12ActorUnkEWHID1Ev kind:function(arm,size=0x28) addr:0x02157a04
_ZN12ActorUnkEWHID0Ev kind:function(arm,size=0x30) addr:0x02157a2c
_ZN19ActorProfileUnkEWHID1Ev kind:function(arm,size=0x14) addr:0x02157a5c
_ZN19ActorProfileUnkDSWT10GetProfileEv kind:function(arm,size=0xc) addr:0x02157a70
_ZN19ActorProfileUnkDSWT6CreateEv kind:function(arm,size=0x24) addr:0x02157a7c
_ZN19ActorProfileUnkDSWTC1Ev kind:function(arm,size=0x28) addr:0x02157aa0
_ZN12ActorUnkDSWTC1Ev kind:function(arm,size=0x20) addr:0x02157ac8
_ZN12ActorUnkDSWT19func_ov082_02157ae8Ev kind:function(arm,size=0x50) addr:0x02157ae8
_ZN12ActorUnkDSWTD1Ev kind:function(arm,size=0x20) addr:0x02157b38
_ZN12ActorUnkDSWTD0Ev kind:function(arm,size=0x28) addr:0x02157b58
_ZN19ActorProfileUnkDSWTD1Ev kind:function(arm,size=0x14) addr:0x02157b80
func_ov082_02157b94 kind:function(thumb,size=0x12) addr:0x02157b94
func_ov082_02157ba8 kind:function(thumb,size=0xe) addr:0x02157ba8
func_ov082_02157bb8 kind:function(arm,size=0x3c) addr:0x02157bb8
func_ov082_02157bf4 kind:function(arm,size=0x38) addr:0x02157bf4
func_ov082_02157c2c kind:function(arm,size=0x24) addr:0x02157c2c
func_ov082_02157c50 kind:function(arm,size=0x240) addr:0x02157c50
func_ov082_02157e90 kind:function(arm,size=0x58) addr:0x02157e90
func_ov082_02157ee8 kind:function(arm,size=0x1c8) addr:0x02157ee8
func_ov082_021580b0 kind:function(arm,size=0x2c) addr:0x021580b0
func_ov082_021580dc kind:function(arm,size=0x160) addr:0x021580dc
func_ov082_0215823c kind:function(arm,size=0x30c) addr:0x0215823c
_ZN19func_ov082_02158548D1Ev kind:function(arm,size=0x14) addr:0x02158548
_ZN19func_ov082_0215855cD0Ev kind:function(arm,size=0x1c) addr:0x0215855c
func_ov082_02158578 kind:function(arm,size=0xdc) addr:0x02158578
func_ov082_02158654 kind:function(arm,size=0x104) addr:0x02158654
func_ov082_02158758 kind:function(arm,size=0xb8) addr:0x02158758
func_ov082_02158810 kind:function(arm,size=0x34) addr:0x02158810
data_ov082_02158844 kind:data(any) addr:0x02158844
data_ov082_02158848 kind:data(any) addr:0x02158848
data_ov082_0215884c kind:data(any) addr:0x0215884c
data_ov082_02158850 kind:data(any) addr:0x02158850
data_ov082_02158854 kind:data(any) addr:0x02158854
__sinit_ActorUnkWHMA.cpp kind:function(arm,size=0x50) addr:0x02158858
__sinit_ActorUnkEWHI.cpp kind:function(arm,size=0x50) addr:0x021588a8
__sinit_ActorUnkDSWT.cpp kind:function(arm,size=0x50) addr:0x021588f8
.p__sinit_ActorUnkWHMA.cpp kind:data(word) addr:0x02158948
.p__sinit_ActorUnkEWHI.cpp kind:data(word) addr:0x0215894c
.p__sinit_ActorUnkDSWT.cpp kind:data(word) addr:0x02158950
data_ov082_02158960 kind:data(any) addr:0x02158960
data_ov082_02158964 kind:data(any) addr:0x02158964
data_ov082_02158968 kind:data(any) addr:0x02158968
_ZTV19data_ov082_0215896c kind:data(any) addr:0x0215896c
data_ov082_02158998 kind:data(any) addr:0x02158998
_ZTV19data_ov082_021589dc kind:data(any) addr:0x021589dc
data_ov082_02158a3c kind:data(any) addr:0x02158a3c
data_ov082_02158ae4 kind:data(any) addr:0x02158ae4
data_ov082_02158af8 kind:data(any) addr:0x02158af8 ambiguous
data_ov082_02158b50 kind:data(any) addr:0x02158b50 ambiguous
data_ov082_02158b78 kind:data(any) addr:0x02158b78 ambiguous
data_ov082_02158b8c kind:data(any) addr:0x02158b8c
data_ov082_02158ba4 kind:data(any) addr:0x02158ba4
data_ov082_02158bbc kind:data(any) addr:0x02158bbc
data_ov082_02158bd4 kind:data(any) addr:0x02158bd4
data_ov082_02158bdc kind:data(any) addr:0x02158bdc ambiguous
data_ov082_02158c04 kind:data(any) addr:0x02158c04
data_ov082_02158c1c kind:data(any) addr:0x02158c1c
data_ov082_02158c34 kind:data(any) addr:0x02158c34
data_ov082_02158c4c kind:data(any) addr:0x02158c4c
data_ov082_02158c64 kind:data(any) addr:0x02158c64
data_ov082_02158c7c kind:data(any) addr:0x02158c7c
data_ov082_02158c94 kind:data(any) addr:0x02158c94
data_ov082_02158c9c kind:data(any) addr:0x02158c9c ambiguous
data_ov082_02158cac kind:data(any) addr:0x02158cac
data_ov082_02158cc4 kind:data(any) addr:0x02158cc4
data_ov082_02158cdc kind:data(any) addr:0x02158cdc
_ZTV19data_ov082_02158cf4 kind:data(any) addr:0x02158cf4
data_ov082_02158d18 kind:data(any) addr:0x02158d18
data_ov082_02158d40 kind:data(any) addr:0x02158d40
_ZTV19data_ov082_02158d68 kind:data(any) addr:0x02158d68
_ZTV19data_ov082_02158d88 kind:data(any) addr:0x02158d88 ambiguous
data_ov082_02158dc8 kind:data(any) addr:0x02158dc8 ambiguous
_ZTV19data_ov082_02158dcc kind:data(any) addr:0x02158dcc
_ZTV19data_ov082_02158df0 kind:data(any) addr:0x02158df0
_ZTV19data_ov082_02158e50 kind:data(any) addr:0x02158e50
_ZGVN15ProfileInstanceI19ActorProfileUnkWHMAE8sProfileE kind:bss addr:0x02158e80
@13649 kind:bss addr:0x02158e84
_ZN15ProfileInstanceI19ActorProfileUnkWHMAE8sProfileE kind:bss addr:0x02158e90
data_ov082_02158eac kind:bss addr:0x02158eac ambiguous
data_ov082_02158eb4 kind:bss addr:0x02158eb4 ambiguous
_ZGVN15ProfileInstanceI19ActorProfileUnkEWHIE8sProfileE kind:bss addr:0x02158f68
@13655 kind:bss addr:0x02158f6c
_ZN15ProfileInstanceI19ActorProfileUnkEWHIE8sProfileE kind:bss addr:0x02158f78
data_ov082_02158fa4 kind:bss addr:0x02158fa4 ambiguous
_ZGVN15ProfileInstanceI19ActorProfileUnkDSWTE8sProfileE kind:bss addr:0x02158fb4
@13661 kind:bss addr:0x02158fb8
_ZN15ProfileInstanceI19ActorProfileUnkDSWTE8sProfileE kind:bss addr:0x02158fc4
