_ZN19ActorProfileUnkSOLD10GetProfileEv kind:function(arm,size=0xc) addr:0x02157ea0
_ZN19ActorProfileUnkSOLD6CreateEv kind:function(arm,size=0x24) addr:0x02157eac
_ZN19ActorProfileUnkSOLDC1Ev kind:function(arm,size=0x58) addr:0x02157ed0
_ZN19ActorProfileUnkSOLB10GetProfileEv kind:function(arm,size=0xc) addr:0x02157f28
_ZN19ActorProfileUnkSOLB6CreateEv kind:function(arm,size=0x24) addr:0x02157f34
_ZN19ActorProfileUnkSOLBC1Ev kind:function(arm,size=0x5c) addr:0x02157f58
_ZN19ActorProfileUnkSOLC10GetProfileEv kind:function(arm,size=0xc) addr:0x02157fb4
_ZN19ActorProfileUnkSOLC6CreateEv kind:function(arm,size=0x24) addr:0x02157fc0
_ZN19ActorProfileUnkSOLCC1Ev kind:function(arm,size=0x58) addr:0x02157fe4
func_ov060_0215803c kind:function(arm,size=0x178) addr:0x0215803c
func_ov060_021581b4 kind:function(arm,size=0x14) addr:0x021581b4
_ZN19func_ov060_021581c8D1Ev kind:function(arm,size=0x30) addr:0x021581c8
_ZN19func_ov060_021581f8D0Ev kind:function(arm,size=0x38) addr:0x021581f8
func_ov060_02158230 kind:function(arm,size=0x90) addr:0x02158230
func_ov060_021582c0 kind:function(arm,size=0x18) addr:0x021582c0
func_ov060_021582d8 kind:function(arm,size=0x128) addr:0x021582d8
func_ov060_02158400 kind:function(arm,size=0xc) addr:0x02158400
func_ov060_0215840c kind:function(arm,size=0x6c) addr:0x0215840c
func_ov060_02158478 kind:function(arm,size=0x278) addr:0x02158478
func_ov060_021586f0 kind:function(arm,size=0x2c) addr:0x021586f0
func_ov060_0215871c kind:function(arm,size=0x44) addr:0x0215871c
func_ov060_02158760 kind:function(arm,size=0x58) addr:0x02158760
func_ov060_021587b8 kind:function(arm,size=0x44) addr:0x021587b8
func_ov060_021587fc kind:function(arm,size=0xc4) addr:0x021587fc
func_ov060_021588c0 kind:function(arm,size=0x128) addr:0x021588c0
func_ov060_021589e8 kind:function(arm,size=0xe8) addr:0x021589e8
func_ov060_02158ad0 kind:function(arm,size=0xb8) addr:0x02158ad0
func_ov060_02158b88 kind:function(arm,size=0xf0) addr:0x02158b88
func_ov060_02158c78 kind:function(arm,size=0x7c) addr:0x02158c78
func_ov060_02158cf4 kind:function(arm,size=0x18) addr:0x02158cf4
func_ov060_02158d0c kind:function(arm,size=0x78) addr:0x02158d0c
func_ov060_02158d84 kind:function(arm,size=0x20) addr:0x02158d84
func_ov060_02158da4 kind:function(arm,size=0x74) addr:0x02158da4
func_ov060_02158e18 kind:function(arm,size=0x44) addr:0x02158e18
func_ov060_02158e5c kind:function(arm,size=0xa0) addr:0x02158e5c
func_ov060_02158efc kind:function(arm,size=0x18) addr:0x02158efc
func_ov060_02158f14 kind:function(arm,size=0x30) addr:0x02158f14
func_ov060_02158f44 kind:function(arm,size=0xfc) addr:0x02158f44
func_ov060_02159040 kind:function(arm,size=0x98) addr:0x02159040
func_ov060_021590d8 kind:function(arm,size=0xdc) addr:0x021590d8
func_ov060_021591b4 kind:function(arm,size=0x24) addr:0x021591b4
func_ov060_021591d8 kind:function(arm,size=0x2c) addr:0x021591d8
_ZN19func_ov060_02159204D0Ev kind:function(arm,size=0x1c) addr:0x02159204
_ZN19func_ov060_02159220D0Ev kind:function(arm,size=0x28) addr:0x02159220
_ZN19func_ov060_02159248D2Ev kind:function(arm,size=0x20) addr:0x02159248
_ZN19ActorProfileUnkSOLDD1Ev kind:function(arm,size=0x14) addr:0x02159268
_ZN19ActorProfileUnkSOLBD1Ev kind:function(arm,size=0x14) addr:0x0215927c
_ZN19ActorProfileUnkSOLCD1Ev kind:function(arm,size=0x14) addr:0x02159290
_ZN19ActorProfileUnkSOLG10GetProfileEv kind:function(arm,size=0xc) addr:0x021592a4
_ZN19ActorProfileUnkSOLG6CreateEv kind:function(arm,size=0x24) addr:0x021592b0
_ZN19ActorProfileUnkSOLGC1Ev kind:function(arm,size=0x5c) addr:0x021592d4
_ZN19ActorProfileUnkSOGB10GetProfileEv kind:function(arm,size=0xc) addr:0x02159330
_ZN19ActorProfileUnkSOGB6CreateEv kind:function(arm,size=0x24) addr:0x0215933c
_ZN19ActorProfileUnkSOGBC1Ev kind:function(arm,size=0x60) addr:0x02159360
_ZN19ActorProfileUnkSOGC10GetProfileEv kind:function(arm,size=0xc) addr:0x021593c0
_ZN19ActorProfileUnkSOGC6CreateEv kind:function(arm,size=0x24) addr:0x021593cc
_ZN19ActorProfileUnkSOGCC1Ev kind:function(arm,size=0x5c) addr:0x021593f0
func_ov060_0215944c kind:function(arm,size=0x210) addr:0x0215944c
func_ov060_0215965c kind:function(arm,size=0x84) addr:0x0215965c
_ZN19func_ov060_021596e0D0Ev kind:function(arm,size=0x8c) addr:0x021596e0
func_ov060_0215976c kind:function(arm,size=0xcc) addr:0x0215976c
func_ov060_02159838 kind:function(arm,size=0x61c) addr:0x02159838
func_ov060_02159e54 kind:function(arm,size=0x38) addr:0x02159e54
func_ov060_02159e8c kind:function(arm,size=0x1b8) addr:0x02159e8c
func_ov060_0215a044 kind:function(arm,size=0x214) addr:0x0215a044
func_ov060_0215a258 kind:function(arm,size=0x30) addr:0x0215a258
func_ov060_0215a288 kind:function(arm,size=0x4c) addr:0x0215a288
func_ov060_0215a2d4 kind:function(arm,size=0xc) addr:0x0215a2d4
func_ov060_0215a2e0 kind:function(arm,size=0xc) addr:0x0215a2e0
func_ov060_0215a2ec kind:function(arm,size=0x18) addr:0x0215a2ec
func_ov060_0215a304 kind:function(arm,size=0x2c) addr:0x0215a304
func_ov060_0215a330 kind:function(arm,size=0x94) addr:0x0215a330
func_ov060_0215a3c4 kind:function(arm,size=0x8c) addr:0x0215a3c4
func_ov060_0215a450 kind:function(arm,size=0xa8) addr:0x0215a450
func_ov060_0215a4f8 kind:function(arm,size=0x2c4) addr:0x0215a4f8
func_ov060_0215a7bc kind:function(arm,size=0x74) addr:0x0215a7bc
func_ov060_0215a830 kind:function(arm,size=0x230) addr:0x0215a830
func_ov060_0215aa60 kind:function(arm,size=0x8c) addr:0x0215aa60
func_ov060_0215aaec kind:function(arm,size=0x2f4) addr:0x0215aaec
func_ov060_0215ade0 kind:function(arm,size=0x18) addr:0x0215ade0
func_ov060_0215adf8 kind:function(arm,size=0x17c) addr:0x0215adf8
func_ov060_0215af74 kind:function(arm,size=0x74) addr:0x0215af74
func_ov060_0215afe8 kind:function(arm,size=0xb4) addr:0x0215afe8
func_ov060_0215b09c kind:function(arm,size=0x4) addr:0x0215b09c
func_ov060_0215b0a0 kind:function(arm,size=0x8c) addr:0x0215b0a0
func_ov060_0215b12c kind:function(arm,size=0x74) addr:0x0215b12c
func_ov060_0215b1a0 kind:function(arm,size=0xcc) addr:0x0215b1a0
func_ov060_0215b26c kind:function(arm,size=0x1e4) addr:0x0215b26c
func_ov060_0215b450 kind:function(arm,size=0x234) addr:0x0215b450
func_ov060_0215b684 kind:function(arm,size=0x30) addr:0x0215b684
func_ov060_0215b6b4 kind:function(arm,size=0x1c4) addr:0x0215b6b4
func_ov060_0215b878 kind:function(arm,size=0x6c) addr:0x0215b878
func_ov060_0215b8e4 kind:function(arm,size=0x3c) addr:0x0215b8e4
func_ov060_0215b920 kind:function(arm,size=0x34) addr:0x0215b920
func_ov060_0215b954 kind:function(arm,size=0x410) addr:0x0215b954
func_ov060_0215bd64 kind:function(arm,size=0x22c) addr:0x0215bd64
func_ov060_0215bf90 kind:function(arm,size=0xc) addr:0x0215bf90
func_ov060_0215bf9c kind:function(arm,size=0x3c) addr:0x0215bf9c
func_ov060_0215bfd8 kind:function(arm,size=0x5c) addr:0x0215bfd8
func_ov060_0215c034 kind:function(arm,size=0xe4) addr:0x0215c034
func_ov060_0215c118 kind:function(arm,size=0x10c) addr:0x0215c118
func_ov060_0215c224 kind:function(arm,size=0x138) addr:0x0215c224
func_ov060_0215c35c kind:function(arm,size=0x34) addr:0x0215c35c
func_ov060_0215c390 kind:function(arm,size=0xe8) addr:0x0215c390
func_ov060_0215c478 kind:function(arm,size=0x74) addr:0x0215c478
func_ov060_0215c4ec kind:function(arm,size=0x44) addr:0x0215c4ec
func_ov060_0215c530 kind:function(arm,size=0xe4) addr:0x0215c530
func_ov060_0215c614 kind:function(arm,size=0x8c) addr:0x0215c614
_ZN19ActorProfileUnkSOLGD1Ev kind:function(arm,size=0x14) addr:0x0215c6a0
_ZN19ActorProfileUnkSOGBD1Ev kind:function(arm,size=0x14) addr:0x0215c6b4
_ZN19ActorProfileUnkSOGCD1Ev kind:function(arm,size=0x14) addr:0x0215c6c8
_ZN19ActorProfileUnkCOMM10GetProfileEv kind:function(arm,size=0xc) addr:0x0215c6dc
_ZN19ActorProfileUnkCOMM6CreateEv kind:function(arm,size=0x24) addr:0x0215c6e8
_ZN19ActorProfileUnkCOMMC1Ev kind:function(arm,size=0x5c) addr:0x0215c70c
_ZN12ActorUnkCOMMC1Ev kind:function(arm,size=0x144) addr:0x0215c768
_ZN12ActorUnkCOMM19func_ov060_0215c8acEv kind:function(arm,size=0x4c) addr:0x0215c8ac
_ZN12ActorUnkCOMM19func_ov060_0215c8f8Ev kind:function(arm,size=0x110) addr:0x0215c8f8
_ZN12ActorUnkCOMM19func_ov060_0215ca08Ev kind:function(arm,size=0x7c) addr:0x0215ca08
_ZN12ActorUnkCOMM19func_ov060_0215ca84Ev kind:function(arm,size=0x74) addr:0x0215ca84
_ZN12ActorUnkCOMM19func_ov060_0215caf8Ev kind:function(arm,size=0x3c) addr:0x0215caf8
_ZN12ActorUnkCOMM19func_ov060_0215cb34Ev kind:function(arm,size=0xc) addr:0x0215cb34
_ZN12ActorUnkCOMM19func_ov060_0215cb40Ev kind:function(arm,size=0x48) addr:0x0215cb40
_ZN12ActorUnkCOMM19func_ov060_0215cb88Ev kind:function(arm,size=0x1c) addr:0x0215cb88
_ZN12ActorUnkCOMM19func_ov060_0215cba4Ev kind:function(arm,size=0x40) addr:0x0215cba4
_ZN12ActorUnkCOMM19func_ov060_0215cbe4Ev kind:function(arm,size=0x6c) addr:0x0215cbe4
_ZN12ActorUnkCOMM19func_ov060_0215cc50Ev kind:function(arm,size=0x5c) addr:0x0215cc50
_ZN12ActorUnkCOMM19func_ov060_0215ccacEv kind:function(arm,size=0x18) addr:0x0215ccac
_ZN12ActorUnkCOMM19func_ov060_0215ccc4Ev kind:function(arm,size=0x14) addr:0x0215ccc4
_ZN12ActorUnkCOMM19func_ov060_0215ccd8Ev kind:function(arm,size=0x1c) addr:0x0215ccd8
_ZN12ActorUnkCOMM19func_ov060_0215ccf4Ev kind:function(arm,size=0x8) addr:0x0215ccf4
_ZN12ActorUnkCOMM19func_ov060_0215ccfcEv kind:function(arm,size=0xac) addr:0x0215ccfc
_ZN12ActorUnkCOMM19func_ov060_0215cda8Ev kind:function(arm,size=0x8) addr:0x0215cda8
_ZN12ActorUnkCOMM19func_ov060_0215cdb0Ev kind:function(arm,size=0x1c) addr:0x0215cdb0
_ZN12ActorUnkCOMM19func_ov060_0215cdccEv kind:function(arm,size=0x6c) addr:0x0215cdcc
_ZN12ActorUnkCOMM19func_ov060_0215ce38Ev kind:function(arm,size=0x34) addr:0x0215ce38
_ZN12ActorUnkCOMMD1Ev kind:function(arm,size=0x28) addr:0x0215ce6c
_ZN12ActorUnkCOMMD0Ev kind:function(arm,size=0x30) addr:0x0215ce94
_ZN19ActorProfileUnkCOMMD1Ev kind:function(arm,size=0x14) addr:0x0215cec4
_ZN19ActorProfileUnkOLDM10GetProfileEv kind:function(arm,size=0xc) addr:0x0215ced8
_ZN19ActorProfileUnkOLDM6CreateEv kind:function(arm,size=0x24) addr:0x0215cee4
_ZN19ActorProfileUnkOLDMC1Ev kind:function(arm,size=0x80) addr:0x0215cf08
_ZN12ActorUnkOLDMC1Ev kind:function(arm,size=0x134) addr:0x0215cf88
_ZN12ActorUnkOLDM19func_ov060_0215d0bcEv kind:function(arm,size=0x68) addr:0x0215d0bc
_ZN12ActorUnkOLDM19func_ov060_0215d124Ev kind:function(arm,size=0x17c) addr:0x0215d124
_ZN12ActorUnkOLDM19func_ov060_0215d2a0Ev kind:function(arm,size=0x30) addr:0x0215d2a0
_ZN12ActorUnkOLDM19func_ov060_0215d2d0Ev kind:function(arm,size=0x34) addr:0x0215d2d0
_ZN12ActorUnkOLDM19func_ov060_0215d304Ev kind:function(arm,size=0x44) addr:0x0215d304
_ZN12ActorUnkOLDM19func_ov060_0215d348Ev kind:function(arm,size=0x18) addr:0x0215d348
_ZN12ActorUnkOLDM19func_ov060_0215d360Ev kind:function(arm,size=0x18) addr:0x0215d360
_ZN12ActorUnkOLDM19func_ov060_0215d378Ev kind:function(arm,size=0x18) addr:0x0215d378
_ZN12ActorUnkOLDM19func_ov060_0215d390Ev kind:function(arm,size=0xc) addr:0x0215d390
_ZN12ActorUnkOLDM19func_ov060_0215d39cEv kind:function(arm,size=0xc) addr:0x0215d39c
_ZN12ActorUnkOLDM19func_ov060_0215d3a8Ev kind:function(arm,size=0x4) addr:0x0215d3a8
_ZN12ActorUnkOLDM19func_ov060_0215d3acEv kind:function(arm,size=0x10) addr:0x0215d3ac
_ZN12ActorUnkOLDM19func_ov060_0215d3bcEv kind:function(arm,size=0x4) addr:0x0215d3bc
_ZN12ActorUnkOLDM19func_ov060_0215d3c0Ev kind:function(arm,size=0xa8) addr:0x0215d3c0
_ZN12ActorUnkOLDMD1Ev kind:function(arm,size=0x28) addr:0x0215d468
_ZN12ActorUnkOLDMD0Ev kind:function(arm,size=0x30) addr:0x0215d490
_ZN19ActorProfileUnkOLDMD1Ev kind:function(arm,size=0x14) addr:0x0215d4c0
_ZN19ActorProfileUnkRMC010GetProfileEv kind:function(arm,size=0xc) addr:0x0215d4d4
_ZN19ActorProfileUnkRMC06CreateEv kind:function(arm,size=0x24) addr:0x0215d4e0
_ZN19ActorProfileUnkRMC0C1Ev kind:function(arm,size=0x28) addr:0x0215d504
_ZN12ActorUnkRMC019func_ov060_0215d52cEv kind:function(arm,size=0x68) addr:0x0215d52c
_ZN12ActorUnkRMC0C1Ev kind:function(arm,size=0x68) addr:0x0215d594
_ZN12ActorUnkRMC019func_ov060_0215d5fcEv kind:function(arm,size=0x14) addr:0x0215d5fc
_ZN12ActorUnkRMC019func_ov060_0215d610Ev kind:function(arm,size=0x24) addr:0x0215d610
_ZN12ActorUnkRMC019func_ov060_0215d634Ev kind:function(arm,size=0x14) addr:0x0215d634
_ZN12ActorUnkRMC019func_ov060_0215d648Ev kind:function(arm,size=0x68) addr:0x0215d648
_ZN12ActorUnkRMC019func_ov060_0215d6b0Ev kind:function(arm,size=0xac) addr:0x0215d6b0
_ZN12ActorUnkRMC019func_ov060_0215d75cEv kind:function(arm,size=0x14) addr:0x0215d75c
_ZN12ActorUnkRMC019func_ov060_0215d770Ev kind:function(arm,size=0x20) addr:0x0215d770
_ZN12ActorUnkRMC019func_ov060_0215d790Ev kind:function(arm,size=0x50) addr:0x0215d790
_ZN12ActorUnkRMC0D0Ev kind:function(arm,size=0x1c) addr:0x0215d7e0
_ZN12ActorUnkRMC0D1Ev kind:function(arm,size=0x38) addr:0x0215d7fc
_ZN12ActorUnkRMC019func_ov060_0215d834Ev kind:function(arm,size=0x40) addr:0x0215d834
_ZN19ActorProfileUnkRMC0D1Ev kind:function(arm,size=0x14) addr:0x0215d874
_ZN19ActorProfileUnkRMC110GetProfileEv kind:function(arm,size=0xc) addr:0x0215d888
_ZN19ActorProfileUnkRMC16CreateEv kind:function(arm,size=0x24) addr:0x0215d894
_ZN19ActorProfileUnkRMC1C1Ev kind:function(arm,size=0x28) addr:0x0215d8b8
_ZN12ActorUnkRMC1C1Ev kind:function(arm,size=0x20) addr:0x0215d8e0
_ZN12ActorUnkRMC119func_ov060_0215d900Ev kind:function(arm,size=0x50) addr:0x0215d900
_ZN12ActorUnkRMC1D1Ev kind:function(arm,size=0x38) addr:0x0215d950
_ZN12ActorUnkRMC1D0Ev kind:function(arm,size=0x40) addr:0x0215d988
_ZN19ActorProfileUnkRMC1D1Ev kind:function(arm,size=0x14) addr:0x0215d9c8
_ZN19ActorProfileUnkRMC210GetProfileEv kind:function(arm,size=0xc) addr:0x0215d9dc
_ZN19ActorProfileUnkRMC26CreateEv kind:function(arm,size=0x24) addr:0x0215d9e8
_ZN19ActorProfileUnkRMC2C1Ev kind:function(arm,size=0x3c) addr:0x0215da0c
_ZN12ActorUnkRMC2C1Ev kind:function(arm,size=0xfc) addr:0x0215da48
_ZN12ActorUnkRMC219func_ov060_0215db44Ev kind:function(arm,size=0x14) addr:0x0215db44
_ZN12ActorUnkRMC219func_ov060_0215db58Ev kind:function(arm,size=0xac) addr:0x0215db58
_ZN12ActorUnkRMC219func_ov060_0215dc04Ev kind:function(arm,size=0x18c) addr:0x0215dc04
_ZN12ActorUnkRMC219func_ov060_0215dd90Ev kind:function(arm,size=0x30) addr:0x0215dd90
_ZN12ActorUnkRMC219func_ov060_0215ddc0Ev kind:function(arm,size=0x14) addr:0x0215ddc0
_ZN12ActorUnkRMC219func_ov060_0215ddd4Ev kind:function(arm,size=0x12c) addr:0x0215ddd4
_ZN12ActorUnkRMC219func_ov060_0215df00Ev kind:function(arm,size=0x40) addr:0x0215df00
_ZN12ActorUnkRMC219func_ov060_0215df40Ev kind:function(arm,size=0x18) addr:0x0215df40
_ZN12ActorUnkRMC219func_ov060_0215df58Ev kind:function(arm,size=0x24) addr:0x0215df58
_ZN12ActorUnkRMC219func_ov060_0215df7cEv kind:function(arm,size=0x24) addr:0x0215df7c
_ZN12ActorUnkRMC219func_ov060_0215dfa0Ev kind:function(arm,size=0x10) addr:0x0215dfa0
_ZN12ActorUnkRMC219func_ov060_0215dfb0Ev kind:function(arm,size=0x8) addr:0x0215dfb0
_ZN12ActorUnkRMC2D0Ev kind:function(arm,size=0x1c) addr:0x0215dfb8
_ZN12ActorUnkRMC2D1Ev kind:function(arm,size=0x48) addr:0x0215dfd4
_ZN12ActorUnkRMC219func_ov060_0215e01cEv kind:function(arm,size=0x50) addr:0x0215e01c
_ZN19ActorProfileUnkRMC2D1Ev kind:function(arm,size=0x20) addr:0x0215e06c
_ZN19ActorProfileUnkRMC610GetProfileEv kind:function(arm,size=0xc) addr:0x0215e08c
_ZN19ActorProfileUnkRMC66CreateEv kind:function(arm,size=0x24) addr:0x0215e098
_ZN19ActorProfileUnkRMC6C1Ev kind:function(arm,size=0x28) addr:0x0215e0bc
_ZN12ActorUnkRMC6C1Ev kind:function(arm,size=0x20) addr:0x0215e0e4
_ZN12ActorUnkRMC619func_ov060_0215e104Ev kind:function(arm,size=0x4) addr:0x0215e104
_ZN12ActorUnkRMC619func_ov060_0215e108Ev kind:function(arm,size=0x50) addr:0x0215e108
_ZN12ActorUnkRMC6D1Ev kind:function(arm,size=0x20) addr:0x0215e158
_ZN12ActorUnkRMC6D0Ev kind:function(arm,size=0x28) addr:0x0215e178
_ZN19ActorProfileUnkRMC6D1Ev kind:function(arm,size=0x14) addr:0x0215e1a0
_ZN19ActorProfileUnkRMC310GetProfileEv kind:function(arm,size=0xc) addr:0x0215e1b4
_ZN19ActorProfileUnkRMC36CreateEv kind:function(arm,size=0x24) addr:0x0215e1c0
_ZN19ActorProfileUnkRMC3C1Ev kind:function(arm,size=0x28) addr:0x0215e1e4
_ZN12ActorUnkRMC3C1Ev kind:function(arm,size=0xfc) addr:0x0215e20c
_ZN12ActorUnkRMC319func_ov060_0215e308Ev kind:function(arm,size=0x14) addr:0x0215e308
_ZN12ActorUnkRMC319func_ov060_0215e31cEv kind:function(arm,size=0x194) addr:0x0215e31c
_ZN12ActorUnkRMC319func_ov060_0215e4b0Ev kind:function(arm,size=0x18) addr:0x0215e4b0
_ZN12ActorUnkRMC319func_ov060_0215e4c8Ev kind:function(arm,size=0x14) addr:0x0215e4c8
_ZN12ActorUnkRMC319func_ov060_0215e4dcEv kind:function(arm,size=0x40) addr:0x0215e4dc
_ZN12ActorUnkRMC319func_ov060_0215e51cEv kind:function(arm,size=0x24) addr:0x0215e51c
_ZN12ActorUnkRMC3D0Ev kind:function(arm,size=0x1c) addr:0x0215e540
_ZN12ActorUnkRMC3D1Ev kind:function(arm,size=0x48) addr:0x0215e55c
_ZN12ActorUnkRMC319func_ov060_0215e5a4Ev kind:function(arm,size=0x50) addr:0x0215e5a4
_ZN19ActorProfileUnkRMC3D1Ev kind:function(arm,size=0x14) addr:0x0215e5f4
_ZN19ActorProfileUnkRMC410GetProfileEv kind:function(arm,size=0xc) addr:0x0215e608
_ZN19ActorProfileUnkRMC46CreateEv kind:function(arm,size=0x24) addr:0x0215e614
_ZN19ActorProfileUnkRMC4C1Ev kind:function(arm,size=0x28) addr:0x0215e638
_ZN12ActorUnkRMC4C1Ev kind:function(arm,size=0x20) addr:0x0215e660
_ZN12ActorUnkRMC419func_ov060_0215e680Ev kind:function(arm,size=0x4) addr:0x0215e680
_ZN12ActorUnkRMC419func_ov060_0215e684Ev kind:function(arm,size=0x50) addr:0x0215e684
_ZN12ActorUnkRMC4D1Ev kind:function(arm,size=0x20) addr:0x0215e6d4
_ZN12ActorUnkRMC4D0Ev kind:function(arm,size=0x28) addr:0x0215e6f4
_ZN19ActorProfileUnkRMC4D1Ev kind:function(arm,size=0x14) addr:0x0215e71c
_ZN19ActorProfileUnkRMC510GetProfileEv kind:function(arm,size=0xc) addr:0x0215e730
_ZN19ActorProfileUnkRMC56CreateEv kind:function(arm,size=0x24) addr:0x0215e73c
_ZN19ActorProfileUnkRMC5C1Ev kind:function(arm,size=0x28) addr:0x0215e760
_ZN12ActorUnkRMC5C1Ev kind:function(arm,size=0x74) addr:0x0215e788
_ZN12ActorUnkRMC519func_ov060_0215e7fcEv kind:function(arm,size=0x4) addr:0x0215e7fc
_ZN12ActorUnkRMC519func_ov060_0215e800Ev kind:function(arm,size=0x84) addr:0x0215e800
_ZN12ActorUnkRMC519func_ov060_0215e884Ev kind:function(arm,size=0x14) addr:0x0215e884
_ZN12ActorUnkRMC519func_ov060_0215e898Ev kind:function(arm,size=0x50) addr:0x0215e898
_ZN12ActorUnkRMC5D1Ev kind:function(arm,size=0x38) addr:0x0215e8e8
_ZN12ActorUnkRMC5D0Ev kind:function(arm,size=0x40) addr:0x0215e920
_ZN19ActorProfileUnkRMC5D1Ev kind:function(arm,size=0x14) addr:0x0215e960
_ZN19ActorProfileUnkCASL10GetProfileEv kind:function(arm,size=0xc) addr:0x0215e974
_ZN19ActorProfileUnkCASL6CreateEv kind:function(arm,size=0x24) addr:0x0215e980
_ZN19ActorProfileUnkCASLC1Ev kind:function(arm,size=0x28) addr:0x0215e9a4
_ZN12ActorUnkCASLC1Ev kind:function(arm,size=0xc4) addr:0x0215e9cc
_ZN18UnkStruct_027e0d70D1Ev kind:function(arm,size=0x6c) addr:0x0215ea90
_ZN12ActorUnkCASL19func_ov060_0215eafcEv kind:function(arm,size=0x14) addr:0x0215eafc
_ZN12ActorUnkCASL19func_ov060_0215eb10Ev kind:function(arm,size=0x14) addr:0x0215eb10
_ZN12ActorUnkCASL19func_ov060_0215eb24Ev kind:function(arm,size=0x20) addr:0x0215eb24
_ZN12ActorUnkCASLD1Ev kind:function(arm,size=0x28) addr:0x0215eb44
_ZN12ActorUnkCASLD0Ev kind:function(arm,size=0x30) addr:0x0215eb6c
_ZN19ActorProfileUnkCASLD1Ev kind:function(arm,size=0x14) addr:0x0215eb9c
_ZN19ActorProfileUnkCAST10GetProfileEv kind:function(arm,size=0xc) addr:0x0215ebb0
_ZN19ActorProfileUnkCAST6CreateEv kind:function(arm,size=0x24) addr:0x0215ebbc
_ZN19ActorProfileUnkCASTC1Ev kind:function(arm,size=0x28) addr:0x0215ebe0
_ZN12ActorUnkCASTC1Ev kind:function(arm,size=0x74) addr:0x0215ec08
_ZN12ActorUnkCAST19func_ov060_0215ec7cEv kind:function(arm,size=0x28) addr:0x0215ec7c
_ZN12ActorUnkCAST19func_ov060_0215eca4Ev kind:function(arm,size=0x4) addr:0x0215eca4
_ZN12ActorUnkCAST19func_ov060_0215eca8Ev kind:function(arm,size=0x14) addr:0x0215eca8
_ZN12ActorUnkCAST19func_ov060_0215ecbcEv kind:function(arm,size=0x20) addr:0x0215ecbc
_ZN12ActorUnkCASTD1Ev kind:function(arm,size=0x20) addr:0x0215ecdc
_ZN12ActorUnkCASTD0Ev kind:function(arm,size=0x28) addr:0x0215ecfc
_ZN19ActorProfileUnkCASTD1Ev kind:function(arm,size=0x14) addr:0x0215ed24
func_ov060_0215ed38 kind:function(arm,size=0x20) addr:0x0215ed38
func_ov060_0215ed58 kind:function(arm,size=0xc) addr:0x0215ed58
_ZN19ActorProfileUnkZLSN10GetProfileEv kind:function(arm,size=0xc) addr:0x0215ed64
_ZN19ActorProfileUnkZLSN6CreateEv kind:function(arm,size=0x28) addr:0x0215ed70
_ZN19ActorProfileUnkZLSNC1Ev kind:function(arm,size=0x68) addr:0x0215ed98
_ZN12ActorUnkZLSNC1Ev kind:function(arm,size=0x348) addr:0x0215ee00
_ZN12ActorUnkZLSN19func_ov060_0215f148Ev kind:function(arm,size=0x14) addr:0x0215f148
_ZN12ActorUnkZLSN19func_ov060_0215f15cEv kind:function(arm,size=0x14) addr:0x0215f15c
_ZN12ActorUnkZLSN19func_ov060_0215f170Ev kind:function(arm,size=0x14) addr:0x0215f170
_ZN12ActorUnkZLSN19func_ov060_0215f184Ev kind:function(arm,size=0xb0) addr:0x0215f184
_ZN12ActorUnkZLSND0Ev kind:function(arm,size=0xb8) addr:0x0215f234
_ZN12ActorUnkZLSN19func_ov060_0215f2ecEv kind:function(arm,size=0x44) addr:0x0215f2ec
_ZN12ActorUnkZLSN19func_ov060_0215f330Ev kind:function(arm,size=0x1bc) addr:0x0215f330
_ZN12ActorUnkZLSN19func_ov060_0215f4ecEv kind:function(arm,size=0x70) addr:0x0215f4ec
_ZN12ActorUnkZLSN19func_ov060_0215f55cEv kind:function(arm,size=0x74) addr:0x0215f55c
_ZN12ActorUnkZLSN19func_ov060_0215f5d0Ev kind:function(arm,size=0x1bc) addr:0x0215f5d0
_ZN12ActorUnkZLSN19func_ov060_0215f78cEv kind:function(arm,size=0x38) addr:0x0215f78c
_ZN12ActorUnkZLSN19func_ov060_0215f7c4Ev kind:function(arm,size=0xc) addr:0x0215f7c4
_ZN12ActorUnkZLSN19func_ov060_0215f7d0Ev kind:function(arm,size=0x3c) addr:0x0215f7d0
_ZN12ActorUnkZLSN19func_ov060_0215f80cEv kind:function(arm,size=0x8) addr:0x0215f80c
_ZN12ActorUnkZLSN19func_ov060_0215f814Ev kind:function(arm,size=0x110) addr:0x0215f814
_ZN12ActorUnkZLSN19func_ov060_0215f924Ev kind:function(arm,size=0xbc) addr:0x0215f924
_ZN12ActorUnkZLSN19func_ov060_0215f9e0Ev kind:function(arm,size=0x1c8) addr:0x0215f9e0
_ZN12ActorUnkZLSN19func_ov060_0215fba8Ev kind:function(arm,size=0xd8) addr:0x0215fba8
_ZN12ActorUnkZLSN19func_ov060_0215fc80Ev kind:function(arm,size=0xb8) addr:0x0215fc80
_ZN12ActorUnkZLSN19func_ov060_0215fd38Ev kind:function(arm,size=0x144) addr:0x0215fd38
_ZN12ActorUnkZLSN19func_ov060_0215fe7cEv kind:function(arm,size=0xcc) addr:0x0215fe7c
_ZN12ActorUnkZLSN19func_ov060_0215ff48Ev kind:function(arm,size=0x178) addr:0x0215ff48
_ZN12ActorUnkZLSN19func_ov060_021600c0Ev kind:function(arm,size=0xc) addr:0x021600c0
_ZN12ActorUnkZLSN19func_ov060_021600ccEv kind:function(arm,size=0x1c) addr:0x021600cc
_ZN12ActorUnkZLSN19func_ov060_021600e8Ev kind:function(arm,size=0x1c) addr:0x021600e8
_ZN12ActorUnkZLSN19func_ov060_02160104Ev kind:function(arm,size=0x1c) addr:0x02160104
_ZN19ActorProfileUnkZLSND1Ev kind:function(arm,size=0x14) addr:0x02160120
_ZN19ActorProfileUnkKIMA10GetProfileEv kind:function(arm,size=0xc) addr:0x02160134
_ZN19ActorProfileUnkKIMA6CreateEv kind:function(arm,size=0x24) addr:0x02160140
_ZN19ActorProfileUnkKIMAC1Ev kind:function(arm,size=0x54) addr:0x02160164
_ZN12ActorUnkKIMAC1Ev kind:function(arm,size=0x124) addr:0x021601b8
_ZN12ActorUnkKIMAD1Ev kind:function(arm,size=0x28) addr:0x021602dc
_ZN12ActorUnkKIMAD0Ev kind:function(arm,size=0x30) addr:0x02160304
_ZN12ActorUnkKIMA19func_ov060_02160334Ev kind:function(arm,size=0xc) addr:0x02160334
_ZN12ActorUnkKIMA19func_ov060_02160340Ev kind:function(arm,size=0x8) addr:0x02160340
_ZN12ActorUnkKIMA19func_ov060_02160348Ev kind:function(arm,size=0x8) addr:0x02160348
_ZN19ActorProfileUnkKIMAD1Ev kind:function(arm,size=0x14) addr:0x02160350
_ZN23MapObjectProfileUnkPLCT10GetProfileEv kind:function(arm,size=0xc) addr:0x02160364
_ZN23MapObjectProfileUnkPLCT6CreateEv kind:function(arm,size=0x24) addr:0x02160370
_ZN23MapObjectProfileUnkPLCTC1Ev kind:function(arm,size=0x98) addr:0x02160394
_ZN16MapObjectUnkPLCTC1Ev kind:function(arm,size=0x80) addr:0x0216042c
_ZN16MapObjectUnkPLCT19func_ov060_021604acEv kind:function(arm,size=0x8) addr:0x021604ac
_ZN16MapObjectUnkPLCT19func_ov060_021604b4Ev kind:function(arm,size=0x4) addr:0x021604b4
_ZN16MapObjectUnkPLCT19func_ov060_021604b8Ev kind:function(arm,size=0x20) addr:0x021604b8
_ZN16MapObjectUnkPLCTD1Ev kind:function(arm,size=0x20) addr:0x021604d8
_ZN16MapObjectUnkPLCTD0Ev kind:function(arm,size=0x28) addr:0x021604f8
_ZN23MapObjectProfileUnkPLCTD1Ev kind:function(arm,size=0x14) addr:0x02160520
_ZN23MapObjectProfileUnkDFNC10GetProfileEv kind:function(arm,size=0xc) addr:0x02160534
_ZN23MapObjectProfileUnkDFNC6CreateEv kind:function(arm,size=0x24) addr:0x02160540
_ZN23MapObjectProfileUnkDFNCC1Ev kind:function(arm,size=0xac) addr:0x02160564
_ZN16MapObjectUnkDFNCC1Ev kind:function(arm,size=0x54) addr:0x02160610
_ZN16MapObjectUnkDFNC19func_ov060_02160664Ev kind:function(arm,size=0x50) addr:0x02160664
_ZN16MapObjectUnkDFNC19func_ov060_021606b4Ev kind:function(arm,size=0x210) addr:0x021606b4
_ZN16MapObjectUnkDFNC19func_ov060_021608c4Ev kind:function(arm,size=0x60) addr:0x021608c4
_ZN16MapObjectUnkDFNC19func_ov060_02160924Ev kind:function(arm,size=0x44) addr:0x02160924
_ZN16MapObjectUnkDFNC19func_ov060_02160968Ev kind:function(arm,size=0x18) addr:0x02160968
_ZN16MapObjectUnkDFNCD1Ev kind:function(arm,size=0x20) addr:0x02160980
_ZN16MapObjectUnkDFNCD0Ev kind:function(arm,size=0x28) addr:0x021609a0
_ZN23MapObjectProfileUnkDFNCD1Ev kind:function(arm,size=0x14) addr:0x021609c8
_ZN23MapObjectProfileUnkEXCT10GetProfileEv kind:function(arm,size=0xc) addr:0x021609dc
_ZN23MapObjectProfileUnkEXCT6CreateEv kind:function(arm,size=0x24) addr:0x021609e8
_ZN23MapObjectProfileUnkEXCTC1Ev kind:function(arm,size=0x44) addr:0x02160a0c
_ZN16MapObjectUnkEXCTC1Ev kind:function(arm,size=0x34) addr:0x02160a50
_ZN16MapObjectUnkEXCT19func_ov060_02160a84Ev kind:function(arm,size=0xcc) addr:0x02160a84
_ZN16MapObjectUnkEXCTD1Ev kind:function(arm,size=0x14) addr:0x02160b50
_ZN16MapObjectUnkEXCTD0Ev kind:function(arm,size=0x1c) addr:0x02160b64
_ZN23MapObjectProfileUnkEXCTD1Ev kind:function(arm,size=0x14) addr:0x02160b80
data_ov060_02160b94 kind:data(any) addr:0x02160b94
data_ov060_02160b9c kind:data(any) addr:0x02160b9c
data_ov060_02160bac kind:data(any) addr:0x02160bac
data_ov060_02160bb8 kind:data(any) addr:0x02160bb8 ambiguous
data_ov060_02160bbc kind:data(any) addr:0x02160bbc
data_ov060_02160bcc kind:data(any) addr:0x02160bcc
data_ov060_02160be4 kind:data(any) addr:0x02160be4
data_ov060_02160bec kind:data(any) addr:0x02160bec
data_ov060_02160c1c kind:data(any) addr:0x02160c1c
__sinit_ActorUnkSOLB_SOLC_SOLD.cpp kind:function(arm,size=0xd8) addr:0x02160cdc
__sinit_ActorUnkSOGB_SOGC_SOLG.cpp kind:function(arm,size=0x118) addr:0x02160db4
__sinit_ActorUnkCOMM.cpp kind:function(arm,size=0x70) addr:0x02160ecc
__sinit_ActorUnkOLDM.cpp kind:function(arm,size=0x50) addr:0x02160f3c
__sinit_ActorUnkRMC0.cpp kind:function(arm,size=0x50) addr:0x02160f8c
__sinit_ActorUnkRMC1.cpp kind:function(arm,size=0x50) addr:0x02160fdc
__sinit_ActorUnkRMC2.cpp kind:function(arm,size=0x50) addr:0x0216102c
__sinit_ActorUnkRMC6.cpp kind:function(arm,size=0x50) addr:0x0216107c
__sinit_ActorUnkRMC3.cpp kind:function(arm,size=0x50) addr:0x021610cc
__sinit_ActorUnkRMC4.cpp kind:function(arm,size=0x50) addr:0x0216111c
__sinit_ActorUnkRMC5.cpp kind:function(arm,size=0x50) addr:0x0216116c
__sinit_ActorUnkCASL.cpp kind:function(arm,size=0x50) addr:0x021611bc
__sinit_ActorUnkCAST.cpp kind:function(arm,size=0x50) addr:0x0216120c
__sinit_ActorUnkZLSN.cpp kind:function(arm,size=0x50) addr:0x0216125c
__sinit_ActorUnkKIMA.cpp kind:function(arm,size=0x50) addr:0x021612ac
__sinit_MapObjectUnkPLCT.cpp kind:function(arm,size=0x50) addr:0x021612fc
__sinit_MapObjectUnkDFNC.cpp kind:function(arm,size=0x50) addr:0x0216134c
__sinit_MapObjectUnkEXCT.cpp kind:function(arm,size=0x50) addr:0x0216139c
.p__sinit_ActorUnkSOLB_SOLC_SOLD.cpp kind:data(word) addr:0x021613ec
.p__sinit_ActorUnkSOGB_SOGC_SOLG.cpp kind:data(word) addr:0x021613f0
.p__sinit_ActorUnkCOMM.cpp kind:data(word) addr:0x021613f4
.p__sinit_ActorUnkOLDM.cpp kind:data(word) addr:0x021613f8
.p__sinit_ActorUnkRMC0.cpp kind:data(word) addr:0x021613fc
.p__sinit_ActorUnkRMC1.cpp kind:data(word) addr:0x02161400
.p__sinit_ActorUnkRMC2.cpp kind:data(word) addr:0x02161404
.p__sinit_ActorUnkRMC6.cpp kind:data(word) addr:0x02161408
.p__sinit_ActorUnkRMC3.cpp kind:data(word) addr:0x0216140c
.p__sinit_ActorUnkRMC4.cpp kind:data(word) addr:0x02161410
.p__sinit_ActorUnkRMC5.cpp kind:data(word) addr:0x02161414
.p__sinit_ActorUnkCASL.cpp kind:data(word) addr:0x02161418
.p__sinit_ActorUnkCAST.cpp kind:data(word) addr:0x0216141c
.p__sinit_ActorUnkZLSN.cpp kind:data(word) addr:0x02161420
.p__sinit_ActorUnkKIMA.cpp kind:data(word) addr:0x02161424
.p__sinit_MapObjectUnkPLCT.cpp kind:data(word) addr:0x02161428
.p__sinit_MapObjectUnkDFNC.cpp kind:data(word) addr:0x0216142c
.p__sinit_MapObjectUnkEXCT.cpp kind:data(word) addr:0x02161430
_ZTV19data_ov060_02161440 kind:data(any) addr:0x02161440
_ZTV19data_ov060_02161464 kind:data(any) addr:0x02161464
_ZTV19data_ov060_02161488 kind:data(any) addr:0x02161488
data_ov060_021614b4 kind:data(any) addr:0x021614b4
data_ov060_021614f8 kind:data(any) addr:0x021614f8
data_ov060_02161510 kind:data(any) addr:0x02161510
data_ov060_02161520 kind:data(any) addr:0x02161520 ambiguous
data_ov060_0216153c kind:data(any) addr:0x0216153c ambiguous
data_ov060_02161540 kind:data(any) addr:0x02161540
data_ov060_02161558 kind:data(any) addr:0x02161558
data_ov060_021615c8 kind:data(any) addr:0x021615c8
_ZTV19data_ov060_02161638 kind:data(any) addr:0x02161638
_ZTV19data_ov060_02161754 kind:data(any) addr:0x02161754
data_ov060_02161870 kind:data(any) addr:0x02161870
_ZTV19data_ov060_02161884 kind:data(any) addr:0x02161884
_ZTV19data_ov060_02161898 kind:data(any) addr:0x02161898 ambiguous
_ZTV19data_ov060_021618a8 kind:data(any) addr:0x021618a8
_ZTV19data_ov060_021618cc kind:data(any) addr:0x021618cc
data_ov060_021618f0 kind:data(any) addr:0x021618f0
data_ov060_02161908 kind:data(any) addr:0x02161908
data_ov060_02161938 kind:data(any) addr:0x02161938
data_ov060_0216195c kind:data(any) addr:0x0216195c ambiguous
data_ov060_021619d8 kind:data(any) addr:0x021619d8
data_ov060_02161a28 kind:data(any) addr:0x02161a28 ambiguous
_ZTV19data_ov060_02161a78 kind:data(any) addr:0x02161a78
_ZTV19data_ov060_02161ae4 kind:data(any) addr:0x02161ae4 ambiguous
data_ov060_02161b94 kind:data(any) addr:0x02161b94
_ZTV19data_ov060_02161ba4 kind:data(any) addr:0x02161ba4
data_ov060_02161bc8 kind:data(any) addr:0x02161bc8
data_ov060_02161bcc kind:data(any) addr:0x02161bcc ambiguous
data_ov060_02161be0 kind:data(any) addr:0x02161be0 ambiguous
data_ov060_02161c28 kind:data(any) addr:0x02161c28
data_ov060_02161c2c kind:data(any) addr:0x02161c2c ambiguous
data_ov060_02161c88 kind:data(any) addr:0x02161c88
data_ov060_02161cd0 kind:data(any) addr:0x02161cd0
data_ov060_02161ce8 kind:data(any) addr:0x02161ce8 ambiguous
data_ov060_02161d00 kind:data(any) addr:0x02161d00
_ZTV19data_ov060_02161d18 kind:data(any) addr:0x02161d18
_ZTV19data_ov060_02161e34 kind:data(any) addr:0x02161e34
data_ov060_02161e58 kind:data(any) addr:0x02161e58
data_ov060_02161ed0 kind:data(any) addr:0x02161ed0
data_ov060_02161ef0 kind:data(any) addr:0x02161ef0 ambiguous
data_ov060_02161f48 kind:data(any) addr:0x02161f48
_ZTV19data_ov060_02162020 kind:data(any) addr:0x02162020
_ZTV19data_ov060_021620b8 kind:data(any) addr:0x021620b8 ambiguous
_ZTV19data_ov060_02162154 kind:data(any) addr:0x02162154
data_ov060_02162180 kind:data(any) addr:0x02162180
_ZTV19data_ov060_021621a4 kind:data(any) addr:0x021621a4
data_ov060_021621a8 kind:data(any) addr:0x021621a8 ambiguous
data_ov060_02162204 kind:data(any) addr:0x02162204
data_ov060_02162210 kind:data(any) addr:0x02162210
data_ov060_0216221c kind:data(any) addr:0x0216221c
data_ov060_02162228 kind:data(any) addr:0x02162228
_ZTV19data_ov060_02162234 kind:data(any) addr:0x02162234
_ZTV19data_ov060_02162258 kind:data(any) addr:0x02162258
data_ov060_021622b8 kind:data(any) addr:0x021622b8
_ZTV19data_ov060_021622d0 kind:data(any) addr:0x021622d0
data_ov060_021622fc kind:data(any) addr:0x021622fc
data_ov060_02162320 kind:data(any) addr:0x02162320
_ZTV19data_ov060_02162360 kind:data(any) addr:0x02162360
data_ov060_021623c0 kind:data(any) addr:0x021623c0
data_ov060_021623cc kind:data(any) addr:0x021623cc
data_ov060_021623d8 kind:data(any) addr:0x021623d8
data_ov060_021623e4 kind:data(any) addr:0x021623e4
_ZTV19data_ov060_021623ec kind:data(any) addr:0x021623ec
_ZTV19data_ov060_02162410 kind:data(any) addr:0x02162410
_ZTV19data_ov060_02162458 kind:data(any) addr:0x02162458 ambiguous
data_ov060_02162470 kind:data(any) addr:0x02162470
_ZTV19data_ov060_02162488 kind:data(any) addr:0x02162488
data_ov060_021624b4 kind:data(any) addr:0x021624b4
_ZTV19data_ov060_021624f4 kind:data(any) addr:0x021624f4
data_ov060_02162554 kind:data(any) addr:0x02162554
data_ov060_0216255c kind:data(any) addr:0x0216255c
data_ov060_02162568 kind:data(any) addr:0x02162568
data_ov060_02162574 kind:data(any) addr:0x02162574
_ZTV19data_ov060_02162580 kind:data(any) addr:0x02162580
_ZTV19data_ov060_021625a4 kind:data(any) addr:0x021625a4
_ZTV19data_ov060_02162604 kind:data(any) addr:0x02162604
_ZTV19data_ov060_02162628 kind:data(any) addr:0x02162628
data_ov060_02162688 kind:data(any) addr:0x02162688
data_ov060_02162694 kind:data(any) addr:0x02162694
data_ov060_021626a0 kind:data(any) addr:0x021626a0
data_ov060_021626ac kind:data(any) addr:0x021626ac
_ZTV19data_ov060_021626c4 kind:data(any) addr:0x021626c4
_ZTV19data_ov060_021626e8 kind:data(any) addr:0x021626e8
_ZTV19data_ov060_02162710 kind:data(any) addr:0x02162710 ambiguous
_ZTV19data_ov060_02162744 kind:data(any) addr:0x02162744
_ZTV19data_ov060_02162768 kind:data(any) addr:0x02162768
_ZTV19data_ov060_021627c4 kind:data(any) addr:0x021627c4
data_ov060_021627f0 kind:data(any) addr:0x021627f0
data_ov060_0216281c kind:data(any) addr:0x0216281c
data_ov060_02162864 kind:data(any) addr:0x02162864
data_ov060_021628a4 kind:data(any) addr:0x021628a4
data_ov060_02162934 kind:data(any) addr:0x02162934
_ZTV19data_ov060_0216294c kind:data(any) addr:0x0216294c
_ZTV19data_ov060_021629c8 kind:data(any) addr:0x021629c8 ambiguous
data_ov060_02162a68 kind:data(any) addr:0x02162a68
data_ov060_02162b10 kind:data(any) addr:0x02162b10
data_ov060_02162b28 kind:data(any) addr:0x02162b28
data_ov060_02162b78 kind:data(any) addr:0x02162b78 ambiguous
_ZTV19data_ov060_02162bb8 kind:data(any) addr:0x02162bb8
data_ov060_02162bdc kind:data(any) addr:0x02162bdc
_ZTV19data_ov060_02162c24 kind:data(any) addr:0x02162c24
_ZTV19data_ov060_02162c94 kind:data(any) addr:0x02162c94 ambiguous
data_ov060_02162d4c kind:data(any) addr:0x02162d4c
data_ov060_02162d68 kind:data(any) addr:0x02162d68
data_ov060_02162d84 kind:data(any) addr:0x02162d84
data_ov060_02162dac kind:data(any) addr:0x02162dac
data_ov060_02162dec kind:data(any) addr:0x02162dec
data_ov060_02162e08 kind:data(any) addr:0x02162e08
data_ov060_02162e24 kind:data(any) addr:0x02162e24
data_ov060_02162e4c kind:data(any) addr:0x02162e4c
data_ov060_02162e90 kind:data(any) addr:0x02162e90
data_ov060_02162eac kind:data(any) addr:0x02162eac
data_ov060_02162f00 kind:bss addr:0x02162f00
data_ov060_02162f0c kind:bss addr:0x02162f0c
_ZGVN15ProfileInstanceI19ActorProfileUnkSOLDE8sProfileE kind:bss addr:0x02162f18
@12283 kind:bss addr:0x02162f24
_ZN15ProfileInstanceI19ActorProfileUnkSOLDE8sProfileE kind:bss addr:0x02162f30
data_ov060_02162f34 kind:bss addr:0x02162f34 ambiguous
_ZN15ProfileInstanceI19ActorProfileUnkSOLBE8sProfileE kind:bss addr:0x02163008
_ZN15ProfileInstanceI19ActorProfileUnkSOLCE8sProfileE kind:bss addr:0x021630e0
data_ov060_021631b8 kind:bss addr:0x021631b8
data_ov060_021631c4 kind:bss addr:0x021631c4
data_ov060_021631d0 kind:bss addr:0x021631d0
data_ov060_021631dc kind:bss addr:0x021631dc
_ZGVN15ProfileInstanceI19ActorProfileUnkSOLGE8sProfileE kind:bss addr:0x021631e8
@12289 kind:bss addr:0x021631f4
_ZN15ProfileInstanceI19ActorProfileUnkSOLGE8sProfileE kind:bss addr:0x02163200
data_ov060_02163228 kind:bss addr:0x02163228 ambiguous
_ZN15ProfileInstanceI19ActorProfileUnkSOGBE8sProfileE kind:bss addr:0x02163244
_ZN15ProfileInstanceI19ActorProfileUnkSOGCE8sProfileE kind:bss addr:0x02163288
_ZGVN15ProfileInstanceI19ActorProfileUnkCOMME8sProfileE kind:bss addr:0x021632cc
@12295 kind:bss addr:0x021632d0
_ZN15ProfileInstanceI19ActorProfileUnkCOMME8sProfileE kind:bss addr:0x021632dc
data_ov060_021632e0 kind:bss addr:0x021632e0
_ZGVN15ProfileInstanceI19ActorProfileUnkOLDME8sProfileE kind:bss addr:0x021633b4
@12301 kind:bss addr:0x021633b8
_ZN15ProfileInstanceI19ActorProfileUnkOLDME8sProfileE kind:bss addr:0x021633c4
_ZGVN15ProfileInstanceI19ActorProfileUnkRMC0E8sProfileE kind:bss addr:0x0216349c
@12307 kind:bss addr:0x021634a0
_ZN15ProfileInstanceI19ActorProfileUnkRMC0E8sProfileE kind:bss addr:0x021634ac
data_ov060_02163518 kind:bss addr:0x02163518 ambiguous
_ZGVN15ProfileInstanceI19ActorProfileUnkRMC1E8sProfileE kind:bss addr:0x02163584
@12313 kind:bss addr:0x02163588
_ZN15ProfileInstanceI19ActorProfileUnkRMC1E8sProfileE kind:bss addr:0x02163594
_ZGVN15ProfileInstanceI19ActorProfileUnkRMC2E8sProfileE kind:bss addr:0x0216366c
@12319 kind:bss addr:0x02163670
_ZN15ProfileInstanceI19ActorProfileUnkRMC2E8sProfileE kind:bss addr:0x0216367c
data_ov060_02163754 kind:bss addr:0x02163754
_ZGVN15ProfileInstanceI19ActorProfileUnkRMC6E8sProfileE kind:bss addr:0x021637b8
@12325 kind:bss addr:0x021637bc
_ZN15ProfileInstanceI19ActorProfileUnkRMC6E8sProfileE kind:bss addr:0x021637c8
_ZGVN15ProfileInstanceI19ActorProfileUnkRMC3E8sProfileE kind:bss addr:0x021638a0
@12331 kind:bss addr:0x021638a4
_ZN15ProfileInstanceI19ActorProfileUnkRMC3E8sProfileE kind:bss addr:0x021638b0
_ZGVN15ProfileInstanceI19ActorProfileUnkRMC4E8sProfileE kind:bss addr:0x02163988
@12337 kind:bss addr:0x0216398c
_ZN15ProfileInstanceI19ActorProfileUnkRMC4E8sProfileE kind:bss addr:0x02163998
_ZGVN15ProfileInstanceI19ActorProfileUnkRMC5E8sProfileE kind:bss addr:0x02163a70
@12343 kind:bss addr:0x02163a74
_ZN15ProfileInstanceI19ActorProfileUnkRMC5E8sProfileE kind:bss addr:0x02163a80
_ZGVN15ProfileInstanceI19ActorProfileUnkCASLE8sProfileE kind:bss addr:0x02163b58
@12349 kind:bss addr:0x02163b5c
_ZN15ProfileInstanceI19ActorProfileUnkCASLE8sProfileE kind:bss addr:0x02163b68
_ZGVN15ProfileInstanceI19ActorProfileUnkCASTE8sProfileE kind:bss addr:0x02163c40
@12355 kind:bss addr:0x02163c44
_ZN15ProfileInstanceI19ActorProfileUnkCASTE8sProfileE kind:bss addr:0x02163c50
_ZGVN15ProfileInstanceI19ActorProfileUnkZLSNE8sProfileE kind:bss addr:0x02163d28
@12361 kind:bss addr:0x02163d2c
_ZN15ProfileInstanceI19ActorProfileUnkZLSNE8sProfileE kind:bss addr:0x02163d38
_ZGVN15ProfileInstanceI19ActorProfileUnkKIMAE8sProfileE kind:bss addr:0x02163e10
@12367 kind:bss addr:0x02163e14
_ZN15ProfileInstanceI19ActorProfileUnkKIMAE8sProfileE kind:bss addr:0x02163e20
_ZGVN15ProfileInstanceI23MapObjectProfileUnkPLCTE8sProfileE kind:bss addr:0x02163ef8
@11970 kind:bss addr:0x02163efc
_ZN15ProfileInstanceI23MapObjectProfileUnkPLCTE8sProfileE kind:bss addr:0x02163f08
data_ov060_02163fdc kind:bss addr:0x02163fdc
data_ov060_02163fe0 kind:bss addr:0x02163fe0 ambiguous
data_ov060_02163ff4 kind:bss addr:0x02163ff4 ambiguous
_ZGVN15ProfileInstanceI23MapObjectProfileUnkDFNCE8sProfileE kind:bss addr:0x02163ffc
@11976 kind:bss addr:0x02164000
_ZN15ProfileInstanceI23MapObjectProfileUnkDFNCE8sProfileE kind:bss addr:0x0216400c
data_ov060_021640e0 kind:bss addr:0x021640e0
data_ov060_02164104 kind:bss addr:0x02164104
data_ov060_02164108 kind:bss addr:0x02164108
_ZN15ProfileInstanceI23MapObjectProfileUnkEXCTE8sProfileE kind:bss addr:0x02164114
