func_ov077_02154ec0 kind:function(arm,size=0x68) addr:0x02154ec0
_ZN19ActorProfileUnkASYU10GetProfileEv kind:function(arm,size=0xc) addr:0x02154f28
_ZN19ActorProfileUnkASYU6CreateEv kind:function(arm,size=0x24) addr:0x02154f34
_ZN19ActorProfileUnkASYUC1Ev kind:function(arm,size=0x4c) addr:0x02154f58
_ZN12ActorUnkASYU19func_ov077_02154fa4Ev kind:function(arm,size=0x34) addr:0x02154fa4
_ZN12ActorUnkASYUC1Ev kind:function(arm,size=0x204) addr:0x02154fd8
_ZN12ActorUnkASYU19func_ov077_021551dcEv kind:function(arm,size=0x14) addr:0x021551dc
_ZN12ActorUnkASYU19func_ov077_021551f0Ev kind:function(arm,size=0x14) addr:0x021551f0
_ZN12ActorUnkASYU19func_ov077_02155204Ev kind:function(arm,size=0x14) addr:0x02155204
_ZN12ActorUnkASYU19func_ov077_02155218Ev kind:function(arm,size=0xac) addr:0x02155218
_ZN12ActorUnkASYUD0Ev kind:function(arm,size=0xb4) addr:0x021552c4
_ZN12ActorUnkASYU19func_ov077_02155378Ev kind:function(arm,size=0x174) addr:0x02155378
_ZN12ActorUnkASYU19func_ov077_021554ecEv kind:function(arm,size=0xc0) addr:0x021554ec
_ZN12ActorUnkASYU19func_ov077_021555acEv kind:function(arm,size=0x44) addr:0x021555ac
_ZN12ActorUnkASYU19func_ov077_021555f0Ev kind:function(arm,size=0x400) addr:0x021555f0
_ZN12ActorUnkASYU19func_ov077_021559f0Ev kind:function(arm,size=0x4c) addr:0x021559f0
_ZN12ActorUnkASYU19func_ov077_02155a3cEv kind:function(arm,size=0x194) addr:0x02155a3c
_ZN12ActorUnkASYU19func_ov077_02155bd0Ev kind:function(arm,size=0x1a8) addr:0x02155bd0
_ZN12ActorUnkASYU19func_ov077_02155d78Ev kind:function(arm,size=0x164) addr:0x02155d78
_ZN12ActorUnkASYU19func_ov077_02155edcEv kind:function(arm,size=0xf0) addr:0x02155edc
_ZN12ActorUnkASYU19func_ov077_02155fccEv kind:function(arm,size=0x164) addr:0x02155fcc
_ZN12ActorUnkASYU19func_ov077_02156130Ev kind:function(arm,size=0x174) addr:0x02156130
_ZN12ActorUnkASYU19func_ov077_021562a4Ev kind:function(arm,size=0x31c) addr:0x021562a4
_ZN12ActorUnkASYU19func_ov077_021565c0Ev kind:function(arm,size=0x188) addr:0x021565c0
_ZN12ActorUnkASYU19func_ov077_02156748Ev kind:function(arm,size=0x394) addr:0x02156748
_ZN12ActorUnkASYU19func_ov077_02156adcEv kind:function(arm,size=0x6c) addr:0x02156adc
_ZN12ActorUnkASYU19func_ov077_02156b48Ev kind:function(arm,size=0x48) addr:0x02156b48
_ZN12ActorUnkASYU19func_ov077_02156b90Ev kind:function(arm,size=0x90) addr:0x02156b90
_ZN12ActorUnkASYU19func_ov077_02156c20Ev kind:function(arm,size=0x334) addr:0x02156c20
_ZN12ActorUnkASYU19func_ov077_02156f54Ev kind:function(arm,size=0x124) addr:0x02156f54
_ZN12ActorUnkASYU19func_ov077_02157078Ev kind:function(arm,size=0x1c4) addr:0x02157078
_ZN12ActorUnkASYU19func_ov077_0215723cEv kind:function(arm,size=0x7c) addr:0x0215723c
_ZN12ActorUnkASYU19func_ov077_021572b8Ev kind:function(arm,size=0xcc) addr:0x021572b8
_ZN12ActorUnkASYU19func_ov077_02157384Ev kind:function(arm,size=0x10) addr:0x02157384
_ZN12ActorUnkASYU19func_ov077_02157394Ev kind:function(arm,size=0x1a4) addr:0x02157394
_ZN12ActorUnkASYU19func_ov077_02157538Ev kind:function(arm,size=0x6c) addr:0x02157538
_ZN12ActorUnkASYU19func_ov077_021575a4Ev kind:function(arm,size=0x614) addr:0x021575a4
_ZN12ActorUnkASYU19func_ov077_02157bb8Ev kind:function(arm,size=0x78) addr:0x02157bb8
_ZN12ActorUnkASYU19func_ov077_02157c30Ev kind:function(arm,size=0x234) addr:0x02157c30
_ZN12ActorUnkASYU19func_ov077_02157e64Ev kind:function(arm,size=0x90) addr:0x02157e64
_ZN12ActorUnkASYU19func_ov077_02157ef4Ev kind:function(arm,size=0x3c) addr:0x02157ef4
_ZN12ActorUnkASYU19func_ov077_02157f30Ev kind:function(arm,size=0x164) addr:0x02157f30
_ZN12ActorUnkASYU19func_ov077_02158094Ev kind:function(arm,size=0x28) addr:0x02158094
_ZN12ActorUnkASYU19func_ov077_021580bcEv kind:function(arm,size=0x98) addr:0x021580bc
_ZN12ActorUnkASYU19func_ov077_02158154Ev kind:function(arm,size=0x5c) addr:0x02158154
_ZN12ActorUnkASYU19func_ov077_021581b0Ev kind:function(arm,size=0x78) addr:0x021581b0
_ZN12ActorUnkASYU19func_ov077_02158228Ev kind:function(arm,size=0x94) addr:0x02158228
_ZN12ActorUnkASYU19func_ov077_021582bcEv kind:function(arm,size=0x20) addr:0x021582bc
_ZN12ActorUnkASYU19func_ov077_021582dcEv kind:function(arm,size=0x28) addr:0x021582dc
_ZN12ActorUnkASYU19func_ov077_02158304Ev kind:function(arm,size=0xe0) addr:0x02158304
_ZN12ActorUnkASYU19func_ov077_021583e4Ev kind:function(arm,size=0x2b8) addr:0x021583e4
_ZN12ActorUnkASYU19func_ov077_0215869cEv kind:function(arm,size=0x80) addr:0x0215869c
_ZN12ActorUnkASYU19func_ov077_0215871cEv kind:function(arm,size=0xcc) addr:0x0215871c
_ZN12ActorUnkASYU19func_ov077_021587e8Ev kind:function(arm,size=0x11c) addr:0x021587e8
_ZN12ActorUnkASYU19func_ov077_02158904Ev kind:function(arm,size=0x14) addr:0x02158904
_ZN12ActorUnkASYU19func_ov077_02158918Ev kind:function(arm,size=0x78) addr:0x02158918
_ZN12ActorUnkASYU19func_ov077_02158990Ev kind:function(arm,size=0x1c) addr:0x02158990
_ZN12ActorUnkASYU19func_ov077_021589acEv kind:function(arm,size=0x40) addr:0x021589ac
_ZN12ActorUnkASYU19func_ov077_021589ecEv kind:function(arm,size=0x40) addr:0x021589ec
_ZN12ActorUnkASYU19func_ov077_02158a2cEv kind:function(arm,size=0xa4) addr:0x02158a2c
_ZN12ActorUnkASYU19func_ov077_02158ad0Ev kind:function(arm,size=0x98) addr:0x02158ad0
_ZN12ActorUnkASYU19func_ov077_02158b68Ev kind:function(arm,size=0x140) addr:0x02158b68
_ZN12ActorUnkASYU19func_ov077_02158ca8Ev kind:function(arm,size=0x2c) addr:0x02158ca8
_ZN12ActorUnkASYU19func_ov077_02158cd4Ev kind:function(arm,size=0x104) addr:0x02158cd4
_ZN12ActorUnkASYU19func_ov077_02158dd8Ev kind:function(arm,size=0xac) addr:0x02158dd8
_ZN12ActorUnkASYU19func_ov077_02158e84Ev kind:function(arm,size=0x30) addr:0x02158e84
_ZN12ActorUnkASYU19func_ov077_02158eb4Ev kind:function(arm,size=0x24) addr:0x02158eb4
_ZN12ActorUnkASYU19func_ov077_02158ed8Ev kind:function(arm,size=0x24) addr:0x02158ed8
_ZN12ActorUnkASYU19func_ov077_02158efcEv kind:function(arm,size=0x2c) addr:0x02158efc
_ZN12ActorUnkASYU19func_ov077_02158f28Ev kind:function(arm,size=0xc) addr:0x02158f28
_ZN12ActorUnkASYU19func_ov077_02158f34Ev kind:function(arm,size=0x1c) addr:0x02158f34
_ZN12ActorUnkASYU19func_ov077_02158f50Ev kind:function(arm,size=0x1c) addr:0x02158f50
_ZN12ActorUnkASYU19func_ov077_02158f6cEv kind:function(arm,size=0x1c) addr:0x02158f6c
_ZN19ActorProfileUnkASYUD1Ev kind:function(arm,size=0x14) addr:0x02158f88
_ZN19ActorProfileUnkASBA10GetProfileEv kind:function(arm,size=0xc) addr:0x02158f9c
_ZN19ActorProfileUnkASBA6CreateEv kind:function(arm,size=0x24) addr:0x02158fa8
_ZN19ActorProfileUnkASBAC1Ev kind:function(arm,size=0x54) addr:0x02158fcc
_ZN12ActorUnkASBAC1Ev kind:function(arm,size=0x154) addr:0x02159020
_ZN12ActorUnkASBA19func_ov077_02159174Ev kind:function(arm,size=0x14) addr:0x02159174
_ZN12ActorUnkASBA19func_ov077_02159188Ev kind:function(arm,size=0xc0) addr:0x02159188
_ZN12ActorUnkASBA19func_ov077_02159248Ev kind:function(arm,size=0x2f8) addr:0x02159248
_ZN12ActorUnkASBA19func_ov077_02159540Ev kind:function(arm,size=0xc8) addr:0x02159540
_ZN12ActorUnkASBA19func_ov077_02159608Ev kind:function(arm,size=0xcc) addr:0x02159608
_ZN12ActorUnkASBA19func_ov077_021596d4Ev kind:function(arm,size=0x78) addr:0x021596d4
_ZN12ActorUnkASBA19func_ov077_0215974cEv kind:function(arm,size=0x120) addr:0x0215974c
_ZN12ActorUnkASBA19func_ov077_0215986cEv kind:function(arm,size=0x58) addr:0x0215986c
_ZN12ActorUnkASBA19func_ov077_021598c4Ev kind:function(arm,size=0x38) addr:0x021598c4
_ZN12ActorUnkASBA19func_ov077_021598fcEv kind:function(arm,size=0xe0) addr:0x021598fc
_ZN12ActorUnkASBA19func_ov077_021599dcEv kind:function(arm,size=0x3c) addr:0x021599dc
_ZN12ActorUnkASBA19func_ov077_02159a18Ev kind:function(arm,size=0x34) addr:0x02159a18
_ZN12ActorUnkASBAD0Ev kind:function(arm,size=0x1c) addr:0x02159a4c
_ZN12ActorUnkASBAD1Ev kind:function(arm,size=0x38) addr:0x02159a68
_ZN12ActorUnkASBA19func_ov077_02159aa0Ev kind:function(arm,size=0x40) addr:0x02159aa0
_ZN19ActorProfileUnkASBAD1Ev kind:function(arm,size=0x14) addr:0x02159ae0
_ZN19ActorProfileUnkBBLE10GetProfileEv kind:function(arm,size=0xc) addr:0x02159af4
_ZN19ActorProfileUnkBBLE6CreateEv kind:function(arm,size=0x24) addr:0x02159b00
_ZN19ActorProfileUnkBBLEC1Ev kind:function(arm,size=0x44) addr:0x02159b24
_ZN12ActorUnkBBLE19func_ov077_02159b68Ev kind:function(arm,size=0x20) addr:0x02159b68
_ZN12ActorUnkBBLED1Ev kind:function(arm,size=0x1c) addr:0x02159b88
_ZN12ActorUnkBBLED0Ev kind:function(arm,size=0x24) addr:0x02159ba4
_ZN12ActorUnkBBLE19func_ov077_02159bc8Ev kind:function(arm,size=0x20) addr:0x02159bc8
_ZN12ActorUnkBBLE19func_ov077_02159be8Ev kind:function(arm,size=0x5c) addr:0x02159be8
_ZN12ActorUnkBBLEC1Ev kind:function(arm,size=0xf0) addr:0x02159c44
_ZN12ActorUnkBBLE19func_ov077_02159d34Ev kind:function(arm,size=0x34) addr:0x02159d34
_ZN12ActorUnkBBLE19func_ov077_02159d68Ev kind:function(arm,size=0x304) addr:0x02159d68
_ZN12ActorUnkBBLE19func_ov077_0215a06cEv kind:function(arm,size=0x6c) addr:0x0215a06c
_ZN12ActorUnkBBLE19func_ov077_0215a0d8Ev kind:function(arm,size=0x88) addr:0x0215a0d8
_ZN12ActorUnkBBLE19func_ov077_0215a160Ev kind:function(arm,size=0x2c) addr:0x0215a160
_ZN12ActorUnkBBLE19func_ov077_0215a18cEv kind:function(arm,size=0xb4) addr:0x0215a18c
_ZN12ActorUnkBBLE19func_ov077_0215a240Ev kind:function(arm,size=0x48) addr:0x0215a240
_ZN12ActorUnkBBLE19func_ov077_0215a288Ev kind:function(arm,size=0xe0) addr:0x0215a288
_ZN12ActorUnkBBLE19func_ov077_0215a368Ev kind:function(arm,size=0x34) addr:0x0215a368
_ZN12ActorUnkBBLE19func_ov077_0215a39cEv kind:function(arm,size=0xb0) addr:0x0215a39c
_ZN12ActorUnkBBLE19func_ov077_0215a44cEv kind:function(arm,size=0x140) addr:0x0215a44c
_ZN12ActorUnkBBLE19func_ov077_0215a58cEv kind:function(arm,size=0x170) addr:0x0215a58c
_ZN12ActorUnkBBLE19func_ov077_0215a6fcEv kind:function(arm,size=0xf8) addr:0x0215a6fc
_ZN12ActorUnkBBLE19func_ov077_0215a7f4Ev kind:function(arm,size=0x88) addr:0x0215a7f4
_ZN12ActorUnkBBLE19func_ov077_0215a87cEv kind:function(arm,size=0xbc) addr:0x0215a87c
_ZN12ActorUnkBBLE19func_ov077_0215a938Ev kind:function(arm,size=0xac) addr:0x0215a938
_ZN12ActorUnkBBLE19func_ov077_0215a9e4Ev kind:function(arm,size=0x78) addr:0x0215a9e4
_ZN12ActorUnkBBLE19func_ov077_0215aa5cEv kind:function(arm,size=0x18) addr:0x0215aa5c
_ZN12ActorUnkBBLE19func_ov077_0215aa74Ev kind:function(arm,size=0x84) addr:0x0215aa74
_ZN12ActorUnkBBLE19func_ov077_0215aaf8Ev kind:function(arm,size=0x8c) addr:0x0215aaf8
_ZN19ActorProfileUnkBBLED1Ev kind:function(arm,size=0x14) addr:0x0215ab84
_ZN19ActorProfileUnkDSFR10GetProfileEv kind:function(arm,size=0xc) addr:0x0215ab98
_ZN19ActorProfileUnkDSFR6CreateEv kind:function(arm,size=0x24) addr:0x0215aba4
_ZN19ActorProfileUnkDSFRC1Ev kind:function(arm,size=0x28) addr:0x0215abc8
_ZN12ActorUnkDSFRC1Ev kind:function(arm,size=0x20) addr:0x0215abf0
_ZN12ActorUnkDSFR19func_ov077_0215ac10Ev kind:function(arm,size=0x50) addr:0x0215ac10
_ZN12ActorUnkDSFRD1Ev kind:function(arm,size=0x20) addr:0x0215ac60
_ZN12ActorUnkDSFRD0Ev kind:function(arm,size=0x28) addr:0x0215ac80
_ZN19ActorProfileUnkDSFRD1Ev kind:function(arm,size=0x14) addr:0x0215aca8
_ZN19ActorProfileUnkGOKI10GetProfileEv kind:function(arm,size=0xc) addr:0x0215acbc
_ZN19ActorProfileUnkGOKI6CreateEv kind:function(arm,size=0x24) addr:0x0215acc8
_ZN19ActorProfileUnkGOKIC1Ev kind:function(arm,size=0x50) addr:0x0215acec
_ZN12ActorUnkGOKI19func_ov077_0215ad3cEv kind:function(arm,size=0x14) addr:0x0215ad3c
_ZN12ActorUnkGOKI19func_ov077_0215ad50Ev kind:function(arm,size=0x14) addr:0x0215ad50
_ZN12ActorUnkGOKIC1Ev kind:function(arm,size=0x158) addr:0x0215ad64
_ZN12ActorUnkGOKI19func_ov077_0215aebcEv kind:function(arm,size=0x14) addr:0x0215aebc
_ZN12ActorUnkGOKI19func_ov077_0215aed0Ev kind:function(arm,size=0x20) addr:0x0215aed0
_ZN12ActorUnkGOKI19func_ov077_0215aef0Ev kind:function(arm,size=0x48) addr:0x0215aef0
_ZN12ActorUnkGOKI19func_ov077_0215af38Ev kind:function(arm,size=0x2dc) addr:0x0215af38
_ZN12ActorUnkGOKI19func_ov077_0215b214Ev kind:function(arm,size=0x6c) addr:0x0215b214
_ZN12ActorUnkGOKI19func_ov077_0215b280Ev kind:function(arm,size=0xb8) addr:0x0215b280
_ZN12ActorUnkGOKI19func_ov077_0215b338Ev kind:function(arm,size=0x4c) addr:0x0215b338
_ZN12ActorUnkGOKI19func_ov077_0215b384Ev kind:function(arm,size=0x70) addr:0x0215b384
_ZN12ActorUnkGOKI19func_ov077_0215b3f4Ev kind:function(arm,size=0x68) addr:0x0215b3f4
_ZN12ActorUnkGOKI19func_ov077_0215b45cEv kind:function(arm,size=0x90) addr:0x0215b45c
_ZN12ActorUnkGOKI19func_ov077_0215b4ecEv kind:function(arm,size=0x58) addr:0x0215b4ec
_ZN12ActorUnkGOKI19func_ov077_0215b544Ev kind:function(arm,size=0x98) addr:0x0215b544
_ZN12ActorUnkGOKI19func_ov077_0215b5dcEv kind:function(arm,size=0x68) addr:0x0215b5dc
_ZN12ActorUnkGOKI19func_ov077_0215b644Ev kind:function(arm,size=0x94) addr:0x0215b644
_ZN12ActorUnkGOKI19func_ov077_0215b6d8Ev kind:function(arm,size=0x54) addr:0x0215b6d8
_ZN12ActorUnkGOKI19func_ov077_0215b72cEv kind:function(arm,size=0x174) addr:0x0215b72c
_ZN12ActorUnkGOKI19func_ov077_0215b8a0Ev kind:function(arm,size=0x1c4) addr:0x0215b8a0
_ZN12ActorUnkGOKI19func_ov077_0215ba64Ev kind:function(arm,size=0x64) addr:0x0215ba64
_ZN12ActorUnkGOKI19func_ov077_0215bac8Ev kind:function(arm,size=0xb4) addr:0x0215bac8
_ZN12ActorUnkGOKI19func_ov077_0215bb7cEv kind:function(arm,size=0x30) addr:0x0215bb7c
_ZN12ActorUnkGOKI19func_ov077_0215bbacEv kind:function(arm,size=0x24) addr:0x0215bbac
_ZN12ActorUnkGOKID0Ev kind:function(arm,size=0x8c) addr:0x0215bbd0
_ZN12ActorUnkGOKI19func_ov077_0215bc5cEv kind:function(arm,size=0x84) addr:0x0215bc5c
_ZN12ActorUnkGOKI19func_ov077_0215bce0Ev kind:function(arm,size=0x1c) addr:0x0215bce0
_ZN12ActorUnkGOKI19func_ov077_0215bcfcEv kind:function(arm,size=0x1c) addr:0x0215bcfc
_ZN19ActorProfileUnkGOKID1Ev kind:function(arm,size=0x14) addr:0x0215bd18
_ZN19ActorProfileUnkPMST10GetProfileEv kind:function(arm,size=0xc) addr:0x0215bd2c
_ZN19ActorProfileUnkPMST6CreateEv kind:function(arm,size=0x24) addr:0x0215bd38
_ZN19ActorProfileUnkPMSTC1Ev kind:function(arm,size=0x78) addr:0x0215bd5c
_ZN12ActorUnkPMST19func_ov077_0215bdd4Ev kind:function(arm,size=0x28) addr:0x0215bdd4
_ZN12ActorUnkPMST19func_ov077_0215bdfcEv kind:function(arm,size=0x38) addr:0x0215bdfc
_ZN12ActorUnkPMST19func_ov077_0215be34Ev kind:function(arm,size=0x2c) addr:0x0215be34
_ZN12ActorUnkPMST19func_ov077_0215be60Ev kind:function(arm,size=0x14) addr:0x0215be60
_ZN12ActorUnkPMSTC1Ev kind:function(arm,size=0x334) addr:0x0215be74
_ZN12ActorUnkPMST19func_ov077_0215c1a8Ev kind:function(arm,size=0x14) addr:0x0215c1a8
_ZN12ActorUnkPMST19func_ov077_0215c1bcEv kind:function(arm,size=0x1d8) addr:0x0215c1bc
_ZN12ActorUnkPMST19func_ov077_0215c394Ev kind:function(arm,size=0xc4) addr:0x0215c394
_ZN12ActorUnkPMST19func_ov077_0215c458Ev kind:function(arm,size=0x14) addr:0x0215c458
_ZN12ActorUnkPMST19func_ov077_0215c46cEv kind:function(arm,size=0x144) addr:0x0215c46c
_ZN12ActorUnkPMST19func_ov077_0215c5b0Ev kind:function(arm,size=0xc4) addr:0x0215c5b0
_ZN12ActorUnkPMST19func_ov077_0215c674Ev kind:function(arm,size=0x58) addr:0x0215c674
_ZN12ActorUnkPMST19func_ov077_0215c6ccEv kind:function(arm,size=0x58) addr:0x0215c6cc
_ZN12ActorUnkPMST19func_ov077_0215c724Ev kind:function(arm,size=0xac) addr:0x0215c724
_ZN12ActorUnkPMST19func_ov077_0215c7d0Ev kind:function(arm,size=0x174) addr:0x0215c7d0
_ZN12ActorUnkPMST19func_ov077_0215c944Ev kind:function(arm,size=0xc4) addr:0x0215c944
_ZN12ActorUnkPMST19func_ov077_0215ca08Ev kind:function(arm,size=0x4) addr:0x0215ca08
_ZN12ActorUnkPMST19func_ov077_0215ca0cEv kind:function(arm,size=0x24) addr:0x0215ca0c
_ZN12ActorUnkPMST19func_ov077_0215ca30Ev kind:function(arm,size=0x10) addr:0x0215ca30
_ZN12ActorUnkPMST19func_ov077_0215ca40Ev kind:function(arm,size=0x8) addr:0x0215ca40
_ZN12ActorUnkPMSTD0Ev kind:function(arm,size=0x1c) addr:0x0215ca48
_ZN12ActorUnkPMST19func_ov077_0215ca64Ev kind:function(arm,size=0x1c) addr:0x0215ca64
_ZN12ActorUnkPMSTD1Ev kind:function(arm,size=0x28) addr:0x0215ca80
_ZN12ActorUnkPMST19func_ov077_0215caa8Ev kind:function(arm,size=0x30) addr:0x0215caa8
_ZN19ActorProfileUnkPMSTD1Ev kind:function(arm,size=0x14) addr:0x0215cad8
_ZN19ActorProfileUnkOFSW10GetProfileEv kind:function(arm,size=0xc) addr:0x0215caec
_ZN19ActorProfileUnkOFSW6CreateEv kind:function(arm,size=0x24) addr:0x0215caf8
_ZN19ActorProfileUnkOFSWC1Ev kind:function(arm,size=0x28) addr:0x0215cb1c
_ZN12ActorUnkOFSWC1Ev kind:function(arm,size=0x28) addr:0x0215cb44
_ZN12ActorUnkOFSW19func_ov077_0215cb6cEv kind:function(arm,size=0x20) addr:0x0215cb6c
_ZN12ActorUnkOFSW19func_ov077_0215cb8cEv kind:function(arm,size=0x58) addr:0x0215cb8c
_ZN12ActorUnkOFSW19func_ov077_0215cbe4Ev kind:function(arm,size=0x14) addr:0x0215cbe4
_ZN12ActorUnkOFSWD1Ev kind:function(arm,size=0x14) addr:0x0215cbf8
_ZN12ActorUnkOFSWD0Ev kind:function(arm,size=0x1c) addr:0x0215cc0c
_ZN19ActorProfileUnkOFSWD1Ev kind:function(arm,size=0x14) addr:0x0215cc28
_ZN23MapObjectProfileUnkPLFR10GetProfileEv kind:function(arm,size=0xc) addr:0x0215cc3c
_ZN23MapObjectProfileUnkPLFR6CreateEv kind:function(arm,size=0x24) addr:0x0215cc48
_ZN23MapObjectProfileUnkPLFRC1Ev kind:function(arm,size=0xa4) addr:0x0215cc6c
_ZN16MapObjectUnkPLFRC1Ev kind:function(arm,size=0x80) addr:0x0215cd10
_ZN16MapObjectUnkPLFR19func_ov077_0215cd90Ev kind:function(arm,size=0x60) addr:0x0215cd90
_ZN16MapObjectUnkPLFR19func_ov077_0215cdf0Ev kind:function(arm,size=0x4) addr:0x0215cdf0
_ZN16MapObjectUnkPLFR19func_ov077_0215cdf4Ev kind:function(arm,size=0x20) addr:0x0215cdf4
_ZN16MapObjectUnkPLFRD1Ev kind:function(arm,size=0x20) addr:0x0215ce14
_ZN16MapObjectUnkPLFRD0Ev kind:function(arm,size=0x28) addr:0x0215ce34
_ZN23MapObjectProfileUnkPLFRD1Ev kind:function(arm,size=0x14) addr:0x0215ce5c
_ZN23MapObjectProfileUnkGTRK10GetProfileEv kind:function(arm,size=0xc) addr:0x0215ce70
_ZN23MapObjectProfileUnkGTRK6CreateEv kind:function(arm,size=0x24) addr:0x0215ce7c
_ZN23MapObjectProfileUnkGTRKC1Ev kind:function(arm,size=0x48) addr:0x0215cea0
_ZN16MapObjectUnkGTRKC1Ev kind:function(arm,size=0x90) addr:0x0215cee8
_ZN16MapObjectUnkGTRK19func_ov077_0215cf78Ev kind:function(arm,size=0xc0) addr:0x0215cf78
_ZN16MapObjectUnkGTRK19func_ov077_0215d038Ev kind:function(arm,size=0x20) addr:0x0215d038
_ZN16MapObjectUnkGTRKD1Ev kind:function(arm,size=0x28) addr:0x0215d058
_ZN16MapObjectUnkGTRKD0Ev kind:function(arm,size=0x30) addr:0x0215d080
_ZN23MapObjectProfileUnkGTRKD1Ev kind:function(arm,size=0x14) addr:0x0215d0b0
data_ov077_0215d0c4 kind:data(any) addr:0x0215d0c4
data_ov077_0215d0d4 kind:data(any) addr:0x0215d0d4
data_ov077_0215d0e0 kind:data(any) addr:0x0215d0e0 ambiguous
data_ov077_0215d0e8 kind:data(any) addr:0x0215d0e8
data_ov077_0215d0fc kind:data(any) addr:0x0215d0fc
data_ov077_0215d104 kind:data(any) addr:0x0215d104
data_ov077_0215d110 kind:data(any) addr:0x0215d110
data_ov077_0215d114 kind:data(any) addr:0x0215d114 ambiguous
__sinit_ActorUnkASYU.cpp kind:function(arm,size=0x64) addr:0x0215d140
__sinit_ActorUnkASBA.cpp kind:function(arm,size=0x50) addr:0x0215d1a4
__sinit_ActorUnkBBLE.cpp kind:function(arm,size=0x50) addr:0x0215d1f4
__sinit_ActorUnkDSFR.cpp kind:function(arm,size=0x50) addr:0x0215d244
__sinit_ActorUnkGOKI.cpp kind:function(arm,size=0x50) addr:0x0215d294
__sinit_ActorUnkPMST.cpp kind:function(arm,size=0x50) addr:0x0215d2e4
__sinit_ActorUnkOFSW.cpp kind:function(arm,size=0x50) addr:0x0215d334
__sinit_MapObjectUnkPLFR.cpp kind:function(arm,size=0x50) addr:0x0215d384
__sinit_MapObjectUnkGTRK.cpp kind:function(arm,size=0x50) addr:0x0215d3d4
.p__sinit_ActorUnkASYU.cpp kind:data(word) addr:0x0215d424
.p__sinit_ActorUnkASBA.cpp kind:data(word) addr:0x0215d428
.p__sinit_ActorUnkBBLE.cpp kind:data(word) addr:0x0215d42c
.p__sinit_ActorUnkDSFR.cpp kind:data(word) addr:0x0215d430
.p__sinit_ActorUnkGOKI.cpp kind:data(word) addr:0x0215d434
.p__sinit_ActorUnkPMST.cpp kind:data(word) addr:0x0215d438
.p__sinit_ActorUnkOFSW.cpp kind:data(word) addr:0x0215d43c
.p__sinit_MapObjectUnkPLFR.cpp kind:data(word) addr:0x0215d440
.p__sinit_MapObjectUnkGTRK.cpp kind:data(word) addr:0x0215d444
data_ov077_0215d468 kind:data(any) addr:0x0215d468
data_ov077_0215d474 kind:data(any) addr:0x0215d474
_ZTV19data_ov077_0215d488 kind:data(any) addr:0x0215d488
data_ov077_0215d4b4 kind:data(any) addr:0x0215d4b4
data_ov077_0215d4e0 kind:data(any) addr:0x0215d4e0
_ZTV19data_ov077_0215d524 kind:data(any) addr:0x0215d524
data_ov077_0215d584 kind:data(any) addr:0x0215d584
data_ov077_0215d590 kind:data(any) addr:0x0215d590 ambiguous
data_ov077_0215d60c kind:data(any) addr:0x0215d60c
data_ov077_0215d644 kind:data(any) addr:0x0215d644 ambiguous
data_ov077_0215d694 kind:data(any) addr:0x0215d694
data_ov077_0215d6ac kind:data(any) addr:0x0215d6ac
data_ov077_0215d6c4 kind:data(any) addr:0x0215d6c4
data_ov077_0215d6dc kind:data(any) addr:0x0215d6dc
data_ov077_0215d6e4 kind:data(any) addr:0x0215d6e4 ambiguous
data_ov077_0215d6f4 kind:data(any) addr:0x0215d6f4
data_ov077_0215d70c kind:data(any) addr:0x0215d70c
data_ov077_0215d724 kind:data(any) addr:0x0215d724
data_ov077_0215d73c kind:data(any) addr:0x0215d73c
data_ov077_0215d754 kind:data(any) addr:0x0215d754
data_ov077_0215d764 kind:data(any) addr:0x0215d764
data_ov077_0215d784 kind:data(any) addr:0x0215d784
data_ov077_0215d798 kind:data(any) addr:0x0215d798 ambiguous
_ZTV19data_ov077_0215d798 kind:data(any) addr:0x0215d798
_ZTV19data_ov077_0215d7bc kind:data(any) addr:0x0215d7bc
_ZTV19data_ov077_0215d7c4 kind:data(any) addr:0x0215d7c4 ambiguous
_ZTV19data_ov077_0215d7d0 kind:data(any) addr:0x0215d7d0 ambiguous
data_ov077_0215d820 kind:data(any) addr:0x0215d820
_ZTV19data_ov077_0215d834 kind:data(any) addr:0x0215d834
data_ov077_0215d838 kind:data(any) addr:0x0215d838 ambiguous
_ZTV19data_ov077_0215d858 kind:data(any) addr:0x0215d858
_ZTV19data_ov077_0215d85c kind:data(any) addr:0x0215d85c ambiguous
data_ov077_0215d8b8 kind:data(any) addr:0x0215d8b8
data_ov077_0215d8c0 kind:data(any) addr:0x0215d8c0
data_ov077_0215d8c8 kind:data(any) addr:0x0215d8c8
data_ov077_0215d8d0 kind:data(any) addr:0x0215d8d0
data_ov077_0215d8d8 kind:data(any) addr:0x0215d8d8
data_ov077_0215d8e0 kind:data(any) addr:0x0215d8e0
_ZTV19data_ov077_0215d8e8 kind:data(any) addr:0x0215d8e8
_ZTV19data_ov077_0215d90c kind:data(any) addr:0x0215d90c
data_ov077_0215d974 kind:data(any) addr:0x0215d974
_ZTV19data_ov077_0215d988 kind:data(any) addr:0x0215d988
data_ov077_0215d98c kind:data(any) addr:0x0215d98c ambiguous
data_ov077_0215d9ac kind:data(any) addr:0x0215d9ac
data_ov077_0215d9c0 kind:data(any) addr:0x0215d9c0 ambiguous
data_ov077_0215d9dc kind:data(any) addr:0x0215d9dc
data_ov077_0215da0c kind:data(any) addr:0x0215da0c
data_ov077_0215da24 kind:data(any) addr:0x0215da24
data_ov077_0215da44 kind:data(any) addr:0x0215da44
_ZTV19data_ov077_0215da88 kind:data(any) addr:0x0215da88
_ZTV19data_ov077_0215da90 kind:data(any) addr:0x0215da90 ambiguous
data_ov077_0215dae0 kind:data(any) addr:0x0215dae0 ambiguous
data_ov077_0215dae8 kind:data(any) addr:0x0215dae8
data_ov077_0215daec kind:data(any) addr:0x0215daec
_ZTV19data_ov077_0215db04 kind:data(any) addr:0x0215db04
data_ov077_0215db30 kind:data(any) addr:0x0215db30
data_ov077_0215db5c kind:data(any) addr:0x0215db5c
data_ov077_0215db94 kind:data(any) addr:0x0215db94 ambiguous
_ZTV19data_ov077_0215db9c kind:data(any) addr:0x0215db9c
data_ov077_0215dbf8 kind:data(any) addr:0x0215dbf8
data_ov077_0215dc00 kind:data(any) addr:0x0215dc00
data_ov077_0215dc08 kind:data(any) addr:0x0215dc08
_ZTV19data_ov077_0215dc10 kind:data(any) addr:0x0215dc10
_ZTV19data_ov077_0215dc34 kind:data(any) addr:0x0215dc34
data_ov077_0215dc98 kind:data(any) addr:0x0215dc98
data_ov077_0215dcac kind:data(any) addr:0x0215dcac ambiguous
data_ov077_0215dcb4 kind:data(any) addr:0x0215dcb4
data_ov077_0215dcd0 kind:data(any) addr:0x0215dcd0
data_ov077_0215dcf8 kind:data(any) addr:0x0215dcf8
data_ov077_0215dd24 kind:data(any) addr:0x0215dd24 ambiguous
data_ov077_0215dd38 kind:data(any) addr:0x0215dd38
data_ov077_0215dd54 kind:data(any) addr:0x0215dd54
data_ov077_0215dd5c kind:data(any) addr:0x0215dd5c ambiguous
data_ov077_0215dda0 kind:bss addr:0x0215dda0
data_ov077_0215dda4 kind:bss addr:0x0215dda4
data_ov077_0215ddac kind:bss addr:0x0215ddac
sActorProfileUnkASYU kind:bss addr:0x0215ddb8
data_ov077_0215ddf8 kind:bss addr:0x0215ddf8 ambiguous
data_ov077_0215de90 kind:bss addr:0x0215de90
data_ov077_0215de94 kind:bss addr:0x0215de94
data_ov077_0215de98 kind:bss addr:0x0215de98 ambiguous
sActorProfileUnkASBA kind:bss addr:0x0215dea0
data_ov077_0215dee4 kind:bss addr:0x0215dee4
data_ov077_0215dee8 kind:bss addr:0x0215dee8
sActorProfileUnkBBLE kind:bss addr:0x0215def4
data_ov077_0215df30 kind:bss addr:0x0215df30
data_ov077_0215df6c kind:bss addr:0x0215df6c ambiguous
data_ov077_0215dfcc kind:bss addr:0x0215dfcc
data_ov077_0215dfd0 kind:bss addr:0x0215dfd0
sActorProfileUnkDSFR kind:bss addr:0x0215dfdc
data_ov077_0215e064 kind:bss addr:0x0215e064 ambiguous
data_ov077_0215e0b4 kind:bss addr:0x0215e0b4
data_ov077_0215e0b8 kind:bss addr:0x0215e0b8
sActorProfileUnkGOKI kind:bss addr:0x0215e0c4
data_ov077_0215e0d0 kind:bss addr:0x0215e0d0 ambiguous
data_ov077_0215e0f0 kind:bss addr:0x0215e0f0 ambiguous
data_ov077_0215e178 kind:bss addr:0x0215e178 ambiguous
data_ov077_0215e184 kind:bss addr:0x0215e184 ambiguous
data_ov077_0215e19c kind:bss addr:0x0215e19c
data_ov077_0215e1a4 kind:bss addr:0x0215e1a4
sActorProfileUnkPMST kind:bss addr:0x0215e1b0
data_ov077_0215e278 kind:bss addr:0x0215e278 ambiguous
data_ov077_0215e288 kind:bss addr:0x0215e288
data_ov077_0215e28c kind:bss addr:0x0215e28c
sActorProfileUnkOFSW kind:bss addr:0x0215e298
data_ov077_0215e2a8 kind:bss addr:0x0215e2a8 ambiguous
data_ov077_0215e2d4 kind:bss addr:0x0215e2d4
data_ov077_0215e2d8 kind:bss addr:0x0215e2d8
sMapObjectProfileUnkPLFR kind:bss addr:0x0215e2e4
data_ov077_0215e2f8 kind:bss addr:0x0215e2f8 ambiguous
data_ov077_0215e318 kind:bss addr:0x0215e318 ambiguous
data_ov077_0215e3b8 kind:bss addr:0x0215e3b8
data_ov077_0215e3dc kind:bss addr:0x0215e3dc
data_ov077_0215e3e0 kind:bss addr:0x0215e3e0
sMapObjectProfileUnkGTRK kind:bss addr:0x0215e3ec
