func_ov055_02139f20 kind:function(arm,size=0x48) addr:0x02139f20
func_ov055_02139f68 kind:function(arm,size=0x144) addr:0x02139f68
func_ov055_0213a0ac kind:function(arm,size=0x14) addr:0x0213a0ac
func_ov055_0213a0c0 kind:function(arm,size=0x14) addr:0x0213a0c0
_ZN19func_ov055_0213a0d4D0Ev kind:function(arm,size=0x84) addr:0x0213a0d4
func_ov055_0213a158 kind:function(arm,size=0x7c) addr:0x0213a158
func_ov055_0213a1d4 kind:function(arm,size=0x10) addr:0x0213a1d4
func_ov055_0213a1e4 kind:function(arm,size=0x20) addr:0x0213a1e4
func_ov055_0213a204 kind:function(arm,size=0x30) addr:0x0213a204
func_ov055_0213a234 kind:function(arm,size=0x7c) addr:0x0213a234
func_ov055_0213a2b0 kind:function(arm,size=0x110) addr:0x0213a2b0
func_ov055_0213a3c0 kind:function(arm,size=0x16c) addr:0x0213a3c0
func_ov055_0213a52c kind:function(arm,size=0x34) addr:0x0213a52c
func_ov055_0213a560 kind:function(arm,size=0x24) addr:0x0213a560
func_ov055_0213a584 kind:function(arm,size=0x80) addr:0x0213a584
func_ov055_0213a604 kind:function(arm,size=0xf4) addr:0x0213a604
func_ov055_0213a6f8 kind:function(arm,size=0xc8) addr:0x0213a6f8
func_ov055_0213a7c0 kind:function(arm,size=0x70) addr:0x0213a7c0
func_ov055_0213a830 kind:function(arm,size=0x48) addr:0x0213a830
func_ov055_0213a878 kind:function(arm,size=0x94) addr:0x0213a878
func_ov055_0213a90c kind:function(arm,size=0x4) addr:0x0213a90c
func_ov055_0213a910 kind:function(arm,size=0x4) addr:0x0213a910
func_ov055_0213a914 kind:function(arm,size=0x6c) addr:0x0213a914
func_ov055_0213a980 kind:function(arm,size=0x24) addr:0x0213a980
func_ov055_0213a9a4 kind:function(arm,size=0x20) addr:0x0213a9a4
func_ov055_0213a9c4 kind:function(arm,size=0x80) addr:0x0213a9c4
func_ov055_0213aa44 kind:function(arm,size=0x8c) addr:0x0213aa44
func_ov055_0213aad0 kind:function(arm,size=0x2c) addr:0x0213aad0
func_ov055_0213aafc kind:function(arm,size=0xa0) addr:0x0213aafc
func_ov055_0213ab9c kind:function(arm,size=0x64) addr:0x0213ab9c
func_ov055_0213ac00 kind:function(arm,size=0x10) addr:0x0213ac00
func_ov055_0213ac10 kind:function(arm,size=0x15c) addr:0x0213ac10
func_ov055_0213ad6c kind:function(arm,size=0x40) addr:0x0213ad6c
func_ov055_0213adac kind:function(arm,size=0x88) addr:0x0213adac
func_ov055_0213ae34 kind:function(arm,size=0x64) addr:0x0213ae34
func_ov055_0213ae98 kind:function(arm,size=0x60) addr:0x0213ae98
func_ov055_0213aef8 kind:function(arm,size=0x20) addr:0x0213aef8
func_ov055_0213af18 kind:function(arm,size=0x40) addr:0x0213af18
func_ov055_0213af58 kind:function(arm,size=0x98) addr:0x0213af58
func_ov055_0213aff0 kind:function(arm,size=0xd4) addr:0x0213aff0
func_ov055_0213b0c4 kind:function(arm,size=0x18) addr:0x0213b0c4
func_ov055_0213b0dc kind:function(arm,size=0x48) addr:0x0213b0dc
func_ov055_0213b124 kind:function(arm,size=0x80) addr:0x0213b124
func_ov055_0213b1a4 kind:function(arm,size=0x1c) addr:0x0213b1a4
func_ov055_0213b1c0 kind:function(arm,size=0x24) addr:0x0213b1c0
func_ov055_0213b1e4 kind:function(arm,size=0x2c) addr:0x0213b1e4
_ZN19func_ov055_0213b210D0Ev kind:function(arm,size=0x1c) addr:0x0213b210
_ZN19func_ov055_0213b22cD0Ev kind:function(arm,size=0x1c) addr:0x0213b22c
_ZN19ActorProfileUnkCHUC10GetProfileEv kind:function(arm,size=0xc) addr:0x0213b248
_ZN19ActorProfileUnkCHUC6CreateEv kind:function(arm,size=0x24) addr:0x0213b254
_ZN19ActorProfileUnkCHUCC1Ev kind:function(arm,size=0x5c) addr:0x0213b278
_ZN12ActorUnkCHUCC1Ev kind:function(arm,size=0x110) addr:0x0213b2d4
_ZN12ActorUnkCHUC19func_ov055_021399a4Ev kind:function(arm,size=0x14) addr:0x0213b3e4
_ZN12ActorUnkCHUC19func_ov055_021399b8Ev kind:function(arm,size=0x14) addr:0x0213b3f8
_ZN12ActorUnkCHUC19func_ov055_021399ccEv kind:function(arm,size=0x68) addr:0x0213b40c
_ZN12ActorUnkCHUCD0Ev kind:function(arm,size=0x70) addr:0x0213b474
_ZN12ActorUnkCHUC19func_ov055_02139aa4Ev kind:function(arm,size=0x24) addr:0x0213b4e4
_ZN12ActorUnkCHUC19func_ov055_02139ac8Ev kind:function(arm,size=0xa8) addr:0x0213b508
_ZN12ActorUnkCHUC19func_ov055_02139b70Ev kind:function(arm,size=0x1c) addr:0x0213b5b0
_ZN12ActorUnkCHUC19func_ov055_02139b8cEv kind:function(arm,size=0x38) addr:0x0213b5cc
_ZN12ActorUnkCHUC19func_ov055_02139bc4Ev kind:function(arm,size=0x2f0) addr:0x0213b604
_ZN12ActorUnkCHUC19func_ov055_02139eb4Ev kind:function(arm,size=0x74) addr:0x0213b8f4
_ZN12ActorUnkCHUC19func_ov055_02139f28Ev kind:function(arm,size=0x38) addr:0x0213b968
_ZN12ActorUnkCHUC19func_ov055_02139f60Ev kind:function(arm,size=0x3c) addr:0x0213b9a0
_ZN12ActorUnkCHUC19func_ov055_02139f9cEv kind:function(arm,size=0xf0) addr:0x0213b9dc
_ZN12ActorUnkCHUC19func_ov055_0213a08cEv kind:function(arm,size=0x44) addr:0x0213bacc
_ZN12ActorUnkCHUC19func_ov055_0213a0d0Ev kind:function(arm,size=0xc4) addr:0x0213bb10
_ZN12ActorUnkCHUC19func_ov055_0213a194Ev kind:function(arm,size=0xac) addr:0x0213bbd4
_ZN12ActorUnkCHUC19func_ov055_0213a240Ev kind:function(arm,size=0x14) addr:0x0213bc80
_ZN12ActorUnkCHUC19func_ov055_0213a254Ev kind:function(arm,size=0x4c) addr:0x0213bc94
_ZN12ActorUnkCHUC19func_ov055_0213a2a0Ev kind:function(arm,size=0xc4) addr:0x0213bce0
_ZN12ActorUnkCHUC19func_ov055_0213a364Ev kind:function(arm,size=0x40) addr:0x0213bda4
_ZN12ActorUnkCHUC19func_ov055_0213a3a4Ev kind:function(arm,size=0x3c) addr:0x0213bde4
_ZN12ActorUnkCHUC19func_ov055_0213a3e0Ev kind:function(arm,size=0x1c) addr:0x0213be20
_ZN12ActorUnkCHUC19func_ov055_0213a3fcEv kind:function(arm,size=0x1c) addr:0x0213be3c
_ZN12ActorUnkCHUC19func_ov055_0213a418Ev kind:function(arm,size=0x1c) addr:0x0213be58
_ZN12ActorUnkCHUC19func_ov055_0213a434Ev kind:function(arm,size=0x98) addr:0x0213be74
_ZN12ActorUnkCHUC19func_ov055_0213a4ccEv kind:function(arm,size=0x258) addr:0x0213bf0c
_ZN12ActorUnkCHUC19func_ov055_0213a724Ev kind:function(arm,size=0x7c) addr:0x0213c164
_ZN12ActorUnkCHUC19func_ov055_0213a7a0Ev kind:function(arm,size=0xec) addr:0x0213c1e0
_ZN12ActorUnkCHUC19func_ov055_0213a88cEv kind:function(arm,size=0x64) addr:0x0213c2cc
_ZN12ActorUnkCHUC19func_ov055_0213a8f0Ev kind:function(arm,size=0x48) addr:0x0213c330
_ZN12ActorUnkCHUC19func_ov055_0213a938Ev kind:function(arm,size=0x2c) addr:0x0213c378
_ZN12ActorUnkCHUC19func_ov055_0213a964Ev kind:function(arm,size=0x20) addr:0x0213c3a4
_ZN12ActorUnkCHUC19func_ov055_0213a984Ev kind:function(arm,size=0x58) addr:0x0213c3c4
_ZN12ActorUnkCHUC19func_ov055_0213a9dcEv kind:function(arm,size=0x70) addr:0x0213c41c
_ZN12ActorUnkCHUC19func_ov055_0213aa4cEv kind:function(arm,size=0x40) addr:0x0213c48c
_ZN12ActorUnkCHUC19func_ov055_0213aa8cEv kind:function(arm,size=0x20) addr:0x0213c4cc
_ZN12ActorUnkCHUC19func_ov055_0213aaacEv kind:function(arm,size=0x1fc) addr:0x0213c4ec
_ZN12ActorUnkCHUC19func_ov055_0213aca8Ev kind:function(arm,size=0x190) addr:0x0213c6e8
_ZN12ActorUnkCHUC19func_ov055_0213ae38Ev kind:function(arm,size=0x1c) addr:0x0213c878
_ZN12ActorUnkCHUC19func_ov055_0213ae54Ev kind:function(arm,size=0x44) addr:0x0213c894
_ZN12ActorUnkCHUC19func_ov055_0213ae98Ev kind:function(arm,size=0x6c) addr:0x0213c8d8
_ZN12ActorUnkCHUC19func_ov055_0213af04Ev kind:function(arm,size=0x6c) addr:0x0213c944
_ZN12ActorUnkCHUC19func_ov055_0213af70Ev kind:function(arm,size=0xcc) addr:0x0213c9b0
_ZN12ActorUnkCHUC19func_ov055_0213b03cEv kind:function(arm,size=0x30) addr:0x0213ca7c
_ZN12ActorUnkCHUC19func_ov055_0213b06cEv kind:function(arm,size=0x30) addr:0x0213caac
_ZN12ActorUnkCHUC19func_ov055_0213b09cEv kind:function(arm,size=0x34) addr:0x0213cadc
_ZN12ActorUnkCHUC19func_ov055_0213b0d0Ev kind:function(arm,size=0xac) addr:0x0213cb10
_ZN12ActorUnkCHUC19func_ov055_0213b17cEv kind:function(arm,size=0xac) addr:0x0213cbbc
_ZN12ActorUnkCHUC19func_ov055_0213b228Ev kind:function(arm,size=0x24) addr:0x0213cc68
_ZN12ActorUnkCHUC19func_ov055_0213b24cEv kind:function(arm,size=0x10) addr:0x0213cc8c
_ZN12ActorUnkCHUC19func_ov055_0213b25cEv kind:function(arm,size=0x8) addr:0x0213cc9c
_ZN12ActorUnkCHUC19func_ov055_0213b264Ev kind:function(arm,size=0x14) addr:0x0213cca4
_ZN12ActorUnkCHUC19func_ov055_0213b278Ev kind:function(arm,size=0x1c) addr:0x0213ccb8
_ZN19ActorProfileUnkCHUCD1Ev kind:function(arm,size=0x14) addr:0x0213ccd4
_ZN19ActorProfileUnkRCHU10GetProfileEv kind:function(arm,size=0xc) addr:0x0213cce8
_ZN19ActorProfileUnkRCHU6CreateEv kind:function(arm,size=0x24) addr:0x0213ccf4
_ZN19ActorProfileUnkRCHUC1Ev kind:function(arm,size=0x58) addr:0x0213cd18
_ZN12ActorUnkRCHU19func_ov055_0213b330Ev kind:function(arm,size=0x58) addr:0x0213cd70
_ZN12ActorUnkRCHUC1Ev kind:function(arm,size=0xbc) addr:0x0213cdc8
_ZN12ActorUnkRCHU19func_ov055_0213b444Ev kind:function(arm,size=0x14) addr:0x0213ce84
_ZN12ActorUnkRCHUD1Ev kind:function(arm,size=0x20) addr:0x0213ce98
_ZN12ActorUnkRCHUD0Ev kind:function(arm,size=0x28) addr:0x0213ceb8
_ZN12ActorUnkRCHU19func_ov055_0213b4a0Ev kind:function(arm,size=0x98) addr:0x0213cee0
_ZN12ActorUnkRCHU19func_ov055_0213b538Ev kind:function(arm,size=0x38) addr:0x0213cf78
_ZN12ActorUnkRCHU19func_ov055_0213b570Ev kind:function(arm,size=0xa4) addr:0x0213cfb0
_ZN12ActorUnkRCHU19func_ov055_0213b614Ev kind:function(arm,size=0x30) addr:0x0213d054
_ZN12ActorUnkRCHU19func_ov055_0213b644Ev kind:function(arm,size=0x38) addr:0x0213d084
_ZN12ActorUnkRCHU19func_ov055_0213b67cEv kind:function(arm,size=0x38) addr:0x0213d0bc
_ZN12ActorUnkRCHU19func_ov055_0213b6b4Ev kind:function(arm,size=0x8c) addr:0x0213d0f4
_ZN12ActorUnkRCHU19func_ov055_0213b740Ev kind:function(arm,size=0x7c) addr:0x0213d180
_ZN12ActorUnkRCHU19func_ov055_0213b7bcEv kind:function(arm,size=0xd8) addr:0x0213d1fc
_ZN12ActorUnkRCHU19func_ov055_0213b894Ev kind:function(arm,size=0x10) addr:0x0213d2d4
_ZN12ActorUnkRCHU19func_ov055_0213b8a4Ev kind:function(arm,size=0x7c) addr:0x0213d2e4
_ZN12ActorUnkRCHU19func_ov055_0213b920Ev kind:function(arm,size=0xb8) addr:0x0213d360
_ZN12ActorUnkRCHU19func_ov055_0213b9d8Ev kind:function(arm,size=0x10) addr:0x0213d418
_ZN12ActorUnkRCHU19func_ov055_0213b9e8Ev kind:function(arm,size=0x4) addr:0x0213d428
_ZN12ActorUnkRCHU19func_ov055_0213b9ecEv kind:function(arm,size=0x20) addr:0x0213d42c
_ZN12ActorUnkRCHU19func_ov055_0213ba0cEv kind:function(arm,size=0x94) addr:0x0213d44c
_ZN12ActorUnkRCHU19func_ov055_0213baa0Ev kind:function(arm,size=0xb8) addr:0x0213d4e0
_ZN12ActorUnkRCHU19func_ov055_0213bb58Ev kind:function(arm,size=0xf8) addr:0x0213d598
_ZN12ActorUnkRCHU19func_ov055_0213bc50Ev kind:function(arm,size=0x2c) addr:0x0213d690
_ZN12ActorUnkRCHU19func_ov055_0213bc7cEv kind:function(arm,size=0x9c) addr:0x0213d6bc
_ZN12ActorUnkRCHU19func_ov055_0213bd18Ev kind:function(arm,size=0x58) addr:0x0213d758
_ZN12ActorUnkRCHU19func_ov055_0213bd70Ev kind:function(arm,size=0x30) addr:0x0213d7b0
_ZN12ActorUnkRCHU19func_ov055_0213bda0Ev kind:function(arm,size=0x14) addr:0x0213d7e0
_ZN12ActorUnkRCHU19func_ov055_0213bdb4Ev kind:function(arm,size=0x1c) addr:0x0213d7f4
_ZN12ActorUnkRCHU19func_ov055_0213bdd0Ev kind:function(arm,size=0x40) addr:0x0213d810
_ZN12ActorUnkRCHU19func_ov055_0213be10Ev kind:function(arm,size=0x3c) addr:0x0213d850
_ZN12ActorUnkRCHU19func_ov055_0213be4cEv kind:function(arm,size=0x1c) addr:0x0213d88c
_ZN19ActorProfileUnkRCHUD1Ev kind:function(arm,size=0x14) addr:0x0213d8a8
_ZN19ActorProfileUnkRCMS10GetProfileEv kind:function(arm,size=0xc) addr:0x0213d8bc
_ZN19ActorProfileUnkRCMS6CreateEv kind:function(arm,size=0x24) addr:0x0213d8c8
_ZN19ActorProfileUnkRCMSC1Ev kind:function(arm,size=0x44) addr:0x0213d8ec
_ZN12ActorUnkRCMS19func_ov055_0213bef0Ev kind:function(arm,size=0x34) addr:0x0213d930
_ZN12ActorUnkRCMS19func_ov055_0213bf24Ev kind:function(arm,size=0x3c) addr:0x0213d964
_ZN12ActorUnkRCMS19func_ov055_0213bf60Ev kind:function(arm,size=0x1c) addr:0x0213d9a0
_ZN12ActorUnkRCMS19func_ov055_0213bf7cEv kind:function(arm,size=0x1c) addr:0x0213d9bc
_ZN12ActorUnkRCMS19func_ov055_0213bf98Ev kind:function(arm,size=0x3c) addr:0x0213d9d8
_ZN12ActorUnkRCMS19func_ov055_0213bfd4Ev kind:function(arm,size=0x24) addr:0x0213da14
_ZN12ActorUnkRCMS19func_ov055_0213bff8Ev kind:function(arm,size=0x24) addr:0x0213da38
_ZN12ActorUnkRCMS19func_ov055_0213c01cEv kind:function(arm,size=0x74) addr:0x0213da5c
_ZN12ActorUnkRCMSC1Ev kind:function(arm,size=0x184) addr:0x0213dad0
_ZN12ActorUnkRCMS19func_ov055_0213c214Ev kind:function(arm,size=0x14) addr:0x0213dc54
_ZN12ActorUnkRCMS19func_ov055_0213c228Ev kind:function(arm,size=0x14) addr:0x0213dc68
_ZN12ActorUnkRCMSD1Ev kind:function(arm,size=0x30) addr:0x0213dc7c
_ZN12ActorUnkRCMSD0Ev kind:function(arm,size=0x38) addr:0x0213dcac
_ZN12ActorUnkRCMS19func_ov055_0213c2a4Ev kind:function(arm,size=0x50) addr:0x0213dce4
_ZN12ActorUnkRCMS19func_ov055_0213c2f4Ev kind:function(arm,size=0x58) addr:0x0213dd34
_ZN12ActorUnkRCMS19func_ov055_0213c34cEv kind:function(arm,size=0x4) addr:0x0213dd8c
_ZN12ActorUnkRCMS19func_ov055_0213c350Ev kind:function(arm,size=0x4) addr:0x0213dd90
_ZN12ActorUnkRCMS19func_ov055_0213c354Ev kind:function(arm,size=0x4) addr:0x0213dd94
_ZN12ActorUnkRCMS19func_ov055_0213c358Ev kind:function(arm,size=0x44) addr:0x0213dd98
_ZN12ActorUnkRCMS19func_ov055_0213c39cEv kind:function(arm,size=0x14) addr:0x0213dddc
_ZN12ActorUnkRCMS19func_ov055_0213c3b0Ev kind:function(arm,size=0xc8) addr:0x0213ddf0
_ZN12ActorUnkRCMS19func_ov055_0213c478Ev kind:function(arm,size=0x20) addr:0x0213deb8
_ZN12ActorUnkRCMS19func_ov055_0213c498Ev kind:function(arm,size=0x198) addr:0x0213ded8
_ZN12ActorUnkRCMS19func_ov055_0213c630Ev kind:function(arm,size=0x10) addr:0x0213e070
_ZN12ActorUnkRCMS19func_ov055_0213c640Ev kind:function(arm,size=0x64) addr:0x0213e080
_ZN12ActorUnkRCMS19func_ov055_0213c6a4Ev kind:function(arm,size=0x14) addr:0x0213e0e4
_ZN12ActorUnkRCMS19func_ov055_0213c6b8Ev kind:function(arm,size=0x4) addr:0x0213e0f8
_ZN12ActorUnkRCMS19func_ov055_0213c6bcEv kind:function(arm,size=0x40) addr:0x0213e0fc
_ZN12ActorUnkRCMS19func_ov055_0213c6fcEv kind:function(arm,size=0x10c) addr:0x0213e13c
_ZN12ActorUnkRCMS19func_ov055_0213c808Ev kind:function(arm,size=0x254) addr:0x0213e248
_ZN12ActorUnkRCMS19func_ov055_0213ca5cEv kind:function(arm,size=0x24) addr:0x0213e49c
_ZN12ActorUnkRCMS19func_ov055_0213ca80Ev kind:function(arm,size=0xf8) addr:0x0213e4c0
_ZN12ActorUnkRCMS19func_ov055_0213cb78Ev kind:function(arm,size=0x1bc) addr:0x0213e5b8
_ZN12ActorUnkRCMS19func_ov055_0213cd34Ev kind:function(arm,size=0x160) addr:0x0213e774
_ZN12ActorUnkRCMS19func_ov055_0213ce94Ev kind:function(arm,size=0xc4) addr:0x0213e8d4
_ZN12ActorUnkRCMS19func_ov055_0213cf58Ev kind:function(arm,size=0x5c) addr:0x0213e998
_ZN12ActorUnkRCMS19func_ov055_0213cfb4Ev kind:function(arm,size=0x3c) addr:0x0213e9f4
_ZN12ActorUnkRCMS19func_ov055_0213cff0Ev kind:function(arm,size=0x78) addr:0x0213ea30
_ZN12ActorUnkRCMS19func_ov055_0213d068Ev kind:function(arm,size=0x4) addr:0x0213eaa8
_ZN12ActorUnkRCMS19func_ov055_0213d06cEv kind:function(arm,size=0xac) addr:0x0213eaac
_ZN12ActorUnkRCMS19func_ov055_0213d120Ev kind:function(arm,size=0x80) addr:0x0213eb58
_ZN12ActorUnkRCMS19func_ov055_0213d1a0Ev kind:function(arm,size=0x6c) addr:0x0213ebd8
_ZN12ActorUnkRCMS19func_ov055_0213d20cEv kind:function(arm,size=0x1c) addr:0x0213ec44
_ZN12ActorUnkRCMS19func_ov055_0213d228Ev kind:function(arm,size=0x1c) addr:0x0213ec60
_ZN19ActorProfileUnkRCMSD1Ev kind:function(arm,size=0x14) addr:0x0213ec7c
data_ov055_0213ec90 kind:data(any) addr:0x0213ec90
data_ov055_0213eca0 kind:data(any) addr:0x0213eca0
data_ov055_0213ecb0 kind:data(any) addr:0x0213ecb0
__sinit_ActorUnkCHUC.cpp kind:function(arm,size=0x6c) addr:0x0213ecc0
__sinit_ActorUnkRCHU.cpp kind:function(arm,size=0x6c) addr:0x0213ed2c
__sinit_ActorUnkRCMS.cpp kind:function(arm,size=0x94) addr:0x0213ed98
.p__sinit_ActorUnkCHUC.cpp kind:data(word) addr:0x0213ee2c
.p__sinit_ActorUnkRCHU.cpp kind:data(word) addr:0x0213ee30
.p__sinit_ActorUnkRCMS.cpp kind:data(word) addr:0x0213ee34
data_ov055_0213ee48 kind:data(any) addr:0x0213ee48
data_ov055_0213ee74 kind:data(any) addr:0x0213ee74
_ZTV19data_ov055_0213eeb8 kind:data(any) addr:0x0213eeb8
data_ov055_0213ef40 kind:data(any) addr:0x0213ef40
data_ov055_0213ef4c kind:data(any) addr:0x0213ef4c
data_ov055_0213ef5c kind:data(any) addr:0x0213ef5c
data_ov055_0213ef6c kind:data(any) addr:0x0213ef6c
_ZTV19data_ov055_0213ef84 kind:data(any) addr:0x0213ef84
data_ov055_0213efb0 kind:data(any) addr:0x0213efb0
data_ov055_0213eff0 kind:data(any) addr:0x0213eff0
data_ov055_0213f040 kind:data(any) addr:0x0213f040 ambiguous
data_ov055_0213f048 kind:data(any) addr:0x0213f048
_ZTV19data_ov055_0213f0a0 kind:data(any) addr:0x0213f0a0
data_ov055_0213f128 kind:data(any) addr:0x0213f128
data_ov055_0213f1a0 kind:data(any) addr:0x0213f1a0
data_ov055_0213f1b8 kind:data(any) addr:0x0213f1b8
data_ov055_0213f1cc kind:data(any) addr:0x0213f1cc
_ZTV19data_ov055_0213f1d8 kind:data(any) addr:0x0213f1d8
data_ov055_0213f204 kind:data(any) addr:0x0213f204
data_ov055_0213f224 kind:data(any) addr:0x0213f224
data_ov055_0213f274 kind:data(any) addr:0x0213f274
_ZTV19data_ov055_0213f2c4 kind:data(any) addr:0x0213f2c4
data_ov055_0213f34c kind:data(any) addr:0x0213f34c
data_ov055_0213f3dc kind:data(any) addr:0x0213f3dc
data_ov055_0213f46c kind:data(any) addr:0x0213f46c
data_ov055_0213f480 kind:data(any) addr:0x0213f480
data_ov055_0213f4b8 kind:data(any) addr:0x0213f4b8
data_ov055_0213f4f8 kind:data(any) addr:0x0213f4f8
data_ov055_0213f510 kind:data(any) addr:0x0213f510
_ZTV19data_ov055_0213f524 kind:data(any) addr:0x0213f524
data_ov055_0213f550 kind:data(any) addr:0x0213f550
_ZTV19data_ov055_0213f594 kind:data(any) addr:0x0213f594
_ZGVN15ProfileInstanceI19ActorProfileUnkCHUCE8sProfileE kind:bss addr:0x0213f600
@31955 kind:bss addr:0x0213f604
_ZN15ProfileInstanceI19ActorProfileUnkCHUCE8sProfileE kind:bss addr:0x0213f610
_ZGVN15ProfileInstanceI19ActorProfileUnkRCHUE8sProfileE kind:bss addr:0x0213f6e8
@31961 kind:bss addr:0x0213f6ec
_ZN15ProfileInstanceI19ActorProfileUnkRCHUE8sProfileE kind:bss addr:0x0213f6f8
data_ov055_0213f73c kind:bss addr:0x0213f73c
data_ov055_0213f740 kind:bss addr:0x0213f740
_ZN15ProfileInstanceI19ActorProfileUnkRCMSE8sProfileE kind:bss addr:0x0213f74c
